(dp1
S'ML'
p2
(dp3
S'type'
p4
S'integer'
p5
sS'sortable'
p6
I6
sS'sql'
p7
S'INTEGER'
p8
ssS'id'
p9
(dp10
g4
g9
sg6
I1
sg7
S'INTEGER PRIMARY KEY AUTOINCREMENT'
p11
ssS'year'
p12
(dp13
g4
S'string'
p14
sg6
I2
sg7
S'CHAR(512)'
p15
ssS'D2'
p16
(dp17
g4
g5
sg6
I4
sg7
S'INTEGER'
p18
ssS'D3'
p19
(dp20
g4
g5
sg6
I5
sg7
S'INTEGER'
p21
ssS'D1'
p22
(dp23
g4
g5
sg6
I3
sg7
S'INTEGER'
p24
ss.