(dp1
S'output'
p2
S"<type 'exceptions.SyntaxError'> invalid syntax (nedit.html, line 83)"
p3
sS'layer'
p4
S'/home/unic/web2py/applications/manager/views/default/nedit.html'
p5
sS'code'
p6
S'response.write(\'<!DOCTYPE html PUBLIC "-//W3C//DTD XHTML 1.0 Transitional//EN" "http://www.w3.org/TR/xhtml1/DTD/xhtml1-transitional.dtd">\\n<!--\\nAuthor: Reality Software\\nWebsite: http://www.realitysoftware.ca\\nNote: This is a free template released under the Creative Commons Attribution 3.0 license, \\nwhich means you can use it in any way you want provided you keep links to the author intact.\\n-->\\n<html xmlns="http://www.w3.org/1999/xhtml">\\n <head>\\n  <title>\\n   \', escape=False)\nresponse.write(response.title or request.application)\nresponse.write(\'\\n  </title>\\n  \', escape=False)\nresponse.files.append(URL(request.application,\'static\',\'plugin_layouts/layouts/Papira/style.css\'))\nresponse.write(\'\\n  \', escape=False)\nresponse.files.append(URL(\'static\',\'plugin_layouts/superfish.js\'))\nresponse.write(\'\\n  \', escape=False)\nresponse.write(\'<script type="text/javascript"><!--\\n    // These variables are used by the web2py_ajax_init function in web2py_ajax.js (which is loaded below).\\n    var w2p_ajax_confirm_message = "\', escape=False)\nresponse.write(T(\'Are you sure you want to delete this object?\'))\nresponse.write(\'";\\n    var w2p_ajax_date_format = "\', escape=False)\nresponse.write(T(\'%Y-%m-%d\'))\nresponse.write(\'";\\n    var w2p_ajax_datetime_format = "\', escape=False)\nresponse.write(T(\'%Y-%m-%d %H:%M:%S\'))\nresponse.write(\'";\\n    //--></script>\\n\', escape=False)\nresponse.files.insert(0,URL(\'static\',\'js/jquery.js\'))\nresponse.files.insert(3,URL(\'static\',\'js/web2py.js\'))\nresponse.include_meta()\nresponse.include_files()\nresponse.write(\'\\n\', escape=False)\nresponse.write(\'\\n  <style>\\nul.web2py-menu-vertical { width: 150px; position: relative; top:1em; left:1em;  z-index:30; border:0; margin:0; padding: 0; list-style: none; text-decoration: none;}\\nul.web2py-menu-vertical li { margin:0; padding:0; border:0; width: 150px; background: black; text-align:left;}\\nul.web2py-menu-vertical li a { margin:0; padding: 1px 3px 1px 3px; border:0; width: 144px; color: white; font-size:12px;}\\ndiv.flash { position: fixed; float: right; padding: 10px; top: 10px; right: 30px; opacity: 0.75; margin: 10px 10px 10px 10px; text-align: center; clear: both; color: #fff; font-size: 11pt; text-align: center; vertical-align: middle; cursor: pointer; background: black; border: 2px solid #fff; -moz-border-radius: 5px; -webkit-border-radius: 5px; z-index: 2; }\\ndiv.error { background-color: red; color: white; padding: 3px; }\\n.auth_navbar { text-align:right; z-index:20; position: absolute; top: 2px; right:30px; border:0; padding:0 }\\n  </style>\\n </head>\\n <body>\\n\\n\\n  <div id="all">\\n   <div id="container">\\n    <!-- header -->\\n       <div id="logo" font-size:40px >\\n     <a href="#">\\n      <span class="brown">\\n       <strong>\\n        Award\\n       </strong>\\n      </span>\\n      Manager\\n     </a>\\n    </div>\\n    <div id="menu">\\n        <a href="\', escape=False)\nresponse.write(URL(r = request, f = \'logout\'))\nresponse.write(\'">Logout</a>\\n       </div>\\n   \\n     \', escape=False)\nif session.token=="neeharikak.v@students.iiit.ac.in" :\n    response.write(\'\\n          <div id="sidebar">\\n        <br/><br/><br/>\\n     <table>\\n     <h2>\\n         <tr><td><b>&nbsp;&nbsp;&nbsp;&nbsp;&nbsp;&nbsp;&nbsp;&nbsp;&nbsp;&nbsp;&nbsp;&nbsp;&nbsp;<a href="\', escape=False)\n    response.write(URL(r = request, f = \'index\'))\n    response.write(\'">Home</a> </b></td></tr>\\n        \\n        \\n     <tr><td><b>&nbsp;&nbsp;&nbsp;&nbsp;&nbsp;&nbsp;&nbsp;&nbsp;&nbsp;&nbsp;&nbsp;&nbsp;&nbsp;<a href="\', escape=False)\n    response.write(URL(r = request, f = \'Admin\'))\n    response.write(\'">Amount</a></b></td></tr>\\n     <tr><td><b>&nbsp;&nbsp;&nbsp;&nbsp;&nbsp;&nbsp;&nbsp;&nbsp;&nbsp;&nbsp;&nbsp;&nbsp;&nbsp;<a href="\', escape=False)\n    response.write(URL(r = request, f = \'upload\'))\n    response.write(\'">Students List</a></b></td></tr>\\n         <tr><td>&nbsp;&nbsp;&nbsp;&nbsp;&nbsp;&nbsp;&nbsp;&nbsp;&nbsp;&nbsp;&nbsp;&nbsp;&nbsp;<b><a href="\', escape=False)\n    response.write(URL(r = request, f = \'upload1\'))\n    response.write(\'">Book List</a></b></td></tr>\\n          <tr><td>&nbsp;&nbsp;&nbsp;&nbsp;&nbsp;&nbsp;&nbsp;&nbsp;&nbsp;&nbsp;&nbsp;&nbsp;&nbsp;<b><a href="\', escape=False)\n    response.write(URL(r = request, f = \'edit\'))\n    response.write(\'">Edit Book List</a></b></td></tr>\\n     <tr><td>&nbsp;&nbsp;&nbsp;&nbsp;&nbsp;&nbsp;&nbsp;&nbsp;&nbsp;&nbsp;&nbsp;&nbsp;&nbsp;<b><a href="\', escape=False)\n    response.write(URL(r = request, f = \'choose\'))\n    response.write(\'">Allot</a></b></td></tr>\\n         \', escape=False)\n    id1=0\n    response.write(\'\\n         \', escape=False)\n    for rows in db(db.Admin).select():\n        response.write(\'\\n\', escape=False)\n        id1 =id1 +1\n        response.write(\'\\n\', escape=False)\n        pass\n    response.write(\'\\n         \', escape=False)\n    if id1 != 0:\n        response.write(\'\\n     <tr><td><b>&nbsp;&nbsp;&nbsp;&nbsp;&nbsp;&nbsp;&nbsp;&nbsp;&nbsp;&nbsp;&nbsp;&nbsp;&nbsp;<a href="\', escape=False)\n        response.write(URL(r = request, f = \'total\'))\n        response.write(\'">Output</a></b></td></tr>\\n         \', escape=False)\n        pass\n    response.write(\'\\n          \', escape=False)\n    if id1 == 0:\n        response.write(\'\\n     <tr><td><b>&nbsp;&nbsp;&nbsp;&nbsp;&nbsp;&nbsp;&nbsp;&nbsp;&nbsp;&nbsp;&nbsp;&nbsp;&nbsp;<a href="\', escape=False)\n        response.write(URL(r = request, f = \'error\'))\n        response.write(\'">Output</a></b></td></tr>\\n         \', escape=False)\n        pass\n    response.write(\'\\n         \\n         <tr><td><b>&nbsp;&nbsp;&nbsp;&nbsp;&nbsp;&nbsp;&nbsp;&nbsp;&nbsp;&nbsp;&nbsp;&nbsp;&nbsp;<a href="\', escape=False)\n    response.write(URL(r = request, f = \'alloted\'))\n    response.write(\'">Alloted_students</a></b><td></tr>\\n     <tr><td><b>&nbsp;&nbsp;&nbsp;&nbsp;&nbsp;&nbsp;&nbsp;&nbsp;&nbsp;&nbsp;&nbsp;&nbsp;&nbsp;<a href="\', escape=False)\n    response.write(URL(r = request, f = \'label\'))\n    response.write(\'">Get_labels</a></b></td></tr>\\n     <tr><td><b>&nbsp;&nbsp;&nbsp;&nbsp;&nbsp;&nbsp;&nbsp;&nbsp;&nbsp;&nbsp;&nbsp;&nbsp;&nbsp;<a href="\', escape=False)\n    response.write(URL(r = request, f = \'drop1m\'))\n    response.write(\'">Done</a></b></td></tr>\\n      <tr><td><b>&nbsp;&nbsp;&nbsp;&nbsp;&nbsp;&nbsp;&nbsp;&nbsp;&nbsp;&nbsp;&nbsp;&nbsp;&nbsp;<a href="\', escape=False)\n    response.write(URL(r = request, f = \'logout\'))\n    response.write(\'">Logout</a></b></td></tr>\\n      </h2>\\n         </table>\\n         </div>\\n      \', escape=False)\n    pass\nresponse.write(\'\\n         \\n         \\n         \', escape=False)\nif session.token!="neeharikak.v@students.iiit.ac.in" :\n    response.write(\'\\n         <div id="sidebar">\\n         <table>\\n         <h2>\\n             <br/><br/><br/>\\n             <tr><td>&nbsp;&nbsp;&nbsp;&nbsp;&nbsp;&nbsp;&nbsp;&nbsp;&nbsp;&nbsp;&nbsp;&nbsp;&nbsp;<b><a href="\', escape=False)\n    response.write(URL(r = request, f = \'index\'))\n    response.write(\'">HOME</a></b></td></tr>\\n             <tr><td>&nbsp;&nbsp;&nbsp;&nbsp;&nbsp;&nbsp;&nbsp;&nbsp;&nbsp;&nbsp;&nbsp;&nbsp;&nbsp;<b><a href="\', escape=False)\n    response.write(URL(r = request, f = \'choose1\'))\n    response.write(\'">BOOKS</a></b></td></tr>\\n             \\n         <tr><td>&nbsp;&nbsp;&nbsp;&nbsp;&nbsp;&nbsp;&nbsp;&nbsp;&nbsp;&nbsp;&nbsp;&nbsp;&nbsp;<b><a href="\', escape=False)\n    response.write(URL(r = request, f = \'preference\'))\n    response.write(\'">LANGUAGE </a></b></td></tr>\\n         \\n        \\n          </h2>\\n    </table>\\n      \\n       </div>\\n         \', escape=False)\n    pass\nresponse.write(\'\\n        \\n    <script>\\n      jQuery(document).ready(function(){jQuery(\\\'ul.web2py-menu\\\').superfish({delay:400});});\\n    </script>\\n    </div>\\n    <!--end header -->\\n    <!-- main -->\\n    <div id="main">\\n     <div class="flash">\', escape=False)\nresponse.write(response.flash or \'\')\nresponse.write(\'</div>\\n     \', escape=False)\nresponse.write(\'\\n\', escape=False)\nresponse.write(FORM(INPUT(_type=\'file\',_name=\'csvfile\'),INPUT(_type=\'hidden\',_value=\'User\',_name=\'table\'),INPUT(_type=\'submit\',_value=\'Upload\')))\nresponse.write(\'\\n\', escape=False)\nresponse.write(FORM(INPUT(_type=\'file\',_name=\'dash\'))\nresponse.write(\'\\n\', escape=False)\nresponse.write(form3)\nresponse.write(\'\\n\', escape=False)\nresponse.write(\'\\n    </div>\\n    <!-- end main -->\\n    <!-- footer -->\\n    <div id="footer">\\n     <div id="left_footer">\\n      &copy; Copyright 2008 Your website\\n     </div>\\n     <div id="right_footer">\\n      <!-- Please do not change or delete this links. Read the license! Thanks. :-) -->\\n      <a href="http://www.realitysoftware.ca/website-design.html">\\n       Website design\\n      </a>\\n      by\\n      <a href="http://www.realitysoftware.ca">\\n       Reality Software\\n      </a>\\n     </div>\\n    </div>\\n    <!-- end footer -->\\n   </div>\\n  </div>\\n </body>\\n</html>\\n\', escape=False)'
p7
sS'snapshot'
p8
(dp9
S'exception'
p10
(dp11
S'__getslice__'
p12
S"<method-wrapper '__getslice__' of exceptions.SyntaxError object>"
p13
sS'text'
p14
S'"response.write(\'\\\\n\', escape=False)\\n"'
p15
sS'__str__'
p16
S"<method-wrapper '__str__' of exceptions.SyntaxError object>"
p17
sS'__reduce__'
p18
S'<built-in method __reduce__ of exceptions.SyntaxError object>'
p19
sS'__dict__'
p20
S'{}'
p21
sS'__sizeof__'
p22
S'<built-in method __sizeof__ of exceptions.SyntaxError object>'
p23
sS'__init__'
p24
S"<method-wrapper '__init__' of exceptions.SyntaxError object>"
p25
sS'__setattr__'
p26
S"<method-wrapper '__setattr__' of exceptions.SyntaxError object>"
p27
sS'__reduce_ex__'
p28
S'<built-in method __reduce_ex__ of exceptions.SyntaxError object>'
p29
sS'__new__'
p30
S'<built-in method __new__ of type object>'
p31
sS'__format__'
p32
S'<built-in method __format__ of exceptions.SyntaxError object>'
p33
sS'__class__'
p34
S"<type 'exceptions.SyntaxError'>"
p35
sS'filename'
p36
S"'/home/unic/web2py/applications/manager/views/default/nedit.html'"
p37
sS'lineno'
p38
S'83'
p39
sS'msg'
p40
S"'invalid syntax'"
p41
sS'__doc__'
p42
S"'Invalid syntax.'"
p43
sS'__getitem__'
p44
S"<method-wrapper '__getitem__' of exceptions.SyntaxError object>"
p45
sS'__setstate__'
p46
S'<built-in method __setstate__ of exceptions.SyntaxError object>'
p47
sS'__getattribute__'
p48
S"<method-wrapper '__getattribute__' of exceptions.SyntaxError object>"
p49
sS'print_file_and_line'
p50
S'None'
p51
sS'args'
p52
S'(\'invalid syntax\', (\'/home/unic/web2py/applications/manager/views/default/nedit.html\', 83, 8, "response.write(\'\\\\n\', escape=False)\\n"))'
p53
sS'__subclasshook__'
p54
S'<built-in method __subclasshook__ of type object>'
p55
sS'offset'
p56
S'8'
sS'__unicode__'
p57
S'<built-in method __unicode__ of exceptions.SyntaxError object>'
p58
sS'__delattr__'
p59
S"<method-wrapper '__delattr__' of exceptions.SyntaxError object>"
p60
sS'__repr__'
p61
S"<method-wrapper '__repr__' of exceptions.SyntaxError object>"
p62
sS'__hash__'
p63
S"<method-wrapper '__hash__' of exceptions.SyntaxError object>"
p64
ssS'evalue'
p65
S'invalid syntax (nedit.html, line 83)'
p66
sS'request'
p67
ccopy_reg
_reconstructor
p68
(cgluon.html
BEAUTIFY
p69
c__builtin__
object
p70
NtRp71
(dp72
S'attributes'
p73
(dp74
sS'components'
p75
(lp76
g68
(cgluon.html
TABLE
p77
g70
NtRp78
(dp79
g73
(dp80
S'level'
p81
I5
ssS'parent'
p82
Nsg75
(lp83
g68
(cgluon.html
TR
p84
g70
NtRp85
(dp86
g73
(dp87
sg82
g78
sg75
(lp88
g68
(cgluon.html
TD
p89
g70
NtRp90
(dp91
g73
(dp92
S'_style'
p93
S'font-weight:bold;vertical-align:top'
p94
ssg82
g85
sg75
(lp95
S'ajax'
p96
asbag68
(g89
g70
NtRp97
(dp98
g73
(dp99
S'_valign'
p100
S'top'
p101
ssg82
g85
sg75
(lp102
S':'
asbag68
(g89
g70
NtRp103
(dp104
g73
(dp105
sg82
g85
sg75
(lp106
g68
(g69
g70
NtRp107
(dp108
g73
(dp109
g81
I5
ssg82
g103
sg75
(lp110
S'False'
p111
asbasbasbag68
(g84
g70
NtRp112
(dp113
g73
(dp114
sg82
g78
sg75
(lp115
g68
(g89
g70
NtRp116
(dp117
g73
(dp118
g93
g94
ssg82
g112
sg75
(lp119
S'application'
p120
asbag68
(g89
g70
NtRp121
(dp122
g73
(dp123
g100
g101
ssg82
g112
sg75
(lp124
S':'
asbag68
(g89
g70
NtRp125
(dp126
g73
(dp127
sg82
g112
sg75
(lp128
g68
(g69
g70
NtRp129
(dp130
g73
(dp131
g81
I5
ssg82
g125
sg75
(lp132
S'manager'
p133
asbasbasbag68
(g84
g70
NtRp134
(dp135
g73
(dp136
sg82
g78
sg75
(lp137
g68
(g89
g70
NtRp138
(dp139
g73
(dp140
g93
g94
ssg82
g134
sg75
(lp141
g52
asbag68
(g89
g70
NtRp142
(dp143
g73
(dp144
g100
g101
ssg82
g134
sg75
(lp145
S':'
asbag68
(g89
g70
NtRp146
(dp147
g73
(dp148
sg82
g134
sg75
(lp149
g68
(g69
g70
NtRp150
(dp151
g73
(dp152
g81
I5
ssg82
g146
sg75
(lp153
g68
(g77
g70
NtRp154
(dp155
g73
(dp156
g81
I4
ssg82
Nsg75
(lp157
g68
(g84
g70
NtRp158
(dp159
g73
(dp160
sg82
g154
sg75
(lp161
g68
(g89
g70
NtRp162
(dp163
g73
(dp164
sg82
g158
sg75
(lp165
g68
(g69
g70
NtRp166
(dp167
g73
(dp168
g81
I4
ssg82
g162
sg75
(lp169
S'851'
p170
asbasbasbasbasbasbasbag68
(g84
g70
NtRp171
(dp172
g73
(dp173
sg82
g78
sg75
(lp174
g68
(g89
g70
NtRp175
(dp176
g73
(dp177
g93
g94
ssg82
g171
sg75
(lp178
S'body'
p179
asbag68
(g89
g70
NtRp180
(dp181
g73
(dp182
g100
g101
ssg82
g171
sg75
(lp183
S':'
asbag68
(g89
g70
NtRp184
(dp185
g73
(dp186
sg82
g171
sg75
(lp187
g68
(g69
g70
NtRp188
(dp189
g73
(dp190
g81
I5
ssg82
g184
sg75
(lp191
S'<cStringIO.StringO object at 0xb4acaac0>'
p192
asbasbasbag68
(g84
g70
NtRp193
(dp194
g73
(dp195
sg82
g78
sg75
(lp196
g68
(g89
g70
NtRp197
(dp198
g73
(dp199
g93
g94
ssg82
g193
sg75
(lp200
S'client'
p201
asbag68
(g89
g70
NtRp202
(dp203
g73
(dp204
g100
g101
ssg82
g193
sg75
(lp205
S':'
asbag68
(g89
g70
NtRp206
(dp207
g73
(dp208
sg82
g193
sg75
(lp209
g68
(g69
g70
NtRp210
(dp211
g73
(dp212
g81
I5
ssg82
g206
sg75
(lp213
S'127.0.0.1'
p214
asbasbasbag68
(g84
g70
NtRp215
(dp216
g73
(dp217
sg82
g78
sg75
(lp218
g68
(g89
g70
NtRp219
(dp220
g73
(dp221
g93
g94
ssg82
g215
sg75
(lp222
S'controller'
p223
asbag68
(g89
g70
NtRp224
(dp225
g73
(dp226
g100
g101
ssg82
g215
sg75
(lp227
S':'
asbag68
(g89
g70
NtRp228
(dp229
g73
(dp230
sg82
g215
sg75
(lp231
g68
(g69
g70
NtRp232
(dp233
g73
(dp234
g81
I5
ssg82
g228
sg75
(lp235
S'default'
p236
asbasbasbag68
(g84
g70
NtRp237
(dp238
g73
(dp239
sg82
g78
sg75
(lp240
g68
(g89
g70
NtRp241
(dp242
g73
(dp243
g93
g94
ssg82
g237
sg75
(lp244
S'cookies'
p245
asbag68
(g89
g70
NtRp246
(dp247
g73
(dp248
g100
g101
ssg82
g237
sg75
(lp249
S':'
asbag68
(g89
g70
NtRp250
(dp251
g73
(dp252
sg82
g237
sg75
(lp253
g68
(g69
g70
NtRp254
(dp255
g73
(dp256
g81
I5
ssg82
g250
sg75
(lp257
g68
(g77
g70
NtRp258
(dp259
g73
(dp260
g81
I4
ssg82
Nsg75
(lp261
g68
(g84
g70
NtRp262
(dp263
g73
(dp264
sg82
g258
sg75
(lp265
g68
(g89
g70
NtRp266
(dp267
g73
(dp268
g93
g94
ssg82
g262
sg75
(lp269
S'session_id_admin'
p270
asbag68
(g89
g70
NtRp271
(dp272
g73
(dp273
g100
g101
ssg82
g262
sg75
(lp274
S':'
asbag68
(g89
g70
NtRp275
(dp276
g73
(dp277
sg82
g262
sg75
(lp278
g68
(g69
g70
NtRp279
(dp280
g73
(dp281
g81
I4
ssg82
g275
sg75
(lp282
g68
(g77
g70
NtRp283
(dp284
g73
(dp285
g81
I3
ssg82
Nsg75
(lp286
g68
(g84
g70
NtRp287
(dp288
g73
(dp289
sg82
g283
sg75
(lp290
g68
(g89
g70
NtRp291
(dp292
g73
(dp293
g93
g94
ssg82
g287
sg75
(lp294
S'comment'
p295
asbag68
(g89
g70
NtRp296
(dp297
g73
(dp298
g100
g101
ssg82
g287
sg75
(lp299
S':'
asbag68
(g89
g70
NtRp300
(dp301
g73
(dp302
sg82
g287
sg75
(lp303
g68
(g69
g70
NtRp304
(dp305
g73
(dp306
g81
I3
ssg82
g300
sg75
(lp307
S''
asbasbasbag68
(g84
g70
NtRp308
(dp309
g73
(dp310
sg82
g283
sg75
(lp311
g68
(g89
g70
NtRp312
(dp313
g73
(dp314
g93
g94
ssg82
g308
sg75
(lp315
S'domain'
p316
asbag68
(g89
g70
NtRp317
(dp318
g73
(dp319
g100
g101
ssg82
g308
sg75
(lp320
S':'
asbag68
(g89
g70
NtRp321
(dp322
g73
(dp323
sg82
g308
sg75
(lp324
g68
(g69
g70
NtRp325
(dp326
g73
(dp327
g81
I3
ssg82
g321
sg75
(lp328
S''
asbasbasbag68
(g84
g70
NtRp329
(dp330
g73
(dp331
sg82
g283
sg75
(lp332
g68
(g89
g70
NtRp333
(dp334
g73
(dp335
g93
g94
ssg82
g329
sg75
(lp336
S'expires'
p337
asbag68
(g89
g70
NtRp338
(dp339
g73
(dp340
g100
g101
ssg82
g329
sg75
(lp341
S':'
asbag68
(g89
g70
NtRp342
(dp343
g73
(dp344
sg82
g329
sg75
(lp345
g68
(g69
g70
NtRp346
(dp347
g73
(dp348
g81
I3
ssg82
g342
sg75
(lp349
S''
asbasbasbag68
(g84
g70
NtRp350
(dp351
g73
(dp352
sg82
g283
sg75
(lp353
g68
(g89
g70
NtRp354
(dp355
g73
(dp356
g93
g94
ssg82
g350
sg75
(lp357
S'httponly'
p358
asbag68
(g89
g70
NtRp359
(dp360
g73
(dp361
g100
g101
ssg82
g350
sg75
(lp362
S':'
asbag68
(g89
g70
NtRp363
(dp364
g73
(dp365
sg82
g350
sg75
(lp366
g68
(g69
g70
NtRp367
(dp368
g73
(dp369
g81
I3
ssg82
g363
sg75
(lp370
S''
asbasbasbag68
(g84
g70
NtRp371
(dp372
g73
(dp373
sg82
g283
sg75
(lp374
g68
(g89
g70
NtRp375
(dp376
g73
(dp377
g93
g94
ssg82
g371
sg75
(lp378
S'max-age'
p379
asbag68
(g89
g70
NtRp380
(dp381
g73
(dp382
g100
g101
ssg82
g371
sg75
(lp383
S':'
asbag68
(g89
g70
NtRp384
(dp385
g73
(dp386
sg82
g371
sg75
(lp387
g68
(g69
g70
NtRp388
(dp389
g73
(dp390
g81
I3
ssg82
g384
sg75
(lp391
S''
asbasbasbag68
(g84
g70
NtRp392
(dp393
g73
(dp394
sg82
g283
sg75
(lp395
g68
(g89
g70
NtRp396
(dp397
g73
(dp398
g93
g94
ssg82
g392
sg75
(lp399
S'path'
p400
asbag68
(g89
g70
NtRp401
(dp402
g73
(dp403
g100
g101
ssg82
g392
sg75
(lp404
S':'
asbag68
(g89
g70
NtRp405
(dp406
g73
(dp407
sg82
g392
sg75
(lp408
g68
(g69
g70
NtRp409
(dp410
g73
(dp411
g81
I3
ssg82
g405
sg75
(lp412
S''
asbasbasbag68
(g84
g70
NtRp413
(dp414
g73
(dp415
sg82
g283
sg75
(lp416
g68
(g89
g70
NtRp417
(dp418
g73
(dp419
g93
g94
ssg82
g413
sg75
(lp420
S'secure'
p421
asbag68
(g89
g70
NtRp422
(dp423
g73
(dp424
g100
g101
ssg82
g413
sg75
(lp425
S':'
asbag68
(g89
g70
NtRp426
(dp427
g73
(dp428
sg82
g413
sg75
(lp429
g68
(g69
g70
NtRp430
(dp431
g73
(dp432
g81
I3
ssg82
g426
sg75
(lp433
S''
asbasbasbag68
(g84
g70
NtRp434
(dp435
g73
(dp436
sg82
g283
sg75
(lp437
g68
(g89
g70
NtRp438
(dp439
g73
(dp440
g93
g94
ssg82
g434
sg75
(lp441
S'version'
p442
asbag68
(g89
g70
NtRp443
(dp444
g73
(dp445
g100
g101
ssg82
g434
sg75
(lp446
S':'
asbag68
(g89
g70
NtRp447
(dp448
g73
(dp449
sg82
g434
sg75
(lp450
g68
(g69
g70
NtRp451
(dp452
g73
(dp453
g81
I3
ssg82
g447
sg75
(lp454
S''
asbasbasbasbasbasbasbag68
(g84
g70
NtRp455
(dp456
g73
(dp457
sg82
g258
sg75
(lp458
g68
(g89
g70
NtRp459
(dp460
g73
(dp461
g93
g94
ssg82
g455
sg75
(lp462
S'session_id_manager'
p463
asbag68
(g89
g70
NtRp464
(dp465
g73
(dp466
g100
g101
ssg82
g455
sg75
(lp467
S':'
asbag68
(g89
g70
NtRp468
(dp469
g73
(dp470
sg82
g455
sg75
(lp471
g68
(g69
g70
NtRp472
(dp473
g73
(dp474
g81
I4
ssg82
g468
sg75
(lp475
g68
(g77
g70
NtRp476
(dp477
g73
(dp478
g81
I3
ssg82
Nsg75
(lp479
g68
(g84
g70
NtRp480
(dp481
g73
(dp482
sg82
g476
sg75
(lp483
g68
(g89
g70
NtRp484
(dp485
g73
(dp486
g93
g94
ssg82
g480
sg75
(lp487
g295
asbag68
(g89
g70
NtRp488
(dp489
g73
(dp490
g100
g101
ssg82
g480
sg75
(lp491
S':'
asbag68
(g89
g70
NtRp492
(dp493
g73
(dp494
sg82
g480
sg75
(lp495
g68
(g69
g70
NtRp496
(dp497
g73
(dp498
g81
I3
ssg82
g492
sg75
(lp499
S''
asbasbasbag68
(g84
g70
NtRp500
(dp501
g73
(dp502
sg82
g476
sg75
(lp503
g68
(g89
g70
NtRp504
(dp505
g73
(dp506
g93
g94
ssg82
g500
sg75
(lp507
g316
asbag68
(g89
g70
NtRp508
(dp509
g73
(dp510
g100
g101
ssg82
g500
sg75
(lp511
S':'
asbag68
(g89
g70
NtRp512
(dp513
g73
(dp514
sg82
g500
sg75
(lp515
g68
(g69
g70
NtRp516
(dp517
g73
(dp518
g81
I3
ssg82
g512
sg75
(lp519
S''
asbasbasbag68
(g84
g70
NtRp520
(dp521
g73
(dp522
sg82
g476
sg75
(lp523
g68
(g89
g70
NtRp524
(dp525
g73
(dp526
g93
g94
ssg82
g520
sg75
(lp527
g337
asbag68
(g89
g70
NtRp528
(dp529
g73
(dp530
g100
g101
ssg82
g520
sg75
(lp531
S':'
asbag68
(g89
g70
NtRp532
(dp533
g73
(dp534
sg82
g520
sg75
(lp535
g68
(g69
g70
NtRp536
(dp537
g73
(dp538
g81
I3
ssg82
g532
sg75
(lp539
S''
asbasbasbag68
(g84
g70
NtRp540
(dp541
g73
(dp542
sg82
g476
sg75
(lp543
g68
(g89
g70
NtRp544
(dp545
g73
(dp546
g93
g94
ssg82
g540
sg75
(lp547
g358
asbag68
(g89
g70
NtRp548
(dp549
g73
(dp550
g100
g101
ssg82
g540
sg75
(lp551
S':'
asbag68
(g89
g70
NtRp552
(dp553
g73
(dp554
sg82
g540
sg75
(lp555
g68
(g69
g70
NtRp556
(dp557
g73
(dp558
g81
I3
ssg82
g552
sg75
(lp559
S''
asbasbasbag68
(g84
g70
NtRp560
(dp561
g73
(dp562
sg82
g476
sg75
(lp563
g68
(g89
g70
NtRp564
(dp565
g73
(dp566
g93
g94
ssg82
g560
sg75
(lp567
g379
asbag68
(g89
g70
NtRp568
(dp569
g73
(dp570
g100
g101
ssg82
g560
sg75
(lp571
S':'
asbag68
(g89
g70
NtRp572
(dp573
g73
(dp574
sg82
g560
sg75
(lp575
g68
(g69
g70
NtRp576
(dp577
g73
(dp578
g81
I3
ssg82
g572
sg75
(lp579
S''
asbasbasbag68
(g84
g70
NtRp580
(dp581
g73
(dp582
sg82
g476
sg75
(lp583
g68
(g89
g70
NtRp584
(dp585
g73
(dp586
g93
g94
ssg82
g580
sg75
(lp587
g400
asbag68
(g89
g70
NtRp588
(dp589
g73
(dp590
g100
g101
ssg82
g580
sg75
(lp591
S':'
asbag68
(g89
g70
NtRp592
(dp593
g73
(dp594
sg82
g580
sg75
(lp595
g68
(g69
g70
NtRp596
(dp597
g73
(dp598
g81
I3
ssg82
g592
sg75
(lp599
S''
asbasbasbag68
(g84
g70
NtRp600
(dp601
g73
(dp602
sg82
g476
sg75
(lp603
g68
(g89
g70
NtRp604
(dp605
g73
(dp606
g93
g94
ssg82
g600
sg75
(lp607
g421
asbag68
(g89
g70
NtRp608
(dp609
g73
(dp610
g100
g101
ssg82
g600
sg75
(lp611
S':'
asbag68
(g89
g70
NtRp612
(dp613
g73
(dp614
sg82
g600
sg75
(lp615
g68
(g69
g70
NtRp616
(dp617
g73
(dp618
g81
I3
ssg82
g612
sg75
(lp619
S''
asbasbasbag68
(g84
g70
NtRp620
(dp621
g73
(dp622
sg82
g476
sg75
(lp623
g68
(g89
g70
NtRp624
(dp625
g73
(dp626
g93
g94
ssg82
g620
sg75
(lp627
g442
asbag68
(g89
g70
NtRp628
(dp629
g73
(dp630
g100
g101
ssg82
g620
sg75
(lp631
S':'
asbag68
(g89
g70
NtRp632
(dp633
g73
(dp634
sg82
g620
sg75
(lp635
g68
(g69
g70
NtRp636
(dp637
g73
(dp638
g81
I3
ssg82
g632
sg75
(lp639
S''
asbasbasbasbasbasbasbag68
(g84
g70
NtRp640
(dp641
g73
(dp642
sg82
g258
sg75
(lp643
g68
(g89
g70
NtRp644
(dp645
g73
(dp646
g93
g94
ssg82
g640
sg75
(lp647
S'session_id_managerold'
p648
asbag68
(g89
g70
NtRp649
(dp650
g73
(dp651
g100
g101
ssg82
g640
sg75
(lp652
S':'
asbag68
(g89
g70
NtRp653
(dp654
g73
(dp655
sg82
g640
sg75
(lp656
g68
(g69
g70
NtRp657
(dp658
g73
(dp659
g81
I4
ssg82
g653
sg75
(lp660
g68
(g77
g70
NtRp661
(dp662
g73
(dp663
g81
I3
ssg82
Nsg75
(lp664
g68
(g84
g70
NtRp665
(dp666
g73
(dp667
sg82
g661
sg75
(lp668
g68
(g89
g70
NtRp669
(dp670
g73
(dp671
g93
g94
ssg82
g665
sg75
(lp672
g295
asbag68
(g89
g70
NtRp673
(dp674
g73
(dp675
g100
g101
ssg82
g665
sg75
(lp676
S':'
asbag68
(g89
g70
NtRp677
(dp678
g73
(dp679
sg82
g665
sg75
(lp680
g68
(g69
g70
NtRp681
(dp682
g73
(dp683
g81
I3
ssg82
g677
sg75
(lp684
S''
asbasbasbag68
(g84
g70
NtRp685
(dp686
g73
(dp687
sg82
g661
sg75
(lp688
g68
(g89
g70
NtRp689
(dp690
g73
(dp691
g93
g94
ssg82
g685
sg75
(lp692
g316
asbag68
(g89
g70
NtRp693
(dp694
g73
(dp695
g100
g101
ssg82
g685
sg75
(lp696
S':'
asbag68
(g89
g70
NtRp697
(dp698
g73
(dp699
sg82
g685
sg75
(lp700
g68
(g69
g70
NtRp701
(dp702
g73
(dp703
g81
I3
ssg82
g697
sg75
(lp704
S''
asbasbasbag68
(g84
g70
NtRp705
(dp706
g73
(dp707
sg82
g661
sg75
(lp708
g68
(g89
g70
NtRp709
(dp710
g73
(dp711
g93
g94
ssg82
g705
sg75
(lp712
g337
asbag68
(g89
g70
NtRp713
(dp714
g73
(dp715
g100
g101
ssg82
g705
sg75
(lp716
S':'
asbag68
(g89
g70
NtRp717
(dp718
g73
(dp719
sg82
g705
sg75
(lp720
g68
(g69
g70
NtRp721
(dp722
g73
(dp723
g81
I3
ssg82
g717
sg75
(lp724
S''
asbasbasbag68
(g84
g70
NtRp725
(dp726
g73
(dp727
sg82
g661
sg75
(lp728
g68
(g89
g70
NtRp729
(dp730
g73
(dp731
g93
g94
ssg82
g725
sg75
(lp732
g358
asbag68
(g89
g70
NtRp733
(dp734
g73
(dp735
g100
g101
ssg82
g725
sg75
(lp736
S':'
asbag68
(g89
g70
NtRp737
(dp738
g73
(dp739
sg82
g725
sg75
(lp740
g68
(g69
g70
NtRp741
(dp742
g73
(dp743
g81
I3
ssg82
g737
sg75
(lp744
S''
asbasbasbag68
(g84
g70
NtRp745
(dp746
g73
(dp747
sg82
g661
sg75
(lp748
g68
(g89
g70
NtRp749
(dp750
g73
(dp751
g93
g94
ssg82
g745
sg75
(lp752
g379
asbag68
(g89
g70
NtRp753
(dp754
g73
(dp755
g100
g101
ssg82
g745
sg75
(lp756
S':'
asbag68
(g89
g70
NtRp757
(dp758
g73
(dp759
sg82
g745
sg75
(lp760
g68
(g69
g70
NtRp761
(dp762
g73
(dp763
g81
I3
ssg82
g757
sg75
(lp764
S''
asbasbasbag68
(g84
g70
NtRp765
(dp766
g73
(dp767
sg82
g661
sg75
(lp768
g68
(g89
g70
NtRp769
(dp770
g73
(dp771
g93
g94
ssg82
g765
sg75
(lp772
g400
asbag68
(g89
g70
NtRp773
(dp774
g73
(dp775
g100
g101
ssg82
g765
sg75
(lp776
S':'
asbag68
(g89
g70
NtRp777
(dp778
g73
(dp779
sg82
g765
sg75
(lp780
g68
(g69
g70
NtRp781
(dp782
g73
(dp783
g81
I3
ssg82
g777
sg75
(lp784
S''
asbasbasbag68
(g84
g70
NtRp785
(dp786
g73
(dp787
sg82
g661
sg75
(lp788
g68
(g89
g70
NtRp789
(dp790
g73
(dp791
g93
g94
ssg82
g785
sg75
(lp792
g421
asbag68
(g89
g70
NtRp793
(dp794
g73
(dp795
g100
g101
ssg82
g785
sg75
(lp796
S':'
asbag68
(g89
g70
NtRp797
(dp798
g73
(dp799
sg82
g785
sg75
(lp800
g68
(g69
g70
NtRp801
(dp802
g73
(dp803
g81
I3
ssg82
g797
sg75
(lp804
S''
asbasbasbag68
(g84
g70
NtRp805
(dp806
g73
(dp807
sg82
g661
sg75
(lp808
g68
(g89
g70
NtRp809
(dp810
g73
(dp811
g93
g94
ssg82
g805
sg75
(lp812
g442
asbag68
(g89
g70
NtRp813
(dp814
g73
(dp815
g100
g101
ssg82
g805
sg75
(lp816
S':'
asbag68
(g89
g70
NtRp817
(dp818
g73
(dp819
sg82
g805
sg75
(lp820
g68
(g69
g70
NtRp821
(dp822
g73
(dp823
g81
I3
ssg82
g817
sg75
(lp824
S''
asbasbasbasbasbasbasbag68
(g84
g70
NtRp825
(dp826
g73
(dp827
sg82
g258
sg75
(lp828
g68
(g89
g70
NtRp829
(dp830
g73
(dp831
g93
g94
ssg82
g825
sg75
(lp832
S'session_id_welcome'
p833
asbag68
(g89
g70
NtRp834
(dp835
g73
(dp836
g100
g101
ssg82
g825
sg75
(lp837
S':'
asbag68
(g89
g70
NtRp838
(dp839
g73
(dp840
sg82
g825
sg75
(lp841
g68
(g69
g70
NtRp842
(dp843
g73
(dp844
g81
I4
ssg82
g838
sg75
(lp845
g68
(g77
g70
NtRp846
(dp847
g73
(dp848
g81
I3
ssg82
Nsg75
(lp849
g68
(g84
g70
NtRp850
(dp851
g73
(dp852
sg82
g846
sg75
(lp853
g68
(g89
g70
NtRp854
(dp855
g73
(dp856
g93
g94
ssg82
g850
sg75
(lp857
g295
asbag68
(g89
g70
NtRp858
(dp859
g73
(dp860
g100
g101
ssg82
g850
sg75
(lp861
S':'
asbag68
(g89
g70
NtRp862
(dp863
g73
(dp864
sg82
g850
sg75
(lp865
g68
(g69
g70
NtRp866
(dp867
g73
(dp868
g81
I3
ssg82
g862
sg75
(lp869
S''
asbasbasbag68
(g84
g70
NtRp870
(dp871
g73
(dp872
sg82
g846
sg75
(lp873
g68
(g89
g70
NtRp874
(dp875
g73
(dp876
g93
g94
ssg82
g870
sg75
(lp877
g316
asbag68
(g89
g70
NtRp878
(dp879
g73
(dp880
g100
g101
ssg82
g870
sg75
(lp881
S':'
asbag68
(g89
g70
NtRp882
(dp883
g73
(dp884
sg82
g870
sg75
(lp885
g68
(g69
g70
NtRp886
(dp887
g73
(dp888
g81
I3
ssg82
g882
sg75
(lp889
S''
asbasbasbag68
(g84
g70
NtRp890
(dp891
g73
(dp892
sg82
g846
sg75
(lp893
g68
(g89
g70
NtRp894
(dp895
g73
(dp896
g93
g94
ssg82
g890
sg75
(lp897
g337
asbag68
(g89
g70
NtRp898
(dp899
g73
(dp900
g100
g101
ssg82
g890
sg75
(lp901
S':'
asbag68
(g89
g70
NtRp902
(dp903
g73
(dp904
sg82
g890
sg75
(lp905
g68
(g69
g70
NtRp906
(dp907
g73
(dp908
g81
I3
ssg82
g902
sg75
(lp909
S''
asbasbasbag68
(g84
g70
NtRp910
(dp911
g73
(dp912
sg82
g846
sg75
(lp913
g68
(g89
g70
NtRp914
(dp915
g73
(dp916
g93
g94
ssg82
g910
sg75
(lp917
g358
asbag68
(g89
g70
NtRp918
(dp919
g73
(dp920
g100
g101
ssg82
g910
sg75
(lp921
S':'
asbag68
(g89
g70
NtRp922
(dp923
g73
(dp924
sg82
g910
sg75
(lp925
g68
(g69
g70
NtRp926
(dp927
g73
(dp928
g81
I3
ssg82
g922
sg75
(lp929
S''
asbasbasbag68
(g84
g70
NtRp930
(dp931
g73
(dp932
sg82
g846
sg75
(lp933
g68
(g89
g70
NtRp934
(dp935
g73
(dp936
g93
g94
ssg82
g930
sg75
(lp937
g379
asbag68
(g89
g70
NtRp938
(dp939
g73
(dp940
g100
g101
ssg82
g930
sg75
(lp941
S':'
asbag68
(g89
g70
NtRp942
(dp943
g73
(dp944
sg82
g930
sg75
(lp945
g68
(g69
g70
NtRp946
(dp947
g73
(dp948
g81
I3
ssg82
g942
sg75
(lp949
S''
asbasbasbag68
(g84
g70
NtRp950
(dp951
g73
(dp952
sg82
g846
sg75
(lp953
g68
(g89
g70
NtRp954
(dp955
g73
(dp956
g93
g94
ssg82
g950
sg75
(lp957
g400
asbag68
(g89
g70
NtRp958
(dp959
g73
(dp960
g100
g101
ssg82
g950
sg75
(lp961
S':'
asbag68
(g89
g70
NtRp962
(dp963
g73
(dp964
sg82
g950
sg75
(lp965
g68
(g69
g70
NtRp966
(dp967
g73
(dp968
g81
I3
ssg82
g962
sg75
(lp969
S''
asbasbasbag68
(g84
g70
NtRp970
(dp971
g73
(dp972
sg82
g846
sg75
(lp973
g68
(g89
g70
NtRp974
(dp975
g73
(dp976
g93
g94
ssg82
g970
sg75
(lp977
g421
asbag68
(g89
g70
NtRp978
(dp979
g73
(dp980
g100
g101
ssg82
g970
sg75
(lp981
S':'
asbag68
(g89
g70
NtRp982
(dp983
g73
(dp984
sg82
g970
sg75
(lp985
g68
(g69
g70
NtRp986
(dp987
g73
(dp988
g81
I3
ssg82
g982
sg75
(lp989
S''
asbasbasbag68
(g84
g70
NtRp990
(dp991
g73
(dp992
sg82
g846
sg75
(lp993
g68
(g89
g70
NtRp994
(dp995
g73
(dp996
g93
g94
ssg82
g990
sg75
(lp997
g442
asbag68
(g89
g70
NtRp998
(dp999
g73
(dp1000
g100
g101
ssg82
g990
sg75
(lp1001
S':'
asbag68
(g89
g70
NtRp1002
(dp1003
g73
(dp1004
sg82
g990
sg75
(lp1005
g68
(g69
g70
NtRp1006
(dp1007
g73
(dp1008
g81
I3
ssg82
g1002
sg75
(lp1009
S''
asbasbasbasbasbasbasbasbasbasbasbag68
(g84
g70
NtRp1010
(dp1011
g73
(dp1012
sg82
g78
sg75
(lp1013
g68
(g89
g70
NtRp1014
(dp1015
g73
(dp1016
g93
g94
ssg82
g1010
sg75
(lp1017
S'env'
p1018
asbag68
(g89
g70
NtRp1019
(dp1020
g73
(dp1021
g100
g101
ssg82
g1010
sg75
(lp1022
S':'
asbag68
(g89
g70
NtRp1023
(dp1024
g73
(dp1025
sg82
g1010
sg75
(lp1026
g68
(g69
g70
NtRp1027
(dp1028
g73
(dp1029
g81
I5
ssg82
g1023
sg75
(lp1030
g68
(g77
g70
NtRp1031
(dp1032
g73
(dp1033
g81
I4
ssg82
Nsg75
(lp1034
g68
(g84
g70
NtRp1035
(dp1036
g73
(dp1037
sg82
g1031
sg75
(lp1038
g68
(g89
g70
NtRp1039
(dp1040
g73
(dp1041
g93
g94
ssg82
g1035
sg75
(lp1042
S'app_folders'
p1043
asbag68
(g89
g70
NtRp1044
(dp1045
g73
(dp1046
g100
g101
ssg82
g1035
sg75
(lp1047
S':'
asbag68
(g89
g70
NtRp1048
(dp1049
g73
(dp1050
sg82
g1035
sg75
(lp1051
g68
(g69
g70
NtRp1052
(dp1053
g73
(dp1054
g81
I4
ssg82
g1048
sg75
(lp1055
S"set(['/home/unic/web2py/applications/manager/', '/home/unic/web2py/applications/managerold/', '/home/unic/web2py/applications/admin/', '/home/unic/web2py/applications/welcome/'])"
p1056
asbasbasbag68
(g84
g70
NtRp1057
(dp1058
g73
(dp1059
sg82
g1031
sg75
(lp1060
g68
(g89
g70
NtRp1061
(dp1062
g73
(dp1063
g93
g94
ssg82
g1057
sg75
(lp1064
S'applications_parent'
p1065
asbag68
(g89
g70
NtRp1066
(dp1067
g73
(dp1068
g100
g101
ssg82
g1057
sg75
(lp1069
S':'
asbag68
(g89
g70
NtRp1070
(dp1071
g73
(dp1072
sg82
g1057
sg75
(lp1073
g68
(g69
g70
NtRp1074
(dp1075
g73
(dp1076
g81
I4
ssg82
g1070
sg75
(lp1077
S'/home/unic/web2py'
p1078
asbasbasbag68
(g84
g70
NtRp1079
(dp1080
g73
(dp1081
sg82
g1031
sg75
(lp1082
g68
(g89
g70
NtRp1083
(dp1084
g73
(dp1085
g93
g94
ssg82
g1079
sg75
(lp1086
S'cmd_args'
p1087
asbag68
(g89
g70
NtRp1088
(dp1089
g73
(dp1090
g100
g101
ssg82
g1079
sg75
(lp1091
S':'
asbag68
(g89
g70
NtRp1092
(dp1093
g73
(dp1094
sg82
g1079
sg75
(lp1095
g68
(g69
g70
NtRp1096
(dp1097
g73
(dp1098
g81
I4
ssg82
g1092
sg75
(lp1099
g68
(g77
g70
NtRp1100
(dp1101
g73
(dp1102
g81
I3
ssg82
Nsg75
(lp1103
sbasbasbasbag68
(g84
g70
NtRp1104
(dp1105
g73
(dp1106
sg82
g1031
sg75
(lp1107
g68
(g89
g70
NtRp1108
(dp1109
g73
(dp1110
g93
g94
ssg82
g1104
sg75
(lp1111
S'cmd_options'
p1112
asbag68
(g89
g70
NtRp1113
(dp1114
g73
(dp1115
g100
g101
ssg82
g1104
sg75
(lp1116
S':'
asbag68
(g89
g70
NtRp1117
(dp1118
g73
(dp1119
sg82
g1104
sg75
(lp1120
g68
(g69
g70
NtRp1121
(dp1122
g73
(dp1123
g81
I4
ssg82
g1117
sg75
(lp1124
S"<Values at 0x955280c: {'verbose': False, 'ip': '127.0.0.1', 'shutdown_timeout': 5, 'taskbar': False, 'port': 8000, 'maxthreads': None, 'softcron': False, 'server_name': 'unic-Inspiron-N5050', 'bpython': False, 'nogui': False, 'nocron': False, 'extcron': False, 'debuglevel': 30, 'test': None, 'folder': '/home/unic/web2py', 'config': '', 'import_models': False, 'winservice': '', 'shell': None, 'run': '', 'log_filename': 'httpserver.log', 'args': [''], 'socket_timeout': 1, 'profiler_filename': None, 'ssl_private_key': '', 'password': '<ask>', 'request_queue_size': 5, 'ssl_certificate': '', 'cronjob': False, 'plain': False, 'quiet': False, 'interfaces': None, 'minthreads': None, 'timeout': 10, 'numthreads': None, 'nobanner': False, 'pid_filename': 'httpserver.pid'}>"
p1125
asbasbasbag68
(g84
g70
NtRp1126
(dp1127
g73
(dp1128
sg82
g1031
sg75
(lp1129
g68
(g89
g70
NtRp1130
(dp1131
g73
(dp1132
g93
g94
ssg82
g1126
sg75
(lp1133
S'db_sessions'
p1134
asbag68
(g89
g70
NtRp1135
(dp1136
g73
(dp1137
g100
g101
ssg82
g1126
sg75
(lp1138
S':'
asbag68
(g89
g70
NtRp1139
(dp1140
g73
(dp1141
sg82
g1126
sg75
(lp1142
g68
(g69
g70
NtRp1143
(dp1144
g73
(dp1145
g81
I4
ssg82
g1139
sg75
(lp1146
S'set([])'
p1147
asbasbasbag68
(g84
g70
NtRp1148
(dp1149
g73
(dp1150
sg82
g1031
sg75
(lp1151
g68
(g89
g70
NtRp1152
(dp1153
g73
(dp1154
g93
g94
ssg82
g1148
sg75
(lp1155
S'debugging'
p1156
asbag68
(g89
g70
NtRp1157
(dp1158
g73
(dp1159
g100
g101
ssg82
g1148
sg75
(lp1160
S':'
asbag68
(g89
g70
NtRp1161
(dp1162
g73
(dp1163
sg82
g1148
sg75
(lp1164
g68
(g69
g70
NtRp1165
(dp1166
g73
(dp1167
g81
I4
ssg82
g1161
sg75
(lp1168
g111
asbasbasbag68
(g84
g70
NtRp1169
(dp1170
g73
(dp1171
sg82
g1031
sg75
(lp1172
g68
(g89
g70
NtRp1173
(dp1174
g73
(dp1175
g93
g94
ssg82
g1169
sg75
(lp1176
S'gluon_parent'
p1177
asbag68
(g89
g70
NtRp1178
(dp1179
g73
(dp1180
g100
g101
ssg82
g1169
sg75
(lp1181
S':'
asbag68
(g89
g70
NtRp1182
(dp1183
g73
(dp1184
sg82
g1169
sg75
(lp1185
g68
(g69
g70
NtRp1186
(dp1187
g73
(dp1188
g81
I4
ssg82
g1182
sg75
(lp1189
S'/usr/share/web2py'
p1190
asbasbasbag68
(g84
g70
NtRp1191
(dp1192
g73
(dp1193
sg82
g1031
sg75
(lp1194
g68
(g89
g70
NtRp1195
(dp1196
g73
(dp1197
g93
g94
ssg82
g1191
sg75
(lp1198
S'http_accept'
p1199
asbag68
(g89
g70
NtRp1200
(dp1201
g73
(dp1202
g100
g101
ssg82
g1191
sg75
(lp1203
S':'
asbag68
(g89
g70
NtRp1204
(dp1205
g73
(dp1206
sg82
g1191
sg75
(lp1207
g68
(g69
g70
NtRp1208
(dp1209
g73
(dp1210
g81
I4
ssg82
g1204
sg75
(lp1211
S'text/html,application/xhtml+xml,application/xml;q=0.9,*/*;q=0.8'
p1212
asbasbasbag68
(g84
g70
NtRp1213
(dp1214
g73
(dp1215
sg82
g1031
sg75
(lp1216
g68
(g89
g70
NtRp1217
(dp1218
g73
(dp1219
g93
g94
ssg82
g1213
sg75
(lp1220
S'http_accept_encoding'
p1221
asbag68
(g89
g70
NtRp1222
(dp1223
g73
(dp1224
g100
g101
ssg82
g1213
sg75
(lp1225
S':'
asbag68
(g89
g70
NtRp1226
(dp1227
g73
(dp1228
sg82
g1213
sg75
(lp1229
g68
(g69
g70
NtRp1230
(dp1231
g73
(dp1232
g81
I4
ssg82
g1226
sg75
(lp1233
S'gzip, deflate'
p1234
asbasbasbag68
(g84
g70
NtRp1235
(dp1236
g73
(dp1237
sg82
g1031
sg75
(lp1238
g68
(g89
g70
NtRp1239
(dp1240
g73
(dp1241
g93
g94
ssg82
g1235
sg75
(lp1242
S'http_accept_language'
p1243
asbag68
(g89
g70
NtRp1244
(dp1245
g73
(dp1246
g100
g101
ssg82
g1235
sg75
(lp1247
S':'
asbag68
(g89
g70
NtRp1248
(dp1249
g73
(dp1250
sg82
g1235
sg75
(lp1251
g68
(g69
g70
NtRp1252
(dp1253
g73
(dp1254
g81
I4
ssg82
g1248
sg75
(lp1255
S'en-us,en;q=0.5'
p1256
asbasbasbag68
(g84
g70
NtRp1257
(dp1258
g73
(dp1259
sg82
g1031
sg75
(lp1260
g68
(g89
g70
NtRp1261
(dp1262
g73
(dp1263
g93
g94
ssg82
g1257
sg75
(lp1264
S'http_connection'
p1265
asbag68
(g89
g70
NtRp1266
(dp1267
g73
(dp1268
g100
g101
ssg82
g1257
sg75
(lp1269
S':'
asbag68
(g89
g70
NtRp1270
(dp1271
g73
(dp1272
sg82
g1257
sg75
(lp1273
g68
(g69
g70
NtRp1274
(dp1275
g73
(dp1276
g81
I4
ssg82
g1270
sg75
(lp1277
S'keep-alive'
p1278
asbasbasbag68
(g84
g70
NtRp1279
(dp1280
g73
(dp1281
sg82
g1031
sg75
(lp1282
g68
(g89
g70
NtRp1283
(dp1284
g73
(dp1285
g93
g94
ssg82
g1279
sg75
(lp1286
S'http_cookie'
p1287
asbag68
(g89
g70
NtRp1288
(dp1289
g73
(dp1290
g100
g101
ssg82
g1279
sg75
(lp1291
S':'
asbag68
(g89
g70
NtRp1292
(dp1293
g73
(dp1294
sg82
g1279
sg75
(lp1295
g68
(g69
g70
NtRp1296
(dp1297
g73
(dp1298
g81
I4
ssg82
g1292
sg75
(lp1299
S'session_id_welcome=127.0.0.1-c761915d-b2ec-45f7-816d-33b669eb24bf; session_id_admin=127.0.0.1-4c6378b6-76f7-4935-8b02-824504518b8b; session_id_manager=127.0.0.1-9680a272-d22f-48db-9899-03542bdb9e98; session_id_managerold=127.0.0.1-e7a9f8ab-f73b-4ba5-99c7-7af84382aa04'
p1300
asbasbasbag68
(g84
g70
NtRp1301
(dp1302
g73
(dp1303
sg82
g1031
sg75
(lp1304
g68
(g89
g70
NtRp1305
(dp1306
g73
(dp1307
g93
g94
ssg82
g1301
sg75
(lp1308
S'http_host'
p1309
asbag68
(g89
g70
NtRp1310
(dp1311
g73
(dp1312
g100
g101
ssg82
g1301
sg75
(lp1313
S':'
asbag68
(g89
g70
NtRp1314
(dp1315
g73
(dp1316
sg82
g1301
sg75
(lp1317
g68
(g69
g70
NtRp1318
(dp1319
g73
(dp1320
g81
I4
ssg82
g1314
sg75
(lp1321
S'127.0.0.1:8000'
p1322
asbasbasbag68
(g84
g70
NtRp1323
(dp1324
g73
(dp1325
sg82
g1031
sg75
(lp1326
g68
(g89
g70
NtRp1327
(dp1328
g73
(dp1329
g93
g94
ssg82
g1323
sg75
(lp1330
S'http_referer'
p1331
asbag68
(g89
g70
NtRp1332
(dp1333
g73
(dp1334
g100
g101
ssg82
g1323
sg75
(lp1335
S':'
asbag68
(g89
g70
NtRp1336
(dp1337
g73
(dp1338
sg82
g1323
sg75
(lp1339
g68
(g69
g70
NtRp1340
(dp1341
g73
(dp1342
g81
I4
ssg82
g1336
sg75
(lp1343
S'http://127.0.0.1:8000/manager/default/edit'
p1344
asbasbasbag68
(g84
g70
NtRp1345
(dp1346
g73
(dp1347
sg82
g1031
sg75
(lp1348
g68
(g89
g70
NtRp1349
(dp1350
g73
(dp1351
g93
g94
ssg82
g1345
sg75
(lp1352
S'http_user_agent'
p1353
asbag68
(g89
g70
NtRp1354
(dp1355
g73
(dp1356
g100
g101
ssg82
g1345
sg75
(lp1357
S':'
asbag68
(g89
g70
NtRp1358
(dp1359
g73
(dp1360
sg82
g1345
sg75
(lp1361
g68
(g69
g70
NtRp1362
(dp1363
g73
(dp1364
g81
I4
ssg82
g1358
sg75
(lp1365
S'Mozilla/5.0 (X11; Ubuntu; Linux i686; rv:14.0) Gecko/20100101 Firefox/14.0.1'
p1366
asbasbasbag68
(g84
g70
NtRp1367
(dp1368
g73
(dp1369
sg82
g1031
sg75
(lp1370
g68
(g89
g70
NtRp1371
(dp1372
g73
(dp1373
g93
g94
ssg82
g1367
sg75
(lp1374
S'is_jython'
p1375
asbag68
(g89
g70
NtRp1376
(dp1377
g73
(dp1378
g100
g101
ssg82
g1367
sg75
(lp1379
S':'
asbag68
(g89
g70
NtRp1380
(dp1381
g73
(dp1382
sg82
g1367
sg75
(lp1383
g68
(g69
g70
NtRp1384
(dp1385
g73
(dp1386
g81
I4
ssg82
g1380
sg75
(lp1387
g111
asbasbasbag68
(g84
g70
NtRp1388
(dp1389
g73
(dp1390
sg82
g1031
sg75
(lp1391
g68
(g89
g70
NtRp1392
(dp1393
g73
(dp1394
g93
g94
ssg82
g1388
sg75
(lp1395
S'is_pypy'
p1396
asbag68
(g89
g70
NtRp1397
(dp1398
g73
(dp1399
g100
g101
ssg82
g1388
sg75
(lp1400
S':'
asbag68
(g89
g70
NtRp1401
(dp1402
g73
(dp1403
sg82
g1388
sg75
(lp1404
g68
(g69
g70
NtRp1405
(dp1406
g73
(dp1407
g81
I4
ssg82
g1401
sg75
(lp1408
g111
asbasbasbag68
(g84
g70
NtRp1409
(dp1410
g73
(dp1411
sg82
g1031
sg75
(lp1412
g68
(g89
g70
NtRp1413
(dp1414
g73
(dp1415
g93
g94
ssg82
g1409
sg75
(lp1416
S'path_info'
p1417
asbag68
(g89
g70
NtRp1418
(dp1419
g73
(dp1420
g100
g101
ssg82
g1409
sg75
(lp1421
S':'
asbag68
(g89
g70
NtRp1422
(dp1423
g73
(dp1424
sg82
g1409
sg75
(lp1425
g68
(g69
g70
NtRp1426
(dp1427
g73
(dp1428
g81
I4
ssg82
g1422
sg75
(lp1429
S'/manager/default/nedit/851'
p1430
asbasbasbag68
(g84
g70
NtRp1431
(dp1432
g73
(dp1433
sg82
g1031
sg75
(lp1434
g68
(g89
g70
NtRp1435
(dp1436
g73
(dp1437
g93
g94
ssg82
g1431
sg75
(lp1438
S'query_string'
p1439
asbag68
(g89
g70
NtRp1440
(dp1441
g73
(dp1442
g100
g101
ssg82
g1431
sg75
(lp1443
S':'
asbag68
(g89
g70
NtRp1444
(dp1445
g73
(dp1446
sg82
g1431
sg75
(lp1447
g68
(g69
g70
NtRp1448
(dp1449
g73
(dp1450
g81
I4
ssg82
g1444
sg75
(lp1451
S''
asbasbasbag68
(g84
g70
NtRp1452
(dp1453
g73
(dp1454
sg82
g1031
sg75
(lp1455
g68
(g89
g70
NtRp1456
(dp1457
g73
(dp1458
g93
g94
ssg82
g1452
sg75
(lp1459
S'remote_addr'
p1460
asbag68
(g89
g70
NtRp1461
(dp1462
g73
(dp1463
g100
g101
ssg82
g1452
sg75
(lp1464
S':'
asbag68
(g89
g70
NtRp1465
(dp1466
g73
(dp1467
sg82
g1452
sg75
(lp1468
g68
(g69
g70
NtRp1469
(dp1470
g73
(dp1471
g81
I4
ssg82
g1465
sg75
(lp1472
g214
asbasbasbag68
(g84
g70
NtRp1473
(dp1474
g73
(dp1475
sg82
g1031
sg75
(lp1476
g68
(g89
g70
NtRp1477
(dp1478
g73
(dp1479
g93
g94
ssg82
g1473
sg75
(lp1480
S'remote_port'
p1481
asbag68
(g89
g70
NtRp1482
(dp1483
g73
(dp1484
g100
g101
ssg82
g1473
sg75
(lp1485
S':'
asbag68
(g89
g70
NtRp1486
(dp1487
g73
(dp1488
sg82
g1473
sg75
(lp1489
g68
(g69
g70
NtRp1490
(dp1491
g73
(dp1492
g81
I4
ssg82
g1486
sg75
(lp1493
S'38787'
p1494
asbasbasbag68
(g84
g70
NtRp1495
(dp1496
g73
(dp1497
sg82
g1031
sg75
(lp1498
g68
(g89
g70
NtRp1499
(dp1500
g73
(dp1501
g93
g94
ssg82
g1495
sg75
(lp1502
S'request_method'
p1503
asbag68
(g89
g70
NtRp1504
(dp1505
g73
(dp1506
g100
g101
ssg82
g1495
sg75
(lp1507
S':'
asbag68
(g89
g70
NtRp1508
(dp1509
g73
(dp1510
sg82
g1495
sg75
(lp1511
g68
(g69
g70
NtRp1512
(dp1513
g73
(dp1514
g81
I4
ssg82
g1508
sg75
(lp1515
S'GET'
p1516
asbasbasbag68
(g84
g70
NtRp1517
(dp1518
g73
(dp1519
sg82
g1031
sg75
(lp1520
g68
(g89
g70
NtRp1521
(dp1522
g73
(dp1523
g93
g94
ssg82
g1517
sg75
(lp1524
S'script_name'
p1525
asbag68
(g89
g70
NtRp1526
(dp1527
g73
(dp1528
g100
g101
ssg82
g1517
sg75
(lp1529
S':'
asbag68
(g89
g70
NtRp1530
(dp1531
g73
(dp1532
sg82
g1517
sg75
(lp1533
g68
(g69
g70
NtRp1534
(dp1535
g73
(dp1536
g81
I4
ssg82
g1530
sg75
(lp1537
S''
asbasbasbag68
(g84
g70
NtRp1538
(dp1539
g73
(dp1540
sg82
g1031
sg75
(lp1541
g68
(g89
g70
NtRp1542
(dp1543
g73
(dp1544
g93
g94
ssg82
g1538
sg75
(lp1545
S'server_name'
p1546
asbag68
(g89
g70
NtRp1547
(dp1548
g73
(dp1549
g100
g101
ssg82
g1538
sg75
(lp1550
S':'
asbag68
(g89
g70
NtRp1551
(dp1552
g73
(dp1553
sg82
g1538
sg75
(lp1554
g68
(g69
g70
NtRp1555
(dp1556
g73
(dp1557
g81
I4
ssg82
g1551
sg75
(lp1558
S'unic-Inspiron-N5050'
p1559
asbasbasbag68
(g84
g70
NtRp1560
(dp1561
g73
(dp1562
sg82
g1031
sg75
(lp1563
g68
(g89
g70
NtRp1564
(dp1565
g73
(dp1566
g93
g94
ssg82
g1560
sg75
(lp1567
S'server_port'
p1568
asbag68
(g89
g70
NtRp1569
(dp1570
g73
(dp1571
g100
g101
ssg82
g1560
sg75
(lp1572
S':'
asbag68
(g89
g70
NtRp1573
(dp1574
g73
(dp1575
sg82
g1560
sg75
(lp1576
g68
(g69
g70
NtRp1577
(dp1578
g73
(dp1579
g81
I4
ssg82
g1573
sg75
(lp1580
S'8000'
p1581
asbasbasbag68
(g84
g70
NtRp1582
(dp1583
g73
(dp1584
sg82
g1031
sg75
(lp1585
g68
(g89
g70
NtRp1586
(dp1587
g73
(dp1588
g93
g94
ssg82
g1582
sg75
(lp1589
S'server_protocol'
p1590
asbag68
(g89
g70
NtRp1591
(dp1592
g73
(dp1593
g100
g101
ssg82
g1582
sg75
(lp1594
S':'
asbag68
(g89
g70
NtRp1595
(dp1596
g73
(dp1597
sg82
g1582
sg75
(lp1598
g68
(g69
g70
NtRp1599
(dp1600
g73
(dp1601
g81
I4
ssg82
g1595
sg75
(lp1602
S'HTTP/1.1'
p1603
asbasbasbag68
(g84
g70
NtRp1604
(dp1605
g73
(dp1606
sg82
g1031
sg75
(lp1607
g68
(g89
g70
NtRp1608
(dp1609
g73
(dp1610
g93
g94
ssg82
g1604
sg75
(lp1611
S'server_software'
p1612
asbag68
(g89
g70
NtRp1613
(dp1614
g73
(dp1615
g100
g101
ssg82
g1604
sg75
(lp1616
S':'
asbag68
(g89
g70
NtRp1617
(dp1618
g73
(dp1619
sg82
g1604
sg75
(lp1620
g68
(g69
g70
NtRp1621
(dp1622
g73
(dp1623
g81
I4
ssg82
g1617
sg75
(lp1624
S'Rocket 1.2.4'
p1625
asbasbasbag68
(g84
g70
NtRp1626
(dp1627
g73
(dp1628
sg82
g1031
sg75
(lp1629
g68
(g89
g70
NtRp1630
(dp1631
g73
(dp1632
g93
g94
ssg82
g1626
sg75
(lp1633
S'web2py_crontype'
p1634
asbag68
(g89
g70
NtRp1635
(dp1636
g73
(dp1637
g100
g101
ssg82
g1626
sg75
(lp1638
S':'
asbag68
(g89
g70
NtRp1639
(dp1640
g73
(dp1641
sg82
g1626
sg75
(lp1642
g68
(g69
g70
NtRp1643
(dp1644
g73
(dp1645
g81
I4
ssg82
g1639
sg75
(lp1646
S'hard'
p1647
asbasbasbag68
(g84
g70
NtRp1648
(dp1649
g73
(dp1650
sg82
g1031
sg75
(lp1651
g68
(g89
g70
NtRp1652
(dp1653
g73
(dp1654
g93
g94
ssg82
g1648
sg75
(lp1655
S'web2py_path'
p1656
asbag68
(g89
g70
NtRp1657
(dp1658
g73
(dp1659
g100
g101
ssg82
g1648
sg75
(lp1660
S':'
asbag68
(g89
g70
NtRp1661
(dp1662
g73
(dp1663
sg82
g1648
sg75
(lp1664
g68
(g69
g70
NtRp1665
(dp1666
g73
(dp1667
g81
I4
ssg82
g1661
sg75
(lp1668
g1078
asbasbasbag68
(g84
g70
NtRp1669
(dp1670
g73
(dp1671
sg82
g1031
sg75
(lp1672
g68
(g89
g70
NtRp1673
(dp1674
g73
(dp1675
g93
g94
ssg82
g1669
sg75
(lp1676
S'web2py_version'
p1677
asbag68
(g89
g70
NtRp1678
(dp1679
g73
(dp1680
g100
g101
ssg82
g1669
sg75
(lp1681
S':'
asbag68
(g89
g70
NtRp1682
(dp1683
g73
(dp1684
sg82
g1669
sg75
(lp1685
g68
(g69
g70
NtRp1686
(dp1687
g73
(dp1688
g81
I4
ssg82
g1682
sg75
(lp1689
g68
(g77
g70
NtRp1690
(dp1691
g73
(dp1692
g81
I3
ssg82
Nsg75
(lp1693
g68
(g84
g70
NtRp1694
(dp1695
g73
(dp1696
sg82
g1690
sg75
(lp1697
g68
(g89
g70
NtRp1698
(dp1699
g73
(dp1700
sg82
g1694
sg75
(lp1701
g68
(g69
g70
NtRp1702
(dp1703
g73
(dp1704
g81
I3
ssg82
g1698
sg75
(lp1705
S'1'
asbasbasbag68
(g84
g70
NtRp1706
(dp1707
g73
(dp1708
sg82
g1690
sg75
(lp1709
g68
(g89
g70
NtRp1710
(dp1711
g73
(dp1712
sg82
g1706
sg75
(lp1713
g68
(g69
g70
NtRp1714
(dp1715
g73
(dp1716
g81
I3
ssg82
g1710
sg75
(lp1717
S'99'
p1718
asbasbasbag68
(g84
g70
NtRp1719
(dp1720
g73
(dp1721
sg82
g1690
sg75
(lp1722
g68
(g89
g70
NtRp1723
(dp1724
g73
(dp1725
sg82
g1719
sg75
(lp1726
g68
(g69
g70
NtRp1727
(dp1728
g73
(dp1729
g81
I3
ssg82
g1723
sg75
(lp1730
S'4'
asbasbasbag68
(g84
g70
NtRp1731
(dp1732
g73
(dp1733
sg82
g1690
sg75
(lp1734
g68
(g89
g70
NtRp1735
(dp1736
g73
(dp1737
sg82
g1731
sg75
(lp1738
g68
(g69
g70
NtRp1739
(dp1740
g73
(dp1741
g81
I3
ssg82
g1735
sg75
(lp1742
S'datetime.datetime(2011, 12, 14, 14, 46, 14)'
p1743
asbasbasbag68
(g84
g70
NtRp1744
(dp1745
g73
(dp1746
sg82
g1690
sg75
(lp1747
g68
(g89
g70
NtRp1748
(dp1749
g73
(dp1750
sg82
g1744
sg75
(lp1751
g68
(g69
g70
NtRp1752
(dp1753
g73
(dp1754
g81
I3
ssg82
g1748
sg75
(lp1755
S'stable'
p1756
asbasbasbasbasbasbasbag68
(g84
g70
NtRp1757
(dp1758
g73
(dp1759
sg82
g1031
sg75
(lp1760
g68
(g89
g70
NtRp1761
(dp1762
g73
(dp1763
g93
g94
ssg82
g1757
sg75
(lp1764
S'wsgi_errors'
p1765
asbag68
(g89
g70
NtRp1766
(dp1767
g73
(dp1768
g100
g101
ssg82
g1757
sg75
(lp1769
S':'
asbag68
(g89
g70
NtRp1770
(dp1771
g73
(dp1772
sg82
g1757
sg75
(lp1773
g68
(g69
g70
NtRp1774
(dp1775
g73
(dp1776
g81
I4
ssg82
g1770
sg75
(lp1777
S"<open file '<stderr>', mode 'w' at 0xb73370d0>"
p1778
asbasbasbag68
(g84
g70
NtRp1779
(dp1780
g73
(dp1781
sg82
g1031
sg75
(lp1782
g68
(g89
g70
NtRp1783
(dp1784
g73
(dp1785
g93
g94
ssg82
g1779
sg75
(lp1786
S'wsgi_file_wrapper'
p1787
asbag68
(g89
g70
NtRp1788
(dp1789
g73
(dp1790
g100
g101
ssg82
g1779
sg75
(lp1791
S':'
asbag68
(g89
g70
NtRp1792
(dp1793
g73
(dp1794
sg82
g1779
sg75
(lp1795
g68
(g69
g70
NtRp1796
(dp1797
g73
(dp1798
g81
I4
ssg82
g1792
sg75
(lp1799
S'<class wsgiref.util.FileWrapper at 0x94fd4ac>'
p1800
asbasbasbag68
(g84
g70
NtRp1801
(dp1802
g73
(dp1803
sg82
g1031
sg75
(lp1804
g68
(g89
g70
NtRp1805
(dp1806
g73
(dp1807
g93
g94
ssg82
g1801
sg75
(lp1808
S'wsgi_input'
p1809
asbag68
(g89
g70
NtRp1810
(dp1811
g73
(dp1812
g100
g101
ssg82
g1801
sg75
(lp1813
S':'
asbag68
(g89
g70
NtRp1814
(dp1815
g73
(dp1816
sg82
g1801
sg75
(lp1817
g68
(g69
g70
NtRp1818
(dp1819
g73
(dp1820
g81
I4
ssg82
g1814
sg75
(lp1821
S'<socket._fileobject object at 0xab71b46c>'
p1822
asbasbasbag68
(g84
g70
NtRp1823
(dp1824
g73
(dp1825
sg82
g1031
sg75
(lp1826
g68
(g89
g70
NtRp1827
(dp1828
g73
(dp1829
g93
g94
ssg82
g1823
sg75
(lp1830
S'wsgi_multiprocess'
p1831
asbag68
(g89
g70
NtRp1832
(dp1833
g73
(dp1834
g100
g101
ssg82
g1823
sg75
(lp1835
S':'
asbag68
(g89
g70
NtRp1836
(dp1837
g73
(dp1838
sg82
g1823
sg75
(lp1839
g68
(g69
g70
NtRp1840
(dp1841
g73
(dp1842
g81
I4
ssg82
g1836
sg75
(lp1843
g111
asbasbasbag68
(g84
g70
NtRp1844
(dp1845
g73
(dp1846
sg82
g1031
sg75
(lp1847
g68
(g89
g70
NtRp1848
(dp1849
g73
(dp1850
g93
g94
ssg82
g1844
sg75
(lp1851
S'wsgi_multithread'
p1852
asbag68
(g89
g70
NtRp1853
(dp1854
g73
(dp1855
g100
g101
ssg82
g1844
sg75
(lp1856
S':'
asbag68
(g89
g70
NtRp1857
(dp1858
g73
(dp1859
sg82
g1844
sg75
(lp1860
g68
(g69
g70
NtRp1861
(dp1862
g73
(dp1863
g81
I4
ssg82
g1857
sg75
(lp1864
S'True'
p1865
asbasbasbag68
(g84
g70
NtRp1866
(dp1867
g73
(dp1868
sg82
g1031
sg75
(lp1869
g68
(g89
g70
NtRp1870
(dp1871
g73
(dp1872
g93
g94
ssg82
g1866
sg75
(lp1873
S'wsgi_run_once'
p1874
asbag68
(g89
g70
NtRp1875
(dp1876
g73
(dp1877
g100
g101
ssg82
g1866
sg75
(lp1878
S':'
asbag68
(g89
g70
NtRp1879
(dp1880
g73
(dp1881
sg82
g1866
sg75
(lp1882
g68
(g69
g70
NtRp1883
(dp1884
g73
(dp1885
g81
I4
ssg82
g1879
sg75
(lp1886
g111
asbasbasbag68
(g84
g70
NtRp1887
(dp1888
g73
(dp1889
sg82
g1031
sg75
(lp1890
g68
(g89
g70
NtRp1891
(dp1892
g73
(dp1893
g93
g94
ssg82
g1887
sg75
(lp1894
S'wsgi_url_scheme'
p1895
asbag68
(g89
g70
NtRp1896
(dp1897
g73
(dp1898
g100
g101
ssg82
g1887
sg75
(lp1899
S':'
asbag68
(g89
g70
NtRp1900
(dp1901
g73
(dp1902
sg82
g1887
sg75
(lp1903
g68
(g69
g70
NtRp1904
(dp1905
g73
(dp1906
g81
I4
ssg82
g1900
sg75
(lp1907
S'http'
p1908
asbasbasbag68
(g84
g70
NtRp1909
(dp1910
g73
(dp1911
sg82
g1031
sg75
(lp1912
g68
(g89
g70
NtRp1913
(dp1914
g73
(dp1915
g93
g94
ssg82
g1909
sg75
(lp1916
S'wsgi_version'
p1917
asbag68
(g89
g70
NtRp1918
(dp1919
g73
(dp1920
g100
g101
ssg82
g1909
sg75
(lp1921
S':'
asbag68
(g89
g70
NtRp1922
(dp1923
g73
(dp1924
sg82
g1909
sg75
(lp1925
g68
(g69
g70
NtRp1926
(dp1927
g73
(dp1928
g81
I4
ssg82
g1922
sg75
(lp1929
g68
(g77
g70
NtRp1930
(dp1931
g73
(dp1932
g81
I3
ssg82
Nsg75
(lp1933
g68
(g84
g70
NtRp1934
(dp1935
g73
(dp1936
sg82
g1930
sg75
(lp1937
g68
(g89
g70
NtRp1938
(dp1939
g73
(dp1940
sg82
g1934
sg75
(lp1941
g68
(g69
g70
NtRp1942
(dp1943
g73
(dp1944
g81
I3
ssg82
g1938
sg75
(lp1945
S'1'
asbasbasbag68
(g84
g70
NtRp1946
(dp1947
g73
(dp1948
sg82
g1930
sg75
(lp1949
g68
(g89
g70
NtRp1950
(dp1951
g73
(dp1952
sg82
g1946
sg75
(lp1953
g68
(g69
g70
NtRp1954
(dp1955
g73
(dp1956
g81
I3
ssg82
g1950
sg75
(lp1957
S'0'
asbasbasbasbasbasbasbasbasbasbasbag68
(g84
g70
NtRp1958
(dp1959
g73
(dp1960
sg82
g78
sg75
(lp1961
g68
(g89
g70
NtRp1962
(dp1963
g73
(dp1964
g93
g94
ssg82
g1958
sg75
(lp1965
S'extension'
p1966
asbag68
(g89
g70
NtRp1967
(dp1968
g73
(dp1969
g100
g101
ssg82
g1958
sg75
(lp1970
S':'
asbag68
(g89
g70
NtRp1971
(dp1972
g73
(dp1973
sg82
g1958
sg75
(lp1974
g68
(g69
g70
NtRp1975
(dp1976
g73
(dp1977
g81
I5
ssg82
g1971
sg75
(lp1978
S'html'
p1979
asbasbasbag68
(g84
g70
NtRp1980
(dp1981
g73
(dp1982
sg82
g78
sg75
(lp1983
g68
(g89
g70
NtRp1984
(dp1985
g73
(dp1986
g93
g94
ssg82
g1980
sg75
(lp1987
S'folder'
p1988
asbag68
(g89
g70
NtRp1989
(dp1990
g73
(dp1991
g100
g101
ssg82
g1980
sg75
(lp1992
S':'
asbag68
(g89
g70
NtRp1993
(dp1994
g73
(dp1995
sg82
g1980
sg75
(lp1996
g68
(g69
g70
NtRp1997
(dp1998
g73
(dp1999
g81
I5
ssg82
g1993
sg75
(lp2000
S'/home/unic/web2py/applications/manager/'
p2001
asbasbasbag68
(g84
g70
NtRp2002
(dp2003
g73
(dp2004
sg82
g78
sg75
(lp2005
g68
(g89
g70
NtRp2006
(dp2007
g73
(dp2008
g93
g94
ssg82
g2002
sg75
(lp2009
S'function'
p2010
asbag68
(g89
g70
NtRp2011
(dp2012
g73
(dp2013
g100
g101
ssg82
g2002
sg75
(lp2014
S':'
asbag68
(g89
g70
NtRp2015
(dp2016
g73
(dp2017
sg82
g2002
sg75
(lp2018
g68
(g69
g70
NtRp2019
(dp2020
g73
(dp2021
g81
I5
ssg82
g2015
sg75
(lp2022
S'nedit'
p2023
asbasbasbag68
(g84
g70
NtRp2024
(dp2025
g73
(dp2026
sg82
g78
sg75
(lp2027
g68
(g89
g70
NtRp2028
(dp2029
g73
(dp2030
g93
g94
ssg82
g2024
sg75
(lp2031
S'get_vars'
p2032
asbag68
(g89
g70
NtRp2033
(dp2034
g73
(dp2035
g100
g101
ssg82
g2024
sg75
(lp2036
S':'
asbag68
(g89
g70
NtRp2037
(dp2038
g73
(dp2039
sg82
g2024
sg75
(lp2040
g68
(g69
g70
NtRp2041
(dp2042
g73
(dp2043
g81
I5
ssg82
g2037
sg75
(lp2044
g68
(g77
g70
NtRp2045
(dp2046
g73
(dp2047
g81
I4
ssg82
Nsg75
(lp2048
sbasbasbasbag68
(g84
g70
NtRp2049
(dp2050
g73
(dp2051
sg82
g78
sg75
(lp2052
g68
(g89
g70
NtRp2053
(dp2054
g73
(dp2055
g93
g94
ssg82
g2049
sg75
(lp2056
S'global_settings'
p2057
asbag68
(g89
g70
NtRp2058
(dp2059
g73
(dp2060
g100
g101
ssg82
g2049
sg75
(lp2061
S':'
asbag68
(g89
g70
NtRp2062
(dp2063
g73
(dp2064
sg82
g2049
sg75
(lp2065
g68
(g69
g70
NtRp2066
(dp2067
g73
(dp2068
g81
I5
ssg82
g2062
sg75
(lp2069
g68
(g77
g70
NtRp2070
(dp2071
g73
(dp2072
g81
I4
ssg82
Nsg75
(lp2073
g68
(g84
g70
NtRp2074
(dp2075
g73
(dp2076
sg82
g2070
sg75
(lp2077
g68
(g89
g70
NtRp2078
(dp2079
g73
(dp2080
g93
g94
ssg82
g2074
sg75
(lp2081
g1043
asbag68
(g89
g70
NtRp2082
(dp2083
g73
(dp2084
g100
g101
ssg82
g2074
sg75
(lp2085
S':'
asbag68
(g89
g70
NtRp2086
(dp2087
g73
(dp2088
sg82
g2074
sg75
(lp2089
g68
(g69
g70
NtRp2090
(dp2091
g73
(dp2092
g81
I4
ssg82
g2086
sg75
(lp2093
S"set(['/home/unic/web2py/applications/manager/', '/home/unic/web2py/applications/managerold/', '/home/unic/web2py/applications/admin/', '/home/unic/web2py/applications/welcome/'])"
p2094
asbasbasbag68
(g84
g70
NtRp2095
(dp2096
g73
(dp2097
sg82
g2070
sg75
(lp2098
g68
(g89
g70
NtRp2099
(dp2100
g73
(dp2101
g93
g94
ssg82
g2095
sg75
(lp2102
g1065
asbag68
(g89
g70
NtRp2103
(dp2104
g73
(dp2105
g100
g101
ssg82
g2095
sg75
(lp2106
S':'
asbag68
(g89
g70
NtRp2107
(dp2108
g73
(dp2109
sg82
g2095
sg75
(lp2110
g68
(g69
g70
NtRp2111
(dp2112
g73
(dp2113
g81
I4
ssg82
g2107
sg75
(lp2114
g1078
asbasbasbag68
(g84
g70
NtRp2115
(dp2116
g73
(dp2117
sg82
g2070
sg75
(lp2118
g68
(g89
g70
NtRp2119
(dp2120
g73
(dp2121
g93
g94
ssg82
g2115
sg75
(lp2122
g1087
asbag68
(g89
g70
NtRp2123
(dp2124
g73
(dp2125
g100
g101
ssg82
g2115
sg75
(lp2126
S':'
asbag68
(g89
g70
NtRp2127
(dp2128
g73
(dp2129
sg82
g2115
sg75
(lp2130
g68
(g69
g70
NtRp2131
(dp2132
g73
(dp2133
g81
I4
ssg82
g2127
sg75
(lp2134
g68
(g77
g70
NtRp2135
(dp2136
g73
(dp2137
g81
I3
ssg82
Nsg75
(lp2138
sbasbasbasbag68
(g84
g70
NtRp2139
(dp2140
g73
(dp2141
sg82
g2070
sg75
(lp2142
g68
(g89
g70
NtRp2143
(dp2144
g73
(dp2145
g93
g94
ssg82
g2139
sg75
(lp2146
g1112
asbag68
(g89
g70
NtRp2147
(dp2148
g73
(dp2149
g100
g101
ssg82
g2139
sg75
(lp2150
S':'
asbag68
(g89
g70
NtRp2151
(dp2152
g73
(dp2153
sg82
g2139
sg75
(lp2154
g68
(g69
g70
NtRp2155
(dp2156
g73
(dp2157
g81
I4
ssg82
g2151
sg75
(lp2158
S"<Values at 0x955280c: {'verbose': False, 'ip': '127.0.0.1', 'shutdown_timeout': 5, 'taskbar': False, 'port': 8000, 'maxthreads': None, 'softcron': False, 'server_name': 'unic-Inspiron-N5050', 'bpython': False, 'nogui': False, 'nocron': False, 'extcron': False, 'debuglevel': 30, 'test': None, 'folder': '/home/unic/web2py', 'config': '', 'import_models': False, 'winservice': '', 'shell': None, 'run': '', 'log_filename': 'httpserver.log', 'args': [''], 'socket_timeout': 1, 'profiler_filename': None, 'ssl_private_key': '', 'password': '<ask>', 'request_queue_size': 5, 'ssl_certificate': '', 'cronjob': False, 'plain': False, 'quiet': False, 'interfaces': None, 'minthreads': None, 'timeout': 10, 'numthreads': None, 'nobanner': False, 'pid_filename': 'httpserver.pid'}>"
p2159
asbasbasbag68
(g84
g70
NtRp2160
(dp2161
g73
(dp2162
sg82
g2070
sg75
(lp2163
g68
(g89
g70
NtRp2164
(dp2165
g73
(dp2166
g93
g94
ssg82
g2160
sg75
(lp2167
g1134
asbag68
(g89
g70
NtRp2168
(dp2169
g73
(dp2170
g100
g101
ssg82
g2160
sg75
(lp2171
S':'
asbag68
(g89
g70
NtRp2172
(dp2173
g73
(dp2174
sg82
g2160
sg75
(lp2175
g68
(g69
g70
NtRp2176
(dp2177
g73
(dp2178
g81
I4
ssg82
g2172
sg75
(lp2179
S'set([])'
p2180
asbasbasbag68
(g84
g70
NtRp2181
(dp2182
g73
(dp2183
sg82
g2070
sg75
(lp2184
g68
(g89
g70
NtRp2185
(dp2186
g73
(dp2187
g93
g94
ssg82
g2181
sg75
(lp2188
g1156
asbag68
(g89
g70
NtRp2189
(dp2190
g73
(dp2191
g100
g101
ssg82
g2181
sg75
(lp2192
S':'
asbag68
(g89
g70
NtRp2193
(dp2194
g73
(dp2195
sg82
g2181
sg75
(lp2196
g68
(g69
g70
NtRp2197
(dp2198
g73
(dp2199
g81
I4
ssg82
g2193
sg75
(lp2200
g111
asbasbasbag68
(g84
g70
NtRp2201
(dp2202
g73
(dp2203
sg82
g2070
sg75
(lp2204
g68
(g89
g70
NtRp2205
(dp2206
g73
(dp2207
g93
g94
ssg82
g2201
sg75
(lp2208
g1177
asbag68
(g89
g70
NtRp2209
(dp2210
g73
(dp2211
g100
g101
ssg82
g2201
sg75
(lp2212
S':'
asbag68
(g89
g70
NtRp2213
(dp2214
g73
(dp2215
sg82
g2201
sg75
(lp2216
g68
(g69
g70
NtRp2217
(dp2218
g73
(dp2219
g81
I4
ssg82
g2213
sg75
(lp2220
g1190
asbasbasbag68
(g84
g70
NtRp2221
(dp2222
g73
(dp2223
sg82
g2070
sg75
(lp2224
g68
(g89
g70
NtRp2225
(dp2226
g73
(dp2227
g93
g94
ssg82
g2221
sg75
(lp2228
g1375
asbag68
(g89
g70
NtRp2229
(dp2230
g73
(dp2231
g100
g101
ssg82
g2221
sg75
(lp2232
S':'
asbag68
(g89
g70
NtRp2233
(dp2234
g73
(dp2235
sg82
g2221
sg75
(lp2236
g68
(g69
g70
NtRp2237
(dp2238
g73
(dp2239
g81
I4
ssg82
g2233
sg75
(lp2240
g111
asbasbasbag68
(g84
g70
NtRp2241
(dp2242
g73
(dp2243
sg82
g2070
sg75
(lp2244
g68
(g89
g70
NtRp2245
(dp2246
g73
(dp2247
g93
g94
ssg82
g2241
sg75
(lp2248
g1396
asbag68
(g89
g70
NtRp2249
(dp2250
g73
(dp2251
g100
g101
ssg82
g2241
sg75
(lp2252
S':'
asbag68
(g89
g70
NtRp2253
(dp2254
g73
(dp2255
sg82
g2241
sg75
(lp2256
g68
(g69
g70
NtRp2257
(dp2258
g73
(dp2259
g81
I4
ssg82
g2253
sg75
(lp2260
g111
asbasbasbag68
(g84
g70
NtRp2261
(dp2262
g73
(dp2263
sg82
g2070
sg75
(lp2264
g68
(g89
g70
NtRp2265
(dp2266
g73
(dp2267
g93
g94
ssg82
g2261
sg75
(lp2268
g1634
asbag68
(g89
g70
NtRp2269
(dp2270
g73
(dp2271
g100
g101
ssg82
g2261
sg75
(lp2272
S':'
asbag68
(g89
g70
NtRp2273
(dp2274
g73
(dp2275
sg82
g2261
sg75
(lp2276
g68
(g69
g70
NtRp2277
(dp2278
g73
(dp2279
g81
I4
ssg82
g2273
sg75
(lp2280
g1647
asbasbasbag68
(g84
g70
NtRp2281
(dp2282
g73
(dp2283
sg82
g2070
sg75
(lp2284
g68
(g89
g70
NtRp2285
(dp2286
g73
(dp2287
g93
g94
ssg82
g2281
sg75
(lp2288
g1677
asbag68
(g89
g70
NtRp2289
(dp2290
g73
(dp2291
g100
g101
ssg82
g2281
sg75
(lp2292
S':'
asbag68
(g89
g70
NtRp2293
(dp2294
g73
(dp2295
sg82
g2281
sg75
(lp2296
g68
(g69
g70
NtRp2297
(dp2298
g73
(dp2299
g81
I4
ssg82
g2293
sg75
(lp2300
g68
(g77
g70
NtRp2301
(dp2302
g73
(dp2303
g81
I3
ssg82
Nsg75
(lp2304
g68
(g84
g70
NtRp2305
(dp2306
g73
(dp2307
sg82
g2301
sg75
(lp2308
g68
(g89
g70
NtRp2309
(dp2310
g73
(dp2311
sg82
g2305
sg75
(lp2312
g68
(g69
g70
NtRp2313
(dp2314
g73
(dp2315
g81
I3
ssg82
g2309
sg75
(lp2316
S'1'
asbasbasbag68
(g84
g70
NtRp2317
(dp2318
g73
(dp2319
sg82
g2301
sg75
(lp2320
g68
(g89
g70
NtRp2321
(dp2322
g73
(dp2323
sg82
g2317
sg75
(lp2324
g68
(g69
g70
NtRp2325
(dp2326
g73
(dp2327
g81
I3
ssg82
g2321
sg75
(lp2328
S'99'
p2329
asbasbasbag68
(g84
g70
NtRp2330
(dp2331
g73
(dp2332
sg82
g2301
sg75
(lp2333
g68
(g89
g70
NtRp2334
(dp2335
g73
(dp2336
sg82
g2330
sg75
(lp2337
g68
(g69
g70
NtRp2338
(dp2339
g73
(dp2340
g81
I3
ssg82
g2334
sg75
(lp2341
S'4'
asbasbasbag68
(g84
g70
NtRp2342
(dp2343
g73
(dp2344
sg82
g2301
sg75
(lp2345
g68
(g89
g70
NtRp2346
(dp2347
g73
(dp2348
sg82
g2342
sg75
(lp2349
g68
(g69
g70
NtRp2350
(dp2351
g73
(dp2352
g81
I3
ssg82
g2346
sg75
(lp2353
S'datetime.datetime(2011, 12, 14, 14, 46, 14)'
p2354
asbasbasbag68
(g84
g70
NtRp2355
(dp2356
g73
(dp2357
sg82
g2301
sg75
(lp2358
g68
(g89
g70
NtRp2359
(dp2360
g73
(dp2361
sg82
g2355
sg75
(lp2362
g68
(g69
g70
NtRp2363
(dp2364
g73
(dp2365
g81
I3
ssg82
g2359
sg75
(lp2366
g1756
asbasbasbasbasbasbasbasbasbasbasbag68
(g84
g70
NtRp2367
(dp2368
g73
(dp2369
sg82
g78
sg75
(lp2370
g68
(g89
g70
NtRp2371
(dp2372
g73
(dp2373
g93
g94
ssg82
g2367
sg75
(lp2374
S'is_https'
p2375
asbag68
(g89
g70
NtRp2376
(dp2377
g73
(dp2378
g100
g101
ssg82
g2367
sg75
(lp2379
S':'
asbag68
(g89
g70
NtRp2380
(dp2381
g73
(dp2382
sg82
g2367
sg75
(lp2383
g68
(g69
g70
NtRp2384
(dp2385
g73
(dp2386
g81
I5
ssg82
g2380
sg75
(lp2387
g111
asbasbasbag68
(g84
g70
NtRp2388
(dp2389
g73
(dp2390
sg82
g78
sg75
(lp2391
g68
(g89
g70
NtRp2392
(dp2393
g73
(dp2394
g93
g94
ssg82
g2388
sg75
(lp2395
S'is_local'
p2396
asbag68
(g89
g70
NtRp2397
(dp2398
g73
(dp2399
g100
g101
ssg82
g2388
sg75
(lp2400
S':'
asbag68
(g89
g70
NtRp2401
(dp2402
g73
(dp2403
sg82
g2388
sg75
(lp2404
g68
(g69
g70
NtRp2405
(dp2406
g73
(dp2407
g81
I5
ssg82
g2401
sg75
(lp2408
g1865
asbasbasbag68
(g84
g70
NtRp2409
(dp2410
g73
(dp2411
sg82
g78
sg75
(lp2412
g68
(g89
g70
NtRp2413
(dp2414
g73
(dp2415
g93
g94
ssg82
g2409
sg75
(lp2416
S'is_restful'
p2417
asbag68
(g89
g70
NtRp2418
(dp2419
g73
(dp2420
g100
g101
ssg82
g2409
sg75
(lp2421
S':'
asbag68
(g89
g70
NtRp2422
(dp2423
g73
(dp2424
sg82
g2409
sg75
(lp2425
g68
(g69
g70
NtRp2426
(dp2427
g73
(dp2428
g81
I5
ssg82
g2422
sg75
(lp2429
g111
asbasbasbag68
(g84
g70
NtRp2430
(dp2431
g73
(dp2432
sg82
g78
sg75
(lp2433
g68
(g89
g70
NtRp2434
(dp2435
g73
(dp2436
g93
g94
ssg82
g2430
sg75
(lp2437
S'now'
p2438
asbag68
(g89
g70
NtRp2439
(dp2440
g73
(dp2441
g100
g101
ssg82
g2430
sg75
(lp2442
S':'
asbag68
(g89
g70
NtRp2443
(dp2444
g73
(dp2445
sg82
g2430
sg75
(lp2446
g68
(g69
g70
NtRp2447
(dp2448
g73
(dp2449
g81
I5
ssg82
g2443
sg75
(lp2450
S'datetime.datetime(2012, 11, 14, 20, 15, 16, 12243)'
p2451
asbasbasbag68
(g84
g70
NtRp2452
(dp2453
g73
(dp2454
sg82
g78
sg75
(lp2455
g68
(g89
g70
NtRp2456
(dp2457
g73
(dp2458
g93
g94
ssg82
g2452
sg75
(lp2459
S'post_vars'
p2460
asbag68
(g89
g70
NtRp2461
(dp2462
g73
(dp2463
g100
g101
ssg82
g2452
sg75
(lp2464
S':'
asbag68
(g89
g70
NtRp2465
(dp2466
g73
(dp2467
sg82
g2452
sg75
(lp2468
g68
(g69
g70
NtRp2469
(dp2470
g73
(dp2471
g81
I5
ssg82
g2465
sg75
(lp2472
g68
(g77
g70
NtRp2473
(dp2474
g73
(dp2475
g81
I4
ssg82
Nsg75
(lp2476
sbasbasbasbag68
(g84
g70
NtRp2477
(dp2478
g73
(dp2479
sg82
g78
sg75
(lp2480
g68
(g89
g70
NtRp2481
(dp2482
g73
(dp2483
g93
g94
ssg82
g2477
sg75
(lp2484
S'raw_args'
p2485
asbag68
(g89
g70
NtRp2486
(dp2487
g73
(dp2488
g100
g101
ssg82
g2477
sg75
(lp2489
S':'
asbag68
(g89
g70
NtRp2490
(dp2491
g73
(dp2492
sg82
g2477
sg75
(lp2493
g68
(g69
g70
NtRp2494
(dp2495
g73
(dp2496
g81
I5
ssg82
g2490
sg75
(lp2497
g170
asbasbasbag68
(g84
g70
NtRp2498
(dp2499
g73
(dp2500
sg82
g78
sg75
(lp2501
g68
(g89
g70
NtRp2502
(dp2503
g73
(dp2504
g93
g94
ssg82
g2498
sg75
(lp2505
S'url'
p2506
asbag68
(g89
g70
NtRp2507
(dp2508
g73
(dp2509
g100
g101
ssg82
g2498
sg75
(lp2510
S':'
asbag68
(g89
g70
NtRp2511
(dp2512
g73
(dp2513
sg82
g2498
sg75
(lp2514
g68
(g69
g70
NtRp2515
(dp2516
g73
(dp2517
g81
I5
ssg82
g2511
sg75
(lp2518
S'/manager/default/nedit/851'
p2519
asbasbasbag68
(g84
g70
NtRp2520
(dp2521
g73
(dp2522
sg82
g78
sg75
(lp2523
g68
(g89
g70
NtRp2524
(dp2525
g73
(dp2526
g93
g94
ssg82
g2520
sg75
(lp2527
S'utcnow'
p2528
asbag68
(g89
g70
NtRp2529
(dp2530
g73
(dp2531
g100
g101
ssg82
g2520
sg75
(lp2532
S':'
asbag68
(g89
g70
NtRp2533
(dp2534
g73
(dp2535
sg82
g2520
sg75
(lp2536
g68
(g69
g70
NtRp2537
(dp2538
g73
(dp2539
g81
I5
ssg82
g2533
sg75
(lp2540
S'datetime.datetime(2012, 11, 14, 14, 45, 16, 12296)'
p2541
asbasbasbag68
(g84
g70
NtRp2542
(dp2543
g73
(dp2544
sg82
g78
sg75
(lp2545
g68
(g89
g70
NtRp2546
(dp2547
g73
(dp2548
g93
g94
ssg82
g2542
sg75
(lp2549
S'uuid'
p2550
asbag68
(g89
g70
NtRp2551
(dp2552
g73
(dp2553
g100
g101
ssg82
g2542
sg75
(lp2554
S':'
asbag68
(g89
g70
NtRp2555
(dp2556
g73
(dp2557
sg82
g2542
sg75
(lp2558
g68
(g69
g70
NtRp2559
(dp2560
g73
(dp2561
g81
I5
ssg82
g2555
sg75
(lp2562
S'manager/127.0.0.1.2012-11-14.20-15-16.b5204f61-df34-414e-90ad-603685e41c6d'
p2563
asbasbasbag68
(g84
g70
NtRp2564
(dp2565
g73
(dp2566
sg82
g78
sg75
(lp2567
g68
(g89
g70
NtRp2568
(dp2569
g73
(dp2570
g93
g94
ssg82
g2564
sg75
(lp2571
S'vars'
p2572
asbag68
(g89
g70
NtRp2573
(dp2574
g73
(dp2575
g100
g101
ssg82
g2564
sg75
(lp2576
S':'
asbag68
(g89
g70
NtRp2577
(dp2578
g73
(dp2579
sg82
g2564
sg75
(lp2580
g68
(g69
g70
NtRp2581
(dp2582
g73
(dp2583
g81
I5
ssg82
g2577
sg75
(lp2584
g68
(g77
g70
NtRp2585
(dp2586
g73
(dp2587
g81
I4
ssg82
Nsg75
(lp2588
sbasbasbasbag68
(g84
g70
NtRp2589
(dp2590
g73
(dp2591
sg82
g78
sg75
(lp2592
g68
(g89
g70
NtRp2593
(dp2594
g73
(dp2595
g93
g94
ssg82
g2589
sg75
(lp2596
S'wsgi'
p2597
asbag68
(g89
g70
NtRp2598
(dp2599
g73
(dp2600
g100
g101
ssg82
g2589
sg75
(lp2601
S':'
asbag68
(g89
g70
NtRp2602
(dp2603
g73
(dp2604
sg82
g2589
sg75
(lp2605
g68
(g69
g70
NtRp2606
(dp2607
g73
(dp2608
g81
I5
ssg82
g2602
sg75
(lp2609
g68
(g77
g70
NtRp2610
(dp2611
g73
(dp2612
g81
I4
ssg82
Nsg75
(lp2613
g68
(g84
g70
NtRp2614
(dp2615
g73
(dp2616
sg82
g2610
sg75
(lp2617
g68
(g89
g70
NtRp2618
(dp2619
g73
(dp2620
g93
g94
ssg82
g2614
sg75
(lp2621
S'environ'
p2622
asbag68
(g89
g70
NtRp2623
(dp2624
g73
(dp2625
g100
g101
ssg82
g2614
sg75
(lp2626
S':'
asbag68
(g89
g70
NtRp2627
(dp2628
g73
(dp2629
sg82
g2614
sg75
(lp2630
g68
(g69
g70
NtRp2631
(dp2632
g73
(dp2633
g81
I4
ssg82
g2627
sg75
(lp2634
g68
(g77
g70
NtRp2635
(dp2636
g73
(dp2637
g81
I3
ssg82
Nsg75
(lp2638
g68
(g84
g70
NtRp2639
(dp2640
g73
(dp2641
sg82
g2635
sg75
(lp2642
g68
(g89
g70
NtRp2643
(dp2644
g73
(dp2645
g93
g94
ssg82
g2639
sg75
(lp2646
S'HTTP_ACCEPT'
p2647
asbag68
(g89
g70
NtRp2648
(dp2649
g73
(dp2650
g100
g101
ssg82
g2639
sg75
(lp2651
S':'
asbag68
(g89
g70
NtRp2652
(dp2653
g73
(dp2654
sg82
g2639
sg75
(lp2655
g68
(g69
g70
NtRp2656
(dp2657
g73
(dp2658
g81
I3
ssg82
g2652
sg75
(lp2659
g1212
asbasbasbag68
(g84
g70
NtRp2660
(dp2661
g73
(dp2662
sg82
g2635
sg75
(lp2663
g68
(g89
g70
NtRp2664
(dp2665
g73
(dp2666
g93
g94
ssg82
g2660
sg75
(lp2667
S'HTTP_ACCEPT_ENCODING'
p2668
asbag68
(g89
g70
NtRp2669
(dp2670
g73
(dp2671
g100
g101
ssg82
g2660
sg75
(lp2672
S':'
asbag68
(g89
g70
NtRp2673
(dp2674
g73
(dp2675
sg82
g2660
sg75
(lp2676
g68
(g69
g70
NtRp2677
(dp2678
g73
(dp2679
g81
I3
ssg82
g2673
sg75
(lp2680
g1234
asbasbasbag68
(g84
g70
NtRp2681
(dp2682
g73
(dp2683
sg82
g2635
sg75
(lp2684
g68
(g89
g70
NtRp2685
(dp2686
g73
(dp2687
g93
g94
ssg82
g2681
sg75
(lp2688
S'HTTP_ACCEPT_LANGUAGE'
p2689
asbag68
(g89
g70
NtRp2690
(dp2691
g73
(dp2692
g100
g101
ssg82
g2681
sg75
(lp2693
S':'
asbag68
(g89
g70
NtRp2694
(dp2695
g73
(dp2696
sg82
g2681
sg75
(lp2697
g68
(g69
g70
NtRp2698
(dp2699
g73
(dp2700
g81
I3
ssg82
g2694
sg75
(lp2701
g1256
asbasbasbag68
(g84
g70
NtRp2702
(dp2703
g73
(dp2704
sg82
g2635
sg75
(lp2705
g68
(g89
g70
NtRp2706
(dp2707
g73
(dp2708
g93
g94
ssg82
g2702
sg75
(lp2709
S'HTTP_CONNECTION'
p2710
asbag68
(g89
g70
NtRp2711
(dp2712
g73
(dp2713
g100
g101
ssg82
g2702
sg75
(lp2714
S':'
asbag68
(g89
g70
NtRp2715
(dp2716
g73
(dp2717
sg82
g2702
sg75
(lp2718
g68
(g69
g70
NtRp2719
(dp2720
g73
(dp2721
g81
I3
ssg82
g2715
sg75
(lp2722
g1278
asbasbasbag68
(g84
g70
NtRp2723
(dp2724
g73
(dp2725
sg82
g2635
sg75
(lp2726
g68
(g89
g70
NtRp2727
(dp2728
g73
(dp2729
g93
g94
ssg82
g2723
sg75
(lp2730
S'HTTP_COOKIE'
p2731
asbag68
(g89
g70
NtRp2732
(dp2733
g73
(dp2734
g100
g101
ssg82
g2723
sg75
(lp2735
S':'
asbag68
(g89
g70
NtRp2736
(dp2737
g73
(dp2738
sg82
g2723
sg75
(lp2739
g68
(g69
g70
NtRp2740
(dp2741
g73
(dp2742
g81
I3
ssg82
g2736
sg75
(lp2743
g1300
asbasbasbag68
(g84
g70
NtRp2744
(dp2745
g73
(dp2746
sg82
g2635
sg75
(lp2747
g68
(g89
g70
NtRp2748
(dp2749
g73
(dp2750
g93
g94
ssg82
g2744
sg75
(lp2751
S'HTTP_HOST'
p2752
asbag68
(g89
g70
NtRp2753
(dp2754
g73
(dp2755
g100
g101
ssg82
g2744
sg75
(lp2756
S':'
asbag68
(g89
g70
NtRp2757
(dp2758
g73
(dp2759
sg82
g2744
sg75
(lp2760
g68
(g69
g70
NtRp2761
(dp2762
g73
(dp2763
g81
I3
ssg82
g2757
sg75
(lp2764
g1322
asbasbasbag68
(g84
g70
NtRp2765
(dp2766
g73
(dp2767
sg82
g2635
sg75
(lp2768
g68
(g89
g70
NtRp2769
(dp2770
g73
(dp2771
g93
g94
ssg82
g2765
sg75
(lp2772
S'HTTP_REFERER'
p2773
asbag68
(g89
g70
NtRp2774
(dp2775
g73
(dp2776
g100
g101
ssg82
g2765
sg75
(lp2777
S':'
asbag68
(g89
g70
NtRp2778
(dp2779
g73
(dp2780
sg82
g2765
sg75
(lp2781
g68
(g69
g70
NtRp2782
(dp2783
g73
(dp2784
g81
I3
ssg82
g2778
sg75
(lp2785
g1344
asbasbasbag68
(g84
g70
NtRp2786
(dp2787
g73
(dp2788
sg82
g2635
sg75
(lp2789
g68
(g89
g70
NtRp2790
(dp2791
g73
(dp2792
g93
g94
ssg82
g2786
sg75
(lp2793
S'HTTP_USER_AGENT'
p2794
asbag68
(g89
g70
NtRp2795
(dp2796
g73
(dp2797
g100
g101
ssg82
g2786
sg75
(lp2798
S':'
asbag68
(g89
g70
NtRp2799
(dp2800
g73
(dp2801
sg82
g2786
sg75
(lp2802
g68
(g69
g70
NtRp2803
(dp2804
g73
(dp2805
g81
I3
ssg82
g2799
sg75
(lp2806
g1366
asbasbasbag68
(g84
g70
NtRp2807
(dp2808
g73
(dp2809
sg82
g2635
sg75
(lp2810
g68
(g89
g70
NtRp2811
(dp2812
g73
(dp2813
g93
g94
ssg82
g2807
sg75
(lp2814
S'PATH_INFO'
p2815
asbag68
(g89
g70
NtRp2816
(dp2817
g73
(dp2818
g100
g101
ssg82
g2807
sg75
(lp2819
S':'
asbag68
(g89
g70
NtRp2820
(dp2821
g73
(dp2822
sg82
g2807
sg75
(lp2823
g68
(g69
g70
NtRp2824
(dp2825
g73
(dp2826
g81
I3
ssg82
g2820
sg75
(lp2827
g1430
asbasbasbag68
(g84
g70
NtRp2828
(dp2829
g73
(dp2830
sg82
g2635
sg75
(lp2831
g68
(g89
g70
NtRp2832
(dp2833
g73
(dp2834
g93
g94
ssg82
g2828
sg75
(lp2835
S'QUERY_STRING'
p2836
asbag68
(g89
g70
NtRp2837
(dp2838
g73
(dp2839
g100
g101
ssg82
g2828
sg75
(lp2840
S':'
asbag68
(g89
g70
NtRp2841
(dp2842
g73
(dp2843
sg82
g2828
sg75
(lp2844
g68
(g69
g70
NtRp2845
(dp2846
g73
(dp2847
g81
I3
ssg82
g2841
sg75
(lp2848
S''
asbasbasbag68
(g84
g70
NtRp2849
(dp2850
g73
(dp2851
sg82
g2635
sg75
(lp2852
g68
(g89
g70
NtRp2853
(dp2854
g73
(dp2855
g93
g94
ssg82
g2849
sg75
(lp2856
S'REMOTE_ADDR'
p2857
asbag68
(g89
g70
NtRp2858
(dp2859
g73
(dp2860
g100
g101
ssg82
g2849
sg75
(lp2861
S':'
asbag68
(g89
g70
NtRp2862
(dp2863
g73
(dp2864
sg82
g2849
sg75
(lp2865
g68
(g69
g70
NtRp2866
(dp2867
g73
(dp2868
g81
I3
ssg82
g2862
sg75
(lp2869
g214
asbasbasbag68
(g84
g70
NtRp2870
(dp2871
g73
(dp2872
sg82
g2635
sg75
(lp2873
g68
(g89
g70
NtRp2874
(dp2875
g73
(dp2876
g93
g94
ssg82
g2870
sg75
(lp2877
S'REMOTE_PORT'
p2878
asbag68
(g89
g70
NtRp2879
(dp2880
g73
(dp2881
g100
g101
ssg82
g2870
sg75
(lp2882
S':'
asbag68
(g89
g70
NtRp2883
(dp2884
g73
(dp2885
sg82
g2870
sg75
(lp2886
g68
(g69
g70
NtRp2887
(dp2888
g73
(dp2889
g81
I3
ssg82
g2883
sg75
(lp2890
g1494
asbasbasbag68
(g84
g70
NtRp2891
(dp2892
g73
(dp2893
sg82
g2635
sg75
(lp2894
g68
(g89
g70
NtRp2895
(dp2896
g73
(dp2897
g93
g94
ssg82
g2891
sg75
(lp2898
S'REQUEST_METHOD'
p2899
asbag68
(g89
g70
NtRp2900
(dp2901
g73
(dp2902
g100
g101
ssg82
g2891
sg75
(lp2903
S':'
asbag68
(g89
g70
NtRp2904
(dp2905
g73
(dp2906
sg82
g2891
sg75
(lp2907
g68
(g69
g70
NtRp2908
(dp2909
g73
(dp2910
g81
I3
ssg82
g2904
sg75
(lp2911
g1516
asbasbasbag68
(g84
g70
NtRp2912
(dp2913
g73
(dp2914
sg82
g2635
sg75
(lp2915
g68
(g89
g70
NtRp2916
(dp2917
g73
(dp2918
g93
g94
ssg82
g2912
sg75
(lp2919
S'SCRIPT_NAME'
p2920
asbag68
(g89
g70
NtRp2921
(dp2922
g73
(dp2923
g100
g101
ssg82
g2912
sg75
(lp2924
S':'
asbag68
(g89
g70
NtRp2925
(dp2926
g73
(dp2927
sg82
g2912
sg75
(lp2928
g68
(g69
g70
NtRp2929
(dp2930
g73
(dp2931
g81
I3
ssg82
g2925
sg75
(lp2932
S''
asbasbasbag68
(g84
g70
NtRp2933
(dp2934
g73
(dp2935
sg82
g2635
sg75
(lp2936
g68
(g89
g70
NtRp2937
(dp2938
g73
(dp2939
g93
g94
ssg82
g2933
sg75
(lp2940
S'SERVER_NAME'
p2941
asbag68
(g89
g70
NtRp2942
(dp2943
g73
(dp2944
g100
g101
ssg82
g2933
sg75
(lp2945
S':'
asbag68
(g89
g70
NtRp2946
(dp2947
g73
(dp2948
sg82
g2933
sg75
(lp2949
g68
(g69
g70
NtRp2950
(dp2951
g73
(dp2952
g81
I3
ssg82
g2946
sg75
(lp2953
g1559
asbasbasbag68
(g84
g70
NtRp2954
(dp2955
g73
(dp2956
sg82
g2635
sg75
(lp2957
g68
(g89
g70
NtRp2958
(dp2959
g73
(dp2960
g93
g94
ssg82
g2954
sg75
(lp2961
S'SERVER_PORT'
p2962
asbag68
(g89
g70
NtRp2963
(dp2964
g73
(dp2965
g100
g101
ssg82
g2954
sg75
(lp2966
S':'
asbag68
(g89
g70
NtRp2967
(dp2968
g73
(dp2969
sg82
g2954
sg75
(lp2970
g68
(g69
g70
NtRp2971
(dp2972
g73
(dp2973
g81
I3
ssg82
g2967
sg75
(lp2974
g1581
asbasbasbag68
(g84
g70
NtRp2975
(dp2976
g73
(dp2977
sg82
g2635
sg75
(lp2978
g68
(g89
g70
NtRp2979
(dp2980
g73
(dp2981
g93
g94
ssg82
g2975
sg75
(lp2982
S'SERVER_PROTOCOL'
p2983
asbag68
(g89
g70
NtRp2984
(dp2985
g73
(dp2986
g100
g101
ssg82
g2975
sg75
(lp2987
S':'
asbag68
(g89
g70
NtRp2988
(dp2989
g73
(dp2990
sg82
g2975
sg75
(lp2991
g68
(g69
g70
NtRp2992
(dp2993
g73
(dp2994
g81
I3
ssg82
g2988
sg75
(lp2995
g1603
asbasbasbag68
(g84
g70
NtRp2996
(dp2997
g73
(dp2998
sg82
g2635
sg75
(lp2999
g68
(g89
g70
NtRp3000
(dp3001
g73
(dp3002
g93
g94
ssg82
g2996
sg75
(lp3003
S'SERVER_SOFTWARE'
p3004
asbag68
(g89
g70
NtRp3005
(dp3006
g73
(dp3007
g100
g101
ssg82
g2996
sg75
(lp3008
S':'
asbag68
(g89
g70
NtRp3009
(dp3010
g73
(dp3011
sg82
g2996
sg75
(lp3012
g68
(g69
g70
NtRp3013
(dp3014
g73
(dp3015
g81
I3
ssg82
g3009
sg75
(lp3016
g1625
asbasbasbag68
(g84
g70
NtRp3017
(dp3018
g73
(dp3019
sg82
g2635
sg75
(lp3020
g68
(g89
g70
NtRp3021
(dp3022
g73
(dp3023
g93
g94
ssg82
g3017
sg75
(lp3024
S'wsgi.errors'
p3025
asbag68
(g89
g70
NtRp3026
(dp3027
g73
(dp3028
g100
g101
ssg82
g3017
sg75
(lp3029
S':'
asbag68
(g89
g70
NtRp3030
(dp3031
g73
(dp3032
sg82
g3017
sg75
(lp3033
g68
(g69
g70
NtRp3034
(dp3035
g73
(dp3036
g81
I3
ssg82
g3030
sg75
(lp3037
S"<open file '<stderr>', mode 'w' at 0xb73370d0>"
p3038
asbasbasbag68
(g84
g70
NtRp3039
(dp3040
g73
(dp3041
sg82
g2635
sg75
(lp3042
g68
(g89
g70
NtRp3043
(dp3044
g73
(dp3045
g93
g94
ssg82
g3039
sg75
(lp3046
S'wsgi.file_wrapper'
p3047
asbag68
(g89
g70
NtRp3048
(dp3049
g73
(dp3050
g100
g101
ssg82
g3039
sg75
(lp3051
S':'
asbag68
(g89
g70
NtRp3052
(dp3053
g73
(dp3054
sg82
g3039
sg75
(lp3055
g68
(g69
g70
NtRp3056
(dp3057
g73
(dp3058
g81
I3
ssg82
g3052
sg75
(lp3059
S'<class wsgiref.util.FileWrapper at 0x94fd4ac>'
p3060
asbasbasbag68
(g84
g70
NtRp3061
(dp3062
g73
(dp3063
sg82
g2635
sg75
(lp3064
g68
(g89
g70
NtRp3065
(dp3066
g73
(dp3067
g93
g94
ssg82
g3061
sg75
(lp3068
S'wsgi.input'
p3069
asbag68
(g89
g70
NtRp3070
(dp3071
g73
(dp3072
g100
g101
ssg82
g3061
sg75
(lp3073
S':'
asbag68
(g89
g70
NtRp3074
(dp3075
g73
(dp3076
sg82
g3061
sg75
(lp3077
g68
(g69
g70
NtRp3078
(dp3079
g73
(dp3080
g81
I3
ssg82
g3074
sg75
(lp3081
S'<cStringIO.StringO object at 0xb4acaac0>'
p3082
asbasbasbag68
(g84
g70
NtRp3083
(dp3084
g73
(dp3085
sg82
g2635
sg75
(lp3086
g68
(g89
g70
NtRp3087
(dp3088
g73
(dp3089
g93
g94
ssg82
g3083
sg75
(lp3090
S'wsgi.multiprocess'
p3091
asbag68
(g89
g70
NtRp3092
(dp3093
g73
(dp3094
g100
g101
ssg82
g3083
sg75
(lp3095
S':'
asbag68
(g89
g70
NtRp3096
(dp3097
g73
(dp3098
sg82
g3083
sg75
(lp3099
g68
(g69
g70
NtRp3100
(dp3101
g73
(dp3102
g81
I3
ssg82
g3096
sg75
(lp3103
g111
asbasbasbag68
(g84
g70
NtRp3104
(dp3105
g73
(dp3106
sg82
g2635
sg75
(lp3107
g68
(g89
g70
NtRp3108
(dp3109
g73
(dp3110
g93
g94
ssg82
g3104
sg75
(lp3111
S'wsgi.multithread'
p3112
asbag68
(g89
g70
NtRp3113
(dp3114
g73
(dp3115
g100
g101
ssg82
g3104
sg75
(lp3116
S':'
asbag68
(g89
g70
NtRp3117
(dp3118
g73
(dp3119
sg82
g3104
sg75
(lp3120
g68
(g69
g70
NtRp3121
(dp3122
g73
(dp3123
g81
I3
ssg82
g3117
sg75
(lp3124
g1865
asbasbasbag68
(g84
g70
NtRp3125
(dp3126
g73
(dp3127
sg82
g2635
sg75
(lp3128
g68
(g89
g70
NtRp3129
(dp3130
g73
(dp3131
g93
g94
ssg82
g3125
sg75
(lp3132
S'wsgi.run_once'
p3133
asbag68
(g89
g70
NtRp3134
(dp3135
g73
(dp3136
g100
g101
ssg82
g3125
sg75
(lp3137
S':'
asbag68
(g89
g70
NtRp3138
(dp3139
g73
(dp3140
sg82
g3125
sg75
(lp3141
g68
(g69
g70
NtRp3142
(dp3143
g73
(dp3144
g81
I3
ssg82
g3138
sg75
(lp3145
g111
asbasbasbag68
(g84
g70
NtRp3146
(dp3147
g73
(dp3148
sg82
g2635
sg75
(lp3149
g68
(g89
g70
NtRp3150
(dp3151
g73
(dp3152
g93
g94
ssg82
g3146
sg75
(lp3153
S'wsgi.url_scheme'
p3154
asbag68
(g89
g70
NtRp3155
(dp3156
g73
(dp3157
g100
g101
ssg82
g3146
sg75
(lp3158
S':'
asbag68
(g89
g70
NtRp3159
(dp3160
g73
(dp3161
sg82
g3146
sg75
(lp3162
g68
(g69
g70
NtRp3163
(dp3164
g73
(dp3165
g81
I3
ssg82
g3159
sg75
(lp3166
g1908
asbasbasbag68
(g84
g70
NtRp3167
(dp3168
g73
(dp3169
sg82
g2635
sg75
(lp3170
g68
(g89
g70
NtRp3171
(dp3172
g73
(dp3173
g93
g94
ssg82
g3167
sg75
(lp3174
S'wsgi.version'
p3175
asbag68
(g89
g70
NtRp3176
(dp3177
g73
(dp3178
g100
g101
ssg82
g3167
sg75
(lp3179
S':'
asbag68
(g89
g70
NtRp3180
(dp3181
g73
(dp3182
sg82
g3167
sg75
(lp3183
g68
(g69
g70
NtRp3184
(dp3185
g73
(dp3186
g81
I3
ssg82
g3180
sg75
(lp3187
S'1'
asbasbasbasbasbasbasbasbasbasbasbasbasbsS'frames'
p3188
(lp3189
(dp3190
S'file'
p3191
S'/usr/lib/pymodules/python2.7/gluon/restricted.py'
p3192
sS'dump'
p3193
(dp3194
S'code'
p3195
S'\'response.write(\\\'<!DOCTYPE html PUBLIC "-//W3C//D...v>\\\\n  </div>\\\\n </body>\\\\n</html>\\\\n\\\', escape=False)\''
p3196
sS'layer'
p3197
S"'/home/unic/web2py/applications/manager/views/default/nedit.html'"
p3198
sS'global compile2'
p3199
S'<function compile2>'
p3200
sS'ccode'
p3201
S'undefined'
p3202
ssS'lnum'
p3203
I203
sS'lines'
p3204
(dp3205
I198
S"    environment['__file__'] = layer"
p3206
sI199
S'    try:'
p3207
sI200
S'        if type(code) == types.CodeType:'
p3208
sI201
S'            ccode = code'
p3209
sI202
S'        else:'
p3210
sI203
S'            ccode = compile2(code,layer)'
p3211
sI204
S'        exec ccode in environment'
p3212
sI205
S'    except HTTP:'
p3213
sI206
S'        raise'
p3214
sI207
S'    except RestrictedError:'
p3215
ssS'call'
p3216
S'(code=\'response.write(\\\'<!DOCTYPE html PUBLIC "-//W3C//D...v>\\\\n  </div>\\\\n </body>\\\\n</html>\\\\n\\\', escape=False)\', environment={\'A\': <class \'gluon.html.A\'>, \'Auth\': <class \'gluon.tools.Auth\'>, \'B\': <class \'gluon.html.B\'>, \'BEAUTIFY\': <class \'gluon.html.BEAUTIFY\'>, \'BODY\': <class \'gluon.html.BODY\'>, \'BR\': <class \'gluon.html.BR\'>, \'BUTTON\': <class \'gluon.html.BUTTON\'>, \'CAS\': <Storage {\'check_url\': \'https://login.iiit.ac.in...: \'http://127.0.0.1:8000/manager/default/login\'}>, \'CAT\': <class \'gluon.html.CAT\'>, \'CENTER\': <class \'gluon.html.CENTER\'>, ...}, layer=\'/home/unic/web2py/applications/manager/views/default/nedit.html\')'
p3217
sS'func'
p3218
S'restricted'
p3219
sa(dp3220
g3191
S'/usr/lib/pymodules/python2.7/gluon/restricted.py'
p3221
sg3193
(dp3222
S'builtincompile'
p3223
S'<built-in function compile>'
p3224
sS'code'
p3225
S'\'response.write(\\\'<!DOCTYPE html PUBLIC "-//W3C//D...v>\\\\n  </div>\\\\n </body>\\\\n</html>\\\\n\\\', escape=False)\''
p3226
sS'code.rstrip'
p3227
S'<built-in method rstrip of str object>'
p3228
sS').replace'
p3229
g3202
sS'layer'
p3230
S"'/home/unic/web2py/applications/manager/views/default/nedit.html'"
p3231
ssg3203
I189
sg3204
(dp3232
I192
S'    """'
p3233
sI193
S'    runs code in environment and returns the output. if an exception occurs'
p3234
sI184
S''
sI185
S'def compile2(code,layer):'
p3235
sI186
S'    """'
p3236
sI187
S"    The +'\\n' is necessary else compile fails when code ends in a comment."
p3237
sI188
S'    """'
p3238
sI189
S"    return compile(code.rstrip().replace('\\r\\n','\\n')+'\\n', layer, 'exec')"
p3239
sI190
S''
sI191
S"def restricted(code, environment=None, layer='Unknown'):"
p3240
ssg3216
S'(code=\'response.write(\\\'<!DOCTYPE html PUBLIC "-//W3C//D...v>\\\\n  </div>\\\\n </body>\\\\n</html>\\\\n\\\', escape=False)\', layer=\'/home/unic/web2py/applications/manager/views/default/nedit.html\')'
p3241
sg3218
S'compile2'
p3242
sasS'pyver'
p3243
S'Python 2.7.3: /usr/bin/python'
p3244
sS'session'
p3245
g68
(g69
g70
NtRp3246
(dp3247
g73
(dp3248
sg75
(lp3249
g68
(g77
g70
NtRp3250
(dp3251
g73
(dp3252
g81
I5
ssg82
Nsg75
(lp3253
g68
(g84
g70
NtRp3254
(dp3255
g73
(dp3256
sg82
g3250
sg75
(lp3257
g68
(g89
g70
NtRp3258
(dp3259
g73
(dp3260
g93
g94
ssg82
g3254
sg75
(lp3261
S'LOGGEDIN'
p3262
asbag68
(g89
g70
NtRp3263
(dp3264
g73
(dp3265
g100
g101
ssg82
g3254
sg75
(lp3266
S':'
asbag68
(g89
g70
NtRp3267
(dp3268
g73
(dp3269
sg82
g3254
sg75
(lp3270
g68
(g69
g70
NtRp3271
(dp3272
g73
(dp3273
g81
I5
ssg82
g3267
sg75
(lp3274
S'0'
asbasbasbag68
(g84
g70
NtRp3275
(dp3276
g73
(dp3277
sg82
g3250
sg75
(lp3278
g68
(g89
g70
NtRp3279
(dp3280
g73
(dp3281
g93
g94
ssg82
g3275
sg75
(lp3282
S'login'
p3283
asbag68
(g89
g70
NtRp3284
(dp3285
g73
(dp3286
g100
g101
ssg82
g3275
sg75
(lp3287
S':'
asbag68
(g89
g70
NtRp3288
(dp3289
g73
(dp3290
sg82
g3275
sg75
(lp3291
g68
(g69
g70
NtRp3292
(dp3293
g73
(dp3294
g81
I5
ssg82
g3288
sg75
(lp3295
S'0'
asbasbasbag68
(g84
g70
NtRp3296
(dp3297
g73
(dp3298
sg82
g3250
sg75
(lp3299
g68
(g89
g70
NtRp3300
(dp3301
g73
(dp3302
g93
g94
ssg82
g3296
sg75
(lp3303
S'token'
p3304
asbag68
(g89
g70
NtRp3305
(dp3306
g73
(dp3307
g100
g101
ssg82
g3296
sg75
(lp3308
S':'
asbag68
(g89
g70
NtRp3309
(dp3310
g73
(dp3311
sg82
g3296
sg75
(lp3312
g68
(g69
g70
NtRp3313
(dp3314
g73
(dp3315
g81
I5
ssg82
g3309
sg75
(lp3316
S'neeharikak.v@students.iiit.ac.in'
p3317
asbasbasbasbasbsS'etype'
p3318
S"<type 'exceptions.SyntaxError'>"
p3319
sS'date'
p3320
S'Wed Nov 14 20:15:16 2012'
p3321
sS'response'
p3322
g68
(g69
g70
NtRp3323
(dp3324
g73
(dp3325
sg75
(lp3326
g68
(g77
g70
NtRp3327
(dp3328
g73
(dp3329
g81
I5
ssg82
Nsg75
(lp3330
g68
(g84
g70
NtRp3331
(dp3332
g73
(dp3333
sg82
g3327
sg75
(lp3334
g68
(g89
g70
NtRp3335
(dp3336
g73
(dp3337
g93
g94
ssg82
g3331
sg75
(lp3338
g179
asbag68
(g89
g70
NtRp3339
(dp3340
g73
(dp3341
g100
g101
ssg82
g3331
sg75
(lp3342
S':'
asbag68
(g89
g70
NtRp3343
(dp3344
g73
(dp3345
sg82
g3331
sg75
(lp3346
g68
(g69
g70
NtRp3347
(dp3348
g73
(dp3349
g81
I5
ssg82
g3343
sg75
(lp3350
S'<cStringIO.StringO object at 0x9a3bfe0>'
p3351
asbasbasbag68
(g84
g70
NtRp3352
(dp3353
g73
(dp3354
sg82
g3327
sg75
(lp3355
g68
(g89
g70
NtRp3356
(dp3357
g73
(dp3358
g93
g94
ssg82
g3352
sg75
(lp3359
g245
asbag68
(g89
g70
NtRp3360
(dp3361
g73
(dp3362
g100
g101
ssg82
g3352
sg75
(lp3363
S':'
asbag68
(g89
g70
NtRp3364
(dp3365
g73
(dp3366
sg82
g3352
sg75
(lp3367
g68
(g69
g70
NtRp3368
(dp3369
g73
(dp3370
g81
I5
ssg82
g3364
sg75
(lp3371
g68
(g77
g70
NtRp3372
(dp3373
g73
(dp3374
g81
I4
ssg82
Nsg75
(lp3375
g68
(g84
g70
NtRp3376
(dp3377
g73
(dp3378
sg82
g3372
sg75
(lp3379
g68
(g89
g70
NtRp3380
(dp3381
g73
(dp3382
g93
g94
ssg82
g3376
sg75
(lp3383
S'session_id_manager'
p3384
asbag68
(g89
g70
NtRp3385
(dp3386
g73
(dp3387
g100
g101
ssg82
g3376
sg75
(lp3388
S':'
asbag68
(g89
g70
NtRp3389
(dp3390
g73
(dp3391
sg82
g3376
sg75
(lp3392
g68
(g69
g70
NtRp3393
(dp3394
g73
(dp3395
g81
I4
ssg82
g3389
sg75
(lp3396
g68
(g77
g70
NtRp3397
(dp3398
g73
(dp3399
g81
I3
ssg82
Nsg75
(lp3400
g68
(g84
g70
NtRp3401
(dp3402
g73
(dp3403
sg82
g3397
sg75
(lp3404
g68
(g89
g70
NtRp3405
(dp3406
g73
(dp3407
g93
g94
ssg82
g3401
sg75
(lp3408
g295
asbag68
(g89
g70
NtRp3409
(dp3410
g73
(dp3411
g100
g101
ssg82
g3401
sg75
(lp3412
S':'
asbag68
(g89
g70
NtRp3413
(dp3414
g73
(dp3415
sg82
g3401
sg75
(lp3416
g68
(g69
g70
NtRp3417
(dp3418
g73
(dp3419
g81
I3
ssg82
g3413
sg75
(lp3420
S''
asbasbasbag68
(g84
g70
NtRp3421
(dp3422
g73
(dp3423
sg82
g3397
sg75
(lp3424
g68
(g89
g70
NtRp3425
(dp3426
g73
(dp3427
g93
g94
ssg82
g3421
sg75
(lp3428
g316
asbag68
(g89
g70
NtRp3429
(dp3430
g73
(dp3431
g100
g101
ssg82
g3421
sg75
(lp3432
S':'
asbag68
(g89
g70
NtRp3433
(dp3434
g73
(dp3435
sg82
g3421
sg75
(lp3436
g68
(g69
g70
NtRp3437
(dp3438
g73
(dp3439
g81
I3
ssg82
g3433
sg75
(lp3440
S''
asbasbasbag68
(g84
g70
NtRp3441
(dp3442
g73
(dp3443
sg82
g3397
sg75
(lp3444
g68
(g89
g70
NtRp3445
(dp3446
g73
(dp3447
g93
g94
ssg82
g3441
sg75
(lp3448
g337
asbag68
(g89
g70
NtRp3449
(dp3450
g73
(dp3451
g100
g101
ssg82
g3441
sg75
(lp3452
S':'
asbag68
(g89
g70
NtRp3453
(dp3454
g73
(dp3455
sg82
g3441
sg75
(lp3456
g68
(g69
g70
NtRp3457
(dp3458
g73
(dp3459
g81
I3
ssg82
g3453
sg75
(lp3460
S''
asbasbasbag68
(g84
g70
NtRp3461
(dp3462
g73
(dp3463
sg82
g3397
sg75
(lp3464
g68
(g89
g70
NtRp3465
(dp3466
g73
(dp3467
g93
g94
ssg82
g3461
sg75
(lp3468
g358
asbag68
(g89
g70
NtRp3469
(dp3470
g73
(dp3471
g100
g101
ssg82
g3461
sg75
(lp3472
S':'
asbag68
(g89
g70
NtRp3473
(dp3474
g73
(dp3475
sg82
g3461
sg75
(lp3476
g68
(g69
g70
NtRp3477
(dp3478
g73
(dp3479
g81
I3
ssg82
g3473
sg75
(lp3480
S''
asbasbasbag68
(g84
g70
NtRp3481
(dp3482
g73
(dp3483
sg82
g3397
sg75
(lp3484
g68
(g89
g70
NtRp3485
(dp3486
g73
(dp3487
g93
g94
ssg82
g3481
sg75
(lp3488
g379
asbag68
(g89
g70
NtRp3489
(dp3490
g73
(dp3491
g100
g101
ssg82
g3481
sg75
(lp3492
S':'
asbag68
(g89
g70
NtRp3493
(dp3494
g73
(dp3495
sg82
g3481
sg75
(lp3496
g68
(g69
g70
NtRp3497
(dp3498
g73
(dp3499
g81
I3
ssg82
g3493
sg75
(lp3500
S''
asbasbasbag68
(g84
g70
NtRp3501
(dp3502
g73
(dp3503
sg82
g3397
sg75
(lp3504
g68
(g89
g70
NtRp3505
(dp3506
g73
(dp3507
g93
g94
ssg82
g3501
sg75
(lp3508
g400
asbag68
(g89
g70
NtRp3509
(dp3510
g73
(dp3511
g100
g101
ssg82
g3501
sg75
(lp3512
S':'
asbag68
(g89
g70
NtRp3513
(dp3514
g73
(dp3515
sg82
g3501
sg75
(lp3516
g68
(g69
g70
NtRp3517
(dp3518
g73
(dp3519
g81
I3
ssg82
g3513
sg75
(lp3520
S'/'
asbasbasbag68
(g84
g70
NtRp3521
(dp3522
g73
(dp3523
sg82
g3397
sg75
(lp3524
g68
(g89
g70
NtRp3525
(dp3526
g73
(dp3527
g93
g94
ssg82
g3521
sg75
(lp3528
g421
asbag68
(g89
g70
NtRp3529
(dp3530
g73
(dp3531
g100
g101
ssg82
g3521
sg75
(lp3532
S':'
asbag68
(g89
g70
NtRp3533
(dp3534
g73
(dp3535
sg82
g3521
sg75
(lp3536
g68
(g69
g70
NtRp3537
(dp3538
g73
(dp3539
g81
I3
ssg82
g3533
sg75
(lp3540
S''
asbasbasbag68
(g84
g70
NtRp3541
(dp3542
g73
(dp3543
sg82
g3397
sg75
(lp3544
g68
(g89
g70
NtRp3545
(dp3546
g73
(dp3547
g93
g94
ssg82
g3541
sg75
(lp3548
g442
asbag68
(g89
g70
NtRp3549
(dp3550
g73
(dp3551
g100
g101
ssg82
g3541
sg75
(lp3552
S':'
asbag68
(g89
g70
NtRp3553
(dp3554
g73
(dp3555
sg82
g3541
sg75
(lp3556
g68
(g69
g70
NtRp3557
(dp3558
g73
(dp3559
g81
I3
ssg82
g3553
sg75
(lp3560
S''
asbasbasbasbasbasbasbasbasbasbasbag68
(g84
g70
NtRp3561
(dp3562
g73
(dp3563
sg82
g3327
sg75
(lp3564
g68
(g89
g70
NtRp3565
(dp3566
g73
(dp3567
g93
g94
ssg82
g3561
sg75
(lp3568
S'files'
p3569
asbag68
(g89
g70
NtRp3570
(dp3571
g73
(dp3572
g100
g101
ssg82
g3561
sg75
(lp3573
S':'
asbag68
(g89
g70
NtRp3574
(dp3575
g73
(dp3576
sg82
g3561
sg75
(lp3577
g68
(g69
g70
NtRp3578
(dp3579
g73
(dp3580
g81
I5
ssg82
g3574
sg75
(lp3581
g68
(g77
g70
NtRp3582
(dp3583
g73
(dp3584
g81
I4
ssg82
Nsg75
(lp3585
sbasbasbasbag68
(g84
g70
NtRp3586
(dp3587
g73
(dp3588
sg82
g3327
sg75
(lp3589
g68
(g89
g70
NtRp3590
(dp3591
g73
(dp3592
g93
g94
ssg82
g3586
sg75
(lp3593
S'flash'
p3594
asbag68
(g89
g70
NtRp3595
(dp3596
g73
(dp3597
g100
g101
ssg82
g3586
sg75
(lp3598
S':'
asbag68
(g89
g70
NtRp3599
(dp3600
g73
(dp3601
sg82
g3586
sg75
(lp3602
g68
(g69
g70
NtRp3603
(dp3604
g73
(dp3605
g81
I5
ssg82
g3599
sg75
(lp3606
S''
asbasbasbag68
(g84
g70
NtRp3607
(dp3608
g73
(dp3609
sg82
g3327
sg75
(lp3610
g68
(g89
g70
NtRp3611
(dp3612
g73
(dp3613
g93
g94
ssg82
g3607
sg75
(lp3614
S'generic_patterns'
p3615
asbag68
(g89
g70
NtRp3616
(dp3617
g73
(dp3618
g100
g101
ssg82
g3607
sg75
(lp3619
S':'
asbag68
(g89
g70
NtRp3620
(dp3621
g73
(dp3622
sg82
g3607
sg75
(lp3623
g68
(g69
g70
NtRp3624
(dp3625
g73
(dp3626
g81
I5
ssg82
g3620
sg75
(lp3627
g68
(g77
g70
NtRp3628
(dp3629
g73
(dp3630
g81
I4
ssg82
Nsg75
(lp3631
g68
(g84
g70
NtRp3632
(dp3633
g73
(dp3634
sg82
g3628
sg75
(lp3635
g68
(g89
g70
NtRp3636
(dp3637
g73
(dp3638
sg82
g3632
sg75
(lp3639
g68
(g69
g70
NtRp3640
(dp3641
g73
(dp3642
g81
I4
ssg82
g3636
sg75
(lp3643
S'*'
asbasbasbasbasbasbasbag68
(g84
g70
NtRp3644
(dp3645
g73
(dp3646
sg82
g3327
sg75
(lp3647
g68
(g89
g70
NtRp3648
(dp3649
g73
(dp3650
g93
g94
ssg82
g3644
sg75
(lp3651
S'headers'
p3652
asbag68
(g89
g70
NtRp3653
(dp3654
g73
(dp3655
g100
g101
ssg82
g3644
sg75
(lp3656
S':'
asbag68
(g89
g70
NtRp3657
(dp3658
g73
(dp3659
sg82
g3644
sg75
(lp3660
g68
(g69
g70
NtRp3661
(dp3662
g73
(dp3663
g81
I5
ssg82
g3657
sg75
(lp3664
g68
(g77
g70
NtRp3665
(dp3666
g73
(dp3667
g81
I4
ssg82
Nsg75
(lp3668
g68
(g84
g70
NtRp3669
(dp3670
g73
(dp3671
sg82
g3665
sg75
(lp3672
g68
(g89
g70
NtRp3673
(dp3674
g73
(dp3675
g93
g94
ssg82
g3669
sg75
(lp3676
S'Cache-Control'
p3677
asbag68
(g89
g70
NtRp3678
(dp3679
g73
(dp3680
g100
g101
ssg82
g3669
sg75
(lp3681
S':'
asbag68
(g89
g70
NtRp3682
(dp3683
g73
(dp3684
sg82
g3669
sg75
(lp3685
g68
(g69
g70
NtRp3686
(dp3687
g73
(dp3688
g81
I4
ssg82
g3682
sg75
(lp3689
S'no-store, no-cache, must-revalidate, post-check=0, pre-check=0'
p3690
asbasbasbag68
(g84
g70
NtRp3691
(dp3692
g73
(dp3693
sg82
g3665
sg75
(lp3694
g68
(g89
g70
NtRp3695
(dp3696
g73
(dp3697
g93
g94
ssg82
g3691
sg75
(lp3698
S'Content-Type'
p3699
asbag68
(g89
g70
NtRp3700
(dp3701
g73
(dp3702
g100
g101
ssg82
g3691
sg75
(lp3703
S':'
asbag68
(g89
g70
NtRp3704
(dp3705
g73
(dp3706
sg82
g3691
sg75
(lp3707
g68
(g69
g70
NtRp3708
(dp3709
g73
(dp3710
g81
I4
ssg82
g3704
sg75
(lp3711
S'text/html; charset=utf-8'
p3712
asbasbasbag68
(g84
g70
NtRp3713
(dp3714
g73
(dp3715
sg82
g3665
sg75
(lp3716
g68
(g89
g70
NtRp3717
(dp3718
g73
(dp3719
g93
g94
ssg82
g3713
sg75
(lp3720
S'Expires'
p3721
asbag68
(g89
g70
NtRp3722
(dp3723
g73
(dp3724
g100
g101
ssg82
g3713
sg75
(lp3725
S':'
asbag68
(g89
g70
NtRp3726
(dp3727
g73
(dp3728
sg82
g3713
sg75
(lp3729
g68
(g69
g70
NtRp3730
(dp3731
g73
(dp3732
g81
I4
ssg82
g3726
sg75
(lp3733
S'Wed, 14 Nov 2012 14:45:16 GMT'
p3734
asbasbasbag68
(g84
g70
NtRp3735
(dp3736
g73
(dp3737
sg82
g3665
sg75
(lp3738
g68
(g89
g70
NtRp3739
(dp3740
g73
(dp3741
g93
g94
ssg82
g3735
sg75
(lp3742
S'Pragma'
p3743
asbag68
(g89
g70
NtRp3744
(dp3745
g73
(dp3746
g100
g101
ssg82
g3735
sg75
(lp3747
S':'
asbag68
(g89
g70
NtRp3748
(dp3749
g73
(dp3750
sg82
g3735
sg75
(lp3751
g68
(g69
g70
NtRp3752
(dp3753
g73
(dp3754
g81
I4
ssg82
g3748
sg75
(lp3755
S'no-cache'
p3756
asbasbasbag68
(g84
g70
NtRp3757
(dp3758
g73
(dp3759
sg82
g3665
sg75
(lp3760
g68
(g89
g70
NtRp3761
(dp3762
g73
(dp3763
g93
g94
ssg82
g3757
sg75
(lp3764
S'X-Powered-By'
p3765
asbag68
(g89
g70
NtRp3766
(dp3767
g73
(dp3768
g100
g101
ssg82
g3757
sg75
(lp3769
S':'
asbag68
(g89
g70
NtRp3770
(dp3771
g73
(dp3772
sg82
g3757
sg75
(lp3773
g68
(g69
g70
NtRp3774
(dp3775
g73
(dp3776
g81
I4
ssg82
g3770
sg75
(lp3777
S'web2py'
p3778
asbasbasbasbasbasbasbag68
(g84
g70
NtRp3779
(dp3780
g73
(dp3781
sg82
g3327
sg75
(lp3782
g68
(g89
g70
NtRp3783
(dp3784
g73
(dp3785
g93
g94
ssg82
g3779
sg75
(lp3786
S'menu'
p3787
asbag68
(g89
g70
NtRp3788
(dp3789
g73
(dp3790
g100
g101
ssg82
g3779
sg75
(lp3791
S':'
asbag68
(g89
g70
NtRp3792
(dp3793
g73
(dp3794
sg82
g3779
sg75
(lp3795
g68
(g69
g70
NtRp3796
(dp3797
g73
(dp3798
g81
I5
ssg82
g3792
sg75
(lp3799
g68
(g77
g70
NtRp3800
(dp3801
g73
(dp3802
g81
I4
ssg82
Nsg75
(lp3803
g68
(g84
g70
NtRp3804
(dp3805
g73
(dp3806
sg82
g3800
sg75
(lp3807
g68
(g89
g70
NtRp3808
(dp3809
g73
(dp3810
sg82
g3804
sg75
(lp3811
g68
(g69
g70
NtRp3812
(dp3813
g73
(dp3814
g81
I4
ssg82
g3808
sg75
(lp3815
g68
(g77
g70
NtRp3816
(dp3817
g73
(dp3818
g81
I3
ssg82
Nsg75
(lp3819
g68
(g84
g70
NtRp3820
(dp3821
g73
(dp3822
sg82
g3816
sg75
(lp3823
g68
(g89
g70
NtRp3824
(dp3825
g73
(dp3826
sg82
g3820
sg75
(lp3827
g68
(g69
g70
NtRp3828
(dp3829
g73
(dp3830
g81
I3
ssg82
g3824
sg75
(lp3831
cgluon.languages
lazyT_unpickle
p3832
(S't\x04\x00\x00\x00Home'
tRp3833
asbasbasbag68
(g84
g70
NtRp3834
(dp3835
g73
(dp3836
sg82
g3816
sg75
(lp3837
g68
(g89
g70
NtRp3838
(dp3839
g73
(dp3840
sg82
g3834
sg75
(lp3841
g68
(g69
g70
NtRp3842
(dp3843
g73
(dp3844
g81
I3
ssg82
g3838
sg75
(lp3845
g111
asbasbasbag68
(g84
g70
NtRp3846
(dp3847
g73
(dp3848
sg82
g3816
sg75
(lp3849
g68
(g89
g70
NtRp3850
(dp3851
g73
(dp3852
sg82
g3846
sg75
(lp3853
g68
(g69
g70
NtRp3854
(dp3855
g73
(dp3856
g81
I3
ssg82
g3850
sg75
(lp3857
S'/manager/default/index'
p3858
asbasbasbasbasbasbasbag68
(g84
g70
NtRp3859
(dp3860
g73
(dp3861
sg82
g3800
sg75
(lp3862
g68
(g89
g70
NtRp3863
(dp3864
g73
(dp3865
sg82
g3859
sg75
(lp3866
g68
(g69
g70
NtRp3867
(dp3868
g73
(dp3869
g81
I4
ssg82
g3863
sg75
(lp3870
g68
(g77
g70
NtRp3871
(dp3872
g73
(dp3873
g81
I3
ssg82
Nsg75
(lp3874
g68
(g84
g70
NtRp3875
(dp3876
g73
(dp3877
sg82
g3871
sg75
(lp3878
g68
(g89
g70
NtRp3879
(dp3880
g73
(dp3881
sg82
g3875
sg75
(lp3882
g68
(g69
g70
NtRp3883
(dp3884
g73
(dp3885
g81
I3
ssg82
g3879
sg75
(lp3886
g3832
(S't\x06\x00\x00\x00logout'
tRp3887
asbasbasbag68
(g84
g70
NtRp3888
(dp3889
g73
(dp3890
sg82
g3871
sg75
(lp3891
g68
(g89
g70
NtRp3892
(dp3893
g73
(dp3894
sg82
g3888
sg75
(lp3895
g68
(g69
g70
NtRp3896
(dp3897
g73
(dp3898
g81
I3
ssg82
g3892
sg75
(lp3899
g111
asbasbasbag68
(g84
g70
NtRp3900
(dp3901
g73
(dp3902
sg82
g3871
sg75
(lp3903
g68
(g89
g70
NtRp3904
(dp3905
g73
(dp3906
sg82
g3900
sg75
(lp3907
g68
(g69
g70
NtRp3908
(dp3909
g73
(dp3910
g81
I3
ssg82
g3904
sg75
(lp3911
S'/manager/default/logout'
p3912
asbasbasbasbasbasbasbasbasbasbasbag68
(g84
g70
NtRp3913
(dp3914
g73
(dp3915
sg82
g3327
sg75
(lp3916
g68
(g89
g70
NtRp3917
(dp3918
g73
(dp3919
g93
g94
ssg82
g3913
sg75
(lp3920
S'meta'
p3921
asbag68
(g89
g70
NtRp3922
(dp3923
g73
(dp3924
g100
g101
ssg82
g3913
sg75
(lp3925
S':'
asbag68
(g89
g70
NtRp3926
(dp3927
g73
(dp3928
sg82
g3913
sg75
(lp3929
g68
(g69
g70
NtRp3930
(dp3931
g73
(dp3932
g81
I5
ssg82
g3926
sg75
(lp3933
g68
(g77
g70
NtRp3934
(dp3935
g73
(dp3936
g81
I4
ssg82
Nsg75
(lp3937
g68
(g84
g70
NtRp3938
(dp3939
g73
(dp3940
sg82
g3934
sg75
(lp3941
g68
(g89
g70
NtRp3942
(dp3943
g73
(dp3944
g93
g94
ssg82
g3938
sg75
(lp3945
S'author'
p3946
asbag68
(g89
g70
NtRp3947
(dp3948
g73
(dp3949
g100
g101
ssg82
g3938
sg75
(lp3950
S':'
asbag68
(g89
g70
NtRp3951
(dp3952
g73
(dp3953
sg82
g3938
sg75
(lp3954
g68
(g69
g70
NtRp3955
(dp3956
g73
(dp3957
g81
I4
ssg82
g3951
sg75
(lp3958
S'Your Name <you@example.com>'
p3959
asbasbasbag68
(g84
g70
NtRp3960
(dp3961
g73
(dp3962
sg82
g3934
sg75
(lp3963
g68
(g89
g70
NtRp3964
(dp3965
g73
(dp3966
g93
g94
ssg82
g3960
sg75
(lp3967
S'copyright'
p3968
asbag68
(g89
g70
NtRp3969
(dp3970
g73
(dp3971
g100
g101
ssg82
g3960
sg75
(lp3972
S':'
asbag68
(g89
g70
NtRp3973
(dp3974
g73
(dp3975
sg82
g3960
sg75
(lp3976
g68
(g69
g70
NtRp3977
(dp3978
g73
(dp3979
g81
I4
ssg82
g3973
sg75
(lp3980
S'Copyright 2011'
p3981
asbasbasbag68
(g84
g70
NtRp3982
(dp3983
g73
(dp3984
sg82
g3934
sg75
(lp3985
g68
(g89
g70
NtRp3986
(dp3987
g73
(dp3988
g93
g94
ssg82
g3982
sg75
(lp3989
S'description'
p3990
asbag68
(g89
g70
NtRp3991
(dp3992
g73
(dp3993
g100
g101
ssg82
g3982
sg75
(lp3994
S':'
asbag68
(g89
g70
NtRp3995
(dp3996
g73
(dp3997
sg82
g3982
sg75
(lp3998
g68
(g69
g70
NtRp3999
(dp4000
g73
(dp4001
g81
I4
ssg82
g3995
sg75
(lp4002
S'a cool new app'
p4003
asbasbasbag68
(g84
g70
NtRp4004
(dp4005
g73
(dp4006
sg82
g3934
sg75
(lp4007
g68
(g89
g70
NtRp4008
(dp4009
g73
(dp4010
g93
g94
ssg82
g4004
sg75
(lp4011
S'generator'
p4012
asbag68
(g89
g70
NtRp4013
(dp4014
g73
(dp4015
g100
g101
ssg82
g4004
sg75
(lp4016
S':'
asbag68
(g89
g70
NtRp4017
(dp4018
g73
(dp4019
sg82
g4004
sg75
(lp4020
g68
(g69
g70
NtRp4021
(dp4022
g73
(dp4023
g81
I4
ssg82
g4017
sg75
(lp4024
S'Web2py Web Framework'
p4025
asbasbasbag68
(g84
g70
NtRp4026
(dp4027
g73
(dp4028
sg82
g3934
sg75
(lp4029
g68
(g89
g70
NtRp4030
(dp4031
g73
(dp4032
g93
g94
ssg82
g4026
sg75
(lp4033
S'keywords'
p4034
asbag68
(g89
g70
NtRp4035
(dp4036
g73
(dp4037
g100
g101
ssg82
g4026
sg75
(lp4038
S':'
asbag68
(g89
g70
NtRp4039
(dp4040
g73
(dp4041
sg82
g4026
sg75
(lp4042
g68
(g69
g70
NtRp4043
(dp4044
g73
(dp4045
g81
I4
ssg82
g4039
sg75
(lp4046
S'web2py, python, framework'
p4047
asbasbasbasbasbasbasbag68
(g84
g70
NtRp4048
(dp4049
g73
(dp4050
sg82
g3327
sg75
(lp4051
g68
(g89
g70
NtRp4052
(dp4053
g73
(dp4054
g93
g94
ssg82
g4048
sg75
(lp4055
S'postprocessing'
p4056
asbag68
(g89
g70
NtRp4057
(dp4058
g73
(dp4059
g100
g101
ssg82
g4048
sg75
(lp4060
S':'
asbag68
(g89
g70
NtRp4061
(dp4062
g73
(dp4063
sg82
g4048
sg75
(lp4064
g68
(g69
g70
NtRp4065
(dp4066
g73
(dp4067
g81
I5
ssg82
g4061
sg75
(lp4068
g68
(g77
g70
NtRp4069
(dp4070
g73
(dp4071
g81
I4
ssg82
Nsg75
(lp4072
sbasbasbasbag68
(g84
g70
NtRp4073
(dp4074
g73
(dp4075
sg82
g3327
sg75
(lp4076
g68
(g89
g70
NtRp4077
(dp4078
g73
(dp4079
g93
g94
ssg82
g4073
sg75
(lp4080
S'session_file'
p4081
asbag68
(g89
g70
NtRp4082
(dp4083
g73
(dp4084
g100
g101
ssg82
g4073
sg75
(lp4085
S':'
asbag68
(g89
g70
NtRp4086
(dp4087
g73
(dp4088
sg82
g4073
sg75
(lp4089
g68
(g69
g70
NtRp4090
(dp4091
g73
(dp4092
g81
I5
ssg82
g4086
sg75
(lp4093
S"<open file '/home/unic/web2py/applications/manager/sessions/127.0.0.1-9680a272-d22f-48db-9899-03542bdb9e98', mode 'rb+' at 0xab94a860>"
p4094
asbasbasbag68
(g84
g70
NtRp4095
(dp4096
g73
(dp4097
sg82
g3327
sg75
(lp4098
g68
(g89
g70
NtRp4099
(dp4100
g73
(dp4101
g93
g94
ssg82
g4095
sg75
(lp4102
S'session_filename'
p4103
asbag68
(g89
g70
NtRp4104
(dp4105
g73
(dp4106
g100
g101
ssg82
g4095
sg75
(lp4107
S':'
asbag68
(g89
g70
NtRp4108
(dp4109
g73
(dp4110
sg82
g4095
sg75
(lp4111
g68
(g69
g70
NtRp4112
(dp4113
g73
(dp4114
g81
I5
ssg82
g4108
sg75
(lp4115
S'/home/unic/web2py/applications/manager/sessions/127.0.0.1-9680a272-d22f-48db-9899-03542bdb9e98'
p4116
asbasbasbag68
(g84
g70
NtRp4117
(dp4118
g73
(dp4119
sg82
g3327
sg75
(lp4120
g68
(g89
g70
NtRp4121
(dp4122
g73
(dp4123
g93
g94
ssg82
g4117
sg75
(lp4124
S'session_id'
p4125
asbag68
(g89
g70
NtRp4126
(dp4127
g73
(dp4128
g100
g101
ssg82
g4117
sg75
(lp4129
S':'
asbag68
(g89
g70
NtRp4130
(dp4131
g73
(dp4132
sg82
g4117
sg75
(lp4133
g68
(g69
g70
NtRp4134
(dp4135
g73
(dp4136
g81
I5
ssg82
g4130
sg75
(lp4137
S'127.0.0.1-9680a272-d22f-48db-9899-03542bdb9e98'
p4138
asbasbasbag68
(g84
g70
NtRp4139
(dp4140
g73
(dp4141
sg82
g3327
sg75
(lp4142
g68
(g89
g70
NtRp4143
(dp4144
g73
(dp4145
g93
g94
ssg82
g4139
sg75
(lp4146
S'session_id_name'
p4147
asbag68
(g89
g70
NtRp4148
(dp4149
g73
(dp4150
g100
g101
ssg82
g4139
sg75
(lp4151
S':'
asbag68
(g89
g70
NtRp4152
(dp4153
g73
(dp4154
sg82
g4139
sg75
(lp4155
g68
(g69
g70
NtRp4156
(dp4157
g73
(dp4158
g81
I5
ssg82
g4152
sg75
(lp4159
g3384
asbasbasbag68
(g84
g70
NtRp4160
(dp4161
g73
(dp4162
sg82
g3327
sg75
(lp4163
g68
(g89
g70
NtRp4164
(dp4165
g73
(dp4166
g93
g94
ssg82
g4160
sg75
(lp4167
S'session_locked'
p4168
asbag68
(g89
g70
NtRp4169
(dp4170
g73
(dp4171
g100
g101
ssg82
g4160
sg75
(lp4172
S':'
asbag68
(g89
g70
NtRp4173
(dp4174
g73
(dp4175
sg82
g4160
sg75
(lp4176
g68
(g69
g70
NtRp4177
(dp4178
g73
(dp4179
g81
I5
ssg82
g4173
sg75
(lp4180
g1865
asbasbasbag68
(g84
g70
NtRp4181
(dp4182
g73
(dp4183
sg82
g3327
sg75
(lp4184
g68
(g89
g70
NtRp4185
(dp4186
g73
(dp4187
g93
g94
ssg82
g4181
sg75
(lp4188
S'session_new'
p4189
asbag68
(g89
g70
NtRp4190
(dp4191
g73
(dp4192
g100
g101
ssg82
g4181
sg75
(lp4193
S':'
asbag68
(g89
g70
NtRp4194
(dp4195
g73
(dp4196
sg82
g4181
sg75
(lp4197
g68
(g69
g70
NtRp4198
(dp4199
g73
(dp4200
g81
I5
ssg82
g4194
sg75
(lp4201
g111
asbasbasbag68
(g84
g70
NtRp4202
(dp4203
g73
(dp4204
sg82
g3327
sg75
(lp4205
g68
(g89
g70
NtRp4206
(dp4207
g73
(dp4208
g93
g94
ssg82
g4202
sg75
(lp4209
S'status'
p4210
asbag68
(g89
g70
NtRp4211
(dp4212
g73
(dp4213
g100
g101
ssg82
g4202
sg75
(lp4214
S':'
asbag68
(g89
g70
NtRp4215
(dp4216
g73
(dp4217
sg82
g4202
sg75
(lp4218
g68
(g69
g70
NtRp4219
(dp4220
g73
(dp4221
g81
I5
ssg82
g4215
sg75
(lp4222
S'200'
p4223
asbasbasbag68
(g84
g70
NtRp4224
(dp4225
g73
(dp4226
sg82
g3327
sg75
(lp4227
g68
(g89
g70
NtRp4228
(dp4229
g73
(dp4230
g93
g94
ssg82
g4224
sg75
(lp4231
S'subtitle'
p4232
asbag68
(g89
g70
NtRp4233
(dp4234
g73
(dp4235
g100
g101
ssg82
g4224
sg75
(lp4236
S':'
asbag68
(g89
g70
NtRp4237
(dp4238
g73
(dp4239
sg82
g4224
sg75
(lp4240
g68
(g69
g70
NtRp4241
(dp4242
g73
(dp4243
g81
I5
ssg82
g4237
sg75
(lp4244
g3832
(S's\r\x00\x00\x00customize me!'
tRp4245
asbasbasbag68
(g84
g70
NtRp4246
(dp4247
g73
(dp4248
sg82
g3327
sg75
(lp4249
g68
(g89
g70
NtRp4250
(dp4251
g73
(dp4252
g93
g94
ssg82
g4246
sg75
(lp4253
S'title'
p4254
asbag68
(g89
g70
NtRp4255
(dp4256
g73
(dp4257
g100
g101
ssg82
g4246
sg75
(lp4258
S':'
asbag68
(g89
g70
NtRp4259
(dp4260
g73
(dp4261
sg82
g4246
sg75
(lp4262
g68
(g69
g70
NtRp4263
(dp4264
g73
(dp4265
g81
I5
ssg82
g4259
sg75
(lp4266
S'Manager'
p4267
asbasbasbag68
(g84
g70
NtRp4268
(dp4269
g73
(dp4270
sg82
g3327
sg75
(lp4271
g68
(g89
g70
NtRp4272
(dp4273
g73
(dp4274
g93
g94
ssg82
g4268
sg75
(lp4275
g2550
asbag68
(g89
g70
NtRp4276
(dp4277
g73
(dp4278
g100
g101
ssg82
g4268
sg75
(lp4279
S':'
asbag68
(g89
g70
NtRp4280
(dp4281
g73
(dp4282
sg82
g4268
sg75
(lp4283
g68
(g69
g70
NtRp4284
(dp4285
g73
(dp4286
g81
I5
ssg82
g4280
sg75
(lp4287
g2563
asbasbasbag68
(g84
g70
NtRp4288
(dp4289
g73
(dp4290
sg82
g3327
sg75
(lp4291
g68
(g89
g70
NtRp4292
(dp4293
g73
(dp4294
g93
g94
ssg82
g4288
sg75
(lp4295
S'view'
p4296
asbag68
(g89
g70
NtRp4297
(dp4298
g73
(dp4299
g100
g101
ssg82
g4288
sg75
(lp4300
S':'
asbag68
(g89
g70
NtRp4301
(dp4302
g73
(dp4303
sg82
g4288
sg75
(lp4304
g68
(g69
g70
NtRp4305
(dp4306
g73
(dp4307
g81
I5
ssg82
g4301
sg75
(lp4308
S'default/nedit.html'
p4309
asbasbasbasbasbsS'locals'
p4310
(dp4311
g4
S"'/home/unic/web2py/applications/manager/views/default/nedit.html'"
p4312
sg6
S'\'response.write(\\\'<!DOCTYPE html PUBLIC "-//W3C//D...v>\\\\n  </div>\\\\n </body>\\\\n</html>\\\\n\\\', escape=False)\''
p4313
sssS'traceback'
p4314
S'Traceback (most recent call last):\n  File "/usr/lib/pymodules/python2.7/gluon/restricted.py", line 203, in restricted\n    ccode = compile2(code,layer)\n  File "/usr/lib/pymodules/python2.7/gluon/restricted.py", line 189, in compile2\n    return compile(code.rstrip().replace(\'\\r\\n\',\'\\n\')+\'\\n\', layer, \'exec\')\n  File "/home/unic/web2py/applications/manager/views/default/nedit.html", line 83\n    response.write(\'\\n\', escape=False)\n           ^\nSyntaxError: invalid syntax\n'
p4315
s.