(dp1
S'output'
p2
S"<type 'exceptions.AttributeError'> 'NoneType' object has no attribute 'first_name'"
p3
sS'layer'
p4
S'B:\\web2py\\applications\\manager\\views\\default/index.html'
p5
sS'code'
p6
S'response.write(\'<!DOCTYPE html PUBLIC "-//W3C//DTD XHTML 1.0 Strict//EN" "http://www.w3.org/TR/xhtml1/DTD/xhtml1-strict.dtd">\\n<!--\\nDesign by Free CSS Templates\\nhttp://www.freecsstemplates.org\\nReleased for free under a Creative Commons Attribution 2.5 License\\n\\nName       : Transient\\nTransient: A three-column, fixed-width blog design.\\nVersion    : 1.0\\nReleased   : 20071004\\n\\n-->\\n<html xmlns="http://www.w3.org/1999/xhtml">\\n <head>\\n  <title>\\n   \', escape=False)\nresponse.write(response.title or request.application)\nresponse.write(\'\\n  </title>\\n  \', escape=False)\nresponse.files.append(URL(request.application,\'static\',\'plugin_layouts/layouts/Transient/default.css\'))\nresponse.write(\'\\n  \', escape=False)\nresponse.files.append(URL(\'static\',\'plugin_layouts/superfish.js\'))\nresponse.write(\'\\n  \', escape=False)\nresponse.write(\'<script type="text/javascript"><!--\\n    // These variables are used by the web2py_ajax_init function in web2py_ajax.js (which is loaded below).\\n    var w2p_ajax_confirm_message = "\', escape=False)\nresponse.write(T(\'Are you sure you want to delete this object?\'))\nresponse.write(\'";\\n    var w2p_ajax_date_format = "\', escape=False)\nresponse.write(T(\'%Y-%m-%d\'))\nresponse.write(\'";\\n    var w2p_ajax_datetime_format = "\', escape=False)\nresponse.write(T(\'%Y-%m-%d %H:%M:%S\'))\nresponse.write(\'";\\n    //--></script>\\n\', escape=False)\nresponse.files.insert(0,URL(\'static\',\'js/jquery.js\'))\nresponse.files.insert(3,URL(\'static\',\'js/web2py.js\'))\nresponse.include_meta()\nresponse.include_files()\nresponse.write(\'\\n\', escape=False)\nresponse.write(\'\\n  <style>\\nul.web2py-menu-vertical { width: 0px; position: relative; top:1em; left:1em;  z-index:30; border:0; margin:0; padding: 0; list-style: none; text-decoration: none;}\\nul.web2py-menu-vertical li { margin:0; padding:0; border:0; width: 0px; background: black; text-align:left;}\\nul.web2py-menu-vertical li a { margin:0; padding: 1px 3px 1px 3px; border:0; width: 0px; color: white; font-size:12px;}\\ndiv.flash { position: fixed; float: left; padding: 10px; top: 10px; right: 0px; opacity: 0.75; margin: 10px 10px 10px 10px; text-align: left; clear: both; color: #fff; font-size: 11pt; text-align: left; vertical-align: left; cursor: pointer; background: black; border: 2px solid #fff; -moz-border-radius: 5px; -webkit-border-radius: 5px; z-index: 2; }\\ndiv.error { background-color: red; color: white; padding: 3px; }\\n.auth_navbar { text-align:right; z-index:20; position: absolute; top: 2px; right:30px; border:0; padding:0 }\\n  </style>\\n </head>\\n <body>\\n  <!-- start header -->\\n  \', escape=False)\ntry:\n    response.write(auth.navbar(action=URL(\'default\',\'user\')))\nexcept:pass\nresponse.write(\'\\n\\n  <!-- start header -->\\n  <div id="logo" >\\n   <h1>\\n    \', escape=False)\nresponse.write(response.title or request.application)\nresponse.write(\'\\n   </h1>\\n   <br />\\n   \\n  </div>\\n  <h2>&nbsp;&nbsp;&nbsp;&nbsp;&nbsp;&nbsp;&nbsp;&nbsp;&nbsp;&nbsp;&nbsp;&nbsp;&nbsp;&nbsp;&nbsp;&nbsp;&nbsp;&nbsp;&nbsp;&nbsp;&nbsp;&nbsp;&nbsp;&nbsp; &nbsp;&nbsp;&nbsp;IIIT-H</h2>\\n  <div id="menu">\\n   \', escape=False)\nresponse.write(MENU(response.menu,_class=\'web2py-menu\'))\nresponse.write(\'\\n    <script>\\n      jQuery(document).ready(function(){jQuery(\\\'ul.web2py-menu\\\').superfish({delay:400});});\\n    </script>\\n  </div>\\n  <!-- end header -->\\n  <div id="wrapper">\\n   <!-- start page -->\\n   <div id="page">\\n    <!-- start content -->\\n    <div >\\n     <div >\', escape=False)\nresponse.write(response.flash or \'\')\nresponse.write(\'</div>\\n     \', escape=False)\nresponse.write(\'\\n<h2>&nbsp;&nbsp;&nbsp&nbsp;&nbsp;&nbspCongratulations \', escape=False)\nresponse.write(auth.user.first_name)\nresponse.write(\'!!<br /></h2>\\n<h3>&nbsp;&nbsp;&nbsp;&nbsp;&nbsp;&nbsp&nbsp;&nbsp;&nbspThis portal allows you to fill your preferences. Follow instructions carefully.</h3>\\n<h2>&nbsp;&nbsp;&nbsp;&nbsp;&nbsp;&nbspInstructions</h2>\\n<h3>&nbsp;&nbsp;&nbsp;&nbsp;&nbsp;&nbsp;&nbsp;&nbsp;&nbsp;&nbsp;1. This portal accepts a maximum of 10 preferences.<br />\\n&nbsp;&nbsp;&nbsp;&nbsp;&nbsp;&nbsp;&nbsp;&nbsp;&nbsp;&nbsp;2.After giving 10 preferences you can enter a preference only if you unselect any of your previous preference.<br />&nbsp;&nbsp;&nbsp\\n&nbsp;&nbsp;&nbsp;&nbsp;&nbsp;&nbsp3.You need not submit your preferences explicitly, selection will suffice.<br />\\n</h3>\\n<hr \\\\>\\n<ul>\\n<h2 align="left">Click here to choose your book preferences</h2>\\n<input type="button" value = "Choose" onclick="window.location = \\\'choose1\\\';">\\n<h2 align="left">Click here to choose your language preferences</h2>\\n<input type="button" value = "Choose" onclick="window.location = \\\'preference\\\';">\\n</ul>\\n\', escape=False)\nresponse.write(\'\\n    </div>\\n    <!-- end content -->\\n    <!-- start sidebars -->\\n    \\n    <!-- end sidebars -->\\n    <div style="clear: both;">\\n     &nbsp;\\n    </div>\\n   </div>\\n   <!-- end page -->\\n  </div>\\n  <div id="footer">\\n   <p>\\n    &copy;2007 All Rights Reserved. &nbsp;&bull;&nbsp; Design by\\n    <a href="http://www.freecsstemplates.org/">\\n     Free CSS Templates\\n    </a>\\n    .\\n   </p>\\n  </div>\\n </body>\\n</html>\\n\', escape=False)'
p7
sS'snapshot'
p8
(dp9
S'exception'
p10
(dp11
S'__hash__'
p12
S"<method-wrapper '__hash__' of exceptions.AttributeError object at 0x071B5468>"
p13
sS'__setattr__'
p14
S"<method-wrapper '__setattr__' of exceptions.AttributeError object at 0x071B5468>"
p15
sS'__reduce_ex__'
p16
S'<built-in method __reduce_ex__ of exceptions.AttributeError object at 0x071B5468>'
p17
sS'__getslice__'
p18
S"<method-wrapper '__getslice__' of exceptions.AttributeError object at 0x071B5468>"
p19
sS'__getitem__'
p20
S"<method-wrapper '__getitem__' of exceptions.AttributeError object at 0x071B5468>"
p21
sS'__setstate__'
p22
S'<built-in method __setstate__ of exceptions.AttributeError object at 0x071B5468>'
p23
sS'__reduce__'
p24
S'<built-in method __reduce__ of exceptions.AttributeError object at 0x071B5468>'
p25
sS'__str__'
p26
S"<method-wrapper '__str__' of exceptions.AttributeError object at 0x071B5468>"
p27
sS'args'
p28
S'("\'NoneType\' object has no attribute \'first_name\'",)'
p29
sS'__getattribute__'
p30
S"<method-wrapper '__getattribute__' of exceptions.AttributeError object at 0x071B5468>"
p31
sS'__class__'
p32
S"<type 'exceptions.AttributeError'>"
p33
sS'__delattr__'
p34
S"<method-wrapper '__delattr__' of exceptions.AttributeError object at 0x071B5468>"
p35
sS'__repr__'
p36
S"<method-wrapper '__repr__' of exceptions.AttributeError object at 0x071B5468>"
p37
sS'__dict__'
p38
S'{}'
p39
sS'__doc__'
p40
S"'Attribute not found.'"
p41
sS'__init__'
p42
S"<method-wrapper '__init__' of exceptions.AttributeError object at 0x071B5468>"
p43
sS'__new__'
p44
S'<built-in method __new__ of type object at 0x1E1CDA68>'
p45
ssS'evalue'
p46
S"'NoneType' object has no attribute 'first_name'"
p47
sS'request'
p48
ccopy_reg
_reconstructor
p49
(cgluon.html
BEAUTIFY
p50
c__builtin__
object
p51
NtRp52
(dp53
S'attributes'
p54
(dp55
sS'components'
p56
(lp57
g49
(cgluon.html
TABLE
p58
g51
NtRp59
(dp60
g54
(dp61
S'level'
p62
I5
ssS'parent'
p63
Nsg56
(lp64
g49
(cgluon.html
TR
p65
g51
NtRp66
(dp67
g54
(dp68
sg63
g59
sg56
(lp69
g49
(cgluon.html
TD
p70
g51
NtRp71
(dp72
g54
(dp73
S'_style'
p74
S'font-weight:bold;vertical-align:top'
p75
ssg63
g66
sg56
(lp76
S'ajax'
p77
asbag49
(g70
g51
NtRp78
(dp79
g54
(dp80
S'_valign'
p81
S'top'
p82
ssg63
g66
sg56
(lp83
S':'
asbag49
(g70
g51
NtRp84
(dp85
g54
(dp86
sg63
g66
sg56
(lp87
g49
(g50
g51
NtRp88
(dp89
g54
(dp90
g62
I5
ssg63
g84
sg56
(lp91
S'False'
p92
asbasbasbag49
(g65
g51
NtRp93
(dp94
g54
(dp95
sg63
g59
sg56
(lp96
g49
(g70
g51
NtRp97
(dp98
g54
(dp99
g74
g75
ssg63
g93
sg56
(lp100
S'application'
p101
asbag49
(g70
g51
NtRp102
(dp103
g54
(dp104
g81
g82
ssg63
g93
sg56
(lp105
S':'
asbag49
(g70
g51
NtRp106
(dp107
g54
(dp108
sg63
g93
sg56
(lp109
g49
(g50
g51
NtRp110
(dp111
g54
(dp112
g62
I5
ssg63
g106
sg56
(lp113
S'manager'
p114
asbasbasbag49
(g65
g51
NtRp115
(dp116
g54
(dp117
sg63
g59
sg56
(lp118
g49
(g70
g51
NtRp119
(dp120
g54
(dp121
g74
g75
ssg63
g115
sg56
(lp122
g28
asbag49
(g70
g51
NtRp123
(dp124
g54
(dp125
g81
g82
ssg63
g115
sg56
(lp126
S':'
asbag49
(g70
g51
NtRp127
(dp128
g54
(dp129
sg63
g115
sg56
(lp130
g49
(g50
g51
NtRp131
(dp132
g54
(dp133
g62
I5
ssg63
g127
sg56
(lp134
g49
(g58
g51
NtRp135
(dp136
g54
(dp137
g62
I4
ssg63
Nsg56
(lp138
sbasbasbasbag49
(g65
g51
NtRp139
(dp140
g54
(dp141
sg63
g59
sg56
(lp142
g49
(g70
g51
NtRp143
(dp144
g54
(dp145
g74
g75
ssg63
g139
sg56
(lp146
S'body'
p147
asbag49
(g70
g51
NtRp148
(dp149
g54
(dp150
g81
g82
ssg63
g139
sg56
(lp151
S':'
asbag49
(g70
g51
NtRp152
(dp153
g54
(dp154
sg63
g139
sg56
(lp155
g49
(g50
g51
NtRp156
(dp157
g54
(dp158
g62
I5
ssg63
g152
sg56
(lp159
S'<cStringIO.StringO object at 0x07133CA0>'
p160
asbasbasbag49
(g65
g51
NtRp161
(dp162
g54
(dp163
sg63
g59
sg56
(lp164
g49
(g70
g51
NtRp165
(dp166
g54
(dp167
g74
g75
ssg63
g161
sg56
(lp168
S'client'
p169
asbag49
(g70
g51
NtRp170
(dp171
g54
(dp172
g81
g82
ssg63
g161
sg56
(lp173
S':'
asbag49
(g70
g51
NtRp174
(dp175
g54
(dp176
sg63
g161
sg56
(lp177
g49
(g50
g51
NtRp178
(dp179
g54
(dp180
g62
I5
ssg63
g174
sg56
(lp181
S'127.0.0.1'
p182
asbasbasbag49
(g65
g51
NtRp183
(dp184
g54
(dp185
sg63
g59
sg56
(lp186
g49
(g70
g51
NtRp187
(dp188
g54
(dp189
g74
g75
ssg63
g183
sg56
(lp190
S'controller'
p191
asbag49
(g70
g51
NtRp192
(dp193
g54
(dp194
g81
g82
ssg63
g183
sg56
(lp195
S':'
asbag49
(g70
g51
NtRp196
(dp197
g54
(dp198
sg63
g183
sg56
(lp199
g49
(g50
g51
NtRp200
(dp201
g54
(dp202
g62
I5
ssg63
g196
sg56
(lp203
S'default'
p204
asbasbasbag49
(g65
g51
NtRp205
(dp206
g54
(dp207
sg63
g59
sg56
(lp208
g49
(g70
g51
NtRp209
(dp210
g54
(dp211
g74
g75
ssg63
g205
sg56
(lp212
S'cookies'
p213
asbag49
(g70
g51
NtRp214
(dp215
g54
(dp216
g81
g82
ssg63
g205
sg56
(lp217
S':'
asbag49
(g70
g51
NtRp218
(dp219
g54
(dp220
sg63
g205
sg56
(lp221
g49
(g50
g51
NtRp222
(dp223
g54
(dp224
g62
I5
ssg63
g218
sg56
(lp225
g49
(g58
g51
NtRp226
(dp227
g54
(dp228
g62
I4
ssg63
Nsg56
(lp229
g49
(g65
g51
NtRp230
(dp231
g54
(dp232
sg63
g226
sg56
(lp233
g49
(g70
g51
NtRp234
(dp235
g54
(dp236
g74
g75
ssg63
g230
sg56
(lp237
S'session_id_admin'
p238
asbag49
(g70
g51
NtRp239
(dp240
g54
(dp241
g81
g82
ssg63
g230
sg56
(lp242
S':'
asbag49
(g70
g51
NtRp243
(dp244
g54
(dp245
sg63
g230
sg56
(lp246
g49
(g50
g51
NtRp247
(dp248
g54
(dp249
g62
I4
ssg63
g243
sg56
(lp250
g49
(g58
g51
NtRp251
(dp252
g54
(dp253
g62
I3
ssg63
Nsg56
(lp254
g49
(g65
g51
NtRp255
(dp256
g54
(dp257
sg63
g251
sg56
(lp258
g49
(g70
g51
NtRp259
(dp260
g54
(dp261
g74
g75
ssg63
g255
sg56
(lp262
S'comment'
p263
asbag49
(g70
g51
NtRp264
(dp265
g54
(dp266
g81
g82
ssg63
g255
sg56
(lp267
S':'
asbag49
(g70
g51
NtRp268
(dp269
g54
(dp270
sg63
g255
sg56
(lp271
g49
(g50
g51
NtRp272
(dp273
g54
(dp274
g62
I3
ssg63
g268
sg56
(lp275
S''
asbasbasbag49
(g65
g51
NtRp276
(dp277
g54
(dp278
sg63
g251
sg56
(lp279
g49
(g70
g51
NtRp280
(dp281
g54
(dp282
g74
g75
ssg63
g276
sg56
(lp283
S'domain'
p284
asbag49
(g70
g51
NtRp285
(dp286
g54
(dp287
g81
g82
ssg63
g276
sg56
(lp288
S':'
asbag49
(g70
g51
NtRp289
(dp290
g54
(dp291
sg63
g276
sg56
(lp292
g49
(g50
g51
NtRp293
(dp294
g54
(dp295
g62
I3
ssg63
g289
sg56
(lp296
S''
asbasbasbag49
(g65
g51
NtRp297
(dp298
g54
(dp299
sg63
g251
sg56
(lp300
g49
(g70
g51
NtRp301
(dp302
g54
(dp303
g74
g75
ssg63
g297
sg56
(lp304
S'expires'
p305
asbag49
(g70
g51
NtRp306
(dp307
g54
(dp308
g81
g82
ssg63
g297
sg56
(lp309
S':'
asbag49
(g70
g51
NtRp310
(dp311
g54
(dp312
sg63
g297
sg56
(lp313
g49
(g50
g51
NtRp314
(dp315
g54
(dp316
g62
I3
ssg63
g310
sg56
(lp317
S''
asbasbasbag49
(g65
g51
NtRp318
(dp319
g54
(dp320
sg63
g251
sg56
(lp321
g49
(g70
g51
NtRp322
(dp323
g54
(dp324
g74
g75
ssg63
g318
sg56
(lp325
S'max-age'
p326
asbag49
(g70
g51
NtRp327
(dp328
g54
(dp329
g81
g82
ssg63
g318
sg56
(lp330
S':'
asbag49
(g70
g51
NtRp331
(dp332
g54
(dp333
sg63
g318
sg56
(lp334
g49
(g50
g51
NtRp335
(dp336
g54
(dp337
g62
I3
ssg63
g331
sg56
(lp338
S''
asbasbasbag49
(g65
g51
NtRp339
(dp340
g54
(dp341
sg63
g251
sg56
(lp342
g49
(g70
g51
NtRp343
(dp344
g54
(dp345
g74
g75
ssg63
g339
sg56
(lp346
S'path'
p347
asbag49
(g70
g51
NtRp348
(dp349
g54
(dp350
g81
g82
ssg63
g339
sg56
(lp351
S':'
asbag49
(g70
g51
NtRp352
(dp353
g54
(dp354
sg63
g339
sg56
(lp355
g49
(g50
g51
NtRp356
(dp357
g54
(dp358
g62
I3
ssg63
g352
sg56
(lp359
S''
asbasbasbag49
(g65
g51
NtRp360
(dp361
g54
(dp362
sg63
g251
sg56
(lp363
g49
(g70
g51
NtRp364
(dp365
g54
(dp366
g74
g75
ssg63
g360
sg56
(lp367
S'secure'
p368
asbag49
(g70
g51
NtRp369
(dp370
g54
(dp371
g81
g82
ssg63
g360
sg56
(lp372
S':'
asbag49
(g70
g51
NtRp373
(dp374
g54
(dp375
sg63
g360
sg56
(lp376
g49
(g50
g51
NtRp377
(dp378
g54
(dp379
g62
I3
ssg63
g373
sg56
(lp380
S''
asbasbasbag49
(g65
g51
NtRp381
(dp382
g54
(dp383
sg63
g251
sg56
(lp384
g49
(g70
g51
NtRp385
(dp386
g54
(dp387
g74
g75
ssg63
g381
sg56
(lp388
S'version'
p389
asbag49
(g70
g51
NtRp390
(dp391
g54
(dp392
g81
g82
ssg63
g381
sg56
(lp393
S':'
asbag49
(g70
g51
NtRp394
(dp395
g54
(dp396
sg63
g381
sg56
(lp397
g49
(g50
g51
NtRp398
(dp399
g54
(dp400
g62
I3
ssg63
g394
sg56
(lp401
S''
asbasbasbasbasbasbasbag49
(g65
g51
NtRp402
(dp403
g54
(dp404
sg63
g226
sg56
(lp405
g49
(g70
g51
NtRp406
(dp407
g54
(dp408
g74
g75
ssg63
g402
sg56
(lp409
S'session_id_manager'
p410
asbag49
(g70
g51
NtRp411
(dp412
g54
(dp413
g81
g82
ssg63
g402
sg56
(lp414
S':'
asbag49
(g70
g51
NtRp415
(dp416
g54
(dp417
sg63
g402
sg56
(lp418
g49
(g50
g51
NtRp419
(dp420
g54
(dp421
g62
I4
ssg63
g415
sg56
(lp422
g49
(g58
g51
NtRp423
(dp424
g54
(dp425
g62
I3
ssg63
Nsg56
(lp426
g49
(g65
g51
NtRp427
(dp428
g54
(dp429
sg63
g423
sg56
(lp430
g49
(g70
g51
NtRp431
(dp432
g54
(dp433
g74
g75
ssg63
g427
sg56
(lp434
g263
asbag49
(g70
g51
NtRp435
(dp436
g54
(dp437
g81
g82
ssg63
g427
sg56
(lp438
S':'
asbag49
(g70
g51
NtRp439
(dp440
g54
(dp441
sg63
g427
sg56
(lp442
g49
(g50
g51
NtRp443
(dp444
g54
(dp445
g62
I3
ssg63
g439
sg56
(lp446
S''
asbasbasbag49
(g65
g51
NtRp447
(dp448
g54
(dp449
sg63
g423
sg56
(lp450
g49
(g70
g51
NtRp451
(dp452
g54
(dp453
g74
g75
ssg63
g447
sg56
(lp454
g284
asbag49
(g70
g51
NtRp455
(dp456
g54
(dp457
g81
g82
ssg63
g447
sg56
(lp458
S':'
asbag49
(g70
g51
NtRp459
(dp460
g54
(dp461
sg63
g447
sg56
(lp462
g49
(g50
g51
NtRp463
(dp464
g54
(dp465
g62
I3
ssg63
g459
sg56
(lp466
S''
asbasbasbag49
(g65
g51
NtRp467
(dp468
g54
(dp469
sg63
g423
sg56
(lp470
g49
(g70
g51
NtRp471
(dp472
g54
(dp473
g74
g75
ssg63
g467
sg56
(lp474
g305
asbag49
(g70
g51
NtRp475
(dp476
g54
(dp477
g81
g82
ssg63
g467
sg56
(lp478
S':'
asbag49
(g70
g51
NtRp479
(dp480
g54
(dp481
sg63
g467
sg56
(lp482
g49
(g50
g51
NtRp483
(dp484
g54
(dp485
g62
I3
ssg63
g479
sg56
(lp486
S''
asbasbasbag49
(g65
g51
NtRp487
(dp488
g54
(dp489
sg63
g423
sg56
(lp490
g49
(g70
g51
NtRp491
(dp492
g54
(dp493
g74
g75
ssg63
g487
sg56
(lp494
g326
asbag49
(g70
g51
NtRp495
(dp496
g54
(dp497
g81
g82
ssg63
g487
sg56
(lp498
S':'
asbag49
(g70
g51
NtRp499
(dp500
g54
(dp501
sg63
g487
sg56
(lp502
g49
(g50
g51
NtRp503
(dp504
g54
(dp505
g62
I3
ssg63
g499
sg56
(lp506
S''
asbasbasbag49
(g65
g51
NtRp507
(dp508
g54
(dp509
sg63
g423
sg56
(lp510
g49
(g70
g51
NtRp511
(dp512
g54
(dp513
g74
g75
ssg63
g507
sg56
(lp514
g347
asbag49
(g70
g51
NtRp515
(dp516
g54
(dp517
g81
g82
ssg63
g507
sg56
(lp518
S':'
asbag49
(g70
g51
NtRp519
(dp520
g54
(dp521
sg63
g507
sg56
(lp522
g49
(g50
g51
NtRp523
(dp524
g54
(dp525
g62
I3
ssg63
g519
sg56
(lp526
S''
asbasbasbag49
(g65
g51
NtRp527
(dp528
g54
(dp529
sg63
g423
sg56
(lp530
g49
(g70
g51
NtRp531
(dp532
g54
(dp533
g74
g75
ssg63
g527
sg56
(lp534
g368
asbag49
(g70
g51
NtRp535
(dp536
g54
(dp537
g81
g82
ssg63
g527
sg56
(lp538
S':'
asbag49
(g70
g51
NtRp539
(dp540
g54
(dp541
sg63
g527
sg56
(lp542
g49
(g50
g51
NtRp543
(dp544
g54
(dp545
g62
I3
ssg63
g539
sg56
(lp546
S''
asbasbasbag49
(g65
g51
NtRp547
(dp548
g54
(dp549
sg63
g423
sg56
(lp550
g49
(g70
g51
NtRp551
(dp552
g54
(dp553
g74
g75
ssg63
g547
sg56
(lp554
g389
asbag49
(g70
g51
NtRp555
(dp556
g54
(dp557
g81
g82
ssg63
g547
sg56
(lp558
S':'
asbag49
(g70
g51
NtRp559
(dp560
g54
(dp561
sg63
g547
sg56
(lp562
g49
(g50
g51
NtRp563
(dp564
g54
(dp565
g62
I3
ssg63
g559
sg56
(lp566
S''
asbasbasbasbasbasbasbag49
(g65
g51
NtRp567
(dp568
g54
(dp569
sg63
g226
sg56
(lp570
g49
(g70
g51
NtRp571
(dp572
g54
(dp573
g74
g75
ssg63
g567
sg56
(lp574
S'session_id_welcome'
p575
asbag49
(g70
g51
NtRp576
(dp577
g54
(dp578
g81
g82
ssg63
g567
sg56
(lp579
S':'
asbag49
(g70
g51
NtRp580
(dp581
g54
(dp582
sg63
g567
sg56
(lp583
g49
(g50
g51
NtRp584
(dp585
g54
(dp586
g62
I4
ssg63
g580
sg56
(lp587
g49
(g58
g51
NtRp588
(dp589
g54
(dp590
g62
I3
ssg63
Nsg56
(lp591
g49
(g65
g51
NtRp592
(dp593
g54
(dp594
sg63
g588
sg56
(lp595
g49
(g70
g51
NtRp596
(dp597
g54
(dp598
g74
g75
ssg63
g592
sg56
(lp599
g263
asbag49
(g70
g51
NtRp600
(dp601
g54
(dp602
g81
g82
ssg63
g592
sg56
(lp603
S':'
asbag49
(g70
g51
NtRp604
(dp605
g54
(dp606
sg63
g592
sg56
(lp607
g49
(g50
g51
NtRp608
(dp609
g54
(dp610
g62
I3
ssg63
g604
sg56
(lp611
S''
asbasbasbag49
(g65
g51
NtRp612
(dp613
g54
(dp614
sg63
g588
sg56
(lp615
g49
(g70
g51
NtRp616
(dp617
g54
(dp618
g74
g75
ssg63
g612
sg56
(lp619
g284
asbag49
(g70
g51
NtRp620
(dp621
g54
(dp622
g81
g82
ssg63
g612
sg56
(lp623
S':'
asbag49
(g70
g51
NtRp624
(dp625
g54
(dp626
sg63
g612
sg56
(lp627
g49
(g50
g51
NtRp628
(dp629
g54
(dp630
g62
I3
ssg63
g624
sg56
(lp631
S''
asbasbasbag49
(g65
g51
NtRp632
(dp633
g54
(dp634
sg63
g588
sg56
(lp635
g49
(g70
g51
NtRp636
(dp637
g54
(dp638
g74
g75
ssg63
g632
sg56
(lp639
g305
asbag49
(g70
g51
NtRp640
(dp641
g54
(dp642
g81
g82
ssg63
g632
sg56
(lp643
S':'
asbag49
(g70
g51
NtRp644
(dp645
g54
(dp646
sg63
g632
sg56
(lp647
g49
(g50
g51
NtRp648
(dp649
g54
(dp650
g62
I3
ssg63
g644
sg56
(lp651
S''
asbasbasbag49
(g65
g51
NtRp652
(dp653
g54
(dp654
sg63
g588
sg56
(lp655
g49
(g70
g51
NtRp656
(dp657
g54
(dp658
g74
g75
ssg63
g652
sg56
(lp659
g326
asbag49
(g70
g51
NtRp660
(dp661
g54
(dp662
g81
g82
ssg63
g652
sg56
(lp663
S':'
asbag49
(g70
g51
NtRp664
(dp665
g54
(dp666
sg63
g652
sg56
(lp667
g49
(g50
g51
NtRp668
(dp669
g54
(dp670
g62
I3
ssg63
g664
sg56
(lp671
S''
asbasbasbag49
(g65
g51
NtRp672
(dp673
g54
(dp674
sg63
g588
sg56
(lp675
g49
(g70
g51
NtRp676
(dp677
g54
(dp678
g74
g75
ssg63
g672
sg56
(lp679
g347
asbag49
(g70
g51
NtRp680
(dp681
g54
(dp682
g81
g82
ssg63
g672
sg56
(lp683
S':'
asbag49
(g70
g51
NtRp684
(dp685
g54
(dp686
sg63
g672
sg56
(lp687
g49
(g50
g51
NtRp688
(dp689
g54
(dp690
g62
I3
ssg63
g684
sg56
(lp691
S''
asbasbasbag49
(g65
g51
NtRp692
(dp693
g54
(dp694
sg63
g588
sg56
(lp695
g49
(g70
g51
NtRp696
(dp697
g54
(dp698
g74
g75
ssg63
g692
sg56
(lp699
g368
asbag49
(g70
g51
NtRp700
(dp701
g54
(dp702
g81
g82
ssg63
g692
sg56
(lp703
S':'
asbag49
(g70
g51
NtRp704
(dp705
g54
(dp706
sg63
g692
sg56
(lp707
g49
(g50
g51
NtRp708
(dp709
g54
(dp710
g62
I3
ssg63
g704
sg56
(lp711
S''
asbasbasbag49
(g65
g51
NtRp712
(dp713
g54
(dp714
sg63
g588
sg56
(lp715
g49
(g70
g51
NtRp716
(dp717
g54
(dp718
g74
g75
ssg63
g712
sg56
(lp719
g389
asbag49
(g70
g51
NtRp720
(dp721
g54
(dp722
g81
g82
ssg63
g712
sg56
(lp723
S':'
asbag49
(g70
g51
NtRp724
(dp725
g54
(dp726
sg63
g712
sg56
(lp727
g49
(g50
g51
NtRp728
(dp729
g54
(dp730
g62
I3
ssg63
g724
sg56
(lp731
S''
asbasbasbasbasbasbasbasbasbasbasbag49
(g65
g51
NtRp732
(dp733
g54
(dp734
sg63
g59
sg56
(lp735
g49
(g70
g51
NtRp736
(dp737
g54
(dp738
g74
g75
ssg63
g732
sg56
(lp739
S'env'
p740
asbag49
(g70
g51
NtRp741
(dp742
g54
(dp743
g81
g82
ssg63
g732
sg56
(lp744
S':'
asbag49
(g70
g51
NtRp745
(dp746
g54
(dp747
sg63
g732
sg56
(lp748
g49
(g50
g51
NtRp749
(dp750
g54
(dp751
g62
I5
ssg63
g745
sg56
(lp752
g49
(g58
g51
NtRp753
(dp754
g54
(dp755
g62
I4
ssg63
Nsg56
(lp756
g49
(g65
g51
NtRp757
(dp758
g54
(dp759
sg63
g753
sg56
(lp760
g49
(g70
g51
NtRp761
(dp762
g54
(dp763
g74
g75
ssg63
g757
sg56
(lp764
S'app_folders'
p765
asbag49
(g70
g51
NtRp766
(dp767
g54
(dp768
g81
g82
ssg63
g757
sg56
(lp769
S':'
asbag49
(g70
g51
NtRp770
(dp771
g54
(dp772
sg63
g757
sg56
(lp773
g49
(g50
g51
NtRp774
(dp775
g54
(dp776
g62
I4
ssg63
g770
sg56
(lp777
S"set(['B:\\\\web2py\\\\applications\\\\welcome\\\\', 'B:\\\\web2py\\\\applications\\\\admin\\\\', 'B:\\\\web2py\\\\applications\\\\manager\\\\'])"
p778
asbasbasbag49
(g65
g51
NtRp779
(dp780
g54
(dp781
sg63
g753
sg56
(lp782
g49
(g70
g51
NtRp783
(dp784
g54
(dp785
g74
g75
ssg63
g779
sg56
(lp786
S'applications_parent'
p787
asbag49
(g70
g51
NtRp788
(dp789
g54
(dp790
g81
g82
ssg63
g779
sg56
(lp791
S':'
asbag49
(g70
g51
NtRp792
(dp793
g54
(dp794
sg63
g779
sg56
(lp795
g49
(g50
g51
NtRp796
(dp797
g54
(dp798
g62
I4
ssg63
g792
sg56
(lp799
S'B:\\web2py'
p800
asbasbasbag49
(g65
g51
NtRp801
(dp802
g54
(dp803
sg63
g753
sg56
(lp804
g49
(g70
g51
NtRp805
(dp806
g54
(dp807
g74
g75
ssg63
g801
sg56
(lp808
S'cmd_args'
p809
asbag49
(g70
g51
NtRp810
(dp811
g54
(dp812
g81
g82
ssg63
g801
sg56
(lp813
S':'
asbag49
(g70
g51
NtRp814
(dp815
g54
(dp816
sg63
g801
sg56
(lp817
g49
(g50
g51
NtRp818
(dp819
g54
(dp820
g62
I4
ssg63
g814
sg56
(lp821
g49
(g58
g51
NtRp822
(dp823
g54
(dp824
g62
I3
ssg63
Nsg56
(lp825
sbasbasbasbag49
(g65
g51
NtRp826
(dp827
g54
(dp828
sg63
g753
sg56
(lp829
g49
(g70
g51
NtRp830
(dp831
g54
(dp832
g74
g75
ssg63
g826
sg56
(lp833
S'cmd_options'
p834
asbag49
(g70
g51
NtRp835
(dp836
g54
(dp837
g81
g82
ssg63
g826
sg56
(lp838
S':'
asbag49
(g70
g51
NtRp839
(dp840
g54
(dp841
sg63
g826
sg56
(lp842
g49
(g50
g51
NtRp843
(dp844
g54
(dp845
g62
I4
ssg63
g839
sg56
(lp846
S"<Values at 0x3141058: {'verbose': False, 'ip': '127.0.0.1', 'shutdown_timeout': 5, 'taskbar': False, 'nocron': False, 'pid_filename': 'httpserver.pid', 'maxthreads': None, 'softcron': False, 'server_name': 'Abhishek-PC', 'bpython': False, 'nogui': False, 'port': 8000, 'extcron': False, 'debuglevel': 30, 'test': None, 'folder': 'B:\\\\web2py', 'config': '', 'import_models': False, 'winservice': '', 'shell': None, 'run': '', 'log_filename': 'httpserver.log', 'args': [''], 'socket_timeout': 5, 'ssl_ca_certificate': None, 'scheduler': None, 'profiler_filename': None, 'ssl_private_key': '', 'password': '<ask>', 'request_queue_size': 5, 'ssl_certificate': '', 'cronjob': False, 'numthreads': None, 'quiet': False, 'interfaces': None, 'minthreads': None, 'timeout': 10, 'plain': False, 'nobanner': False}>"
p847
asbasbasbag49
(g65
g51
NtRp848
(dp849
g54
(dp850
sg63
g753
sg56
(lp851
g49
(g70
g51
NtRp852
(dp853
g54
(dp854
g74
g75
ssg63
g848
sg56
(lp855
S'db_sessions'
p856
asbag49
(g70
g51
NtRp857
(dp858
g54
(dp859
g81
g82
ssg63
g848
sg56
(lp860
S':'
asbag49
(g70
g51
NtRp861
(dp862
g54
(dp863
sg63
g848
sg56
(lp864
g49
(g50
g51
NtRp865
(dp866
g54
(dp867
g62
I4
ssg63
g861
sg56
(lp868
S'set([])'
p869
asbasbasbag49
(g65
g51
NtRp870
(dp871
g54
(dp872
sg63
g753
sg56
(lp873
g49
(g70
g51
NtRp874
(dp875
g54
(dp876
g74
g75
ssg63
g870
sg56
(lp877
S'debugging'
p878
asbag49
(g70
g51
NtRp879
(dp880
g54
(dp881
g81
g82
ssg63
g870
sg56
(lp882
S':'
asbag49
(g70
g51
NtRp883
(dp884
g54
(dp885
sg63
g870
sg56
(lp886
g49
(g50
g51
NtRp887
(dp888
g54
(dp889
g62
I4
ssg63
g883
sg56
(lp890
g92
asbasbasbag49
(g65
g51
NtRp891
(dp892
g54
(dp893
sg63
g753
sg56
(lp894
g49
(g70
g51
NtRp895
(dp896
g54
(dp897
g74
g75
ssg63
g891
sg56
(lp898
S'gluon_parent'
p899
asbag49
(g70
g51
NtRp900
(dp901
g54
(dp902
g81
g82
ssg63
g891
sg56
(lp903
S':'
asbag49
(g70
g51
NtRp904
(dp905
g54
(dp906
sg63
g891
sg56
(lp907
g49
(g50
g51
NtRp908
(dp909
g54
(dp910
g62
I4
ssg63
g904
sg56
(lp911
S'B:\\web2py'
p912
asbasbasbag49
(g65
g51
NtRp913
(dp914
g54
(dp915
sg63
g753
sg56
(lp916
g49
(g70
g51
NtRp917
(dp918
g54
(dp919
g74
g75
ssg63
g913
sg56
(lp920
S'http_accept'
p921
asbag49
(g70
g51
NtRp922
(dp923
g54
(dp924
g81
g82
ssg63
g913
sg56
(lp925
S':'
asbag49
(g70
g51
NtRp926
(dp927
g54
(dp928
sg63
g913
sg56
(lp929
g49
(g50
g51
NtRp930
(dp931
g54
(dp932
g62
I4
ssg63
g926
sg56
(lp933
S'text/html,application/xhtml+xml,application/xml;q=0.9,*/*;q=0.8'
p934
asbasbasbag49
(g65
g51
NtRp935
(dp936
g54
(dp937
sg63
g753
sg56
(lp938
g49
(g70
g51
NtRp939
(dp940
g54
(dp941
g74
g75
ssg63
g935
sg56
(lp942
S'http_accept_encoding'
p943
asbag49
(g70
g51
NtRp944
(dp945
g54
(dp946
g81
g82
ssg63
g935
sg56
(lp947
S':'
asbag49
(g70
g51
NtRp948
(dp949
g54
(dp950
sg63
g935
sg56
(lp951
g49
(g50
g51
NtRp952
(dp953
g54
(dp954
g62
I4
ssg63
g948
sg56
(lp955
S'gzip, deflate'
p956
asbasbasbag49
(g65
g51
NtRp957
(dp958
g54
(dp959
sg63
g753
sg56
(lp960
g49
(g70
g51
NtRp961
(dp962
g54
(dp963
g74
g75
ssg63
g957
sg56
(lp964
S'http_accept_language'
p965
asbag49
(g70
g51
NtRp966
(dp967
g54
(dp968
g81
g82
ssg63
g957
sg56
(lp969
S':'
asbag49
(g70
g51
NtRp970
(dp971
g54
(dp972
sg63
g957
sg56
(lp973
g49
(g50
g51
NtRp974
(dp975
g54
(dp976
g62
I4
ssg63
g970
sg56
(lp977
S'en-US,en;q=0.5'
p978
asbasbasbag49
(g65
g51
NtRp979
(dp980
g54
(dp981
sg63
g753
sg56
(lp982
g49
(g70
g51
NtRp983
(dp984
g54
(dp985
g74
g75
ssg63
g979
sg56
(lp986
S'http_connection'
p987
asbag49
(g70
g51
NtRp988
(dp989
g54
(dp990
g81
g82
ssg63
g979
sg56
(lp991
S':'
asbag49
(g70
g51
NtRp992
(dp993
g54
(dp994
sg63
g979
sg56
(lp995
g49
(g50
g51
NtRp996
(dp997
g54
(dp998
g62
I4
ssg63
g992
sg56
(lp999
S'keep-alive'
p1000
asbasbasbag49
(g65
g51
NtRp1001
(dp1002
g54
(dp1003
sg63
g753
sg56
(lp1004
g49
(g70
g51
NtRp1005
(dp1006
g54
(dp1007
g74
g75
ssg63
g1001
sg56
(lp1008
S'http_cookie'
p1009
asbag49
(g70
g51
NtRp1010
(dp1011
g54
(dp1012
g81
g82
ssg63
g1001
sg56
(lp1013
S':'
asbag49
(g70
g51
NtRp1014
(dp1015
g54
(dp1016
sg63
g1001
sg56
(lp1017
g49
(g50
g51
NtRp1018
(dp1019
g54
(dp1020
g62
I4
ssg63
g1014
sg56
(lp1021
S'session_id_welcome=127.0.0.1-e48ba64a-07fe-47fb-87a7-9ac352bbee16; session_id_admin=127.0.0.1-03685001-ecdd-45b6-b4f5-86056728292d; session_id_manager=127.0.0.1-f4626611-cef5-437d-a235-ff812c572b30'
p1022
asbasbasbag49
(g65
g51
NtRp1023
(dp1024
g54
(dp1025
sg63
g753
sg56
(lp1026
g49
(g70
g51
NtRp1027
(dp1028
g54
(dp1029
g74
g75
ssg63
g1023
sg56
(lp1030
S'http_host'
p1031
asbag49
(g70
g51
NtRp1032
(dp1033
g54
(dp1034
g81
g82
ssg63
g1023
sg56
(lp1035
S':'
asbag49
(g70
g51
NtRp1036
(dp1037
g54
(dp1038
sg63
g1023
sg56
(lp1039
g49
(g50
g51
NtRp1040
(dp1041
g54
(dp1042
g62
I4
ssg63
g1036
sg56
(lp1043
S'127.0.0.1:8000'
p1044
asbasbasbag49
(g65
g51
NtRp1045
(dp1046
g54
(dp1047
sg63
g753
sg56
(lp1048
g49
(g70
g51
NtRp1049
(dp1050
g54
(dp1051
g74
g75
ssg63
g1045
sg56
(lp1052
S'http_referer'
p1053
asbag49
(g70
g51
NtRp1054
(dp1055
g54
(dp1056
g81
g82
ssg63
g1045
sg56
(lp1057
S':'
asbag49
(g70
g51
NtRp1058
(dp1059
g54
(dp1060
sg63
g1045
sg56
(lp1061
g49
(g50
g51
NtRp1062
(dp1063
g54
(dp1064
g62
I4
ssg63
g1058
sg56
(lp1065
S'http://127.0.0.1:8000/admin/default/design/manager'
p1066
asbasbasbag49
(g65
g51
NtRp1067
(dp1068
g54
(dp1069
sg63
g753
sg56
(lp1070
g49
(g70
g51
NtRp1071
(dp1072
g54
(dp1073
g74
g75
ssg63
g1067
sg56
(lp1074
S'http_user_agent'
p1075
asbag49
(g70
g51
NtRp1076
(dp1077
g54
(dp1078
g81
g82
ssg63
g1067
sg56
(lp1079
S':'
asbag49
(g70
g51
NtRp1080
(dp1081
g54
(dp1082
sg63
g1067
sg56
(lp1083
g49
(g50
g51
NtRp1084
(dp1085
g54
(dp1086
g62
I4
ssg63
g1080
sg56
(lp1087
S'Mozilla/5.0 (Windows NT 6.1; WOW64; rv:16.0) Gecko/20100101 Firefox/16.0'
p1088
asbasbasbag49
(g65
g51
NtRp1089
(dp1090
g54
(dp1091
sg63
g753
sg56
(lp1092
g49
(g70
g51
NtRp1093
(dp1094
g54
(dp1095
g74
g75
ssg63
g1089
sg56
(lp1096
S'is_jython'
p1097
asbag49
(g70
g51
NtRp1098
(dp1099
g54
(dp1100
g81
g82
ssg63
g1089
sg56
(lp1101
S':'
asbag49
(g70
g51
NtRp1102
(dp1103
g54
(dp1104
sg63
g1089
sg56
(lp1105
g49
(g50
g51
NtRp1106
(dp1107
g54
(dp1108
g62
I4
ssg63
g1102
sg56
(lp1109
g92
asbasbasbag49
(g65
g51
NtRp1110
(dp1111
g54
(dp1112
sg63
g753
sg56
(lp1113
g49
(g70
g51
NtRp1114
(dp1115
g54
(dp1116
g74
g75
ssg63
g1110
sg56
(lp1117
S'is_pypy'
p1118
asbag49
(g70
g51
NtRp1119
(dp1120
g54
(dp1121
g81
g82
ssg63
g1110
sg56
(lp1122
S':'
asbag49
(g70
g51
NtRp1123
(dp1124
g54
(dp1125
sg63
g1110
sg56
(lp1126
g49
(g50
g51
NtRp1127
(dp1128
g54
(dp1129
g62
I4
ssg63
g1123
sg56
(lp1130
g92
asbasbasbag49
(g65
g51
NtRp1131
(dp1132
g54
(dp1133
sg63
g753
sg56
(lp1134
g49
(g70
g51
NtRp1135
(dp1136
g54
(dp1137
g74
g75
ssg63
g1131
sg56
(lp1138
S'path_info'
p1139
asbag49
(g70
g51
NtRp1140
(dp1141
g54
(dp1142
g81
g82
ssg63
g1131
sg56
(lp1143
S':'
asbag49
(g70
g51
NtRp1144
(dp1145
g54
(dp1146
sg63
g1131
sg56
(lp1147
g49
(g50
g51
NtRp1148
(dp1149
g54
(dp1150
g62
I4
ssg63
g1144
sg56
(lp1151
S'/manager/default/index'
p1152
asbasbasbag49
(g65
g51
NtRp1153
(dp1154
g54
(dp1155
sg63
g753
sg56
(lp1156
g49
(g70
g51
NtRp1157
(dp1158
g54
(dp1159
g74
g75
ssg63
g1153
sg56
(lp1160
S'query_string'
p1161
asbag49
(g70
g51
NtRp1162
(dp1163
g54
(dp1164
g81
g82
ssg63
g1153
sg56
(lp1165
S':'
asbag49
(g70
g51
NtRp1166
(dp1167
g54
(dp1168
sg63
g1153
sg56
(lp1169
g49
(g50
g51
NtRp1170
(dp1171
g54
(dp1172
g62
I4
ssg63
g1166
sg56
(lp1173
S''
asbasbasbag49
(g65
g51
NtRp1174
(dp1175
g54
(dp1176
sg63
g753
sg56
(lp1177
g49
(g70
g51
NtRp1178
(dp1179
g54
(dp1180
g74
g75
ssg63
g1174
sg56
(lp1181
S'remote_addr'
p1182
asbag49
(g70
g51
NtRp1183
(dp1184
g54
(dp1185
g81
g82
ssg63
g1174
sg56
(lp1186
S':'
asbag49
(g70
g51
NtRp1187
(dp1188
g54
(dp1189
sg63
g1174
sg56
(lp1190
g49
(g50
g51
NtRp1191
(dp1192
g54
(dp1193
g62
I4
ssg63
g1187
sg56
(lp1194
g182
asbasbasbag49
(g65
g51
NtRp1195
(dp1196
g54
(dp1197
sg63
g753
sg56
(lp1198
g49
(g70
g51
NtRp1199
(dp1200
g54
(dp1201
g74
g75
ssg63
g1195
sg56
(lp1202
S'remote_port'
p1203
asbag49
(g70
g51
NtRp1204
(dp1205
g54
(dp1206
g81
g82
ssg63
g1195
sg56
(lp1207
S':'
asbag49
(g70
g51
NtRp1208
(dp1209
g54
(dp1210
sg63
g1195
sg56
(lp1211
g49
(g50
g51
NtRp1212
(dp1213
g54
(dp1214
g62
I4
ssg63
g1208
sg56
(lp1215
S'49493'
p1216
asbasbasbag49
(g65
g51
NtRp1217
(dp1218
g54
(dp1219
sg63
g753
sg56
(lp1220
g49
(g70
g51
NtRp1221
(dp1222
g54
(dp1223
g74
g75
ssg63
g1217
sg56
(lp1224
S'request_method'
p1225
asbag49
(g70
g51
NtRp1226
(dp1227
g54
(dp1228
g81
g82
ssg63
g1217
sg56
(lp1229
S':'
asbag49
(g70
g51
NtRp1230
(dp1231
g54
(dp1232
sg63
g1217
sg56
(lp1233
g49
(g50
g51
NtRp1234
(dp1235
g54
(dp1236
g62
I4
ssg63
g1230
sg56
(lp1237
S'GET'
p1238
asbasbasbag49
(g65
g51
NtRp1239
(dp1240
g54
(dp1241
sg63
g753
sg56
(lp1242
g49
(g70
g51
NtRp1243
(dp1244
g54
(dp1245
g74
g75
ssg63
g1239
sg56
(lp1246
S'script_name'
p1247
asbag49
(g70
g51
NtRp1248
(dp1249
g54
(dp1250
g81
g82
ssg63
g1239
sg56
(lp1251
S':'
asbag49
(g70
g51
NtRp1252
(dp1253
g54
(dp1254
sg63
g1239
sg56
(lp1255
g49
(g50
g51
NtRp1256
(dp1257
g54
(dp1258
g62
I4
ssg63
g1252
sg56
(lp1259
S''
asbasbasbag49
(g65
g51
NtRp1260
(dp1261
g54
(dp1262
sg63
g753
sg56
(lp1263
g49
(g70
g51
NtRp1264
(dp1265
g54
(dp1266
g74
g75
ssg63
g1260
sg56
(lp1267
S'server_name'
p1268
asbag49
(g70
g51
NtRp1269
(dp1270
g54
(dp1271
g81
g82
ssg63
g1260
sg56
(lp1272
S':'
asbag49
(g70
g51
NtRp1273
(dp1274
g54
(dp1275
sg63
g1260
sg56
(lp1276
g49
(g50
g51
NtRp1277
(dp1278
g54
(dp1279
g62
I4
ssg63
g1273
sg56
(lp1280
S'Abhishek-PC'
p1281
asbasbasbag49
(g65
g51
NtRp1282
(dp1283
g54
(dp1284
sg63
g753
sg56
(lp1285
g49
(g70
g51
NtRp1286
(dp1287
g54
(dp1288
g74
g75
ssg63
g1282
sg56
(lp1289
S'server_port'
p1290
asbag49
(g70
g51
NtRp1291
(dp1292
g54
(dp1293
g81
g82
ssg63
g1282
sg56
(lp1294
S':'
asbag49
(g70
g51
NtRp1295
(dp1296
g54
(dp1297
sg63
g1282
sg56
(lp1298
g49
(g50
g51
NtRp1299
(dp1300
g54
(dp1301
g62
I4
ssg63
g1295
sg56
(lp1302
S'8000'
p1303
asbasbasbag49
(g65
g51
NtRp1304
(dp1305
g54
(dp1306
sg63
g753
sg56
(lp1307
g49
(g70
g51
NtRp1308
(dp1309
g54
(dp1310
g74
g75
ssg63
g1304
sg56
(lp1311
S'server_protocol'
p1312
asbag49
(g70
g51
NtRp1313
(dp1314
g54
(dp1315
g81
g82
ssg63
g1304
sg56
(lp1316
S':'
asbag49
(g70
g51
NtRp1317
(dp1318
g54
(dp1319
sg63
g1304
sg56
(lp1320
g49
(g50
g51
NtRp1321
(dp1322
g54
(dp1323
g62
I4
ssg63
g1317
sg56
(lp1324
S'HTTP/1.1'
p1325
asbasbasbag49
(g65
g51
NtRp1326
(dp1327
g54
(dp1328
sg63
g753
sg56
(lp1329
g49
(g70
g51
NtRp1330
(dp1331
g54
(dp1332
g74
g75
ssg63
g1326
sg56
(lp1333
S'server_software'
p1334
asbag49
(g70
g51
NtRp1335
(dp1336
g54
(dp1337
g81
g82
ssg63
g1326
sg56
(lp1338
S':'
asbag49
(g70
g51
NtRp1339
(dp1340
g54
(dp1341
sg63
g1326
sg56
(lp1342
g49
(g50
g51
NtRp1343
(dp1344
g54
(dp1345
g62
I4
ssg63
g1339
sg56
(lp1346
S'Rocket 1.2.4'
p1347
asbasbasbag49
(g65
g51
NtRp1348
(dp1349
g54
(dp1350
sg63
g753
sg56
(lp1351
g49
(g70
g51
NtRp1352
(dp1353
g54
(dp1354
g74
g75
ssg63
g1348
sg56
(lp1355
S'web2py_crontype'
p1356
asbag49
(g70
g51
NtRp1357
(dp1358
g54
(dp1359
g81
g82
ssg63
g1348
sg56
(lp1360
S':'
asbag49
(g70
g51
NtRp1361
(dp1362
g54
(dp1363
sg63
g1348
sg56
(lp1364
g49
(g50
g51
NtRp1365
(dp1366
g54
(dp1367
g62
I4
ssg63
g1361
sg56
(lp1368
S'hard'
p1369
asbasbasbag49
(g65
g51
NtRp1370
(dp1371
g54
(dp1372
sg63
g753
sg56
(lp1373
g49
(g70
g51
NtRp1374
(dp1375
g54
(dp1376
g74
g75
ssg63
g1370
sg56
(lp1377
S'web2py_path'
p1378
asbag49
(g70
g51
NtRp1379
(dp1380
g54
(dp1381
g81
g82
ssg63
g1370
sg56
(lp1382
S':'
asbag49
(g70
g51
NtRp1383
(dp1384
g54
(dp1385
sg63
g1370
sg56
(lp1386
g49
(g50
g51
NtRp1387
(dp1388
g54
(dp1389
g62
I4
ssg63
g1383
sg56
(lp1390
g800
asbasbasbag49
(g65
g51
NtRp1391
(dp1392
g54
(dp1393
sg63
g753
sg56
(lp1394
g49
(g70
g51
NtRp1395
(dp1396
g54
(dp1397
g74
g75
ssg63
g1391
sg56
(lp1398
S'web2py_version'
p1399
asbag49
(g70
g51
NtRp1400
(dp1401
g54
(dp1402
g81
g82
ssg63
g1391
sg56
(lp1403
S':'
asbag49
(g70
g51
NtRp1404
(dp1405
g54
(dp1406
sg63
g1391
sg56
(lp1407
g49
(g50
g51
NtRp1408
(dp1409
g54
(dp1410
g62
I4
ssg63
g1404
sg56
(lp1411
g49
(g58
g51
NtRp1412
(dp1413
g54
(dp1414
g62
I3
ssg63
Nsg56
(lp1415
g49
(g65
g51
NtRp1416
(dp1417
g54
(dp1418
sg63
g1412
sg56
(lp1419
g49
(g70
g51
NtRp1420
(dp1421
g54
(dp1422
sg63
g1416
sg56
(lp1423
g49
(g50
g51
NtRp1424
(dp1425
g54
(dp1426
g62
I3
ssg63
g1420
sg56
(lp1427
S'1'
asbasbasbag49
(g65
g51
NtRp1428
(dp1429
g54
(dp1430
sg63
g1412
sg56
(lp1431
g49
(g70
g51
NtRp1432
(dp1433
g54
(dp1434
sg63
g1428
sg56
(lp1435
g49
(g50
g51
NtRp1436
(dp1437
g54
(dp1438
g62
I3
ssg63
g1432
sg56
(lp1439
S'99'
p1440
asbasbasbag49
(g65
g51
NtRp1441
(dp1442
g54
(dp1443
sg63
g1412
sg56
(lp1444
g49
(g70
g51
NtRp1445
(dp1446
g54
(dp1447
sg63
g1441
sg56
(lp1448
g49
(g50
g51
NtRp1449
(dp1450
g54
(dp1451
g62
I3
ssg63
g1445
sg56
(lp1452
S'7'
asbasbasbag49
(g65
g51
NtRp1453
(dp1454
g54
(dp1455
sg63
g1412
sg56
(lp1456
g49
(g70
g51
NtRp1457
(dp1458
g54
(dp1459
sg63
g1453
sg56
(lp1460
g49
(g50
g51
NtRp1461
(dp1462
g54
(dp1463
g62
I3
ssg63
g1457
sg56
(lp1464
S'datetime.datetime(2012, 3, 4, 22, 12, 8)'
p1465
asbasbasbag49
(g65
g51
NtRp1466
(dp1467
g54
(dp1468
sg63
g1412
sg56
(lp1469
g49
(g70
g51
NtRp1470
(dp1471
g54
(dp1472
sg63
g1466
sg56
(lp1473
g49
(g50
g51
NtRp1474
(dp1475
g54
(dp1476
g62
I3
ssg63
g1470
sg56
(lp1477
S'stable'
p1478
asbasbasbasbasbasbasbag49
(g65
g51
NtRp1479
(dp1480
g54
(dp1481
sg63
g753
sg56
(lp1482
g49
(g70
g51
NtRp1483
(dp1484
g54
(dp1485
g74
g75
ssg63
g1479
sg56
(lp1486
S'wsgi_errors'
p1487
asbag49
(g70
g51
NtRp1488
(dp1489
g54
(dp1490
g81
g82
ssg63
g1479
sg56
(lp1491
S':'
asbag49
(g70
g51
NtRp1492
(dp1493
g54
(dp1494
sg63
g1479
sg56
(lp1495
g49
(g50
g51
NtRp1496
(dp1497
g54
(dp1498
g62
I4
ssg63
g1492
sg56
(lp1499
S"<open file '<stderr>', mode 'w' at 0x01E200B0>"
p1500
asbasbasbag49
(g65
g51
NtRp1501
(dp1502
g54
(dp1503
sg63
g753
sg56
(lp1504
g49
(g70
g51
NtRp1505
(dp1506
g54
(dp1507
g74
g75
ssg63
g1501
sg56
(lp1508
S'wsgi_file_wrapper'
p1509
asbag49
(g70
g51
NtRp1510
(dp1511
g54
(dp1512
g81
g82
ssg63
g1501
sg56
(lp1513
S':'
asbag49
(g70
g51
NtRp1514
(dp1515
g54
(dp1516
sg63
g1501
sg56
(lp1517
g49
(g50
g51
NtRp1518
(dp1519
g54
(dp1520
g62
I4
ssg63
g1514
sg56
(lp1521
S'<class wsgiref.util.FileWrapper at 0x02E80E40>'
p1522
asbasbasbag49
(g65
g51
NtRp1523
(dp1524
g54
(dp1525
sg63
g753
sg56
(lp1526
g49
(g70
g51
NtRp1527
(dp1528
g54
(dp1529
g74
g75
ssg63
g1523
sg56
(lp1530
S'wsgi_input'
p1531
asbag49
(g70
g51
NtRp1532
(dp1533
g54
(dp1534
g81
g82
ssg63
g1523
sg56
(lp1535
S':'
asbag49
(g70
g51
NtRp1536
(dp1537
g54
(dp1538
sg63
g1523
sg56
(lp1539
g49
(g50
g51
NtRp1540
(dp1541
g54
(dp1542
g62
I4
ssg63
g1536
sg56
(lp1543
S'<socket._fileobject object at 0x06BFC7F0>'
p1544
asbasbasbag49
(g65
g51
NtRp1545
(dp1546
g54
(dp1547
sg63
g753
sg56
(lp1548
g49
(g70
g51
NtRp1549
(dp1550
g54
(dp1551
g74
g75
ssg63
g1545
sg56
(lp1552
S'wsgi_multiprocess'
p1553
asbag49
(g70
g51
NtRp1554
(dp1555
g54
(dp1556
g81
g82
ssg63
g1545
sg56
(lp1557
S':'
asbag49
(g70
g51
NtRp1558
(dp1559
g54
(dp1560
sg63
g1545
sg56
(lp1561
g49
(g50
g51
NtRp1562
(dp1563
g54
(dp1564
g62
I4
ssg63
g1558
sg56
(lp1565
g92
asbasbasbag49
(g65
g51
NtRp1566
(dp1567
g54
(dp1568
sg63
g753
sg56
(lp1569
g49
(g70
g51
NtRp1570
(dp1571
g54
(dp1572
g74
g75
ssg63
g1566
sg56
(lp1573
S'wsgi_multithread'
p1574
asbag49
(g70
g51
NtRp1575
(dp1576
g54
(dp1577
g81
g82
ssg63
g1566
sg56
(lp1578
S':'
asbag49
(g70
g51
NtRp1579
(dp1580
g54
(dp1581
sg63
g1566
sg56
(lp1582
g49
(g50
g51
NtRp1583
(dp1584
g54
(dp1585
g62
I4
ssg63
g1579
sg56
(lp1586
S'True'
p1587
asbasbasbag49
(g65
g51
NtRp1588
(dp1589
g54
(dp1590
sg63
g753
sg56
(lp1591
g49
(g70
g51
NtRp1592
(dp1593
g54
(dp1594
g74
g75
ssg63
g1588
sg56
(lp1595
S'wsgi_run_once'
p1596
asbag49
(g70
g51
NtRp1597
(dp1598
g54
(dp1599
g81
g82
ssg63
g1588
sg56
(lp1600
S':'
asbag49
(g70
g51
NtRp1601
(dp1602
g54
(dp1603
sg63
g1588
sg56
(lp1604
g49
(g50
g51
NtRp1605
(dp1606
g54
(dp1607
g62
I4
ssg63
g1601
sg56
(lp1608
g92
asbasbasbag49
(g65
g51
NtRp1609
(dp1610
g54
(dp1611
sg63
g753
sg56
(lp1612
g49
(g70
g51
NtRp1613
(dp1614
g54
(dp1615
g74
g75
ssg63
g1609
sg56
(lp1616
S'wsgi_url_scheme'
p1617
asbag49
(g70
g51
NtRp1618
(dp1619
g54
(dp1620
g81
g82
ssg63
g1609
sg56
(lp1621
S':'
asbag49
(g70
g51
NtRp1622
(dp1623
g54
(dp1624
sg63
g1609
sg56
(lp1625
g49
(g50
g51
NtRp1626
(dp1627
g54
(dp1628
g62
I4
ssg63
g1622
sg56
(lp1629
S'http'
p1630
asbasbasbag49
(g65
g51
NtRp1631
(dp1632
g54
(dp1633
sg63
g753
sg56
(lp1634
g49
(g70
g51
NtRp1635
(dp1636
g54
(dp1637
g74
g75
ssg63
g1631
sg56
(lp1638
S'wsgi_version'
p1639
asbag49
(g70
g51
NtRp1640
(dp1641
g54
(dp1642
g81
g82
ssg63
g1631
sg56
(lp1643
S':'
asbag49
(g70
g51
NtRp1644
(dp1645
g54
(dp1646
sg63
g1631
sg56
(lp1647
g49
(g50
g51
NtRp1648
(dp1649
g54
(dp1650
g62
I4
ssg63
g1644
sg56
(lp1651
g49
(g58
g51
NtRp1652
(dp1653
g54
(dp1654
g62
I3
ssg63
Nsg56
(lp1655
g49
(g65
g51
NtRp1656
(dp1657
g54
(dp1658
sg63
g1652
sg56
(lp1659
g49
(g70
g51
NtRp1660
(dp1661
g54
(dp1662
sg63
g1656
sg56
(lp1663
g49
(g50
g51
NtRp1664
(dp1665
g54
(dp1666
g62
I3
ssg63
g1660
sg56
(lp1667
S'1'
asbasbasbag49
(g65
g51
NtRp1668
(dp1669
g54
(dp1670
sg63
g1652
sg56
(lp1671
g49
(g70
g51
NtRp1672
(dp1673
g54
(dp1674
sg63
g1668
sg56
(lp1675
g49
(g50
g51
NtRp1676
(dp1677
g54
(dp1678
g62
I3
ssg63
g1672
sg56
(lp1679
S'0'
asbasbasbasbasbasbasbasbasbasbasbag49
(g65
g51
NtRp1680
(dp1681
g54
(dp1682
sg63
g59
sg56
(lp1683
g49
(g70
g51
NtRp1684
(dp1685
g54
(dp1686
g74
g75
ssg63
g1680
sg56
(lp1687
S'extension'
p1688
asbag49
(g70
g51
NtRp1689
(dp1690
g54
(dp1691
g81
g82
ssg63
g1680
sg56
(lp1692
S':'
asbag49
(g70
g51
NtRp1693
(dp1694
g54
(dp1695
sg63
g1680
sg56
(lp1696
g49
(g50
g51
NtRp1697
(dp1698
g54
(dp1699
g62
I5
ssg63
g1693
sg56
(lp1700
S'html'
p1701
asbasbasbag49
(g65
g51
NtRp1702
(dp1703
g54
(dp1704
sg63
g59
sg56
(lp1705
g49
(g70
g51
NtRp1706
(dp1707
g54
(dp1708
g74
g75
ssg63
g1702
sg56
(lp1709
S'folder'
p1710
asbag49
(g70
g51
NtRp1711
(dp1712
g54
(dp1713
g81
g82
ssg63
g1702
sg56
(lp1714
S':'
asbag49
(g70
g51
NtRp1715
(dp1716
g54
(dp1717
sg63
g1702
sg56
(lp1718
g49
(g50
g51
NtRp1719
(dp1720
g54
(dp1721
g62
I5
ssg63
g1715
sg56
(lp1722
S'B:\\web2py\\applications\\manager\\'
p1723
asbasbasbag49
(g65
g51
NtRp1724
(dp1725
g54
(dp1726
sg63
g59
sg56
(lp1727
g49
(g70
g51
NtRp1728
(dp1729
g54
(dp1730
g74
g75
ssg63
g1724
sg56
(lp1731
S'function'
p1732
asbag49
(g70
g51
NtRp1733
(dp1734
g54
(dp1735
g81
g82
ssg63
g1724
sg56
(lp1736
S':'
asbag49
(g70
g51
NtRp1737
(dp1738
g54
(dp1739
sg63
g1724
sg56
(lp1740
g49
(g50
g51
NtRp1741
(dp1742
g54
(dp1743
g62
I5
ssg63
g1737
sg56
(lp1744
S'index'
p1745
asbasbasbag49
(g65
g51
NtRp1746
(dp1747
g54
(dp1748
sg63
g59
sg56
(lp1749
g49
(g70
g51
NtRp1750
(dp1751
g54
(dp1752
g74
g75
ssg63
g1746
sg56
(lp1753
S'get_vars'
p1754
asbag49
(g70
g51
NtRp1755
(dp1756
g54
(dp1757
g81
g82
ssg63
g1746
sg56
(lp1758
S':'
asbag49
(g70
g51
NtRp1759
(dp1760
g54
(dp1761
sg63
g1746
sg56
(lp1762
g49
(g50
g51
NtRp1763
(dp1764
g54
(dp1765
g62
I5
ssg63
g1759
sg56
(lp1766
g49
(g58
g51
NtRp1767
(dp1768
g54
(dp1769
g62
I4
ssg63
Nsg56
(lp1770
sbasbasbasbag49
(g65
g51
NtRp1771
(dp1772
g54
(dp1773
sg63
g59
sg56
(lp1774
g49
(g70
g51
NtRp1775
(dp1776
g54
(dp1777
g74
g75
ssg63
g1771
sg56
(lp1778
S'global_settings'
p1779
asbag49
(g70
g51
NtRp1780
(dp1781
g54
(dp1782
g81
g82
ssg63
g1771
sg56
(lp1783
S':'
asbag49
(g70
g51
NtRp1784
(dp1785
g54
(dp1786
sg63
g1771
sg56
(lp1787
g49
(g50
g51
NtRp1788
(dp1789
g54
(dp1790
g62
I5
ssg63
g1784
sg56
(lp1791
g49
(g58
g51
NtRp1792
(dp1793
g54
(dp1794
g62
I4
ssg63
Nsg56
(lp1795
g49
(g65
g51
NtRp1796
(dp1797
g54
(dp1798
sg63
g1792
sg56
(lp1799
g49
(g70
g51
NtRp1800
(dp1801
g54
(dp1802
g74
g75
ssg63
g1796
sg56
(lp1803
g765
asbag49
(g70
g51
NtRp1804
(dp1805
g54
(dp1806
g81
g82
ssg63
g1796
sg56
(lp1807
S':'
asbag49
(g70
g51
NtRp1808
(dp1809
g54
(dp1810
sg63
g1796
sg56
(lp1811
g49
(g50
g51
NtRp1812
(dp1813
g54
(dp1814
g62
I4
ssg63
g1808
sg56
(lp1815
S"set(['B:\\\\web2py\\\\applications\\\\welcome\\\\', 'B:\\\\web2py\\\\applications\\\\admin\\\\', 'B:\\\\web2py\\\\applications\\\\manager\\\\'])"
p1816
asbasbasbag49
(g65
g51
NtRp1817
(dp1818
g54
(dp1819
sg63
g1792
sg56
(lp1820
g49
(g70
g51
NtRp1821
(dp1822
g54
(dp1823
g74
g75
ssg63
g1817
sg56
(lp1824
g787
asbag49
(g70
g51
NtRp1825
(dp1826
g54
(dp1827
g81
g82
ssg63
g1817
sg56
(lp1828
S':'
asbag49
(g70
g51
NtRp1829
(dp1830
g54
(dp1831
sg63
g1817
sg56
(lp1832
g49
(g50
g51
NtRp1833
(dp1834
g54
(dp1835
g62
I4
ssg63
g1829
sg56
(lp1836
g800
asbasbasbag49
(g65
g51
NtRp1837
(dp1838
g54
(dp1839
sg63
g1792
sg56
(lp1840
g49
(g70
g51
NtRp1841
(dp1842
g54
(dp1843
g74
g75
ssg63
g1837
sg56
(lp1844
g809
asbag49
(g70
g51
NtRp1845
(dp1846
g54
(dp1847
g81
g82
ssg63
g1837
sg56
(lp1848
S':'
asbag49
(g70
g51
NtRp1849
(dp1850
g54
(dp1851
sg63
g1837
sg56
(lp1852
g49
(g50
g51
NtRp1853
(dp1854
g54
(dp1855
g62
I4
ssg63
g1849
sg56
(lp1856
g49
(g58
g51
NtRp1857
(dp1858
g54
(dp1859
g62
I3
ssg63
Nsg56
(lp1860
sbasbasbasbag49
(g65
g51
NtRp1861
(dp1862
g54
(dp1863
sg63
g1792
sg56
(lp1864
g49
(g70
g51
NtRp1865
(dp1866
g54
(dp1867
g74
g75
ssg63
g1861
sg56
(lp1868
g834
asbag49
(g70
g51
NtRp1869
(dp1870
g54
(dp1871
g81
g82
ssg63
g1861
sg56
(lp1872
S':'
asbag49
(g70
g51
NtRp1873
(dp1874
g54
(dp1875
sg63
g1861
sg56
(lp1876
g49
(g50
g51
NtRp1877
(dp1878
g54
(dp1879
g62
I4
ssg63
g1873
sg56
(lp1880
S"<Values at 0x3141058: {'verbose': False, 'ip': '127.0.0.1', 'shutdown_timeout': 5, 'taskbar': False, 'nocron': False, 'pid_filename': 'httpserver.pid', 'maxthreads': None, 'softcron': False, 'server_name': 'Abhishek-PC', 'bpython': False, 'nogui': False, 'port': 8000, 'extcron': False, 'debuglevel': 30, 'test': None, 'folder': 'B:\\\\web2py', 'config': '', 'import_models': False, 'winservice': '', 'shell': None, 'run': '', 'log_filename': 'httpserver.log', 'args': [''], 'socket_timeout': 5, 'ssl_ca_certificate': None, 'scheduler': None, 'profiler_filename': None, 'ssl_private_key': '', 'password': '<ask>', 'request_queue_size': 5, 'ssl_certificate': '', 'cronjob': False, 'numthreads': None, 'quiet': False, 'interfaces': None, 'minthreads': None, 'timeout': 10, 'plain': False, 'nobanner': False}>"
p1881
asbasbasbag49
(g65
g51
NtRp1882
(dp1883
g54
(dp1884
sg63
g1792
sg56
(lp1885
g49
(g70
g51
NtRp1886
(dp1887
g54
(dp1888
g74
g75
ssg63
g1882
sg56
(lp1889
g856
asbag49
(g70
g51
NtRp1890
(dp1891
g54
(dp1892
g81
g82
ssg63
g1882
sg56
(lp1893
S':'
asbag49
(g70
g51
NtRp1894
(dp1895
g54
(dp1896
sg63
g1882
sg56
(lp1897
g49
(g50
g51
NtRp1898
(dp1899
g54
(dp1900
g62
I4
ssg63
g1894
sg56
(lp1901
S'set([])'
p1902
asbasbasbag49
(g65
g51
NtRp1903
(dp1904
g54
(dp1905
sg63
g1792
sg56
(lp1906
g49
(g70
g51
NtRp1907
(dp1908
g54
(dp1909
g74
g75
ssg63
g1903
sg56
(lp1910
g878
asbag49
(g70
g51
NtRp1911
(dp1912
g54
(dp1913
g81
g82
ssg63
g1903
sg56
(lp1914
S':'
asbag49
(g70
g51
NtRp1915
(dp1916
g54
(dp1917
sg63
g1903
sg56
(lp1918
g49
(g50
g51
NtRp1919
(dp1920
g54
(dp1921
g62
I4
ssg63
g1915
sg56
(lp1922
g92
asbasbasbag49
(g65
g51
NtRp1923
(dp1924
g54
(dp1925
sg63
g1792
sg56
(lp1926
g49
(g70
g51
NtRp1927
(dp1928
g54
(dp1929
g74
g75
ssg63
g1923
sg56
(lp1930
g899
asbag49
(g70
g51
NtRp1931
(dp1932
g54
(dp1933
g81
g82
ssg63
g1923
sg56
(lp1934
S':'
asbag49
(g70
g51
NtRp1935
(dp1936
g54
(dp1937
sg63
g1923
sg56
(lp1938
g49
(g50
g51
NtRp1939
(dp1940
g54
(dp1941
g62
I4
ssg63
g1935
sg56
(lp1942
g912
asbasbasbag49
(g65
g51
NtRp1943
(dp1944
g54
(dp1945
sg63
g1792
sg56
(lp1946
g49
(g70
g51
NtRp1947
(dp1948
g54
(dp1949
g74
g75
ssg63
g1943
sg56
(lp1950
g1097
asbag49
(g70
g51
NtRp1951
(dp1952
g54
(dp1953
g81
g82
ssg63
g1943
sg56
(lp1954
S':'
asbag49
(g70
g51
NtRp1955
(dp1956
g54
(dp1957
sg63
g1943
sg56
(lp1958
g49
(g50
g51
NtRp1959
(dp1960
g54
(dp1961
g62
I4
ssg63
g1955
sg56
(lp1962
g92
asbasbasbag49
(g65
g51
NtRp1963
(dp1964
g54
(dp1965
sg63
g1792
sg56
(lp1966
g49
(g70
g51
NtRp1967
(dp1968
g54
(dp1969
g74
g75
ssg63
g1963
sg56
(lp1970
g1118
asbag49
(g70
g51
NtRp1971
(dp1972
g54
(dp1973
g81
g82
ssg63
g1963
sg56
(lp1974
S':'
asbag49
(g70
g51
NtRp1975
(dp1976
g54
(dp1977
sg63
g1963
sg56
(lp1978
g49
(g50
g51
NtRp1979
(dp1980
g54
(dp1981
g62
I4
ssg63
g1975
sg56
(lp1982
g92
asbasbasbag49
(g65
g51
NtRp1983
(dp1984
g54
(dp1985
sg63
g1792
sg56
(lp1986
g49
(g70
g51
NtRp1987
(dp1988
g54
(dp1989
g74
g75
ssg63
g1983
sg56
(lp1990
g1356
asbag49
(g70
g51
NtRp1991
(dp1992
g54
(dp1993
g81
g82
ssg63
g1983
sg56
(lp1994
S':'
asbag49
(g70
g51
NtRp1995
(dp1996
g54
(dp1997
sg63
g1983
sg56
(lp1998
g49
(g50
g51
NtRp1999
(dp2000
g54
(dp2001
g62
I4
ssg63
g1995
sg56
(lp2002
g1369
asbasbasbag49
(g65
g51
NtRp2003
(dp2004
g54
(dp2005
sg63
g1792
sg56
(lp2006
g49
(g70
g51
NtRp2007
(dp2008
g54
(dp2009
g74
g75
ssg63
g2003
sg56
(lp2010
g1399
asbag49
(g70
g51
NtRp2011
(dp2012
g54
(dp2013
g81
g82
ssg63
g2003
sg56
(lp2014
S':'
asbag49
(g70
g51
NtRp2015
(dp2016
g54
(dp2017
sg63
g2003
sg56
(lp2018
g49
(g50
g51
NtRp2019
(dp2020
g54
(dp2021
g62
I4
ssg63
g2015
sg56
(lp2022
g49
(g58
g51
NtRp2023
(dp2024
g54
(dp2025
g62
I3
ssg63
Nsg56
(lp2026
g49
(g65
g51
NtRp2027
(dp2028
g54
(dp2029
sg63
g2023
sg56
(lp2030
g49
(g70
g51
NtRp2031
(dp2032
g54
(dp2033
sg63
g2027
sg56
(lp2034
g49
(g50
g51
NtRp2035
(dp2036
g54
(dp2037
g62
I3
ssg63
g2031
sg56
(lp2038
S'1'
asbasbasbag49
(g65
g51
NtRp2039
(dp2040
g54
(dp2041
sg63
g2023
sg56
(lp2042
g49
(g70
g51
NtRp2043
(dp2044
g54
(dp2045
sg63
g2039
sg56
(lp2046
g49
(g50
g51
NtRp2047
(dp2048
g54
(dp2049
g62
I3
ssg63
g2043
sg56
(lp2050
S'99'
p2051
asbasbasbag49
(g65
g51
NtRp2052
(dp2053
g54
(dp2054
sg63
g2023
sg56
(lp2055
g49
(g70
g51
NtRp2056
(dp2057
g54
(dp2058
sg63
g2052
sg56
(lp2059
g49
(g50
g51
NtRp2060
(dp2061
g54
(dp2062
g62
I3
ssg63
g2056
sg56
(lp2063
S'7'
asbasbasbag49
(g65
g51
NtRp2064
(dp2065
g54
(dp2066
sg63
g2023
sg56
(lp2067
g49
(g70
g51
NtRp2068
(dp2069
g54
(dp2070
sg63
g2064
sg56
(lp2071
g49
(g50
g51
NtRp2072
(dp2073
g54
(dp2074
g62
I3
ssg63
g2068
sg56
(lp2075
S'datetime.datetime(2012, 3, 4, 22, 12, 8)'
p2076
asbasbasbag49
(g65
g51
NtRp2077
(dp2078
g54
(dp2079
sg63
g2023
sg56
(lp2080
g49
(g70
g51
NtRp2081
(dp2082
g54
(dp2083
sg63
g2077
sg56
(lp2084
g49
(g50
g51
NtRp2085
(dp2086
g54
(dp2087
g62
I3
ssg63
g2081
sg56
(lp2088
g1478
asbasbasbasbasbasbasbasbasbasbasbag49
(g65
g51
NtRp2089
(dp2090
g54
(dp2091
sg63
g59
sg56
(lp2092
g49
(g70
g51
NtRp2093
(dp2094
g54
(dp2095
g74
g75
ssg63
g2089
sg56
(lp2096
S'is_https'
p2097
asbag49
(g70
g51
NtRp2098
(dp2099
g54
(dp2100
g81
g82
ssg63
g2089
sg56
(lp2101
S':'
asbag49
(g70
g51
NtRp2102
(dp2103
g54
(dp2104
sg63
g2089
sg56
(lp2105
g49
(g50
g51
NtRp2106
(dp2107
g54
(dp2108
g62
I5
ssg63
g2102
sg56
(lp2109
g92
asbasbasbag49
(g65
g51
NtRp2110
(dp2111
g54
(dp2112
sg63
g59
sg56
(lp2113
g49
(g70
g51
NtRp2114
(dp2115
g54
(dp2116
g74
g75
ssg63
g2110
sg56
(lp2117
S'is_local'
p2118
asbag49
(g70
g51
NtRp2119
(dp2120
g54
(dp2121
g81
g82
ssg63
g2110
sg56
(lp2122
S':'
asbag49
(g70
g51
NtRp2123
(dp2124
g54
(dp2125
sg63
g2110
sg56
(lp2126
g49
(g50
g51
NtRp2127
(dp2128
g54
(dp2129
g62
I5
ssg63
g2123
sg56
(lp2130
g1587
asbasbasbag49
(g65
g51
NtRp2131
(dp2132
g54
(dp2133
sg63
g59
sg56
(lp2134
g49
(g70
g51
NtRp2135
(dp2136
g54
(dp2137
g74
g75
ssg63
g2131
sg56
(lp2138
S'is_restful'
p2139
asbag49
(g70
g51
NtRp2140
(dp2141
g54
(dp2142
g81
g82
ssg63
g2131
sg56
(lp2143
S':'
asbag49
(g70
g51
NtRp2144
(dp2145
g54
(dp2146
sg63
g2131
sg56
(lp2147
g49
(g50
g51
NtRp2148
(dp2149
g54
(dp2150
g62
I5
ssg63
g2144
sg56
(lp2151
g92
asbasbasbag49
(g65
g51
NtRp2152
(dp2153
g54
(dp2154
sg63
g59
sg56
(lp2155
g49
(g70
g51
NtRp2156
(dp2157
g54
(dp2158
g74
g75
ssg63
g2152
sg56
(lp2159
S'now'
p2160
asbag49
(g70
g51
NtRp2161
(dp2162
g54
(dp2163
g81
g82
ssg63
g2152
sg56
(lp2164
S':'
asbag49
(g70
g51
NtRp2165
(dp2166
g54
(dp2167
sg63
g2152
sg56
(lp2168
g49
(g50
g51
NtRp2169
(dp2170
g54
(dp2171
g62
I5
ssg63
g2165
sg56
(lp2172
S'datetime.datetime(2012, 11, 6, 9, 20, 37, 651000)'
p2173
asbasbasbag49
(g65
g51
NtRp2174
(dp2175
g54
(dp2176
sg63
g59
sg56
(lp2177
g49
(g70
g51
NtRp2178
(dp2179
g54
(dp2180
g74
g75
ssg63
g2174
sg56
(lp2181
S'post_vars'
p2182
asbag49
(g70
g51
NtRp2183
(dp2184
g54
(dp2185
g81
g82
ssg63
g2174
sg56
(lp2186
S':'
asbag49
(g70
g51
NtRp2187
(dp2188
g54
(dp2189
sg63
g2174
sg56
(lp2190
g49
(g50
g51
NtRp2191
(dp2192
g54
(dp2193
g62
I5
ssg63
g2187
sg56
(lp2194
g49
(g58
g51
NtRp2195
(dp2196
g54
(dp2197
g62
I4
ssg63
Nsg56
(lp2198
sbasbasbasbag49
(g65
g51
NtRp2199
(dp2200
g54
(dp2201
sg63
g59
sg56
(lp2202
g49
(g70
g51
NtRp2203
(dp2204
g54
(dp2205
g74
g75
ssg63
g2199
sg56
(lp2206
S'url'
p2207
asbag49
(g70
g51
NtRp2208
(dp2209
g54
(dp2210
g81
g82
ssg63
g2199
sg56
(lp2211
S':'
asbag49
(g70
g51
NtRp2212
(dp2213
g54
(dp2214
sg63
g2199
sg56
(lp2215
g49
(g50
g51
NtRp2216
(dp2217
g54
(dp2218
g62
I5
ssg63
g2212
sg56
(lp2219
S'/manager/default/index'
p2220
asbasbasbag49
(g65
g51
NtRp2221
(dp2222
g54
(dp2223
sg63
g59
sg56
(lp2224
g49
(g70
g51
NtRp2225
(dp2226
g54
(dp2227
g74
g75
ssg63
g2221
sg56
(lp2228
S'utcnow'
p2229
asbag49
(g70
g51
NtRp2230
(dp2231
g54
(dp2232
g81
g82
ssg63
g2221
sg56
(lp2233
S':'
asbag49
(g70
g51
NtRp2234
(dp2235
g54
(dp2236
sg63
g2221
sg56
(lp2237
g49
(g50
g51
NtRp2238
(dp2239
g54
(dp2240
g62
I5
ssg63
g2234
sg56
(lp2241
S'datetime.datetime(2012, 11, 6, 3, 50, 37, 651000)'
p2242
asbasbasbag49
(g65
g51
NtRp2243
(dp2244
g54
(dp2245
sg63
g59
sg56
(lp2246
g49
(g70
g51
NtRp2247
(dp2248
g54
(dp2249
g74
g75
ssg63
g2243
sg56
(lp2250
S'uuid'
p2251
asbag49
(g70
g51
NtRp2252
(dp2253
g54
(dp2254
g81
g82
ssg63
g2243
sg56
(lp2255
S':'
asbag49
(g70
g51
NtRp2256
(dp2257
g54
(dp2258
sg63
g2243
sg56
(lp2259
g49
(g50
g51
NtRp2260
(dp2261
g54
(dp2262
g62
I5
ssg63
g2256
sg56
(lp2263
S'manager/127.0.0.1.2012-11-06.09-20-37.6286b468-5ee1-4862-bb5e-306c3eda5268'
p2264
asbasbasbag49
(g65
g51
NtRp2265
(dp2266
g54
(dp2267
sg63
g59
sg56
(lp2268
g49
(g70
g51
NtRp2269
(dp2270
g54
(dp2271
g74
g75
ssg63
g2265
sg56
(lp2272
S'vars'
p2273
asbag49
(g70
g51
NtRp2274
(dp2275
g54
(dp2276
g81
g82
ssg63
g2265
sg56
(lp2277
S':'
asbag49
(g70
g51
NtRp2278
(dp2279
g54
(dp2280
sg63
g2265
sg56
(lp2281
g49
(g50
g51
NtRp2282
(dp2283
g54
(dp2284
g62
I5
ssg63
g2278
sg56
(lp2285
g49
(g58
g51
NtRp2286
(dp2287
g54
(dp2288
g62
I4
ssg63
Nsg56
(lp2289
sbasbasbasbag49
(g65
g51
NtRp2290
(dp2291
g54
(dp2292
sg63
g59
sg56
(lp2293
g49
(g70
g51
NtRp2294
(dp2295
g54
(dp2296
g74
g75
ssg63
g2290
sg56
(lp2297
S'wsgi'
p2298
asbag49
(g70
g51
NtRp2299
(dp2300
g54
(dp2301
g81
g82
ssg63
g2290
sg56
(lp2302
S':'
asbag49
(g70
g51
NtRp2303
(dp2304
g54
(dp2305
sg63
g2290
sg56
(lp2306
g49
(g50
g51
NtRp2307
(dp2308
g54
(dp2309
g62
I5
ssg63
g2303
sg56
(lp2310
g49
(g58
g51
NtRp2311
(dp2312
g54
(dp2313
g62
I4
ssg63
Nsg56
(lp2314
g49
(g65
g51
NtRp2315
(dp2316
g54
(dp2317
sg63
g2311
sg56
(lp2318
g49
(g70
g51
NtRp2319
(dp2320
g54
(dp2321
g74
g75
ssg63
g2315
sg56
(lp2322
S'environ'
p2323
asbag49
(g70
g51
NtRp2324
(dp2325
g54
(dp2326
g81
g82
ssg63
g2315
sg56
(lp2327
S':'
asbag49
(g70
g51
NtRp2328
(dp2329
g54
(dp2330
sg63
g2315
sg56
(lp2331
g49
(g50
g51
NtRp2332
(dp2333
g54
(dp2334
g62
I4
ssg63
g2328
sg56
(lp2335
g49
(g58
g51
NtRp2336
(dp2337
g54
(dp2338
g62
I3
ssg63
Nsg56
(lp2339
g49
(g65
g51
NtRp2340
(dp2341
g54
(dp2342
sg63
g2336
sg56
(lp2343
g49
(g70
g51
NtRp2344
(dp2345
g54
(dp2346
g74
g75
ssg63
g2340
sg56
(lp2347
S'HTTP_ACCEPT'
p2348
asbag49
(g70
g51
NtRp2349
(dp2350
g54
(dp2351
g81
g82
ssg63
g2340
sg56
(lp2352
S':'
asbag49
(g70
g51
NtRp2353
(dp2354
g54
(dp2355
sg63
g2340
sg56
(lp2356
g49
(g50
g51
NtRp2357
(dp2358
g54
(dp2359
g62
I3
ssg63
g2353
sg56
(lp2360
g934
asbasbasbag49
(g65
g51
NtRp2361
(dp2362
g54
(dp2363
sg63
g2336
sg56
(lp2364
g49
(g70
g51
NtRp2365
(dp2366
g54
(dp2367
g74
g75
ssg63
g2361
sg56
(lp2368
S'HTTP_ACCEPT_ENCODING'
p2369
asbag49
(g70
g51
NtRp2370
(dp2371
g54
(dp2372
g81
g82
ssg63
g2361
sg56
(lp2373
S':'
asbag49
(g70
g51
NtRp2374
(dp2375
g54
(dp2376
sg63
g2361
sg56
(lp2377
g49
(g50
g51
NtRp2378
(dp2379
g54
(dp2380
g62
I3
ssg63
g2374
sg56
(lp2381
g956
asbasbasbag49
(g65
g51
NtRp2382
(dp2383
g54
(dp2384
sg63
g2336
sg56
(lp2385
g49
(g70
g51
NtRp2386
(dp2387
g54
(dp2388
g74
g75
ssg63
g2382
sg56
(lp2389
S'HTTP_ACCEPT_LANGUAGE'
p2390
asbag49
(g70
g51
NtRp2391
(dp2392
g54
(dp2393
g81
g82
ssg63
g2382
sg56
(lp2394
S':'
asbag49
(g70
g51
NtRp2395
(dp2396
g54
(dp2397
sg63
g2382
sg56
(lp2398
g49
(g50
g51
NtRp2399
(dp2400
g54
(dp2401
g62
I3
ssg63
g2395
sg56
(lp2402
g978
asbasbasbag49
(g65
g51
NtRp2403
(dp2404
g54
(dp2405
sg63
g2336
sg56
(lp2406
g49
(g70
g51
NtRp2407
(dp2408
g54
(dp2409
g74
g75
ssg63
g2403
sg56
(lp2410
S'HTTP_CONNECTION'
p2411
asbag49
(g70
g51
NtRp2412
(dp2413
g54
(dp2414
g81
g82
ssg63
g2403
sg56
(lp2415
S':'
asbag49
(g70
g51
NtRp2416
(dp2417
g54
(dp2418
sg63
g2403
sg56
(lp2419
g49
(g50
g51
NtRp2420
(dp2421
g54
(dp2422
g62
I3
ssg63
g2416
sg56
(lp2423
g1000
asbasbasbag49
(g65
g51
NtRp2424
(dp2425
g54
(dp2426
sg63
g2336
sg56
(lp2427
g49
(g70
g51
NtRp2428
(dp2429
g54
(dp2430
g74
g75
ssg63
g2424
sg56
(lp2431
S'HTTP_COOKIE'
p2432
asbag49
(g70
g51
NtRp2433
(dp2434
g54
(dp2435
g81
g82
ssg63
g2424
sg56
(lp2436
S':'
asbag49
(g70
g51
NtRp2437
(dp2438
g54
(dp2439
sg63
g2424
sg56
(lp2440
g49
(g50
g51
NtRp2441
(dp2442
g54
(dp2443
g62
I3
ssg63
g2437
sg56
(lp2444
g1022
asbasbasbag49
(g65
g51
NtRp2445
(dp2446
g54
(dp2447
sg63
g2336
sg56
(lp2448
g49
(g70
g51
NtRp2449
(dp2450
g54
(dp2451
g74
g75
ssg63
g2445
sg56
(lp2452
S'HTTP_HOST'
p2453
asbag49
(g70
g51
NtRp2454
(dp2455
g54
(dp2456
g81
g82
ssg63
g2445
sg56
(lp2457
S':'
asbag49
(g70
g51
NtRp2458
(dp2459
g54
(dp2460
sg63
g2445
sg56
(lp2461
g49
(g50
g51
NtRp2462
(dp2463
g54
(dp2464
g62
I3
ssg63
g2458
sg56
(lp2465
g1044
asbasbasbag49
(g65
g51
NtRp2466
(dp2467
g54
(dp2468
sg63
g2336
sg56
(lp2469
g49
(g70
g51
NtRp2470
(dp2471
g54
(dp2472
g74
g75
ssg63
g2466
sg56
(lp2473
S'HTTP_REFERER'
p2474
asbag49
(g70
g51
NtRp2475
(dp2476
g54
(dp2477
g81
g82
ssg63
g2466
sg56
(lp2478
S':'
asbag49
(g70
g51
NtRp2479
(dp2480
g54
(dp2481
sg63
g2466
sg56
(lp2482
g49
(g50
g51
NtRp2483
(dp2484
g54
(dp2485
g62
I3
ssg63
g2479
sg56
(lp2486
g1066
asbasbasbag49
(g65
g51
NtRp2487
(dp2488
g54
(dp2489
sg63
g2336
sg56
(lp2490
g49
(g70
g51
NtRp2491
(dp2492
g54
(dp2493
g74
g75
ssg63
g2487
sg56
(lp2494
S'HTTP_USER_AGENT'
p2495
asbag49
(g70
g51
NtRp2496
(dp2497
g54
(dp2498
g81
g82
ssg63
g2487
sg56
(lp2499
S':'
asbag49
(g70
g51
NtRp2500
(dp2501
g54
(dp2502
sg63
g2487
sg56
(lp2503
g49
(g50
g51
NtRp2504
(dp2505
g54
(dp2506
g62
I3
ssg63
g2500
sg56
(lp2507
g1088
asbasbasbag49
(g65
g51
NtRp2508
(dp2509
g54
(dp2510
sg63
g2336
sg56
(lp2511
g49
(g70
g51
NtRp2512
(dp2513
g54
(dp2514
g74
g75
ssg63
g2508
sg56
(lp2515
S'PATH_INFO'
p2516
asbag49
(g70
g51
NtRp2517
(dp2518
g54
(dp2519
g81
g82
ssg63
g2508
sg56
(lp2520
S':'
asbag49
(g70
g51
NtRp2521
(dp2522
g54
(dp2523
sg63
g2508
sg56
(lp2524
g49
(g50
g51
NtRp2525
(dp2526
g54
(dp2527
g62
I3
ssg63
g2521
sg56
(lp2528
g1152
asbasbasbag49
(g65
g51
NtRp2529
(dp2530
g54
(dp2531
sg63
g2336
sg56
(lp2532
g49
(g70
g51
NtRp2533
(dp2534
g54
(dp2535
g74
g75
ssg63
g2529
sg56
(lp2536
S'QUERY_STRING'
p2537
asbag49
(g70
g51
NtRp2538
(dp2539
g54
(dp2540
g81
g82
ssg63
g2529
sg56
(lp2541
S':'
asbag49
(g70
g51
NtRp2542
(dp2543
g54
(dp2544
sg63
g2529
sg56
(lp2545
g49
(g50
g51
NtRp2546
(dp2547
g54
(dp2548
g62
I3
ssg63
g2542
sg56
(lp2549
S''
asbasbasbag49
(g65
g51
NtRp2550
(dp2551
g54
(dp2552
sg63
g2336
sg56
(lp2553
g49
(g70
g51
NtRp2554
(dp2555
g54
(dp2556
g74
g75
ssg63
g2550
sg56
(lp2557
S'REMOTE_ADDR'
p2558
asbag49
(g70
g51
NtRp2559
(dp2560
g54
(dp2561
g81
g82
ssg63
g2550
sg56
(lp2562
S':'
asbag49
(g70
g51
NtRp2563
(dp2564
g54
(dp2565
sg63
g2550
sg56
(lp2566
g49
(g50
g51
NtRp2567
(dp2568
g54
(dp2569
g62
I3
ssg63
g2563
sg56
(lp2570
g182
asbasbasbag49
(g65
g51
NtRp2571
(dp2572
g54
(dp2573
sg63
g2336
sg56
(lp2574
g49
(g70
g51
NtRp2575
(dp2576
g54
(dp2577
g74
g75
ssg63
g2571
sg56
(lp2578
S'REMOTE_PORT'
p2579
asbag49
(g70
g51
NtRp2580
(dp2581
g54
(dp2582
g81
g82
ssg63
g2571
sg56
(lp2583
S':'
asbag49
(g70
g51
NtRp2584
(dp2585
g54
(dp2586
sg63
g2571
sg56
(lp2587
g49
(g50
g51
NtRp2588
(dp2589
g54
(dp2590
g62
I3
ssg63
g2584
sg56
(lp2591
g1216
asbasbasbag49
(g65
g51
NtRp2592
(dp2593
g54
(dp2594
sg63
g2336
sg56
(lp2595
g49
(g70
g51
NtRp2596
(dp2597
g54
(dp2598
g74
g75
ssg63
g2592
sg56
(lp2599
S'REQUEST_METHOD'
p2600
asbag49
(g70
g51
NtRp2601
(dp2602
g54
(dp2603
g81
g82
ssg63
g2592
sg56
(lp2604
S':'
asbag49
(g70
g51
NtRp2605
(dp2606
g54
(dp2607
sg63
g2592
sg56
(lp2608
g49
(g50
g51
NtRp2609
(dp2610
g54
(dp2611
g62
I3
ssg63
g2605
sg56
(lp2612
g1238
asbasbasbag49
(g65
g51
NtRp2613
(dp2614
g54
(dp2615
sg63
g2336
sg56
(lp2616
g49
(g70
g51
NtRp2617
(dp2618
g54
(dp2619
g74
g75
ssg63
g2613
sg56
(lp2620
S'SCRIPT_NAME'
p2621
asbag49
(g70
g51
NtRp2622
(dp2623
g54
(dp2624
g81
g82
ssg63
g2613
sg56
(lp2625
S':'
asbag49
(g70
g51
NtRp2626
(dp2627
g54
(dp2628
sg63
g2613
sg56
(lp2629
g49
(g50
g51
NtRp2630
(dp2631
g54
(dp2632
g62
I3
ssg63
g2626
sg56
(lp2633
S''
asbasbasbag49
(g65
g51
NtRp2634
(dp2635
g54
(dp2636
sg63
g2336
sg56
(lp2637
g49
(g70
g51
NtRp2638
(dp2639
g54
(dp2640
g74
g75
ssg63
g2634
sg56
(lp2641
S'SERVER_NAME'
p2642
asbag49
(g70
g51
NtRp2643
(dp2644
g54
(dp2645
g81
g82
ssg63
g2634
sg56
(lp2646
S':'
asbag49
(g70
g51
NtRp2647
(dp2648
g54
(dp2649
sg63
g2634
sg56
(lp2650
g49
(g50
g51
NtRp2651
(dp2652
g54
(dp2653
g62
I3
ssg63
g2647
sg56
(lp2654
g1281
asbasbasbag49
(g65
g51
NtRp2655
(dp2656
g54
(dp2657
sg63
g2336
sg56
(lp2658
g49
(g70
g51
NtRp2659
(dp2660
g54
(dp2661
g74
g75
ssg63
g2655
sg56
(lp2662
S'SERVER_PORT'
p2663
asbag49
(g70
g51
NtRp2664
(dp2665
g54
(dp2666
g81
g82
ssg63
g2655
sg56
(lp2667
S':'
asbag49
(g70
g51
NtRp2668
(dp2669
g54
(dp2670
sg63
g2655
sg56
(lp2671
g49
(g50
g51
NtRp2672
(dp2673
g54
(dp2674
g62
I3
ssg63
g2668
sg56
(lp2675
g1303
asbasbasbag49
(g65
g51
NtRp2676
(dp2677
g54
(dp2678
sg63
g2336
sg56
(lp2679
g49
(g70
g51
NtRp2680
(dp2681
g54
(dp2682
g74
g75
ssg63
g2676
sg56
(lp2683
S'SERVER_PROTOCOL'
p2684
asbag49
(g70
g51
NtRp2685
(dp2686
g54
(dp2687
g81
g82
ssg63
g2676
sg56
(lp2688
S':'
asbag49
(g70
g51
NtRp2689
(dp2690
g54
(dp2691
sg63
g2676
sg56
(lp2692
g49
(g50
g51
NtRp2693
(dp2694
g54
(dp2695
g62
I3
ssg63
g2689
sg56
(lp2696
g1325
asbasbasbag49
(g65
g51
NtRp2697
(dp2698
g54
(dp2699
sg63
g2336
sg56
(lp2700
g49
(g70
g51
NtRp2701
(dp2702
g54
(dp2703
g74
g75
ssg63
g2697
sg56
(lp2704
S'SERVER_SOFTWARE'
p2705
asbag49
(g70
g51
NtRp2706
(dp2707
g54
(dp2708
g81
g82
ssg63
g2697
sg56
(lp2709
S':'
asbag49
(g70
g51
NtRp2710
(dp2711
g54
(dp2712
sg63
g2697
sg56
(lp2713
g49
(g50
g51
NtRp2714
(dp2715
g54
(dp2716
g62
I3
ssg63
g2710
sg56
(lp2717
g1347
asbasbasbag49
(g65
g51
NtRp2718
(dp2719
g54
(dp2720
sg63
g2336
sg56
(lp2721
g49
(g70
g51
NtRp2722
(dp2723
g54
(dp2724
g74
g75
ssg63
g2718
sg56
(lp2725
S'wsgi.errors'
p2726
asbag49
(g70
g51
NtRp2727
(dp2728
g54
(dp2729
g81
g82
ssg63
g2718
sg56
(lp2730
S':'
asbag49
(g70
g51
NtRp2731
(dp2732
g54
(dp2733
sg63
g2718
sg56
(lp2734
g49
(g50
g51
NtRp2735
(dp2736
g54
(dp2737
g62
I3
ssg63
g2731
sg56
(lp2738
S"<open file '<stderr>', mode 'w' at 0x01E200B0>"
p2739
asbasbasbag49
(g65
g51
NtRp2740
(dp2741
g54
(dp2742
sg63
g2336
sg56
(lp2743
g49
(g70
g51
NtRp2744
(dp2745
g54
(dp2746
g74
g75
ssg63
g2740
sg56
(lp2747
S'wsgi.file_wrapper'
p2748
asbag49
(g70
g51
NtRp2749
(dp2750
g54
(dp2751
g81
g82
ssg63
g2740
sg56
(lp2752
S':'
asbag49
(g70
g51
NtRp2753
(dp2754
g54
(dp2755
sg63
g2740
sg56
(lp2756
g49
(g50
g51
NtRp2757
(dp2758
g54
(dp2759
g62
I3
ssg63
g2753
sg56
(lp2760
S'<class wsgiref.util.FileWrapper at 0x02E80E40>'
p2761
asbasbasbag49
(g65
g51
NtRp2762
(dp2763
g54
(dp2764
sg63
g2336
sg56
(lp2765
g49
(g70
g51
NtRp2766
(dp2767
g54
(dp2768
g74
g75
ssg63
g2762
sg56
(lp2769
S'wsgi.input'
p2770
asbag49
(g70
g51
NtRp2771
(dp2772
g54
(dp2773
g81
g82
ssg63
g2762
sg56
(lp2774
S':'
asbag49
(g70
g51
NtRp2775
(dp2776
g54
(dp2777
sg63
g2762
sg56
(lp2778
g49
(g50
g51
NtRp2779
(dp2780
g54
(dp2781
g62
I3
ssg63
g2775
sg56
(lp2782
S'<cStringIO.StringO object at 0x07133CA0>'
p2783
asbasbasbag49
(g65
g51
NtRp2784
(dp2785
g54
(dp2786
sg63
g2336
sg56
(lp2787
g49
(g70
g51
NtRp2788
(dp2789
g54
(dp2790
g74
g75
ssg63
g2784
sg56
(lp2791
S'wsgi.multiprocess'
p2792
asbag49
(g70
g51
NtRp2793
(dp2794
g54
(dp2795
g81
g82
ssg63
g2784
sg56
(lp2796
S':'
asbag49
(g70
g51
NtRp2797
(dp2798
g54
(dp2799
sg63
g2784
sg56
(lp2800
g49
(g50
g51
NtRp2801
(dp2802
g54
(dp2803
g62
I3
ssg63
g2797
sg56
(lp2804
g92
asbasbasbag49
(g65
g51
NtRp2805
(dp2806
g54
(dp2807
sg63
g2336
sg56
(lp2808
g49
(g70
g51
NtRp2809
(dp2810
g54
(dp2811
g74
g75
ssg63
g2805
sg56
(lp2812
S'wsgi.multithread'
p2813
asbag49
(g70
g51
NtRp2814
(dp2815
g54
(dp2816
g81
g82
ssg63
g2805
sg56
(lp2817
S':'
asbag49
(g70
g51
NtRp2818
(dp2819
g54
(dp2820
sg63
g2805
sg56
(lp2821
g49
(g50
g51
NtRp2822
(dp2823
g54
(dp2824
g62
I3
ssg63
g2818
sg56
(lp2825
g1587
asbasbasbag49
(g65
g51
NtRp2826
(dp2827
g54
(dp2828
sg63
g2336
sg56
(lp2829
g49
(g70
g51
NtRp2830
(dp2831
g54
(dp2832
g74
g75
ssg63
g2826
sg56
(lp2833
S'wsgi.run_once'
p2834
asbag49
(g70
g51
NtRp2835
(dp2836
g54
(dp2837
g81
g82
ssg63
g2826
sg56
(lp2838
S':'
asbag49
(g70
g51
NtRp2839
(dp2840
g54
(dp2841
sg63
g2826
sg56
(lp2842
g49
(g50
g51
NtRp2843
(dp2844
g54
(dp2845
g62
I3
ssg63
g2839
sg56
(lp2846
g92
asbasbasbag49
(g65
g51
NtRp2847
(dp2848
g54
(dp2849
sg63
g2336
sg56
(lp2850
g49
(g70
g51
NtRp2851
(dp2852
g54
(dp2853
g74
g75
ssg63
g2847
sg56
(lp2854
S'wsgi.url_scheme'
p2855
asbag49
(g70
g51
NtRp2856
(dp2857
g54
(dp2858
g81
g82
ssg63
g2847
sg56
(lp2859
S':'
asbag49
(g70
g51
NtRp2860
(dp2861
g54
(dp2862
sg63
g2847
sg56
(lp2863
g49
(g50
g51
NtRp2864
(dp2865
g54
(dp2866
g62
I3
ssg63
g2860
sg56
(lp2867
g1630
asbasbasbag49
(g65
g51
NtRp2868
(dp2869
g54
(dp2870
sg63
g2336
sg56
(lp2871
g49
(g70
g51
NtRp2872
(dp2873
g54
(dp2874
g74
g75
ssg63
g2868
sg56
(lp2875
S'wsgi.version'
p2876
asbag49
(g70
g51
NtRp2877
(dp2878
g54
(dp2879
g81
g82
ssg63
g2868
sg56
(lp2880
S':'
asbag49
(g70
g51
NtRp2881
(dp2882
g54
(dp2883
sg63
g2868
sg56
(lp2884
g49
(g50
g51
NtRp2885
(dp2886
g54
(dp2887
g62
I3
ssg63
g2881
sg56
(lp2888
S'1'
asbasbasbasbasbasbasbasbasbasbasbasbasbsS'frames'
p2889
(lp2890
(dp2891
S'file'
p2892
S'B:\\web2py\\gluon\\restricted.py'
p2893
sS'dump'
p2894
(dp2895
sS'lnum'
p2896
I205
sS'lines'
p2897
(dp2898
sS'call'
p2899
S'(code=\'response.write(\\\'<!DOCTYPE html PUBLIC "-//W3C//D...p>\\\\n  </div>\\\\n </body>\\\\n</html>\\\\n\\\', escape=False)\', environment={\'A\': <class \'gluon.html.A\'>, \'Auth\': <class \'gluon.tools.Auth\'>, \'B\': <class \'gluon.html.B\'>, \'BEAUTIFY\': <class \'gluon.html.BEAUTIFY\'>, \'BODY\': <class \'gluon.html.BODY\'>, \'BR\': <class \'gluon.html.BR\'>, \'BUTTON\': <class \'gluon.html.BUTTON\'>, \'CAT\': <class \'gluon.html.CAT\'>, \'CENTER\': <class \'gluon.html.CENTER\'>, \'CLEANUP\': <class \'gluon.validators.CLEANUP\'>, ...}, layer=r\'B:\\web2py\\applications\\manager\\views\\default/index.html\')'
p2900
sS'func'
p2901
S'restricted'
p2902
sa(dp2903
g2892
S'B:\\web2py\\applications\\manager\\views\\default\\index.html'
p2904
sg2894
(dp2905
sg2896
I32
sg2897
(dp2906
I32
S'response.write(auth.user.first_name)'
p2907
sI33
S'response.write(\'!!<br /></h2>\\n<h3>&nbsp;&nbsp;&nbsp;&nbsp;&nbsp;&nbsp&nbsp;&nbsp;&nbspThis portal allows you to fill your preferences. Follow instructions carefully.</h3>\\n<h2>&nbsp;&nbsp;&nbsp;&nbsp;&nbsp;&nbspInstructions</h2>\\n<h3>&nbsp;&nbsp;&nbsp;&nbsp;&nbsp;&nbsp;&nbsp;&nbsp;&nbsp;&nbsp;1. This portal accepts a maximum of 10 preferences.<br />\\n&nbsp;&nbsp;&nbsp;&nbsp;&nbsp;&nbsp;&nbsp;&nbsp;&nbsp;&nbsp;2.After giving 10 preferences you can enter a preference only if you unselect any of your previous preference.<br />&nbsp;&nbsp;&nbsp\\n&nbsp;&nbsp;&nbsp;&nbsp;&nbsp;&nbsp3.You need not submit your preferences explicitly, selection will suffice.<br />\\n</h3>\\n<hr \\\\>\\n<ul>\\n<h2 align="left">Click here to choose your book preferences</h2>\\n<input type="button" value = "Choose" onclick="window.location = \\\'choose1\\\';">\\n<h2 align="left">Click here to choose your language preferences</h2>\\n<input type="button" value = "Choose" onclick="window.location = \\\'preference\\\';">\\n</ul>\\n\', escape=False)'
p2908
sI34
S'response.write(\'\\n    </div>\\n    <!-- end content -->\\n    <!-- start sidebars -->\\n    \\n    <!-- end sidebars -->\\n    <div style="clear: both;">\\n     &nbsp;\\n    </div>\\n   </div>\\n   <!-- end page -->\\n  </div>\\n  <div id="footer">\\n   <p>\\n    &copy;2007 All Rights Reserved. &nbsp;&bull;&nbsp; Design by\\n    <a href="http://www.freecsstemplates.org/">\\n     Free CSS Templates\\n    </a>\\n    .\\n   </p>\\n  </div>\\n </body>\\n</html>\\n\', escape=False)'
p2909
sI23
S'except:pass'
p2910
sI24
S'response.write(\'\\n\\n  <!-- start header -->\\n  <div id="logo" >\\n   <h1>\\n    \', escape=False)'
p2911
sI25
S'response.write(response.title or request.application)'
p2912
sI26
S'response.write(\'\\n   </h1>\\n   <br />\\n   \\n  </div>\\n  <h2>&nbsp;&nbsp;&nbsp;&nbsp;&nbsp;&nbsp;&nbsp;&nbsp;&nbsp;&nbsp;&nbsp;&nbsp;&nbsp;&nbsp;&nbsp;&nbsp;&nbsp;&nbsp;&nbsp;&nbsp;&nbsp;&nbsp;&nbsp;&nbsp; &nbsp;&nbsp;&nbsp;IIIT-H</h2>\\n  <div id="menu">\\n   \', escape=False)'
p2913
sI27
S"response.write(MENU(response.menu,_class='web2py-menu'))"
p2914
sI28
S'response.write(\'\\n    <script>\\n      jQuery(document).ready(function(){jQuery(\\\'ul.web2py-menu\\\').superfish({delay:400});});\\n    </script>\\n  </div>\\n  <!-- end header -->\\n  <div id="wrapper">\\n   <!-- start page -->\\n   <div id="page">\\n    <!-- start content -->\\n    <div >\\n     <div >\', escape=False)'
p2915
sI29
S"response.write(response.flash or '')"
p2916
sI30
S"response.write('</div>\\n     ', escape=False)"
p2917
sI31
S"response.write('\\n<h2>&nbsp;&nbsp;&nbsp&nbsp;&nbsp;&nbspCongratulations ', escape=False)"
p2918
ssg2899
S'()'
p2919
sg2901
S'<module>'
p2920
sasS'pyver'
p2921
S'Python 2.5.4: B:\\web2py\\web2py.exe'
p2922
sS'session'
p2923
g49
(g50
g51
NtRp2924
(dp2925
g54
(dp2926
sg56
(lp2927
g49
(g58
g51
NtRp2928
(dp2929
g54
(dp2930
g62
I5
ssg63
Nsg56
(lp2931
sbasbsS'etype'
p2932
S"<type 'exceptions.AttributeError'>"
p2933
sS'date'
p2934
S'Tue Nov 06 09:20:37 2012'
p2935
sS'response'
p2936
g49
(g50
g51
NtRp2937
(dp2938
g54
(dp2939
sg56
(lp2940
g49
(g58
g51
NtRp2941
(dp2942
g54
(dp2943
g62
I5
ssg63
Nsg56
(lp2944
g49
(g65
g51
NtRp2945
(dp2946
g54
(dp2947
sg63
g2941
sg56
(lp2948
g49
(g70
g51
NtRp2949
(dp2950
g54
(dp2951
g74
g75
ssg63
g2945
sg56
(lp2952
g147
asbag49
(g70
g51
NtRp2953
(dp2954
g54
(dp2955
g81
g82
ssg63
g2945
sg56
(lp2956
S':'
asbag49
(g70
g51
NtRp2957
(dp2958
g54
(dp2959
sg63
g2945
sg56
(lp2960
g49
(g50
g51
NtRp2961
(dp2962
g54
(dp2963
g62
I5
ssg63
g2957
sg56
(lp2964
S'<cStringIO.StringO object at 0x07131F40>'
p2965
asbasbasbag49
(g65
g51
NtRp2966
(dp2967
g54
(dp2968
sg63
g2941
sg56
(lp2969
g49
(g70
g51
NtRp2970
(dp2971
g54
(dp2972
g74
g75
ssg63
g2966
sg56
(lp2973
g213
asbag49
(g70
g51
NtRp2974
(dp2975
g54
(dp2976
g81
g82
ssg63
g2966
sg56
(lp2977
S':'
asbag49
(g70
g51
NtRp2978
(dp2979
g54
(dp2980
sg63
g2966
sg56
(lp2981
g49
(g50
g51
NtRp2982
(dp2983
g54
(dp2984
g62
I5
ssg63
g2978
sg56
(lp2985
g49
(g58
g51
NtRp2986
(dp2987
g54
(dp2988
g62
I4
ssg63
Nsg56
(lp2989
g49
(g65
g51
NtRp2990
(dp2991
g54
(dp2992
sg63
g2986
sg56
(lp2993
g49
(g70
g51
NtRp2994
(dp2995
g54
(dp2996
g74
g75
ssg63
g2990
sg56
(lp2997
S'session_id_manager'
p2998
asbag49
(g70
g51
NtRp2999
(dp3000
g54
(dp3001
g81
g82
ssg63
g2990
sg56
(lp3002
S':'
asbag49
(g70
g51
NtRp3003
(dp3004
g54
(dp3005
sg63
g2990
sg56
(lp3006
g49
(g50
g51
NtRp3007
(dp3008
g54
(dp3009
g62
I4
ssg63
g3003
sg56
(lp3010
g49
(g58
g51
NtRp3011
(dp3012
g54
(dp3013
g62
I3
ssg63
Nsg56
(lp3014
g49
(g65
g51
NtRp3015
(dp3016
g54
(dp3017
sg63
g3011
sg56
(lp3018
g49
(g70
g51
NtRp3019
(dp3020
g54
(dp3021
g74
g75
ssg63
g3015
sg56
(lp3022
g263
asbag49
(g70
g51
NtRp3023
(dp3024
g54
(dp3025
g81
g82
ssg63
g3015
sg56
(lp3026
S':'
asbag49
(g70
g51
NtRp3027
(dp3028
g54
(dp3029
sg63
g3015
sg56
(lp3030
g49
(g50
g51
NtRp3031
(dp3032
g54
(dp3033
g62
I3
ssg63
g3027
sg56
(lp3034
S''
asbasbasbag49
(g65
g51
NtRp3035
(dp3036
g54
(dp3037
sg63
g3011
sg56
(lp3038
g49
(g70
g51
NtRp3039
(dp3040
g54
(dp3041
g74
g75
ssg63
g3035
sg56
(lp3042
g284
asbag49
(g70
g51
NtRp3043
(dp3044
g54
(dp3045
g81
g82
ssg63
g3035
sg56
(lp3046
S':'
asbag49
(g70
g51
NtRp3047
(dp3048
g54
(dp3049
sg63
g3035
sg56
(lp3050
g49
(g50
g51
NtRp3051
(dp3052
g54
(dp3053
g62
I3
ssg63
g3047
sg56
(lp3054
S''
asbasbasbag49
(g65
g51
NtRp3055
(dp3056
g54
(dp3057
sg63
g3011
sg56
(lp3058
g49
(g70
g51
NtRp3059
(dp3060
g54
(dp3061
g74
g75
ssg63
g3055
sg56
(lp3062
g305
asbag49
(g70
g51
NtRp3063
(dp3064
g54
(dp3065
g81
g82
ssg63
g3055
sg56
(lp3066
S':'
asbag49
(g70
g51
NtRp3067
(dp3068
g54
(dp3069
sg63
g3055
sg56
(lp3070
g49
(g50
g51
NtRp3071
(dp3072
g54
(dp3073
g62
I3
ssg63
g3067
sg56
(lp3074
S''
asbasbasbag49
(g65
g51
NtRp3075
(dp3076
g54
(dp3077
sg63
g3011
sg56
(lp3078
g49
(g70
g51
NtRp3079
(dp3080
g54
(dp3081
g74
g75
ssg63
g3075
sg56
(lp3082
g326
asbag49
(g70
g51
NtRp3083
(dp3084
g54
(dp3085
g81
g82
ssg63
g3075
sg56
(lp3086
S':'
asbag49
(g70
g51
NtRp3087
(dp3088
g54
(dp3089
sg63
g3075
sg56
(lp3090
g49
(g50
g51
NtRp3091
(dp3092
g54
(dp3093
g62
I3
ssg63
g3087
sg56
(lp3094
S''
asbasbasbag49
(g65
g51
NtRp3095
(dp3096
g54
(dp3097
sg63
g3011
sg56
(lp3098
g49
(g70
g51
NtRp3099
(dp3100
g54
(dp3101
g74
g75
ssg63
g3095
sg56
(lp3102
g347
asbag49
(g70
g51
NtRp3103
(dp3104
g54
(dp3105
g81
g82
ssg63
g3095
sg56
(lp3106
S':'
asbag49
(g70
g51
NtRp3107
(dp3108
g54
(dp3109
sg63
g3095
sg56
(lp3110
g49
(g50
g51
NtRp3111
(dp3112
g54
(dp3113
g62
I3
ssg63
g3107
sg56
(lp3114
S'/'
asbasbasbag49
(g65
g51
NtRp3115
(dp3116
g54
(dp3117
sg63
g3011
sg56
(lp3118
g49
(g70
g51
NtRp3119
(dp3120
g54
(dp3121
g74
g75
ssg63
g3115
sg56
(lp3122
g368
asbag49
(g70
g51
NtRp3123
(dp3124
g54
(dp3125
g81
g82
ssg63
g3115
sg56
(lp3126
S':'
asbag49
(g70
g51
NtRp3127
(dp3128
g54
(dp3129
sg63
g3115
sg56
(lp3130
g49
(g50
g51
NtRp3131
(dp3132
g54
(dp3133
g62
I3
ssg63
g3127
sg56
(lp3134
S''
asbasbasbag49
(g65
g51
NtRp3135
(dp3136
g54
(dp3137
sg63
g3011
sg56
(lp3138
g49
(g70
g51
NtRp3139
(dp3140
g54
(dp3141
g74
g75
ssg63
g3135
sg56
(lp3142
g389
asbag49
(g70
g51
NtRp3143
(dp3144
g54
(dp3145
g81
g82
ssg63
g3135
sg56
(lp3146
S':'
asbag49
(g70
g51
NtRp3147
(dp3148
g54
(dp3149
sg63
g3135
sg56
(lp3150
g49
(g50
g51
NtRp3151
(dp3152
g54
(dp3153
g62
I3
ssg63
g3147
sg56
(lp3154
S''
asbasbasbasbasbasbasbasbasbasbasbag49
(g65
g51
NtRp3155
(dp3156
g54
(dp3157
sg63
g2941
sg56
(lp3158
g49
(g70
g51
NtRp3159
(dp3160
g54
(dp3161
g74
g75
ssg63
g3155
sg56
(lp3162
S'delimiters'
p3163
asbag49
(g70
g51
NtRp3164
(dp3165
g54
(dp3166
g81
g82
ssg63
g3155
sg56
(lp3167
S':'
asbag49
(g70
g51
NtRp3168
(dp3169
g54
(dp3170
sg63
g3155
sg56
(lp3171
g49
(g50
g51
NtRp3172
(dp3173
g54
(dp3174
g62
I5
ssg63
g3168
sg56
(lp3175
g49
(g58
g51
NtRp3176
(dp3177
g54
(dp3178
g62
I4
ssg63
Nsg56
(lp3179
g49
(g65
g51
NtRp3180
(dp3181
g54
(dp3182
sg63
g3176
sg56
(lp3183
g49
(g70
g51
NtRp3184
(dp3185
g54
(dp3186
sg63
g3180
sg56
(lp3187
g49
(g50
g51
NtRp3188
(dp3189
g54
(dp3190
g62
I4
ssg63
g3184
sg56
(lp3191
S'{{'
p3192
asbasbasbag49
(g65
g51
NtRp3193
(dp3194
g54
(dp3195
sg63
g3176
sg56
(lp3196
g49
(g70
g51
NtRp3197
(dp3198
g54
(dp3199
sg63
g3193
sg56
(lp3200
g49
(g50
g51
NtRp3201
(dp3202
g54
(dp3203
g62
I4
ssg63
g3197
sg56
(lp3204
S'}}'
p3205
asbasbasbasbasbasbasbag49
(g65
g51
NtRp3206
(dp3207
g54
(dp3208
sg63
g2941
sg56
(lp3209
g49
(g70
g51
NtRp3210
(dp3211
g54
(dp3212
g74
g75
ssg63
g3206
sg56
(lp3213
S'files'
p3214
asbag49
(g70
g51
NtRp3215
(dp3216
g54
(dp3217
g81
g82
ssg63
g3206
sg56
(lp3218
S':'
asbag49
(g70
g51
NtRp3219
(dp3220
g54
(dp3221
sg63
g3206
sg56
(lp3222
g49
(g50
g51
NtRp3223
(dp3224
g54
(dp3225
g62
I5
ssg63
g3219
sg56
(lp3226
g49
(g58
g51
NtRp3227
(dp3228
g54
(dp3229
g62
I4
ssg63
Nsg56
(lp3230
g49
(g65
g51
NtRp3231
(dp3232
g54
(dp3233
sg63
g3227
sg56
(lp3234
g49
(g70
g51
NtRp3235
(dp3236
g54
(dp3237
sg63
g3231
sg56
(lp3238
g49
(g50
g51
NtRp3239
(dp3240
g54
(dp3241
g62
I4
ssg63
g3235
sg56
(lp3242
S'/manager/static/js/jquery.js'
p3243
asbasbasbag49
(g65
g51
NtRp3244
(dp3245
g54
(dp3246
sg63
g3227
sg56
(lp3247
g49
(g70
g51
NtRp3248
(dp3249
g54
(dp3250
sg63
g3244
sg56
(lp3251
g49
(g50
g51
NtRp3252
(dp3253
g54
(dp3254
g62
I4
ssg63
g3248
sg56
(lp3255
S'/manager/static/plugin_layouts/layouts/Transient/default.css'
p3256
asbasbasbag49
(g65
g51
NtRp3257
(dp3258
g54
(dp3259
sg63
g3227
sg56
(lp3260
g49
(g70
g51
NtRp3261
(dp3262
g54
(dp3263
sg63
g3257
sg56
(lp3264
g49
(g50
g51
NtRp3265
(dp3266
g54
(dp3267
g62
I4
ssg63
g3261
sg56
(lp3268
S'/manager/static/plugin_layouts/superfish.js'
p3269
asbasbasbag49
(g65
g51
NtRp3270
(dp3271
g54
(dp3272
sg63
g3227
sg56
(lp3273
g49
(g70
g51
NtRp3274
(dp3275
g54
(dp3276
sg63
g3270
sg56
(lp3277
g49
(g50
g51
NtRp3278
(dp3279
g54
(dp3280
g62
I4
ssg63
g3274
sg56
(lp3281
S'/manager/static/js/web2py.js'
p3282
asbasbasbasbasbasbasbag49
(g65
g51
NtRp3283
(dp3284
g54
(dp3285
sg63
g2941
sg56
(lp3286
g49
(g70
g51
NtRp3287
(dp3288
g54
(dp3289
g74
g75
ssg63
g3283
sg56
(lp3290
S'flash'
p3291
asbag49
(g70
g51
NtRp3292
(dp3293
g54
(dp3294
g81
g82
ssg63
g3283
sg56
(lp3295
S':'
asbag49
(g70
g51
NtRp3296
(dp3297
g54
(dp3298
sg63
g3283
sg56
(lp3299
g49
(g50
g51
NtRp3300
(dp3301
g54
(dp3302
g62
I5
ssg63
g3296
sg56
(lp3303
S''
asbasbasbag49
(g65
g51
NtRp3304
(dp3305
g54
(dp3306
sg63
g2941
sg56
(lp3307
g49
(g70
g51
NtRp3308
(dp3309
g54
(dp3310
g74
g75
ssg63
g3304
sg56
(lp3311
S'generic_patterns'
p3312
asbag49
(g70
g51
NtRp3313
(dp3314
g54
(dp3315
g81
g82
ssg63
g3304
sg56
(lp3316
S':'
asbag49
(g70
g51
NtRp3317
(dp3318
g54
(dp3319
sg63
g3304
sg56
(lp3320
g49
(g50
g51
NtRp3321
(dp3322
g54
(dp3323
g62
I5
ssg63
g3317
sg56
(lp3324
g49
(g58
g51
NtRp3325
(dp3326
g54
(dp3327
g62
I4
ssg63
Nsg56
(lp3328
g49
(g65
g51
NtRp3329
(dp3330
g54
(dp3331
sg63
g3325
sg56
(lp3332
g49
(g70
g51
NtRp3333
(dp3334
g54
(dp3335
sg63
g3329
sg56
(lp3336
g49
(g50
g51
NtRp3337
(dp3338
g54
(dp3339
g62
I4
ssg63
g3333
sg56
(lp3340
S'*'
asbasbasbasbasbasbasbag49
(g65
g51
NtRp3341
(dp3342
g54
(dp3343
sg63
g2941
sg56
(lp3344
g49
(g70
g51
NtRp3345
(dp3346
g54
(dp3347
g74
g75
ssg63
g3341
sg56
(lp3348
S'headers'
p3349
asbag49
(g70
g51
NtRp3350
(dp3351
g54
(dp3352
g81
g82
ssg63
g3341
sg56
(lp3353
S':'
asbag49
(g70
g51
NtRp3354
(dp3355
g54
(dp3356
sg63
g3341
sg56
(lp3357
g49
(g50
g51
NtRp3358
(dp3359
g54
(dp3360
g62
I5
ssg63
g3354
sg56
(lp3361
g49
(g58
g51
NtRp3362
(dp3363
g54
(dp3364
g62
I4
ssg63
Nsg56
(lp3365
g49
(g65
g51
NtRp3366
(dp3367
g54
(dp3368
sg63
g3362
sg56
(lp3369
g49
(g70
g51
NtRp3370
(dp3371
g54
(dp3372
g74
g75
ssg63
g3366
sg56
(lp3373
S'Cache-Control'
p3374
asbag49
(g70
g51
NtRp3375
(dp3376
g54
(dp3377
g81
g82
ssg63
g3366
sg56
(lp3378
S':'
asbag49
(g70
g51
NtRp3379
(dp3380
g54
(dp3381
sg63
g3366
sg56
(lp3382
g49
(g50
g51
NtRp3383
(dp3384
g54
(dp3385
g62
I4
ssg63
g3379
sg56
(lp3386
S'no-store, no-cache, must-revalidate, post-check=0, pre-check=0'
p3387
asbasbasbag49
(g65
g51
NtRp3388
(dp3389
g54
(dp3390
sg63
g3362
sg56
(lp3391
g49
(g70
g51
NtRp3392
(dp3393
g54
(dp3394
g74
g75
ssg63
g3388
sg56
(lp3395
S'Content-Type'
p3396
asbag49
(g70
g51
NtRp3397
(dp3398
g54
(dp3399
g81
g82
ssg63
g3388
sg56
(lp3400
S':'
asbag49
(g70
g51
NtRp3401
(dp3402
g54
(dp3403
sg63
g3388
sg56
(lp3404
g49
(g50
g51
NtRp3405
(dp3406
g54
(dp3407
g62
I4
ssg63
g3401
sg56
(lp3408
S'text/html; charset=utf-8'
p3409
asbasbasbag49
(g65
g51
NtRp3410
(dp3411
g54
(dp3412
sg63
g3362
sg56
(lp3413
g49
(g70
g51
NtRp3414
(dp3415
g54
(dp3416
g74
g75
ssg63
g3410
sg56
(lp3417
S'Expires'
p3418
asbag49
(g70
g51
NtRp3419
(dp3420
g54
(dp3421
g81
g82
ssg63
g3410
sg56
(lp3422
S':'
asbag49
(g70
g51
NtRp3423
(dp3424
g54
(dp3425
sg63
g3410
sg56
(lp3426
g49
(g50
g51
NtRp3427
(dp3428
g54
(dp3429
g62
I4
ssg63
g3423
sg56
(lp3430
S'Tue, 06 Nov 2012 03:50:37 GMT'
p3431
asbasbasbag49
(g65
g51
NtRp3432
(dp3433
g54
(dp3434
sg63
g3362
sg56
(lp3435
g49
(g70
g51
NtRp3436
(dp3437
g54
(dp3438
g74
g75
ssg63
g3432
sg56
(lp3439
S'Pragma'
p3440
asbag49
(g70
g51
NtRp3441
(dp3442
g54
(dp3443
g81
g82
ssg63
g3432
sg56
(lp3444
S':'
asbag49
(g70
g51
NtRp3445
(dp3446
g54
(dp3447
sg63
g3432
sg56
(lp3448
g49
(g50
g51
NtRp3449
(dp3450
g54
(dp3451
g62
I4
ssg63
g3445
sg56
(lp3452
S'no-cache'
p3453
asbasbasbag49
(g65
g51
NtRp3454
(dp3455
g54
(dp3456
sg63
g3362
sg56
(lp3457
g49
(g70
g51
NtRp3458
(dp3459
g54
(dp3460
g74
g75
ssg63
g3454
sg56
(lp3461
S'X-Powered-By'
p3462
asbag49
(g70
g51
NtRp3463
(dp3464
g54
(dp3465
g81
g82
ssg63
g3454
sg56
(lp3466
S':'
asbag49
(g70
g51
NtRp3467
(dp3468
g54
(dp3469
sg63
g3454
sg56
(lp3470
g49
(g50
g51
NtRp3471
(dp3472
g54
(dp3473
g62
I4
ssg63
g3467
sg56
(lp3474
S'web2py'
p3475
asbasbasbasbasbasbasbag49
(g65
g51
NtRp3476
(dp3477
g54
(dp3478
sg63
g2941
sg56
(lp3479
g49
(g70
g51
NtRp3480
(dp3481
g54
(dp3482
g74
g75
ssg63
g3476
sg56
(lp3483
S'menu'
p3484
asbag49
(g70
g51
NtRp3485
(dp3486
g54
(dp3487
g81
g82
ssg63
g3476
sg56
(lp3488
S':'
asbag49
(g70
g51
NtRp3489
(dp3490
g54
(dp3491
sg63
g3476
sg56
(lp3492
g49
(g50
g51
NtRp3493
(dp3494
g54
(dp3495
g62
I5
ssg63
g3489
sg56
(lp3496
g49
(g58
g51
NtRp3497
(dp3498
g54
(dp3499
g62
I4
ssg63
Nsg56
(lp3500
g49
(g65
g51
NtRp3501
(dp3502
g54
(dp3503
sg63
g3497
sg56
(lp3504
g49
(g70
g51
NtRp3505
(dp3506
g54
(dp3507
sg63
g3501
sg56
(lp3508
g49
(g50
g51
NtRp3509
(dp3510
g54
(dp3511
g62
I4
ssg63
g3505
sg56
(lp3512
g49
(g58
g51
NtRp3513
(dp3514
g54
(dp3515
g62
I3
ssg63
Nsg56
(lp3516
g49
(g65
g51
NtRp3517
(dp3518
g54
(dp3519
sg63
g3513
sg56
(lp3520
g49
(g70
g51
NtRp3521
(dp3522
g54
(dp3523
sg63
g3517
sg56
(lp3524
g49
(g50
g51
NtRp3525
(dp3526
g54
(dp3527
g62
I3
ssg63
g3521
sg56
(lp3528
cgluon.languages
lazyT_unpickle
p3529
(S's\x04\x00\x00\x00Home'
tRp3530
asbasbasbag49
(g65
g51
NtRp3531
(dp3532
g54
(dp3533
sg63
g3513
sg56
(lp3534
g49
(g70
g51
NtRp3535
(dp3536
g54
(dp3537
sg63
g3531
sg56
(lp3538
g49
(g50
g51
NtRp3539
(dp3540
g54
(dp3541
g62
I3
ssg63
g3535
sg56
(lp3542
g92
asbasbasbag49
(g65
g51
NtRp3543
(dp3544
g54
(dp3545
sg63
g3513
sg56
(lp3546
g49
(g70
g51
NtRp3547
(dp3548
g54
(dp3549
sg63
g3543
sg56
(lp3550
g49
(g50
g51
NtRp3551
(dp3552
g54
(dp3553
g62
I3
ssg63
g3547
sg56
(lp3554
S'/manager/default/index'
p3555
asbasbasbasbasbasbasbag49
(g65
g51
NtRp3556
(dp3557
g54
(dp3558
sg63
g3497
sg56
(lp3559
g49
(g70
g51
NtRp3560
(dp3561
g54
(dp3562
sg63
g3556
sg56
(lp3563
g49
(g50
g51
NtRp3564
(dp3565
g54
(dp3566
g62
I4
ssg63
g3560
sg56
(lp3567
g49
(g58
g51
NtRp3568
(dp3569
g54
(dp3570
g62
I3
ssg63
Nsg56
(lp3571
g49
(g65
g51
NtRp3572
(dp3573
g54
(dp3574
sg63
g3568
sg56
(lp3575
g49
(g70
g51
NtRp3576
(dp3577
g54
(dp3578
sg63
g3572
sg56
(lp3579
g49
(g50
g51
NtRp3580
(dp3581
g54
(dp3582
g62
I3
ssg63
g3576
sg56
(lp3583
g3529
(S's\x05\x00\x00\x00About'
tRp3584
asbasbasbag49
(g65
g51
NtRp3585
(dp3586
g54
(dp3587
sg63
g3568
sg56
(lp3588
g49
(g70
g51
NtRp3589
(dp3590
g54
(dp3591
sg63
g3585
sg56
(lp3592
g49
(g50
g51
NtRp3593
(dp3594
g54
(dp3595
g62
I3
ssg63
g3589
sg56
(lp3596
g92
asbasbasbag49
(g65
g51
NtRp3597
(dp3598
g54
(dp3599
sg63
g3568
sg56
(lp3600
g49
(g70
g51
NtRp3601
(dp3602
g54
(dp3603
sg63
g3597
sg56
(lp3604
g49
(g50
g51
NtRp3605
(dp3606
g54
(dp3607
g62
I3
ssg63
g3601
sg56
(lp3608
S'/manager/default/what'
p3609
asbasbasbasbasbasbasbasbasbasbasbag49
(g65
g51
NtRp3610
(dp3611
g54
(dp3612
sg63
g2941
sg56
(lp3613
g49
(g70
g51
NtRp3614
(dp3615
g54
(dp3616
g74
g75
ssg63
g3610
sg56
(lp3617
S'meta'
p3618
asbag49
(g70
g51
NtRp3619
(dp3620
g54
(dp3621
g81
g82
ssg63
g3610
sg56
(lp3622
S':'
asbag49
(g70
g51
NtRp3623
(dp3624
g54
(dp3625
sg63
g3610
sg56
(lp3626
g49
(g50
g51
NtRp3627
(dp3628
g54
(dp3629
g62
I5
ssg63
g3623
sg56
(lp3630
g49
(g58
g51
NtRp3631
(dp3632
g54
(dp3633
g62
I4
ssg63
Nsg56
(lp3634
g49
(g65
g51
NtRp3635
(dp3636
g54
(dp3637
sg63
g3631
sg56
(lp3638
g49
(g70
g51
NtRp3639
(dp3640
g54
(dp3641
g74
g75
ssg63
g3635
sg56
(lp3642
S'author'
p3643
asbag49
(g70
g51
NtRp3644
(dp3645
g54
(dp3646
g81
g82
ssg63
g3635
sg56
(lp3647
S':'
asbag49
(g70
g51
NtRp3648
(dp3649
g54
(dp3650
sg63
g3635
sg56
(lp3651
g49
(g50
g51
NtRp3652
(dp3653
g54
(dp3654
g62
I4
ssg63
g3648
sg56
(lp3655
S'Your Name <you@example.com>'
p3656
asbasbasbag49
(g65
g51
NtRp3657
(dp3658
g54
(dp3659
sg63
g3631
sg56
(lp3660
g49
(g70
g51
NtRp3661
(dp3662
g54
(dp3663
g74
g75
ssg63
g3657
sg56
(lp3664
S'copyright'
p3665
asbag49
(g70
g51
NtRp3666
(dp3667
g54
(dp3668
g81
g82
ssg63
g3657
sg56
(lp3669
S':'
asbag49
(g70
g51
NtRp3670
(dp3671
g54
(dp3672
sg63
g3657
sg56
(lp3673
g49
(g50
g51
NtRp3674
(dp3675
g54
(dp3676
g62
I4
ssg63
g3670
sg56
(lp3677
S'Copyright 2011'
p3678
asbasbasbag49
(g65
g51
NtRp3679
(dp3680
g54
(dp3681
sg63
g3631
sg56
(lp3682
g49
(g70
g51
NtRp3683
(dp3684
g54
(dp3685
g74
g75
ssg63
g3679
sg56
(lp3686
S'description'
p3687
asbag49
(g70
g51
NtRp3688
(dp3689
g54
(dp3690
g81
g82
ssg63
g3679
sg56
(lp3691
S':'
asbag49
(g70
g51
NtRp3692
(dp3693
g54
(dp3694
sg63
g3679
sg56
(lp3695
g49
(g50
g51
NtRp3696
(dp3697
g54
(dp3698
g62
I4
ssg63
g3692
sg56
(lp3699
S'a cool new app'
p3700
asbasbasbag49
(g65
g51
NtRp3701
(dp3702
g54
(dp3703
sg63
g3631
sg56
(lp3704
g49
(g70
g51
NtRp3705
(dp3706
g54
(dp3707
g74
g75
ssg63
g3701
sg56
(lp3708
S'generator'
p3709
asbag49
(g70
g51
NtRp3710
(dp3711
g54
(dp3712
g81
g82
ssg63
g3701
sg56
(lp3713
S':'
asbag49
(g70
g51
NtRp3714
(dp3715
g54
(dp3716
sg63
g3701
sg56
(lp3717
g49
(g50
g51
NtRp3718
(dp3719
g54
(dp3720
g62
I4
ssg63
g3714
sg56
(lp3721
S'Web2py Web Framework'
p3722
asbasbasbag49
(g65
g51
NtRp3723
(dp3724
g54
(dp3725
sg63
g3631
sg56
(lp3726
g49
(g70
g51
NtRp3727
(dp3728
g54
(dp3729
g74
g75
ssg63
g3723
sg56
(lp3730
S'keywords'
p3731
asbag49
(g70
g51
NtRp3732
(dp3733
g54
(dp3734
g81
g82
ssg63
g3723
sg56
(lp3735
S':'
asbag49
(g70
g51
NtRp3736
(dp3737
g54
(dp3738
sg63
g3723
sg56
(lp3739
g49
(g50
g51
NtRp3740
(dp3741
g54
(dp3742
g62
I4
ssg63
g3736
sg56
(lp3743
S'web2py, python, framework'
p3744
asbasbasbasbasbasbasbag49
(g65
g51
NtRp3745
(dp3746
g54
(dp3747
sg63
g2941
sg56
(lp3748
g49
(g70
g51
NtRp3749
(dp3750
g54
(dp3751
g74
g75
ssg63
g3745
sg56
(lp3752
S'postprocessing'
p3753
asbag49
(g70
g51
NtRp3754
(dp3755
g54
(dp3756
g81
g82
ssg63
g3745
sg56
(lp3757
S':'
asbag49
(g70
g51
NtRp3758
(dp3759
g54
(dp3760
sg63
g3745
sg56
(lp3761
g49
(g50
g51
NtRp3762
(dp3763
g54
(dp3764
g62
I5
ssg63
g3758
sg56
(lp3765
g49
(g58
g51
NtRp3766
(dp3767
g54
(dp3768
g62
I4
ssg63
Nsg56
(lp3769
sbasbasbasbag49
(g65
g51
NtRp3770
(dp3771
g54
(dp3772
sg63
g2941
sg56
(lp3773
g49
(g70
g51
NtRp3774
(dp3775
g54
(dp3776
g74
g75
ssg63
g3770
sg56
(lp3777
S'session_file'
p3778
asbag49
(g70
g51
NtRp3779
(dp3780
g54
(dp3781
g81
g82
ssg63
g3770
sg56
(lp3782
S':'
asbag49
(g70
g51
NtRp3783
(dp3784
g54
(dp3785
sg63
g3770
sg56
(lp3786
g49
(g50
g51
NtRp3787
(dp3788
g54
(dp3789
g62
I5
ssg63
g3783
sg56
(lp3790
S"<open file 'B:\\web2py\\applications\\manager\\sessions\\127.0.0.1-f4626611-cef5-437d-a235-ff812c572b30', mode 'rb+' at 0x06BF4D58>"
p3791
asbasbasbag49
(g65
g51
NtRp3792
(dp3793
g54
(dp3794
sg63
g2941
sg56
(lp3795
g49
(g70
g51
NtRp3796
(dp3797
g54
(dp3798
g74
g75
ssg63
g3792
sg56
(lp3799
S'session_filename'
p3800
asbag49
(g70
g51
NtRp3801
(dp3802
g54
(dp3803
g81
g82
ssg63
g3792
sg56
(lp3804
S':'
asbag49
(g70
g51
NtRp3805
(dp3806
g54
(dp3807
sg63
g3792
sg56
(lp3808
g49
(g50
g51
NtRp3809
(dp3810
g54
(dp3811
g62
I5
ssg63
g3805
sg56
(lp3812
S'B:\\web2py\\applications\\manager\\sessions\\127.0.0.1-f4626611-cef5-437d-a235-ff812c572b30'
p3813
asbasbasbag49
(g65
g51
NtRp3814
(dp3815
g54
(dp3816
sg63
g2941
sg56
(lp3817
g49
(g70
g51
NtRp3818
(dp3819
g54
(dp3820
g74
g75
ssg63
g3814
sg56
(lp3821
S'session_id'
p3822
asbag49
(g70
g51
NtRp3823
(dp3824
g54
(dp3825
g81
g82
ssg63
g3814
sg56
(lp3826
S':'
asbag49
(g70
g51
NtRp3827
(dp3828
g54
(dp3829
sg63
g3814
sg56
(lp3830
g49
(g50
g51
NtRp3831
(dp3832
g54
(dp3833
g62
I5
ssg63
g3827
sg56
(lp3834
S'127.0.0.1-f4626611-cef5-437d-a235-ff812c572b30'
p3835
asbasbasbag49
(g65
g51
NtRp3836
(dp3837
g54
(dp3838
sg63
g2941
sg56
(lp3839
g49
(g70
g51
NtRp3840
(dp3841
g54
(dp3842
g74
g75
ssg63
g3836
sg56
(lp3843
S'session_id_name'
p3844
asbag49
(g70
g51
NtRp3845
(dp3846
g54
(dp3847
g81
g82
ssg63
g3836
sg56
(lp3848
S':'
asbag49
(g70
g51
NtRp3849
(dp3850
g54
(dp3851
sg63
g3836
sg56
(lp3852
g49
(g50
g51
NtRp3853
(dp3854
g54
(dp3855
g62
I5
ssg63
g3849
sg56
(lp3856
g2998
asbasbasbag49
(g65
g51
NtRp3857
(dp3858
g54
(dp3859
sg63
g2941
sg56
(lp3860
g49
(g70
g51
NtRp3861
(dp3862
g54
(dp3863
g74
g75
ssg63
g3857
sg56
(lp3864
S'session_locked'
p3865
asbag49
(g70
g51
NtRp3866
(dp3867
g54
(dp3868
g81
g82
ssg63
g3857
sg56
(lp3869
S':'
asbag49
(g70
g51
NtRp3870
(dp3871
g54
(dp3872
sg63
g3857
sg56
(lp3873
g49
(g50
g51
NtRp3874
(dp3875
g54
(dp3876
g62
I5
ssg63
g3870
sg56
(lp3877
g1587
asbasbasbag49
(g65
g51
NtRp3878
(dp3879
g54
(dp3880
sg63
g2941
sg56
(lp3881
g49
(g70
g51
NtRp3882
(dp3883
g54
(dp3884
g74
g75
ssg63
g3878
sg56
(lp3885
S'session_new'
p3886
asbag49
(g70
g51
NtRp3887
(dp3888
g54
(dp3889
g81
g82
ssg63
g3878
sg56
(lp3890
S':'
asbag49
(g70
g51
NtRp3891
(dp3892
g54
(dp3893
sg63
g3878
sg56
(lp3894
g49
(g50
g51
NtRp3895
(dp3896
g54
(dp3897
g62
I5
ssg63
g3891
sg56
(lp3898
g92
asbasbasbag49
(g65
g51
NtRp3899
(dp3900
g54
(dp3901
sg63
g2941
sg56
(lp3902
g49
(g70
g51
NtRp3903
(dp3904
g54
(dp3905
g74
g75
ssg63
g3899
sg56
(lp3906
S'status'
p3907
asbag49
(g70
g51
NtRp3908
(dp3909
g54
(dp3910
g81
g82
ssg63
g3899
sg56
(lp3911
S':'
asbag49
(g70
g51
NtRp3912
(dp3913
g54
(dp3914
sg63
g3899
sg56
(lp3915
g49
(g50
g51
NtRp3916
(dp3917
g54
(dp3918
g62
I5
ssg63
g3912
sg56
(lp3919
S'200'
p3920
asbasbasbag49
(g65
g51
NtRp3921
(dp3922
g54
(dp3923
sg63
g2941
sg56
(lp3924
g49
(g70
g51
NtRp3925
(dp3926
g54
(dp3927
g74
g75
ssg63
g3921
sg56
(lp3928
S'subtitle'
p3929
asbag49
(g70
g51
NtRp3930
(dp3931
g54
(dp3932
g81
g82
ssg63
g3921
sg56
(lp3933
S':'
asbag49
(g70
g51
NtRp3934
(dp3935
g54
(dp3936
sg63
g3921
sg56
(lp3937
g49
(g50
g51
NtRp3938
(dp3939
g54
(dp3940
g62
I5
ssg63
g3934
sg56
(lp3941
g3529
(S's\r\x00\x00\x00customize me!'
tRp3942
asbasbasbag49
(g65
g51
NtRp3943
(dp3944
g54
(dp3945
sg63
g2941
sg56
(lp3946
g49
(g70
g51
NtRp3947
(dp3948
g54
(dp3949
g74
g75
ssg63
g3943
sg56
(lp3950
S'title'
p3951
asbag49
(g70
g51
NtRp3952
(dp3953
g54
(dp3954
g81
g82
ssg63
g3943
sg56
(lp3955
S':'
asbag49
(g70
g51
NtRp3956
(dp3957
g54
(dp3958
sg63
g3943
sg56
(lp3959
g49
(g50
g51
NtRp3960
(dp3961
g54
(dp3962
g62
I5
ssg63
g3956
sg56
(lp3963
S'Manager'
p3964
asbasbasbag49
(g65
g51
NtRp3965
(dp3966
g54
(dp3967
sg63
g2941
sg56
(lp3968
g49
(g70
g51
NtRp3969
(dp3970
g54
(dp3971
g74
g75
ssg63
g3965
sg56
(lp3972
g2251
asbag49
(g70
g51
NtRp3973
(dp3974
g54
(dp3975
g81
g82
ssg63
g3965
sg56
(lp3976
S':'
asbag49
(g70
g51
NtRp3977
(dp3978
g54
(dp3979
sg63
g3965
sg56
(lp3980
g49
(g50
g51
NtRp3981
(dp3982
g54
(dp3983
g62
I5
ssg63
g3977
sg56
(lp3984
g2264
asbasbasbag49
(g65
g51
NtRp3985
(dp3986
g54
(dp3987
sg63
g2941
sg56
(lp3988
g49
(g70
g51
NtRp3989
(dp3990
g54
(dp3991
g74
g75
ssg63
g3985
sg56
(lp3992
S'view'
p3993
asbag49
(g70
g51
NtRp3994
(dp3995
g54
(dp3996
g81
g82
ssg63
g3985
sg56
(lp3997
S':'
asbag49
(g70
g51
NtRp3998
(dp3999
g54
(dp4000
sg63
g3985
sg56
(lp4001
g49
(g50
g51
NtRp4002
(dp4003
g54
(dp4004
g62
I5
ssg63
g3998
sg56
(lp4005
S'default/index.html'
p4006
asbasbasbasbasbsS'locals'
p4007
(dp4008
S'Service'
p4009
S"<class 'gluon.tools.Service'>"
p4010
sS'OBJECT'
p4011
S"<class 'gluon.html.OBJECT'>"
p4012
sS'SQLDB'
p4013
S"<class 'gluon.dal.DAL'>"
p4014
sg2923
S"<Storage {'_Session__hash': '\\xc8[\\xd5\\xc1#\\xd8e\\x10\\xe3\\x06\\x0ba\\xddT\\x92m'}>"
p4015
sS'LINK'
p4016
S"<class 'gluon.html.LINK'>"
p4017
sS'BR'
p4018
S"<class 'gluon.html.BR'>"
p4019
sS'local_import'
p4020
S'<function <lambda> at 0x070B70B0>'
p4021
sS'OPTGROUP'
p4022
S"<class 'gluon.html.OPTGROUP'>"
p4023
sS'PRE'
p4024
S"<class 'gluon.html.PRE'>"
p4025
sS'IS_INT_IN_RANGE'
p4026
S"<class 'gluon.validators.IS_INT_IN_RANGE'>"
p4027
sS'IS_LOWER'
p4028
S"<class 'gluon.validators.IS_LOWER'>"
p4029
sS'IS_STRONG'
p4030
S"<class 'gluon.validators.IS_STRONG'>"
p4031
sS'Recaptcha'
p4032
S"<class 'gluon.tools.Recaptcha'>"
p4033
sS'cache'
p4034
S'<gluon.cache.Cache object at 0x07133770>'
p4035
sS'IS_IN_DB'
p4036
S"<class 'gluon.validators.IS_IN_DB'>"
p4037
sS'TAG'
p4038
S'<gluon.html.__TAG__ object at 0x02811D30>'
p4039
sS'SQLField'
p4040
S"<class 'gluon.dal.Field'>"
p4041
sS'BODY'
p4042
S"<class 'gluon.html.BODY'>"
p4043
sS'IS_DATE_IN_RANGE'
p4044
S"<class 'gluon.validators.IS_DATE_IN_RANGE'>"
p4045
sS'TH'
p4046
S"<class 'gluon.html.TH'>"
p4047
sS'URL'
p4048
S'<function URL at 0x02858730>'
p4049
sS'__file__'
p4050
S"r'B:\\web2py\\applications\\manager\\views\\default/index.html'"
p4051
sS'db'
p4052
S"<DAL {'auth_event': <Table {'origin': <gluon.dal..._key': <gluon.dal.Field object at 0x07092E10>}>}>"
p4053
sS'auth'
p4054
S'<gluon.tools.Auth object at 0x07137ED0>'
p4055
sS'P'
S"<class 'gluon.html.P'>"
p4056
sS'TFOOT'
p4057
S"<class 'gluon.html.TFOOT'>"
p4058
sS'XHTML'
p4059
S"<class 'gluon.html.XHTML'>"
p4060
sS'ON'
p4061
g1587
sS'OL'
p4062
S"<class 'gluon.html.OL'>"
p4063
sS'TEXTAREA'
p4064
S"<class 'gluon.html.TEXTAREA'>"
p4065
sS'MENU'
p4066
S"<class 'gluon.html.MENU'>"
p4067
sS'LOAD'
p4068
S'<function LOAD at 0x02A9BEB0>'
p4069
sS'CODE'
p4070
S"<class 'gluon.html.CODE'>"
p4071
sS'HTTP'
p4072
S"<class 'gluon.http.HTTP'>"
p4073
sS'HR'
p4074
S"<class 'gluon.html.HR'>"
p4075
sS'IS_DATETIME'
p4076
S"<class 'gluon.validators.IS_DATETIME'>"
p4077
sS'HEAD'
p4078
S"<class 'gluon.html.HEAD'>"
p4079
sS'LABEL'
p4080
S"<class 'gluon.html.LABEL'>"
p4081
sS'CLEANUP'
p4082
S"<class 'gluon.validators.CLEANUP'>"
p4083
sS'images'
p4084
S'<gluon.dal.Rows object at 0x0330A050>'
p4085
sS'SELECT'
p4086
S"<class 'gluon.html.SELECT'>"
p4087
sS'CENTER'
p4088
S"<class 'gluon.html.CENTER'>"
p4089
sS'prettydate'
p4090
S'<function prettydate at 0x032B6F70>'
p4091
sS'Crud'
p4092
S"<class 'gluon.tools.Crud'>"
p4093
sS'Auth'
p4094
S"<class 'gluon.tools.Auth'>"
p4095
sS'__builtins__'
p4096
S"{'ArithmeticError': <type 'exceptions.ArithmeticError'>, 'AssertionError': <type 'exceptions.AssertionError'>, 'AttributeError': <type 'exceptions.AttributeError'>, 'BaseException': <type 'exceptions.BaseException'>, 'DeprecationWarning': <type 'exceptions.DeprecationWarning'>, 'EOFError': <type 'exceptions.EOFError'>, 'Ellipsis': Ellipsis, 'EnvironmentError': <type 'exceptions.EnvironmentError'>, 'Exception': <type 'exceptions.Exception'>, 'False': False, ...}"
p4097
sS'HTML'
p4098
S"<class 'gluon.html.HTML'>"
p4099
sS'SQLFORM'
p4100
S"<class 'gluon.sqlhtml.SQLFORM'>"
p4101
sS'EM'
p4102
S"<class 'gluon.html.EM'>"
p4103
sS'redirect'
p4104
S'<function redirect at 0x023D0DB0>'
p4105
sS'FIELDSET'
p4106
S"<class 'gluon.html.FIELDSET'>"
p4107
sS'IS_EQUAL_TO'
p4108
S"<class 'gluon.validators.IS_EQUAL_TO'>"
p4109
sS'embed64'
p4110
S'<function embed64 at 0x0285B270>'
p4111
sS'IS_LIST_OF'
p4112
S"<class 'gluon.validators.IS_LIST_OF'>"
p4113
sS'__name__'
p4114
S"'__restricted__'"
p4115
sS'EMBED'
p4116
S"<class 'gluon.html.EMBED'>"
p4117
sS'_'
S'<function _ at 0x06B8FEF0>'
p4118
sS'FORM'
p4119
S"<class 'gluon.html.FORM'>"
p4120
sS'H2'
p4121
S"<class 'gluon.html.H2'>"
p4122
sS'H3'
p4123
S"<class 'gluon.html.H3'>"
p4124
sS'BUTTON'
p4125
S"<class 'gluon.html.BUTTON'>"
p4126
sS'H1'
p4127
S"<class 'gluon.html.H1'>"
p4128
sS'H6'
p4129
S"<class 'gluon.html.H6'>"
p4130
sS'H4'
p4131
S"<class 'gluon.html.H4'>"
p4132
sS'H5'
p4133
S"<class 'gluon.html.H5'>"
p4134
sS'UL'
p4135
S"<class 'gluon.html.UL'>"
p4136
sS'IS_UPPER'
p4137
S"<class 'gluon.validators.IS_UPPER'>"
p4138
sS'xmlescape'
p4139
S'<function xmlescape at 0x028586B0>'
p4140
sS'IS_TIME'
p4141
S"<class 'gluon.validators.IS_TIME'>"
p4142
sS'OPTION'
p4143
S"<class 'gluon.html.OPTION'>"
p4144
sS'TITLE'
p4145
S"<class 'gluon.html.TITLE'>"
p4146
sS'CRYPT'
p4147
S"<class 'gluon.validators.CRYPT'>"
p4148
sS'IS_EMPTY_OR'
p4149
S"<class 'gluon.validators.IS_EMPTY_OR'>"
p4150
sS'MARKMIN'
p4151
S"<class 'gluon.html.MARKMIN'>"
p4152
sS'INPUT'
p4153
S"<class 'gluon.html.INPUT'>"
p4154
sS'COL'
p4155
S"<class 'gluon.html.COL'>"
p4156
sS'service'
p4157
S'<gluon.tools.Service object at 0x06C55A50>'
p4158
sS'SCRIPT'
p4159
S"<class 'gluon.html.SCRIPT'>"
p4160
sS'geocode'
p4161
S'<function geocode at 0x032B68B0>'
p4162
sS'TABLE'
p4163
S"<class 'gluon.html.TABLE'>"
p4164
sS'IS_IPV4'
p4165
S"<class 'gluon.validators.IS_IPV4'>"
p4166
sS'IS_LENGTH'
p4167
S"<class 'gluon.validators.IS_LENGTH'>"
p4168
sS'XML'
p4169
S"<class 'gluon.html.XML'>"
p4170
sS'B'
S"<class 'gluon.html.B'>"
p4171
sS'IMG'
p4172
S"<class 'gluon.html.IMG'>"
p4173
sS'SQLTABLE'
p4174
S"<class 'gluon.sqlhtml.SQLTABLE'>"
p4175
sS'IS_MATCH'
p4176
S"<class 'gluon.validators.IS_MATCH'>"
p4177
sS'IS_ALPHANUMERIC'
p4178
S"<class 'gluon.validators.IS_ALPHANUMERIC'>"
p4179
sS'SPAN'
p4180
S"<class 'gluon.html.SPAN'>"
p4181
sS'IS_SLUG'
p4182
S"<class 'gluon.validators.IS_SLUG'>"
p4183
sS'BEAUTIFY'
p4184
S"<class 'gluon.html.BEAUTIFY'>"
p4185
sS'META'
p4186
S"<class 'gluon.html.META'>"
p4187
sS'fetch'
p4188
S'<function fetch at 0x032B26B0>'
p4189
sS'IS_DATE'
p4190
S"<class 'gluon.validators.IS_DATE'>"
p4191
sS'IS_EMAIL'
p4192
S"<class 'gluon.validators.IS_EMAIL'>"
p4193
sS'IS_NOT_EMPTY'
p4194
S"<class 'gluon.validators.IS_NOT_EMPTY'>"
p4195
sg48
S"<Storage {'body': <cStringIO.StringO object at 0..._vars': <Storage {}>, 'post_vars': <Storage {}>}>"
p4196
sS'TBODY'
p4197
S"<class 'gluon.html.TBODY'>"
p4198
sS'CAT'
p4199
S"<class 'gluon.html.CAT'>"
p4200
sS'Field'
p4201
S"<class 'gluon.dal.Field'>"
p4202
sS'Mail'
p4203
S"<class 'gluon.tools.Mail'>"
p4204
sS'DIV'
p4205
S"<class 'gluon.html.DIV'>"
p4206
sS'LEGEND'
p4207
S"<class 'gluon.html.LEGEND'>"
p4208
sS'COLGROUP'
p4209
S"<class 'gluon.html.COLGROUP'>"
p4210
sS'DAL'
p4211
S"<class 'gluon.dal.DAL'>"
p4212
sS'TT'
p4213
S"<class 'gluon.html.TT'>"
p4214
sS'TR'
p4215
S"<class 'gluon.html.TR'>"
p4216
sS'LI'
p4217
S"<class 'gluon.html.LI'>"
p4218
sS'IFRAME'
p4219
S"<class 'gluon.html.IFRAME'>"
p4220
sS'TD'
p4221
S"<class 'gluon.html.TD'>"
p4222
sS'PluginManager'
p4223
S"<class 'gluon.tools.PluginManager'>"
p4224
sS'IS_URL'
p4225
S"<class 'gluon.validators.IS_URL'>"
p4226
sS'A'
S"<class 'gluon.html.A'>"
p4227
sS'STYLE'
p4228
S"<class 'gluon.html.STYLE'>"
p4229
sS'IS_DATETIME_IN_RANGE'
p4230
S"<class 'gluon.validators.IS_DATETIME_IN_RANGE'>"
p4231
sS'IS_IMAGE'
p4232
S"<class 'gluon.validators.IS_IMAGE'>"
p4233
sS'I'
S"<class 'gluon.html.I'>"
p4234
sS'crud'
p4235
S'<gluon.tools.Crud object at 0x0713B8D0>'
p4236
sS'IS_NOT_IN_DB'
p4237
S"<class 'gluon.validators.IS_NOT_IN_DB'>"
p4238
sg2936
S"<Storage {'body': <cStringIO.StringO object at 0...a> at 0x06BAB5B0>, 'view': 'default/index.html'}>"
p4239
sS'THEAD'
p4240
S"<class 'gluon.html.THEAD'>"
p4241
sS'IS_NULL_OR'
p4242
S"<class 'gluon.validators.IS_EMPTY_OR'>"
p4243
sS'IS_FLOAT_IN_RANGE'
p4244
S"<class 'gluon.validators.IS_FLOAT_IN_RANGE'>"
p4245
sS'IS_EXPR'
p4246
S"<class 'gluon.validators.IS_EXPR'>"
p4247
sS'T'
S'<gluon.languages.translator object at 0x07133E10>'
p4248
sS'IS_IN_SET'
p4249
S"<class 'gluon.validators.IS_IN_SET'>"
p4250
sS'IS_UPLOAD_FILENAME'
p4251
S"<class 'gluon.validators.IS_UPLOAD_FILENAME'>"
p4252
sS'IS_DECIMAL_IN_RANGE'
p4253
S"<class 'gluon.validators.IS_DECIMAL_IN_RANGE'>"
p4254
sssS'traceback'
p4255
S'Traceback (most recent call last):\n  File "gluon/restricted.py", line 205, in restricted\n  File "B:\\web2py\\applications\\manager\\views\\default/index.html", line 32, in <module>\nAttributeError: \'NoneType\' object has no attribute \'first_name\'\n'
p4256
s.