(dp1
S'output'
p2
S"<type 'exceptions.AttributeError'> 'NoneType' object has no attribute 'year'"
p3
sS'layer'
p4
S'/home/madhuri/Downloads/web2py/applications/manager/views/default/drop1.html'
p5
sS'code'
p6
S'response.write(\'<!DOCTYPE html PUBLIC "-//W3C//DTD XHTML 1.0 Transitional//EN" "http://www.w3.org/TR/xhtml1/DTD/xhtml1-transitional.dtd">\\n<!--\\nAuthor: Reality Software\\nWebsite: http://www.realitysoftware.ca\\nNote: This is a free template released under the Creative Commons Attribution 3.0 license, \\nwhich means you can use it in any way you want provided you keep links to the author intact.\\n-->\\n<html xmlns="http://www.w3.org/1999/xhtml">\\n <head>\\n  <title>\\n   \', escape=False)\nresponse.write(response.title or request.application)\nresponse.write(\'\\n  </title>\\n  \', escape=False)\nresponse.files.append(URL(request.application,\'static\',\'plugin_layouts/layouts/Papira/style.css\'))\nresponse.write(\'\\n  \', escape=False)\nresponse.files.append(URL(\'static\',\'plugin_layouts/superfish.js\'))\nresponse.write(\'\\n  \', escape=False)\nresponse.write(\'<script type="text/javascript"><!--\\n    // These variables are used by the web2py_ajax_init function in web2py_ajax.js (which is loaded below).\\n    var w2p_ajax_confirm_message = "\', escape=False)\nresponse.write(T(\'Are you sure you want to delete this object?\'))\nresponse.write(\'";\\n    var w2p_ajax_date_format = "\', escape=False)\nresponse.write(T(\'%Y-%m-%d\'))\nresponse.write(\'";\\n    var w2p_ajax_datetime_format = "\', escape=False)\nresponse.write(T(\'%Y-%m-%d %H:%M:%S\'))\nresponse.write(\'";\\n    //--></script>\\n\', escape=False)\nresponse.files.insert(0,URL(\'static\',\'js/jquery.js\'))\nresponse.files.insert(3,URL(\'static\',\'js/web2py.js\'))\nresponse.include_meta()\nresponse.include_files()\nresponse.write(\'\\n\', escape=False)\nresponse.write(\'\\n  <style>\\nul.web2py-menu-vertical { width: 150px; position: relative; top:1em; left:1em;  z-index:30; border:0; margin:0; padding: 0; list-style: none; text-decoration: none;}\\nul.web2py-menu-vertical li { margin:0; padding:0; border:0; width: 150px; background: black; text-align:left;}\\nul.web2py-menu-vertical li a { margin:0; padding: 1px 3px 1px 3px; border:0; width: 144px; color: white; font-size:12px;}\\ndiv.flash { position: fixed; float: right; padding: 10px; top: 10px; right: 30px; opacity: 0.75; margin: 10px 10px 10px 10px; text-align: center; clear: both; color: #fff; font-size: 11pt; text-align: center; vertical-align: middle; cursor: pointer; background: black; border: 2px solid #fff; -moz-border-radius: 5px; -webkit-border-radius: 5px; z-index: 2; }\\ndiv.error { background-color: red; color: white; padding: 3px; }\\n.auth_navbar { text-align:right; z-index:20; position: absolute; top: 2px; right:30px; border:0; padding:0 }\\n  </style>\\n </head>\\n <body>\\n\\n\\n  <div id="all">\\n   <div id="container">\\n    <!-- header -->\\n    <div id="logo">\\n     <a href="#">\\n      <span class="brown">\\n       <strong>\\n        Award\\n       </strong>\\n      </span>\\n      Manager\\n     </a>\\n    </div>\\n    <div id="menu">\\n        <a href="\', escape=False)\nresponse.write(URL(r = request, f = \'logout\'))\nresponse.write(\'">Logout</a>\\n       </div>\\n   \\n     \', escape=False)\nif session.token=="neeharikak.v@students.iiit.ac.in" :\n    response.write(\'\\n          <div id="sidebar">\\n        <br/><br/><br/>\\n     <table>\\n     <h2>\\n         <tr><td><b>&nbsp;&nbsp;&nbsp;&nbsp;&nbsp;&nbsp;&nbsp;&nbsp;&nbsp;&nbsp;&nbsp;&nbsp;&nbsp;<a href="\', escape=False)\n    response.write(URL(r = request, f = \'index\'))\n    response.write(\'">Home</a> </b></td></tr>\\n        \\n        \\n     <tr><td><b>&nbsp;&nbsp;&nbsp;&nbsp;&nbsp;&nbsp;&nbsp;&nbsp;&nbsp;&nbsp;&nbsp;&nbsp;&nbsp;<a href="\', escape=False)\n    response.write(URL(r = request, f = \'Admin\'))\n    response.write(\'">Amount</a></b></td></tr>\\n     <tr><td><b>&nbsp;&nbsp;&nbsp;&nbsp;&nbsp;&nbsp;&nbsp;&nbsp;&nbsp;&nbsp;&nbsp;&nbsp;&nbsp;<a href="\', escape=False)\n    response.write(URL(r = request, f = \'upload\'))\n    response.write(\'">Students List</a></b></td></tr>\\n         <tr><td>&nbsp;&nbsp;&nbsp;&nbsp;&nbsp;&nbsp;&nbsp;&nbsp;&nbsp;&nbsp;&nbsp;&nbsp;&nbsp;<b><a href="\', escape=False)\n    response.write(URL(r = request, f = \'upload1\'))\n    response.write(\'">Book List</a></b></td></tr>\\n     <tr><td>&nbsp;&nbsp;&nbsp;&nbsp;&nbsp;&nbsp;&nbsp;&nbsp;&nbsp;&nbsp;&nbsp;&nbsp;&nbsp;<b><a href="\', escape=False)\n    response.write(URL(r = request, f = \'choose\'))\n    response.write(\'">Allot</a></b></td></tr>\\n         \', escape=False)\n    id1=0\n    response.write(\'\\n         \', escape=False)\n    for rows in db(db.Admin).select():\n        response.write(\'\\n\', escape=False)\n        id1 =id1 +1\n        response.write(\'\\n\', escape=False)\n        pass\n    response.write(\'\\n         \', escape=False)\n    if id1 != 0:\n        response.write(\'\\n     <tr><td><b>&nbsp;&nbsp;&nbsp;&nbsp;&nbsp;&nbsp;&nbsp;&nbsp;&nbsp;&nbsp;&nbsp;&nbsp;&nbsp;<a href="\', escape=False)\n        response.write(URL(r = request, f = \'total\'))\n        response.write(\'">Output</a></b></td></tr>\\n         \', escape=False)\n        pass\n    response.write(\'\\n          \', escape=False)\n    if id1 == 0:\n        response.write(\'\\n     <tr><td><b>&nbsp;&nbsp;&nbsp;&nbsp;&nbsp;&nbsp;&nbsp;&nbsp;&nbsp;&nbsp;&nbsp;&nbsp;&nbsp;<a href="\', escape=False)\n        response.write(URL(r = request, f = \'error\'))\n        response.write(\'">Output</a></b></td></tr>\\n         \', escape=False)\n        pass\n    response.write(\'\\n         \\n         <tr><td><b>&nbsp;&nbsp;&nbsp;&nbsp;&nbsp;&nbsp;&nbsp;&nbsp;&nbsp;&nbsp;&nbsp;&nbsp;&nbsp;<a href="\', escape=False)\n    response.write(URL(r = request, f = \'alloted\'))\n    response.write(\'">Alloted_students</a></b><td></tr>\\n     <tr><td><b>&nbsp;&nbsp;&nbsp;&nbsp;&nbsp;&nbsp;&nbsp;&nbsp;&nbsp;&nbsp;&nbsp;&nbsp;&nbsp;<a href="\', escape=False)\n    response.write(URL(r = request, f = \'label\'))\n    response.write(\'">Get_labels</a></b></td></tr>\\n     <tr><td><b>&nbsp;&nbsp;&nbsp;&nbsp;&nbsp;&nbsp;&nbsp;&nbsp;&nbsp;&nbsp;&nbsp;&nbsp;&nbsp;<a href="\', escape=False)\n    response.write(URL(r = request, f = \'drop1m\'))\n    response.write(\'">Done</a></b></td></tr>\\n      <tr><td><b>&nbsp;&nbsp;&nbsp;&nbsp;&nbsp;&nbsp;&nbsp;&nbsp;&nbsp;&nbsp;&nbsp;&nbsp;&nbsp;<a href="\', escape=False)\n    response.write(URL(r = request, f = \'logout\'))\n    response.write(\'">Logout</a></b></td></tr>\\n      </h2>\\n         </table>\\n         </div>\\n      \', escape=False)\n    pass\nresponse.write(\'\\n         \\n         \\n         \', escape=False)\nif session.token!="neeharikak.v@students.iiit.ac.in" :\n    response.write(\'\\n         <div id="sidebar">\\n         <table>\\n         <h2>\\n             <br/><br/><br/>\\n             <tr><td>&nbsp;&nbsp;&nbsp;&nbsp;&nbsp;&nbsp;&nbsp;&nbsp;&nbsp;&nbsp;&nbsp;&nbsp;&nbsp;<b><a href="\', escape=False)\n    response.write(URL(r = request, f = \'index\'))\n    response.write(\'">HOME</a></b></td></tr>\\n             <tr><td>&nbsp;&nbsp;&nbsp;&nbsp;&nbsp;&nbsp;&nbsp;&nbsp;&nbsp;&nbsp;&nbsp;&nbsp;&nbsp;<b><a href="\', escape=False)\n    response.write(URL(r = request, f = \'choose1\'))\n    response.write(\'">BOOKS</a></b></td></tr>\\n             \\n         <tr><td>&nbsp;&nbsp;&nbsp;&nbsp;&nbsp;&nbsp;&nbsp;&nbsp;&nbsp;&nbsp;&nbsp;&nbsp;&nbsp;<b><a href="\', escape=False)\n    response.write(URL(r = request, f = \'preference\'))\n    response.write(\'">LANGUAGE </a></b></td></tr>\\n         \\n        \\n          </h2>\\n    </table>\\n      \\n       </div>\\n         \', escape=False)\n    pass\nresponse.write(\'\\n        \\n    <script>\\n      jQuery(document).ready(function(){jQuery(\\\'ul.web2py-menu\\\').superfish({delay:400});});\\n    </script>\\n    </div>\\n    <!--end header -->\\n    <!-- main -->\\n    <div id="main">\\n     <div class="flash">\', escape=False)\nresponse.write(response.flash or \'\')\nresponse.write(\'</div>\\n     \', escape=False)\nresponse.write(\'\\n\', escape=False)\nid1=0\nresponse.write(\'\\n\', escape=False)\nfor rows in db(db.Admin).select():\n    response.write(\'\\n\', escape=False)\n    id1 =id1 +1\n    response.write(\'\\n\', escape=False)\n    pass\nresponse.write(\'\\n\', escape=False)\nif id1 != 0 :\n    response.write(\'\\n<h2> You have successfully completed the allotment for the year </h2> \', escape=False)\n    response.write(award.year)\n    response.write(\'\\n\', escape=False)\n    pass\nresponse.write(\'\\n\', escape=False)\nif id1 == 0:\n    response.write(\'\\n<h2> Please enter year and amount to continue </h2> \', escape=False)\n    response.write(award.year)\n    response.write(\'\\n\', escape=False)\n    pass\nresponse.write(\'\\n\', escape=False)\nresponse.write(\'\\n    </div>\\n    <!-- end main -->\\n    <!-- footer -->\\n    <div id="footer">\\n     <div id="left_footer">\\n      &copy; Copyright 2008 Your website\\n     </div>\\n     <div id="right_footer">\\n      <!-- Please do not change or delete this links. Read the license! Thanks. :-) -->\\n      <a href="http://www.realitysoftware.ca/website-design.html">\\n       Website design\\n      </a>\\n      by\\n      <a href="http://www.realitysoftware.ca">\\n       Reality Software\\n      </a>\\n     </div>\\n    </div>\\n    <!-- end footer -->\\n   </div>\\n  </div>\\n </body>\\n</html>\\n\', escape=False)'
p7
sS'snapshot'
p8
(dp9
S'exception'
p10
(dp11
S'__hash__'
p12
S"<method-wrapper '__hash__' of exceptions.AttributeError object>"
p13
sS'__setattr__'
p14
S"<method-wrapper '__setattr__' of exceptions.AttributeError object>"
p15
sS'__reduce_ex__'
p16
S'<built-in method __reduce_ex__ of exceptions.AttributeError object>'
p17
sS'__getslice__'
p18
S"<method-wrapper '__getslice__' of exceptions.AttributeError object>"
p19
sS'__getitem__'
p20
S"<method-wrapper '__getitem__' of exceptions.AttributeError object>"
p21
sS'__setstate__'
p22
S'<built-in method __setstate__ of exceptions.AttributeError object>'
p23
sS'args'
p24
S'("\'NoneType\' object has no attribute \'year\'",)'
p25
sS'__reduce__'
p26
S'<built-in method __reduce__ of exceptions.AttributeError object>'
p27
sS'__str__'
p28
S"<method-wrapper '__str__' of exceptions.AttributeError object>"
p29
sS'__format__'
p30
S'<built-in method __format__ of exceptions.AttributeError object>'
p31
sS'__getattribute__'
p32
S"<method-wrapper '__getattribute__' of exceptions.AttributeError object>"
p33
sS'__class__'
p34
S"<type 'exceptions.AttributeError'>"
p35
sS'__unicode__'
p36
S'<built-in method __unicode__ of exceptions.AttributeError object>'
p37
sS'__delattr__'
p38
S"<method-wrapper '__delattr__' of exceptions.AttributeError object>"
p39
sS'__subclasshook__'
p40
S'<built-in method __subclasshook__ of type object>'
p41
sS'__repr__'
p42
S"<method-wrapper '__repr__' of exceptions.AttributeError object>"
p43
sS'__dict__'
p44
S'{}'
p45
sS'__sizeof__'
p46
S'<built-in method __sizeof__ of exceptions.AttributeError object>'
p47
sS'__doc__'
p48
S"'Attribute not found.'"
p49
sS'__init__'
p50
S"<method-wrapper '__init__' of exceptions.AttributeError object>"
p51
sS'__new__'
p52
S'<built-in method __new__ of type object>'
p53
ssS'evalue'
p54
S"'NoneType' object has no attribute 'year'"
p55
sS'request'
p56
ccopy_reg
_reconstructor
p57
(cgluon.html
BEAUTIFY
p58
c__builtin__
object
p59
NtRp60
(dp61
S'attributes'
p62
(dp63
sS'components'
p64
(lp65
g57
(cgluon.html
TABLE
p66
g59
NtRp67
(dp68
g62
(dp69
S'level'
p70
I5
ssS'parent'
p71
Nsg64
(lp72
g57
(cgluon.html
TR
p73
g59
NtRp74
(dp75
g62
(dp76
sg71
g67
sg64
(lp77
g57
(cgluon.html
TD
p78
g59
NtRp79
(dp80
g62
(dp81
S'_style'
p82
S'font-weight:bold;vertical-align:top'
p83
ssg71
g74
sg64
(lp84
S'ajax'
p85
asbag57
(g78
g59
NtRp86
(dp87
g62
(dp88
S'_valign'
p89
S'top'
p90
ssg71
g74
sg64
(lp91
S':'
asbag57
(g78
g59
NtRp92
(dp93
g62
(dp94
sg71
g74
sg64
(lp95
g57
(g58
g59
NtRp96
(dp97
g62
(dp98
g70
I5
ssg71
g92
sg64
(lp99
S'False'
p100
asbasbasbag57
(g73
g59
NtRp101
(dp102
g62
(dp103
sg71
g67
sg64
(lp104
g57
(g78
g59
NtRp105
(dp106
g62
(dp107
g82
g83
ssg71
g101
sg64
(lp108
S'application'
p109
asbag57
(g78
g59
NtRp110
(dp111
g62
(dp112
g89
g90
ssg71
g101
sg64
(lp113
S':'
asbag57
(g78
g59
NtRp114
(dp115
g62
(dp116
sg71
g101
sg64
(lp117
g57
(g58
g59
NtRp118
(dp119
g62
(dp120
g70
I5
ssg71
g114
sg64
(lp121
S'manager'
p122
asbasbasbag57
(g73
g59
NtRp123
(dp124
g62
(dp125
sg71
g67
sg64
(lp126
g57
(g78
g59
NtRp127
(dp128
g62
(dp129
g82
g83
ssg71
g123
sg64
(lp130
g24
asbag57
(g78
g59
NtRp131
(dp132
g62
(dp133
g89
g90
ssg71
g123
sg64
(lp134
S':'
asbag57
(g78
g59
NtRp135
(dp136
g62
(dp137
sg71
g123
sg64
(lp138
g57
(g58
g59
NtRp139
(dp140
g62
(dp141
g70
I5
ssg71
g135
sg64
(lp142
g57
(g66
g59
NtRp143
(dp144
g62
(dp145
g70
I4
ssg71
Nsg64
(lp146
sbasbasbasbag57
(g73
g59
NtRp147
(dp148
g62
(dp149
sg71
g67
sg64
(lp150
g57
(g78
g59
NtRp151
(dp152
g62
(dp153
g82
g83
ssg71
g147
sg64
(lp154
S'body'
p155
asbag57
(g78
g59
NtRp156
(dp157
g62
(dp158
g89
g90
ssg71
g147
sg64
(lp159
S':'
asbag57
(g78
g59
NtRp160
(dp161
g62
(dp162
sg71
g147
sg64
(lp163
g57
(g58
g59
NtRp164
(dp165
g62
(dp166
g70
I5
ssg71
g160
sg64
(lp167
S'<cStringIO.StringO object at 0x7f1da81dbea0>'
p168
asbasbasbag57
(g73
g59
NtRp169
(dp170
g62
(dp171
sg71
g67
sg64
(lp172
g57
(g78
g59
NtRp173
(dp174
g62
(dp175
g82
g83
ssg71
g169
sg64
(lp176
S'cid'
p177
asbag57
(g78
g59
NtRp178
(dp179
g62
(dp180
g89
g90
ssg71
g169
sg64
(lp181
S':'
asbag57
(g78
g59
NtRp182
(dp183
g62
(dp184
sg71
g169
sg64
(lp185
g57
(g58
g59
NtRp186
(dp187
g62
(dp188
g70
I5
ssg71
g182
sg64
(lp189
S'None'
p190
asbasbasbag57
(g73
g59
NtRp191
(dp192
g62
(dp193
sg71
g67
sg64
(lp194
g57
(g78
g59
NtRp195
(dp196
g62
(dp197
g82
g83
ssg71
g191
sg64
(lp198
S'client'
p199
asbag57
(g78
g59
NtRp200
(dp201
g62
(dp202
g89
g90
ssg71
g191
sg64
(lp203
S':'
asbag57
(g78
g59
NtRp204
(dp205
g62
(dp206
sg71
g191
sg64
(lp207
g57
(g58
g59
NtRp208
(dp209
g62
(dp210
g70
I5
ssg71
g204
sg64
(lp211
S'127.0.0.1'
p212
asbasbasbag57
(g73
g59
NtRp213
(dp214
g62
(dp215
sg71
g67
sg64
(lp216
g57
(g78
g59
NtRp217
(dp218
g62
(dp219
g82
g83
ssg71
g213
sg64
(lp220
S'controller'
p221
asbag57
(g78
g59
NtRp222
(dp223
g62
(dp224
g89
g90
ssg71
g213
sg64
(lp225
S':'
asbag57
(g78
g59
NtRp226
(dp227
g62
(dp228
sg71
g213
sg64
(lp229
g57
(g58
g59
NtRp230
(dp231
g62
(dp232
g70
I5
ssg71
g226
sg64
(lp233
S'default'
p234
asbasbasbag57
(g73
g59
NtRp235
(dp236
g62
(dp237
sg71
g67
sg64
(lp238
g57
(g78
g59
NtRp239
(dp240
g62
(dp241
g82
g83
ssg71
g235
sg64
(lp242
S'cookies'
p243
asbag57
(g78
g59
NtRp244
(dp245
g62
(dp246
g89
g90
ssg71
g235
sg64
(lp247
S':'
asbag57
(g78
g59
NtRp248
(dp249
g62
(dp250
sg71
g235
sg64
(lp251
g57
(g58
g59
NtRp252
(dp253
g62
(dp254
g70
I5
ssg71
g248
sg64
(lp255
g57
(g66
g59
NtRp256
(dp257
g62
(dp258
g70
I4
ssg71
Nsg64
(lp259
g57
(g73
g59
NtRp260
(dp261
g62
(dp262
sg71
g256
sg64
(lp263
g57
(g78
g59
NtRp264
(dp265
g62
(dp266
g82
g83
ssg71
g260
sg64
(lp267
S'session_id_admin'
p268
asbag57
(g78
g59
NtRp269
(dp270
g62
(dp271
g89
g90
ssg71
g260
sg64
(lp272
S':'
asbag57
(g78
g59
NtRp273
(dp274
g62
(dp275
sg71
g260
sg64
(lp276
g57
(g58
g59
NtRp277
(dp278
g62
(dp279
g70
I4
ssg71
g273
sg64
(lp280
S'127.0.0.1-5397ac8a-431d-4526-b620-53d2814c64d9'
p281
ag57
(g66
g59
NtRp282
(dp283
g62
(dp284
g70
I3
ssg71
Nsg64
(lp285
g57
(g73
g59
NtRp286
(dp287
g62
(dp288
sg71
g282
sg64
(lp289
g57
(g78
g59
NtRp290
(dp291
g62
(dp292
g82
g83
ssg71
g286
sg64
(lp293
S'comment'
p294
asbag57
(g78
g59
NtRp295
(dp296
g62
(dp297
g89
g90
ssg71
g286
sg64
(lp298
S':'
asbag57
(g78
g59
NtRp299
(dp300
g62
(dp301
sg71
g286
sg64
(lp302
g57
(g58
g59
NtRp303
(dp304
g62
(dp305
g70
I3
ssg71
g299
sg64
(lp306
S''
asbasbasbag57
(g73
g59
NtRp307
(dp308
g62
(dp309
sg71
g282
sg64
(lp310
g57
(g78
g59
NtRp311
(dp312
g62
(dp313
g82
g83
ssg71
g307
sg64
(lp314
S'domain'
p315
asbag57
(g78
g59
NtRp316
(dp317
g62
(dp318
g89
g90
ssg71
g307
sg64
(lp319
S':'
asbag57
(g78
g59
NtRp320
(dp321
g62
(dp322
sg71
g307
sg64
(lp323
g57
(g58
g59
NtRp324
(dp325
g62
(dp326
g70
I3
ssg71
g320
sg64
(lp327
S''
asbasbasbag57
(g73
g59
NtRp328
(dp329
g62
(dp330
sg71
g282
sg64
(lp331
g57
(g78
g59
NtRp332
(dp333
g62
(dp334
g82
g83
ssg71
g328
sg64
(lp335
S'expires'
p336
asbag57
(g78
g59
NtRp337
(dp338
g62
(dp339
g89
g90
ssg71
g328
sg64
(lp340
S':'
asbag57
(g78
g59
NtRp341
(dp342
g62
(dp343
sg71
g328
sg64
(lp344
g57
(g58
g59
NtRp345
(dp346
g62
(dp347
g70
I3
ssg71
g341
sg64
(lp348
S''
asbasbasbag57
(g73
g59
NtRp349
(dp350
g62
(dp351
sg71
g282
sg64
(lp352
g57
(g78
g59
NtRp353
(dp354
g62
(dp355
g82
g83
ssg71
g349
sg64
(lp356
S'httponly'
p357
asbag57
(g78
g59
NtRp358
(dp359
g62
(dp360
g89
g90
ssg71
g349
sg64
(lp361
S':'
asbag57
(g78
g59
NtRp362
(dp363
g62
(dp364
sg71
g349
sg64
(lp365
g57
(g58
g59
NtRp366
(dp367
g62
(dp368
g70
I3
ssg71
g362
sg64
(lp369
S''
asbasbasbag57
(g73
g59
NtRp370
(dp371
g62
(dp372
sg71
g282
sg64
(lp373
g57
(g78
g59
NtRp374
(dp375
g62
(dp376
g82
g83
ssg71
g370
sg64
(lp377
S'max-age'
p378
asbag57
(g78
g59
NtRp379
(dp380
g62
(dp381
g89
g90
ssg71
g370
sg64
(lp382
S':'
asbag57
(g78
g59
NtRp383
(dp384
g62
(dp385
sg71
g370
sg64
(lp386
g57
(g58
g59
NtRp387
(dp388
g62
(dp389
g70
I3
ssg71
g383
sg64
(lp390
S''
asbasbasbag57
(g73
g59
NtRp391
(dp392
g62
(dp393
sg71
g282
sg64
(lp394
g57
(g78
g59
NtRp395
(dp396
g62
(dp397
g82
g83
ssg71
g391
sg64
(lp398
S'path'
p399
asbag57
(g78
g59
NtRp400
(dp401
g62
(dp402
g89
g90
ssg71
g391
sg64
(lp403
S':'
asbag57
(g78
g59
NtRp404
(dp405
g62
(dp406
sg71
g391
sg64
(lp407
g57
(g58
g59
NtRp408
(dp409
g62
(dp410
g70
I3
ssg71
g404
sg64
(lp411
S''
asbasbasbag57
(g73
g59
NtRp412
(dp413
g62
(dp414
sg71
g282
sg64
(lp415
g57
(g78
g59
NtRp416
(dp417
g62
(dp418
g82
g83
ssg71
g412
sg64
(lp419
S'secure'
p420
asbag57
(g78
g59
NtRp421
(dp422
g62
(dp423
g89
g90
ssg71
g412
sg64
(lp424
S':'
asbag57
(g78
g59
NtRp425
(dp426
g62
(dp427
sg71
g412
sg64
(lp428
g57
(g58
g59
NtRp429
(dp430
g62
(dp431
g70
I3
ssg71
g425
sg64
(lp432
S''
asbasbasbag57
(g73
g59
NtRp433
(dp434
g62
(dp435
sg71
g282
sg64
(lp436
g57
(g78
g59
NtRp437
(dp438
g62
(dp439
g82
g83
ssg71
g433
sg64
(lp440
S'version'
p441
asbag57
(g78
g59
NtRp442
(dp443
g62
(dp444
g89
g90
ssg71
g433
sg64
(lp445
S':'
asbag57
(g78
g59
NtRp446
(dp447
g62
(dp448
sg71
g433
sg64
(lp449
g57
(g58
g59
NtRp450
(dp451
g62
(dp452
g70
I3
ssg71
g446
sg64
(lp453
S''
asbasbasbasbasbasbasbag57
(g73
g59
NtRp454
(dp455
g62
(dp456
sg71
g256
sg64
(lp457
g57
(g78
g59
NtRp458
(dp459
g62
(dp460
g82
g83
ssg71
g454
sg64
(lp461
S'session_id_manager'
p462
asbag57
(g78
g59
NtRp463
(dp464
g62
(dp465
g89
g90
ssg71
g454
sg64
(lp466
S':'
asbag57
(g78
g59
NtRp467
(dp468
g62
(dp469
sg71
g454
sg64
(lp470
g57
(g58
g59
NtRp471
(dp472
g62
(dp473
g70
I4
ssg71
g467
sg64
(lp474
S'127.0.0.1-6f272149-6c92-44cc-85ba-c8ea1e4f1e04'
p475
ag57
(g66
g59
NtRp476
(dp477
g62
(dp478
g70
I3
ssg71
Nsg64
(lp479
g57
(g73
g59
NtRp480
(dp481
g62
(dp482
sg71
g476
sg64
(lp483
g57
(g78
g59
NtRp484
(dp485
g62
(dp486
g82
g83
ssg71
g480
sg64
(lp487
g294
asbag57
(g78
g59
NtRp488
(dp489
g62
(dp490
g89
g90
ssg71
g480
sg64
(lp491
S':'
asbag57
(g78
g59
NtRp492
(dp493
g62
(dp494
sg71
g480
sg64
(lp495
g57
(g58
g59
NtRp496
(dp497
g62
(dp498
g70
I3
ssg71
g492
sg64
(lp499
S''
asbasbasbag57
(g73
g59
NtRp500
(dp501
g62
(dp502
sg71
g476
sg64
(lp503
g57
(g78
g59
NtRp504
(dp505
g62
(dp506
g82
g83
ssg71
g500
sg64
(lp507
g315
asbag57
(g78
g59
NtRp508
(dp509
g62
(dp510
g89
g90
ssg71
g500
sg64
(lp511
S':'
asbag57
(g78
g59
NtRp512
(dp513
g62
(dp514
sg71
g500
sg64
(lp515
g57
(g58
g59
NtRp516
(dp517
g62
(dp518
g70
I3
ssg71
g512
sg64
(lp519
S''
asbasbasbag57
(g73
g59
NtRp520
(dp521
g62
(dp522
sg71
g476
sg64
(lp523
g57
(g78
g59
NtRp524
(dp525
g62
(dp526
g82
g83
ssg71
g520
sg64
(lp527
g336
asbag57
(g78
g59
NtRp528
(dp529
g62
(dp530
g89
g90
ssg71
g520
sg64
(lp531
S':'
asbag57
(g78
g59
NtRp532
(dp533
g62
(dp534
sg71
g520
sg64
(lp535
g57
(g58
g59
NtRp536
(dp537
g62
(dp538
g70
I3
ssg71
g532
sg64
(lp539
S''
asbasbasbag57
(g73
g59
NtRp540
(dp541
g62
(dp542
sg71
g476
sg64
(lp543
g57
(g78
g59
NtRp544
(dp545
g62
(dp546
g82
g83
ssg71
g540
sg64
(lp547
g357
asbag57
(g78
g59
NtRp548
(dp549
g62
(dp550
g89
g90
ssg71
g540
sg64
(lp551
S':'
asbag57
(g78
g59
NtRp552
(dp553
g62
(dp554
sg71
g540
sg64
(lp555
g57
(g58
g59
NtRp556
(dp557
g62
(dp558
g70
I3
ssg71
g552
sg64
(lp559
S''
asbasbasbag57
(g73
g59
NtRp560
(dp561
g62
(dp562
sg71
g476
sg64
(lp563
g57
(g78
g59
NtRp564
(dp565
g62
(dp566
g82
g83
ssg71
g560
sg64
(lp567
g378
asbag57
(g78
g59
NtRp568
(dp569
g62
(dp570
g89
g90
ssg71
g560
sg64
(lp571
S':'
asbag57
(g78
g59
NtRp572
(dp573
g62
(dp574
sg71
g560
sg64
(lp575
g57
(g58
g59
NtRp576
(dp577
g62
(dp578
g70
I3
ssg71
g572
sg64
(lp579
S''
asbasbasbag57
(g73
g59
NtRp580
(dp581
g62
(dp582
sg71
g476
sg64
(lp583
g57
(g78
g59
NtRp584
(dp585
g62
(dp586
g82
g83
ssg71
g580
sg64
(lp587
g399
asbag57
(g78
g59
NtRp588
(dp589
g62
(dp590
g89
g90
ssg71
g580
sg64
(lp591
S':'
asbag57
(g78
g59
NtRp592
(dp593
g62
(dp594
sg71
g580
sg64
(lp595
g57
(g58
g59
NtRp596
(dp597
g62
(dp598
g70
I3
ssg71
g592
sg64
(lp599
S''
asbasbasbag57
(g73
g59
NtRp600
(dp601
g62
(dp602
sg71
g476
sg64
(lp603
g57
(g78
g59
NtRp604
(dp605
g62
(dp606
g82
g83
ssg71
g600
sg64
(lp607
g420
asbag57
(g78
g59
NtRp608
(dp609
g62
(dp610
g89
g90
ssg71
g600
sg64
(lp611
S':'
asbag57
(g78
g59
NtRp612
(dp613
g62
(dp614
sg71
g600
sg64
(lp615
g57
(g58
g59
NtRp616
(dp617
g62
(dp618
g70
I3
ssg71
g612
sg64
(lp619
S''
asbasbasbag57
(g73
g59
NtRp620
(dp621
g62
(dp622
sg71
g476
sg64
(lp623
g57
(g78
g59
NtRp624
(dp625
g62
(dp626
g82
g83
ssg71
g620
sg64
(lp627
g441
asbag57
(g78
g59
NtRp628
(dp629
g62
(dp630
g89
g90
ssg71
g620
sg64
(lp631
S':'
asbag57
(g78
g59
NtRp632
(dp633
g62
(dp634
sg71
g620
sg64
(lp635
g57
(g58
g59
NtRp636
(dp637
g62
(dp638
g70
I3
ssg71
g632
sg64
(lp639
S''
asbasbasbasbasbasbasbag57
(g73
g59
NtRp640
(dp641
g62
(dp642
sg71
g256
sg64
(lp643
g57
(g78
g59
NtRp644
(dp645
g62
(dp646
g82
g83
ssg71
g640
sg64
(lp647
S'session_id_welcome'
p648
asbag57
(g78
g59
NtRp649
(dp650
g62
(dp651
g89
g90
ssg71
g640
sg64
(lp652
S':'
asbag57
(g78
g59
NtRp653
(dp654
g62
(dp655
sg71
g640
sg64
(lp656
g57
(g58
g59
NtRp657
(dp658
g62
(dp659
g70
I4
ssg71
g653
sg64
(lp660
S'127.0.0.1-41848e09-37fe-4fe9-b4ff-4803b97c2ae3'
p661
ag57
(g66
g59
NtRp662
(dp663
g62
(dp664
g70
I3
ssg71
Nsg64
(lp665
g57
(g73
g59
NtRp666
(dp667
g62
(dp668
sg71
g662
sg64
(lp669
g57
(g78
g59
NtRp670
(dp671
g62
(dp672
g82
g83
ssg71
g666
sg64
(lp673
g294
asbag57
(g78
g59
NtRp674
(dp675
g62
(dp676
g89
g90
ssg71
g666
sg64
(lp677
S':'
asbag57
(g78
g59
NtRp678
(dp679
g62
(dp680
sg71
g666
sg64
(lp681
g57
(g58
g59
NtRp682
(dp683
g62
(dp684
g70
I3
ssg71
g678
sg64
(lp685
S''
asbasbasbag57
(g73
g59
NtRp686
(dp687
g62
(dp688
sg71
g662
sg64
(lp689
g57
(g78
g59
NtRp690
(dp691
g62
(dp692
g82
g83
ssg71
g686
sg64
(lp693
g315
asbag57
(g78
g59
NtRp694
(dp695
g62
(dp696
g89
g90
ssg71
g686
sg64
(lp697
S':'
asbag57
(g78
g59
NtRp698
(dp699
g62
(dp700
sg71
g686
sg64
(lp701
g57
(g58
g59
NtRp702
(dp703
g62
(dp704
g70
I3
ssg71
g698
sg64
(lp705
S''
asbasbasbag57
(g73
g59
NtRp706
(dp707
g62
(dp708
sg71
g662
sg64
(lp709
g57
(g78
g59
NtRp710
(dp711
g62
(dp712
g82
g83
ssg71
g706
sg64
(lp713
g336
asbag57
(g78
g59
NtRp714
(dp715
g62
(dp716
g89
g90
ssg71
g706
sg64
(lp717
S':'
asbag57
(g78
g59
NtRp718
(dp719
g62
(dp720
sg71
g706
sg64
(lp721
g57
(g58
g59
NtRp722
(dp723
g62
(dp724
g70
I3
ssg71
g718
sg64
(lp725
S''
asbasbasbag57
(g73
g59
NtRp726
(dp727
g62
(dp728
sg71
g662
sg64
(lp729
g57
(g78
g59
NtRp730
(dp731
g62
(dp732
g82
g83
ssg71
g726
sg64
(lp733
g357
asbag57
(g78
g59
NtRp734
(dp735
g62
(dp736
g89
g90
ssg71
g726
sg64
(lp737
S':'
asbag57
(g78
g59
NtRp738
(dp739
g62
(dp740
sg71
g726
sg64
(lp741
g57
(g58
g59
NtRp742
(dp743
g62
(dp744
g70
I3
ssg71
g738
sg64
(lp745
S''
asbasbasbag57
(g73
g59
NtRp746
(dp747
g62
(dp748
sg71
g662
sg64
(lp749
g57
(g78
g59
NtRp750
(dp751
g62
(dp752
g82
g83
ssg71
g746
sg64
(lp753
g378
asbag57
(g78
g59
NtRp754
(dp755
g62
(dp756
g89
g90
ssg71
g746
sg64
(lp757
S':'
asbag57
(g78
g59
NtRp758
(dp759
g62
(dp760
sg71
g746
sg64
(lp761
g57
(g58
g59
NtRp762
(dp763
g62
(dp764
g70
I3
ssg71
g758
sg64
(lp765
S''
asbasbasbag57
(g73
g59
NtRp766
(dp767
g62
(dp768
sg71
g662
sg64
(lp769
g57
(g78
g59
NtRp770
(dp771
g62
(dp772
g82
g83
ssg71
g766
sg64
(lp773
g399
asbag57
(g78
g59
NtRp774
(dp775
g62
(dp776
g89
g90
ssg71
g766
sg64
(lp777
S':'
asbag57
(g78
g59
NtRp778
(dp779
g62
(dp780
sg71
g766
sg64
(lp781
g57
(g58
g59
NtRp782
(dp783
g62
(dp784
g70
I3
ssg71
g778
sg64
(lp785
S''
asbasbasbag57
(g73
g59
NtRp786
(dp787
g62
(dp788
sg71
g662
sg64
(lp789
g57
(g78
g59
NtRp790
(dp791
g62
(dp792
g82
g83
ssg71
g786
sg64
(lp793
g420
asbag57
(g78
g59
NtRp794
(dp795
g62
(dp796
g89
g90
ssg71
g786
sg64
(lp797
S':'
asbag57
(g78
g59
NtRp798
(dp799
g62
(dp800
sg71
g786
sg64
(lp801
g57
(g58
g59
NtRp802
(dp803
g62
(dp804
g70
I3
ssg71
g798
sg64
(lp805
S''
asbasbasbag57
(g73
g59
NtRp806
(dp807
g62
(dp808
sg71
g662
sg64
(lp809
g57
(g78
g59
NtRp810
(dp811
g62
(dp812
g82
g83
ssg71
g806
sg64
(lp813
g441
asbag57
(g78
g59
NtRp814
(dp815
g62
(dp816
g89
g90
ssg71
g806
sg64
(lp817
S':'
asbag57
(g78
g59
NtRp818
(dp819
g62
(dp820
sg71
g806
sg64
(lp821
g57
(g58
g59
NtRp822
(dp823
g62
(dp824
g70
I3
ssg71
g818
sg64
(lp825
S''
asbasbasbasbasbasbasbasbasbasbasbag57
(g73
g59
NtRp826
(dp827
g62
(dp828
sg71
g67
sg64
(lp829
g57
(g78
g59
NtRp830
(dp831
g62
(dp832
g82
g83
ssg71
g826
sg64
(lp833
S'env'
p834
asbag57
(g78
g59
NtRp835
(dp836
g62
(dp837
g89
g90
ssg71
g826
sg64
(lp838
S':'
asbag57
(g78
g59
NtRp839
(dp840
g62
(dp841
sg71
g826
sg64
(lp842
g57
(g58
g59
NtRp843
(dp844
g62
(dp845
g70
I5
ssg71
g839
sg64
(lp846
g57
(g66
g59
NtRp847
(dp848
g62
(dp849
g70
I4
ssg71
Nsg64
(lp850
g57
(g73
g59
NtRp851
(dp852
g62
(dp853
sg71
g847
sg64
(lp854
g57
(g78
g59
NtRp855
(dp856
g62
(dp857
g82
g83
ssg71
g851
sg64
(lp858
S'app_folders'
p859
asbag57
(g78
g59
NtRp860
(dp861
g62
(dp862
g89
g90
ssg71
g851
sg64
(lp863
S':'
asbag57
(g78
g59
NtRp864
(dp865
g62
(dp866
sg71
g851
sg64
(lp867
g57
(g58
g59
NtRp868
(dp869
g62
(dp870
g70
I4
ssg71
g864
sg64
(lp871
S"set(['/home/madhuri/Downloads/web2py/applications/admin/', '/home/madhuri/Downloads/web2py/applications/manager/', '/home/madhuri/Downloads/web2py/applications/welcome/'])"
p872
asbasbasbag57
(g73
g59
NtRp873
(dp874
g62
(dp875
sg71
g847
sg64
(lp876
g57
(g78
g59
NtRp877
(dp878
g62
(dp879
g82
g83
ssg71
g873
sg64
(lp880
S'applications_parent'
p881
asbag57
(g78
g59
NtRp882
(dp883
g62
(dp884
g89
g90
ssg71
g873
sg64
(lp885
S':'
asbag57
(g78
g59
NtRp886
(dp887
g62
(dp888
sg71
g873
sg64
(lp889
g57
(g58
g59
NtRp890
(dp891
g62
(dp892
g70
I4
ssg71
g886
sg64
(lp893
S'/home/madhuri/Downloads/web2py'
p894
asbasbasbag57
(g73
g59
NtRp895
(dp896
g62
(dp897
sg71
g847
sg64
(lp898
g57
(g78
g59
NtRp899
(dp900
g62
(dp901
g82
g83
ssg71
g895
sg64
(lp902
S'cmd_args'
p903
asbag57
(g78
g59
NtRp904
(dp905
g62
(dp906
g89
g90
ssg71
g895
sg64
(lp907
S':'
asbag57
(g78
g59
NtRp908
(dp909
g62
(dp910
sg71
g895
sg64
(lp911
g57
(g58
g59
NtRp912
(dp913
g62
(dp914
g70
I4
ssg71
g908
sg64
(lp915
g57
(g66
g59
NtRp916
(dp917
g62
(dp918
g70
I3
ssg71
Nsg64
(lp919
sbasbasbasbag57
(g73
g59
NtRp920
(dp921
g62
(dp922
sg71
g847
sg64
(lp923
g57
(g78
g59
NtRp924
(dp925
g62
(dp926
g82
g83
ssg71
g920
sg64
(lp927
S'cmd_options'
p928
asbag57
(g78
g59
NtRp929
(dp930
g62
(dp931
g89
g90
ssg71
g920
sg64
(lp932
S':'
asbag57
(g78
g59
NtRp933
(dp934
g62
(dp935
sg71
g920
sg64
(lp936
g57
(g58
g59
NtRp937
(dp938
g62
(dp939
g70
I4
ssg71
g933
sg64
(lp940
S"<Values at 0x190b8c0: {'verbose': False, 'ip': '127.0.0.1', 'with_scheduler': False, 'ips': ['127.0.1.1'], 'shutdown_timeout': 5, 'taskbar': False, 'port': 8000, 'maxthreads': None, 'softcron': False, 'server_name': 'ubuntu', 'bpython': False, 'nogui': False, 'nocron': False, 'extcron': False, 'run_system_tests': False, 'test': None, 'folder': '/home/madhuri/Downloads/web2py', 'config': '', 'import_models': False, 'winservice': '', 'shell': None, 'run': '', 'log_filename': 'httpserver.log', 'debuglevel': 30, 'args': [''], 'socket_timeout': 5, 'ssl_ca_certificate': None, 'scheduler': None, 'profiler_filename': None, 'ssl_private_key': '', 'scheduler_groups': None, 'password': '1', 'request_queue_size': 5, 'ssl_certificate': '', 'cronjob': False, 'numthreads': None, 'quiet': False, 'interfaces': None, 'minthreads': None, 'timeout': 10, 'plain': False, 'nobanner': False, 'pid_filename': 'httpserver.pid'}>"
p941
asbasbasbag57
(g73
g59
NtRp942
(dp943
g62
(dp944
sg71
g847
sg64
(lp945
g57
(g78
g59
NtRp946
(dp947
g62
(dp948
g82
g83
ssg71
g942
sg64
(lp949
S'db_sessions'
p950
asbag57
(g78
g59
NtRp951
(dp952
g62
(dp953
g89
g90
ssg71
g942
sg64
(lp954
S':'
asbag57
(g78
g59
NtRp955
(dp956
g62
(dp957
sg71
g942
sg64
(lp958
g57
(g58
g59
NtRp959
(dp960
g62
(dp961
g70
I4
ssg71
g955
sg64
(lp962
S'set([])'
p963
asbasbasbag57
(g73
g59
NtRp964
(dp965
g62
(dp966
sg71
g847
sg64
(lp967
g57
(g78
g59
NtRp968
(dp969
g62
(dp970
g82
g83
ssg71
g964
sg64
(lp971
S'debugging'
p972
asbag57
(g78
g59
NtRp973
(dp974
g62
(dp975
g89
g90
ssg71
g964
sg64
(lp976
S':'
asbag57
(g78
g59
NtRp977
(dp978
g62
(dp979
sg71
g964
sg64
(lp980
g57
(g58
g59
NtRp981
(dp982
g62
(dp983
g70
I4
ssg71
g977
sg64
(lp984
g100
asbasbasbag57
(g73
g59
NtRp985
(dp986
g62
(dp987
sg71
g847
sg64
(lp988
g57
(g78
g59
NtRp989
(dp990
g62
(dp991
g82
g83
ssg71
g985
sg64
(lp992
S'gluon_parent'
p993
asbag57
(g78
g59
NtRp994
(dp995
g62
(dp996
g89
g90
ssg71
g985
sg64
(lp997
S':'
asbag57
(g78
g59
NtRp998
(dp999
g62
(dp1000
sg71
g985
sg64
(lp1001
g57
(g58
g59
NtRp1002
(dp1003
g62
(dp1004
g70
I4
ssg71
g998
sg64
(lp1005
S'/home/madhuri/Downloads/web2py'
p1006
asbasbasbag57
(g73
g59
NtRp1007
(dp1008
g62
(dp1009
sg71
g847
sg64
(lp1010
g57
(g78
g59
NtRp1011
(dp1012
g62
(dp1013
g82
g83
ssg71
g1007
sg64
(lp1014
S'http_accept'
p1015
asbag57
(g78
g59
NtRp1016
(dp1017
g62
(dp1018
g89
g90
ssg71
g1007
sg64
(lp1019
S':'
asbag57
(g78
g59
NtRp1020
(dp1021
g62
(dp1022
sg71
g1007
sg64
(lp1023
g57
(g58
g59
NtRp1024
(dp1025
g62
(dp1026
g70
I4
ssg71
g1020
sg64
(lp1027
S'text/html,application/xhtml+xml,application/xml;q=0.9,*/*;q=0.8'
p1028
asbasbasbag57
(g73
g59
NtRp1029
(dp1030
g62
(dp1031
sg71
g847
sg64
(lp1032
g57
(g78
g59
NtRp1033
(dp1034
g62
(dp1035
g82
g83
ssg71
g1029
sg64
(lp1036
S'http_accept_encoding'
p1037
asbag57
(g78
g59
NtRp1038
(dp1039
g62
(dp1040
g89
g90
ssg71
g1029
sg64
(lp1041
S':'
asbag57
(g78
g59
NtRp1042
(dp1043
g62
(dp1044
sg71
g1029
sg64
(lp1045
g57
(g58
g59
NtRp1046
(dp1047
g62
(dp1048
g70
I4
ssg71
g1042
sg64
(lp1049
S'gzip, deflate'
p1050
asbasbasbag57
(g73
g59
NtRp1051
(dp1052
g62
(dp1053
sg71
g847
sg64
(lp1054
g57
(g78
g59
NtRp1055
(dp1056
g62
(dp1057
g82
g83
ssg71
g1051
sg64
(lp1058
S'http_accept_language'
p1059
asbag57
(g78
g59
NtRp1060
(dp1061
g62
(dp1062
g89
g90
ssg71
g1051
sg64
(lp1063
S':'
asbag57
(g78
g59
NtRp1064
(dp1065
g62
(dp1066
sg71
g1051
sg64
(lp1067
g57
(g58
g59
NtRp1068
(dp1069
g62
(dp1070
g70
I4
ssg71
g1064
sg64
(lp1071
S'en-us,en;q=0.5'
p1072
asbasbasbag57
(g73
g59
NtRp1073
(dp1074
g62
(dp1075
sg71
g847
sg64
(lp1076
g57
(g78
g59
NtRp1077
(dp1078
g62
(dp1079
g82
g83
ssg71
g1073
sg64
(lp1080
S'http_connection'
p1081
asbag57
(g78
g59
NtRp1082
(dp1083
g62
(dp1084
g89
g90
ssg71
g1073
sg64
(lp1085
S':'
asbag57
(g78
g59
NtRp1086
(dp1087
g62
(dp1088
sg71
g1073
sg64
(lp1089
g57
(g58
g59
NtRp1090
(dp1091
g62
(dp1092
g70
I4
ssg71
g1086
sg64
(lp1093
S'keep-alive'
p1094
asbasbasbag57
(g73
g59
NtRp1095
(dp1096
g62
(dp1097
sg71
g847
sg64
(lp1098
g57
(g78
g59
NtRp1099
(dp1100
g62
(dp1101
g82
g83
ssg71
g1095
sg64
(lp1102
S'http_cookie'
p1103
asbag57
(g78
g59
NtRp1104
(dp1105
g62
(dp1106
g89
g90
ssg71
g1095
sg64
(lp1107
S':'
asbag57
(g78
g59
NtRp1108
(dp1109
g62
(dp1110
sg71
g1095
sg64
(lp1111
g57
(g58
g59
NtRp1112
(dp1113
g62
(dp1114
g70
I4
ssg71
g1108
sg64
(lp1115
S'session_id_welcome=127.0.0.1-41848e09-37fe-4fe9-b4ff-4803b97c2ae3; session_id_admin=127.0.0.1-5397ac8a-431d-4526-b620-53d2814c64d9; session_id_manager=127.0.0.1-6f272149-6c92-44cc-85ba-c8ea1e4f1e04'
p1116
asbasbasbag57
(g73
g59
NtRp1117
(dp1118
g62
(dp1119
sg71
g847
sg64
(lp1120
g57
(g78
g59
NtRp1121
(dp1122
g62
(dp1123
g82
g83
ssg71
g1117
sg64
(lp1124
S'http_host'
p1125
asbag57
(g78
g59
NtRp1126
(dp1127
g62
(dp1128
g89
g90
ssg71
g1117
sg64
(lp1129
S':'
asbag57
(g78
g59
NtRp1130
(dp1131
g62
(dp1132
sg71
g1117
sg64
(lp1133
g57
(g58
g59
NtRp1134
(dp1135
g62
(dp1136
g70
I4
ssg71
g1130
sg64
(lp1137
S'127.0.0.1:8000'
p1138
asbasbasbag57
(g73
g59
NtRp1139
(dp1140
g62
(dp1141
sg71
g847
sg64
(lp1142
g57
(g78
g59
NtRp1143
(dp1144
g62
(dp1145
g82
g83
ssg71
g1139
sg64
(lp1146
S'http_referer'
p1147
asbag57
(g78
g59
NtRp1148
(dp1149
g62
(dp1150
g89
g90
ssg71
g1139
sg64
(lp1151
S':'
asbag57
(g78
g59
NtRp1152
(dp1153
g62
(dp1154
sg71
g1139
sg64
(lp1155
g57
(g58
g59
NtRp1156
(dp1157
g62
(dp1158
g70
I4
ssg71
g1152
sg64
(lp1159
S'http://127.0.0.1:8000/manager/default/drop1m'
p1160
asbasbasbag57
(g73
g59
NtRp1161
(dp1162
g62
(dp1163
sg71
g847
sg64
(lp1164
g57
(g78
g59
NtRp1165
(dp1166
g62
(dp1167
g82
g83
ssg71
g1161
sg64
(lp1168
S'http_user_agent'
p1169
asbag57
(g78
g59
NtRp1170
(dp1171
g62
(dp1172
g89
g90
ssg71
g1161
sg64
(lp1173
S':'
asbag57
(g78
g59
NtRp1174
(dp1175
g62
(dp1176
sg71
g1161
sg64
(lp1177
g57
(g58
g59
NtRp1178
(dp1179
g62
(dp1180
g70
I4
ssg71
g1174
sg64
(lp1181
S'Mozilla/5.0 (X11; Ubuntu; Linux x86_64; rv:14.0) Gecko/20100101 Firefox/14.0.1'
p1182
asbasbasbag57
(g73
g59
NtRp1183
(dp1184
g62
(dp1185
sg71
g847
sg64
(lp1186
g57
(g78
g59
NtRp1187
(dp1188
g62
(dp1189
g82
g83
ssg71
g1183
sg64
(lp1190
S'is_jython'
p1191
asbag57
(g78
g59
NtRp1192
(dp1193
g62
(dp1194
g89
g90
ssg71
g1183
sg64
(lp1195
S':'
asbag57
(g78
g59
NtRp1196
(dp1197
g62
(dp1198
sg71
g1183
sg64
(lp1199
g57
(g58
g59
NtRp1200
(dp1201
g62
(dp1202
g70
I4
ssg71
g1196
sg64
(lp1203
g100
asbasbasbag57
(g73
g59
NtRp1204
(dp1205
g62
(dp1206
sg71
g847
sg64
(lp1207
g57
(g78
g59
NtRp1208
(dp1209
g62
(dp1210
g82
g83
ssg71
g1204
sg64
(lp1211
S'is_pypy'
p1212
asbag57
(g78
g59
NtRp1213
(dp1214
g62
(dp1215
g89
g90
ssg71
g1204
sg64
(lp1216
S':'
asbag57
(g78
g59
NtRp1217
(dp1218
g62
(dp1219
sg71
g1204
sg64
(lp1220
g57
(g58
g59
NtRp1221
(dp1222
g62
(dp1223
g70
I4
ssg71
g1217
sg64
(lp1224
g100
asbasbasbag57
(g73
g59
NtRp1225
(dp1226
g62
(dp1227
sg71
g847
sg64
(lp1228
g57
(g78
g59
NtRp1229
(dp1230
g62
(dp1231
g82
g83
ssg71
g1225
sg64
(lp1232
S'path_info'
p1233
asbag57
(g78
g59
NtRp1234
(dp1235
g62
(dp1236
g89
g90
ssg71
g1225
sg64
(lp1237
S':'
asbag57
(g78
g59
NtRp1238
(dp1239
g62
(dp1240
sg71
g1225
sg64
(lp1241
g57
(g58
g59
NtRp1242
(dp1243
g62
(dp1244
g70
I4
ssg71
g1238
sg64
(lp1245
S'/manager/default/drop1'
p1246
asbasbasbag57
(g73
g59
NtRp1247
(dp1248
g62
(dp1249
sg71
g847
sg64
(lp1250
g57
(g78
g59
NtRp1251
(dp1252
g62
(dp1253
g82
g83
ssg71
g1247
sg64
(lp1254
S'query_string'
p1255
asbag57
(g78
g59
NtRp1256
(dp1257
g62
(dp1258
g89
g90
ssg71
g1247
sg64
(lp1259
S':'
asbag57
(g78
g59
NtRp1260
(dp1261
g62
(dp1262
sg71
g1247
sg64
(lp1263
g57
(g58
g59
NtRp1264
(dp1265
g62
(dp1266
g70
I4
ssg71
g1260
sg64
(lp1267
S''
asbasbasbag57
(g73
g59
NtRp1268
(dp1269
g62
(dp1270
sg71
g847
sg64
(lp1271
g57
(g78
g59
NtRp1272
(dp1273
g62
(dp1274
g82
g83
ssg71
g1268
sg64
(lp1275
S'remote_addr'
p1276
asbag57
(g78
g59
NtRp1277
(dp1278
g62
(dp1279
g89
g90
ssg71
g1268
sg64
(lp1280
S':'
asbag57
(g78
g59
NtRp1281
(dp1282
g62
(dp1283
sg71
g1268
sg64
(lp1284
g57
(g58
g59
NtRp1285
(dp1286
g62
(dp1287
g70
I4
ssg71
g1281
sg64
(lp1288
g212
asbasbasbag57
(g73
g59
NtRp1289
(dp1290
g62
(dp1291
sg71
g847
sg64
(lp1292
g57
(g78
g59
NtRp1293
(dp1294
g62
(dp1295
g82
g83
ssg71
g1289
sg64
(lp1296
S'remote_port'
p1297
asbag57
(g78
g59
NtRp1298
(dp1299
g62
(dp1300
g89
g90
ssg71
g1289
sg64
(lp1301
S':'
asbag57
(g78
g59
NtRp1302
(dp1303
g62
(dp1304
sg71
g1289
sg64
(lp1305
g57
(g58
g59
NtRp1306
(dp1307
g62
(dp1308
g70
I4
ssg71
g1302
sg64
(lp1309
S'48187'
p1310
asbasbasbag57
(g73
g59
NtRp1311
(dp1312
g62
(dp1313
sg71
g847
sg64
(lp1314
g57
(g78
g59
NtRp1315
(dp1316
g62
(dp1317
g82
g83
ssg71
g1311
sg64
(lp1318
S'request_method'
p1319
asbag57
(g78
g59
NtRp1320
(dp1321
g62
(dp1322
g89
g90
ssg71
g1311
sg64
(lp1323
S':'
asbag57
(g78
g59
NtRp1324
(dp1325
g62
(dp1326
sg71
g1311
sg64
(lp1327
g57
(g58
g59
NtRp1328
(dp1329
g62
(dp1330
g70
I4
ssg71
g1324
sg64
(lp1331
S'GET'
p1332
asbasbasbag57
(g73
g59
NtRp1333
(dp1334
g62
(dp1335
sg71
g847
sg64
(lp1336
g57
(g78
g59
NtRp1337
(dp1338
g62
(dp1339
g82
g83
ssg71
g1333
sg64
(lp1340
S'request_uri'
p1341
asbag57
(g78
g59
NtRp1342
(dp1343
g62
(dp1344
g89
g90
ssg71
g1333
sg64
(lp1345
S':'
asbag57
(g78
g59
NtRp1346
(dp1347
g62
(dp1348
sg71
g1333
sg64
(lp1349
g57
(g58
g59
NtRp1350
(dp1351
g62
(dp1352
g70
I4
ssg71
g1346
sg64
(lp1353
g1246
asbasbasbag57
(g73
g59
NtRp1354
(dp1355
g62
(dp1356
sg71
g847
sg64
(lp1357
g57
(g78
g59
NtRp1358
(dp1359
g62
(dp1360
g82
g83
ssg71
g1354
sg64
(lp1361
S'script_name'
p1362
asbag57
(g78
g59
NtRp1363
(dp1364
g62
(dp1365
g89
g90
ssg71
g1354
sg64
(lp1366
S':'
asbag57
(g78
g59
NtRp1367
(dp1368
g62
(dp1369
sg71
g1354
sg64
(lp1370
g57
(g58
g59
NtRp1371
(dp1372
g62
(dp1373
g70
I4
ssg71
g1367
sg64
(lp1374
S''
asbasbasbag57
(g73
g59
NtRp1375
(dp1376
g62
(dp1377
sg71
g847
sg64
(lp1378
g57
(g78
g59
NtRp1379
(dp1380
g62
(dp1381
g82
g83
ssg71
g1375
sg64
(lp1382
S'server_name'
p1383
asbag57
(g78
g59
NtRp1384
(dp1385
g62
(dp1386
g89
g90
ssg71
g1375
sg64
(lp1387
S':'
asbag57
(g78
g59
NtRp1388
(dp1389
g62
(dp1390
sg71
g1375
sg64
(lp1391
g57
(g58
g59
NtRp1392
(dp1393
g62
(dp1394
g70
I4
ssg71
g1388
sg64
(lp1395
S'ubuntu'
p1396
asbasbasbag57
(g73
g59
NtRp1397
(dp1398
g62
(dp1399
sg71
g847
sg64
(lp1400
g57
(g78
g59
NtRp1401
(dp1402
g62
(dp1403
g82
g83
ssg71
g1397
sg64
(lp1404
S'server_port'
p1405
asbag57
(g78
g59
NtRp1406
(dp1407
g62
(dp1408
g89
g90
ssg71
g1397
sg64
(lp1409
S':'
asbag57
(g78
g59
NtRp1410
(dp1411
g62
(dp1412
sg71
g1397
sg64
(lp1413
g57
(g58
g59
NtRp1414
(dp1415
g62
(dp1416
g70
I4
ssg71
g1410
sg64
(lp1417
S'8000'
p1418
asbasbasbag57
(g73
g59
NtRp1419
(dp1420
g62
(dp1421
sg71
g847
sg64
(lp1422
g57
(g78
g59
NtRp1423
(dp1424
g62
(dp1425
g82
g83
ssg71
g1419
sg64
(lp1426
S'server_protocol'
p1427
asbag57
(g78
g59
NtRp1428
(dp1429
g62
(dp1430
g89
g90
ssg71
g1419
sg64
(lp1431
S':'
asbag57
(g78
g59
NtRp1432
(dp1433
g62
(dp1434
sg71
g1419
sg64
(lp1435
g57
(g58
g59
NtRp1436
(dp1437
g62
(dp1438
g70
I4
ssg71
g1432
sg64
(lp1439
S'HTTP/1.1'
p1440
asbasbasbag57
(g73
g59
NtRp1441
(dp1442
g62
(dp1443
sg71
g847
sg64
(lp1444
g57
(g78
g59
NtRp1445
(dp1446
g62
(dp1447
g82
g83
ssg71
g1441
sg64
(lp1448
S'server_software'
p1449
asbag57
(g78
g59
NtRp1450
(dp1451
g62
(dp1452
g89
g90
ssg71
g1441
sg64
(lp1453
S':'
asbag57
(g78
g59
NtRp1454
(dp1455
g62
(dp1456
sg71
g1441
sg64
(lp1457
g57
(g58
g59
NtRp1458
(dp1459
g62
(dp1460
g70
I4
ssg71
g1454
sg64
(lp1461
S'Rocket 1.2.4'
p1462
asbasbasbag57
(g73
g59
NtRp1463
(dp1464
g62
(dp1465
sg71
g847
sg64
(lp1466
g57
(g78
g59
NtRp1467
(dp1468
g62
(dp1469
g82
g83
ssg71
g1463
sg64
(lp1470
S'web2py_crontype'
p1471
asbag57
(g78
g59
NtRp1472
(dp1473
g62
(dp1474
g89
g90
ssg71
g1463
sg64
(lp1475
S':'
asbag57
(g78
g59
NtRp1476
(dp1477
g62
(dp1478
sg71
g1463
sg64
(lp1479
g57
(g58
g59
NtRp1480
(dp1481
g62
(dp1482
g70
I4
ssg71
g1476
sg64
(lp1483
S'hard'
p1484
asbasbasbag57
(g73
g59
NtRp1485
(dp1486
g62
(dp1487
sg71
g847
sg64
(lp1488
g57
(g78
g59
NtRp1489
(dp1490
g62
(dp1491
g82
g83
ssg71
g1485
sg64
(lp1492
S'web2py_path'
p1493
asbag57
(g78
g59
NtRp1494
(dp1495
g62
(dp1496
g89
g90
ssg71
g1485
sg64
(lp1497
S':'
asbag57
(g78
g59
NtRp1498
(dp1499
g62
(dp1500
sg71
g1485
sg64
(lp1501
g57
(g58
g59
NtRp1502
(dp1503
g62
(dp1504
g70
I4
ssg71
g1498
sg64
(lp1505
g894
asbasbasbag57
(g73
g59
NtRp1506
(dp1507
g62
(dp1508
sg71
g847
sg64
(lp1509
g57
(g78
g59
NtRp1510
(dp1511
g62
(dp1512
g82
g83
ssg71
g1506
sg64
(lp1513
S'web2py_version'
p1514
asbag57
(g78
g59
NtRp1515
(dp1516
g62
(dp1517
g89
g90
ssg71
g1506
sg64
(lp1518
S':'
asbag57
(g78
g59
NtRp1519
(dp1520
g62
(dp1521
sg71
g1506
sg64
(lp1522
g57
(g58
g59
NtRp1523
(dp1524
g62
(dp1525
g70
I4
ssg71
g1519
sg64
(lp1526
g57
(g66
g59
NtRp1527
(dp1528
g62
(dp1529
g70
I3
ssg71
Nsg64
(lp1530
g57
(g73
g59
NtRp1531
(dp1532
g62
(dp1533
sg71
g1527
sg64
(lp1534
g57
(g78
g59
NtRp1535
(dp1536
g62
(dp1537
sg71
g1531
sg64
(lp1538
g57
(g58
g59
NtRp1539
(dp1540
g62
(dp1541
g70
I3
ssg71
g1535
sg64
(lp1542
S'2'
asbasbasbag57
(g73
g59
NtRp1543
(dp1544
g62
(dp1545
sg71
g1527
sg64
(lp1546
g57
(g78
g59
NtRp1547
(dp1548
g62
(dp1549
sg71
g1543
sg64
(lp1550
g57
(g58
g59
NtRp1551
(dp1552
g62
(dp1553
g70
I3
ssg71
g1547
sg64
(lp1554
S'0'
asbasbasbag57
(g73
g59
NtRp1555
(dp1556
g62
(dp1557
sg71
g1527
sg64
(lp1558
g57
(g78
g59
NtRp1559
(dp1560
g62
(dp1561
sg71
g1555
sg64
(lp1562
g57
(g58
g59
NtRp1563
(dp1564
g62
(dp1565
g70
I3
ssg71
g1559
sg64
(lp1566
S'9'
asbasbasbag57
(g73
g59
NtRp1567
(dp1568
g62
(dp1569
sg71
g1527
sg64
(lp1570
g57
(g78
g59
NtRp1571
(dp1572
g62
(dp1573
sg71
g1567
sg64
(lp1574
g57
(g58
g59
NtRp1575
(dp1576
g62
(dp1577
g70
I3
ssg71
g1571
sg64
(lp1578
S'datetime.datetime(2012, 9, 13, 23, 51, 30)'
p1579
asbasbasbag57
(g73
g59
NtRp1580
(dp1581
g62
(dp1582
sg71
g1527
sg64
(lp1583
g57
(g78
g59
NtRp1584
(dp1585
g62
(dp1586
sg71
g1580
sg64
(lp1587
g57
(g58
g59
NtRp1588
(dp1589
g62
(dp1590
g70
I3
ssg71
g1584
sg64
(lp1591
S'stable'
p1592
asbasbasbasbasbasbasbag57
(g73
g59
NtRp1593
(dp1594
g62
(dp1595
sg71
g847
sg64
(lp1596
g57
(g78
g59
NtRp1597
(dp1598
g62
(dp1599
g82
g83
ssg71
g1593
sg64
(lp1600
S'wsgi_errors'
p1601
asbag57
(g78
g59
NtRp1602
(dp1603
g62
(dp1604
g89
g90
ssg71
g1593
sg64
(lp1605
S':'
asbag57
(g78
g59
NtRp1606
(dp1607
g62
(dp1608
sg71
g1593
sg64
(lp1609
g57
(g58
g59
NtRp1610
(dp1611
g62
(dp1612
g70
I4
ssg71
g1606
sg64
(lp1613
S"<open file '<stderr>', mode 'w' at 0x7f1dd399e270>"
p1614
asbasbasbag57
(g73
g59
NtRp1615
(dp1616
g62
(dp1617
sg71
g847
sg64
(lp1618
g57
(g78
g59
NtRp1619
(dp1620
g62
(dp1621
g82
g83
ssg71
g1615
sg64
(lp1622
S'wsgi_file_wrapper'
p1623
asbag57
(g78
g59
NtRp1624
(dp1625
g62
(dp1626
g89
g90
ssg71
g1615
sg64
(lp1627
S':'
asbag57
(g78
g59
NtRp1628
(dp1629
g62
(dp1630
sg71
g1615
sg64
(lp1631
g57
(g58
g59
NtRp1632
(dp1633
g62
(dp1634
g70
I4
ssg71
g1628
sg64
(lp1635
S'<class wsgiref.util.FileWrapper at 0x1b5aa78>'
p1636
asbasbasbag57
(g73
g59
NtRp1637
(dp1638
g62
(dp1639
sg71
g847
sg64
(lp1640
g57
(g78
g59
NtRp1641
(dp1642
g62
(dp1643
g82
g83
ssg71
g1637
sg64
(lp1644
S'wsgi_input'
p1645
asbag57
(g78
g59
NtRp1646
(dp1647
g62
(dp1648
g89
g90
ssg71
g1637
sg64
(lp1649
S':'
asbag57
(g78
g59
NtRp1650
(dp1651
g62
(dp1652
sg71
g1637
sg64
(lp1653
g57
(g58
g59
NtRp1654
(dp1655
g62
(dp1656
g70
I4
ssg71
g1650
sg64
(lp1657
S'<socket._fileobject object at 0x7f1da010e750>'
p1658
asbasbasbag57
(g73
g59
NtRp1659
(dp1660
g62
(dp1661
sg71
g847
sg64
(lp1662
g57
(g78
g59
NtRp1663
(dp1664
g62
(dp1665
g82
g83
ssg71
g1659
sg64
(lp1666
S'wsgi_multiprocess'
p1667
asbag57
(g78
g59
NtRp1668
(dp1669
g62
(dp1670
g89
g90
ssg71
g1659
sg64
(lp1671
S':'
asbag57
(g78
g59
NtRp1672
(dp1673
g62
(dp1674
sg71
g1659
sg64
(lp1675
g57
(g58
g59
NtRp1676
(dp1677
g62
(dp1678
g70
I4
ssg71
g1672
sg64
(lp1679
g100
asbasbasbag57
(g73
g59
NtRp1680
(dp1681
g62
(dp1682
sg71
g847
sg64
(lp1683
g57
(g78
g59
NtRp1684
(dp1685
g62
(dp1686
g82
g83
ssg71
g1680
sg64
(lp1687
S'wsgi_multithread'
p1688
asbag57
(g78
g59
NtRp1689
(dp1690
g62
(dp1691
g89
g90
ssg71
g1680
sg64
(lp1692
S':'
asbag57
(g78
g59
NtRp1693
(dp1694
g62
(dp1695
sg71
g1680
sg64
(lp1696
g57
(g58
g59
NtRp1697
(dp1698
g62
(dp1699
g70
I4
ssg71
g1693
sg64
(lp1700
S'True'
p1701
asbasbasbag57
(g73
g59
NtRp1702
(dp1703
g62
(dp1704
sg71
g847
sg64
(lp1705
g57
(g78
g59
NtRp1706
(dp1707
g62
(dp1708
g82
g83
ssg71
g1702
sg64
(lp1709
S'wsgi_run_once'
p1710
asbag57
(g78
g59
NtRp1711
(dp1712
g62
(dp1713
g89
g90
ssg71
g1702
sg64
(lp1714
S':'
asbag57
(g78
g59
NtRp1715
(dp1716
g62
(dp1717
sg71
g1702
sg64
(lp1718
g57
(g58
g59
NtRp1719
(dp1720
g62
(dp1721
g70
I4
ssg71
g1715
sg64
(lp1722
g100
asbasbasbag57
(g73
g59
NtRp1723
(dp1724
g62
(dp1725
sg71
g847
sg64
(lp1726
g57
(g78
g59
NtRp1727
(dp1728
g62
(dp1729
g82
g83
ssg71
g1723
sg64
(lp1730
S'wsgi_url_scheme'
p1731
asbag57
(g78
g59
NtRp1732
(dp1733
g62
(dp1734
g89
g90
ssg71
g1723
sg64
(lp1735
S':'
asbag57
(g78
g59
NtRp1736
(dp1737
g62
(dp1738
sg71
g1723
sg64
(lp1739
g57
(g58
g59
NtRp1740
(dp1741
g62
(dp1742
g70
I4
ssg71
g1736
sg64
(lp1743
S'http'
p1744
asbasbasbag57
(g73
g59
NtRp1745
(dp1746
g62
(dp1747
sg71
g847
sg64
(lp1748
g57
(g78
g59
NtRp1749
(dp1750
g62
(dp1751
g82
g83
ssg71
g1745
sg64
(lp1752
S'wsgi_version'
p1753
asbag57
(g78
g59
NtRp1754
(dp1755
g62
(dp1756
g89
g90
ssg71
g1745
sg64
(lp1757
S':'
asbag57
(g78
g59
NtRp1758
(dp1759
g62
(dp1760
sg71
g1745
sg64
(lp1761
g57
(g58
g59
NtRp1762
(dp1763
g62
(dp1764
g70
I4
ssg71
g1758
sg64
(lp1765
g57
(g66
g59
NtRp1766
(dp1767
g62
(dp1768
g70
I3
ssg71
Nsg64
(lp1769
g57
(g73
g59
NtRp1770
(dp1771
g62
(dp1772
sg71
g1766
sg64
(lp1773
g57
(g78
g59
NtRp1774
(dp1775
g62
(dp1776
sg71
g1770
sg64
(lp1777
g57
(g58
g59
NtRp1778
(dp1779
g62
(dp1780
g70
I3
ssg71
g1774
sg64
(lp1781
S'1'
asbasbasbag57
(g73
g59
NtRp1782
(dp1783
g62
(dp1784
sg71
g1766
sg64
(lp1785
g57
(g78
g59
NtRp1786
(dp1787
g62
(dp1788
sg71
g1782
sg64
(lp1789
g57
(g58
g59
NtRp1790
(dp1791
g62
(dp1792
g70
I3
ssg71
g1786
sg64
(lp1793
S'0'
asbasbasbasbasbasbasbasbasbasbasbag57
(g73
g59
NtRp1794
(dp1795
g62
(dp1796
sg71
g67
sg64
(lp1797
g57
(g78
g59
NtRp1798
(dp1799
g62
(dp1800
g82
g83
ssg71
g1794
sg64
(lp1801
S'extension'
p1802
asbag57
(g78
g59
NtRp1803
(dp1804
g62
(dp1805
g89
g90
ssg71
g1794
sg64
(lp1806
S':'
asbag57
(g78
g59
NtRp1807
(dp1808
g62
(dp1809
sg71
g1794
sg64
(lp1810
g57
(g58
g59
NtRp1811
(dp1812
g62
(dp1813
g70
I5
ssg71
g1807
sg64
(lp1814
S'html'
p1815
asbasbasbag57
(g73
g59
NtRp1816
(dp1817
g62
(dp1818
sg71
g67
sg64
(lp1819
g57
(g78
g59
NtRp1820
(dp1821
g62
(dp1822
g82
g83
ssg71
g1816
sg64
(lp1823
S'folder'
p1824
asbag57
(g78
g59
NtRp1825
(dp1826
g62
(dp1827
g89
g90
ssg71
g1816
sg64
(lp1828
S':'
asbag57
(g78
g59
NtRp1829
(dp1830
g62
(dp1831
sg71
g1816
sg64
(lp1832
g57
(g58
g59
NtRp1833
(dp1834
g62
(dp1835
g70
I5
ssg71
g1829
sg64
(lp1836
S'/home/madhuri/Downloads/web2py/applications/manager/'
p1837
asbasbasbag57
(g73
g59
NtRp1838
(dp1839
g62
(dp1840
sg71
g67
sg64
(lp1841
g57
(g78
g59
NtRp1842
(dp1843
g62
(dp1844
g82
g83
ssg71
g1838
sg64
(lp1845
S'function'
p1846
asbag57
(g78
g59
NtRp1847
(dp1848
g62
(dp1849
g89
g90
ssg71
g1838
sg64
(lp1850
S':'
asbag57
(g78
g59
NtRp1851
(dp1852
g62
(dp1853
sg71
g1838
sg64
(lp1854
g57
(g58
g59
NtRp1855
(dp1856
g62
(dp1857
g70
I5
ssg71
g1851
sg64
(lp1858
S'drop1'
p1859
asbasbasbag57
(g73
g59
NtRp1860
(dp1861
g62
(dp1862
sg71
g67
sg64
(lp1863
g57
(g78
g59
NtRp1864
(dp1865
g62
(dp1866
g82
g83
ssg71
g1860
sg64
(lp1867
S'get_vars'
p1868
asbag57
(g78
g59
NtRp1869
(dp1870
g62
(dp1871
g89
g90
ssg71
g1860
sg64
(lp1872
S':'
asbag57
(g78
g59
NtRp1873
(dp1874
g62
(dp1875
sg71
g1860
sg64
(lp1876
g57
(g58
g59
NtRp1877
(dp1878
g62
(dp1879
g70
I5
ssg71
g1873
sg64
(lp1880
g57
(g66
g59
NtRp1881
(dp1882
g62
(dp1883
g70
I4
ssg71
Nsg64
(lp1884
sbasbasbasbag57
(g73
g59
NtRp1885
(dp1886
g62
(dp1887
sg71
g67
sg64
(lp1888
g57
(g78
g59
NtRp1889
(dp1890
g62
(dp1891
g82
g83
ssg71
g1885
sg64
(lp1892
S'global_settings'
p1893
asbag57
(g78
g59
NtRp1894
(dp1895
g62
(dp1896
g89
g90
ssg71
g1885
sg64
(lp1897
S':'
asbag57
(g78
g59
NtRp1898
(dp1899
g62
(dp1900
sg71
g1885
sg64
(lp1901
g57
(g58
g59
NtRp1902
(dp1903
g62
(dp1904
g70
I5
ssg71
g1898
sg64
(lp1905
g57
(g66
g59
NtRp1906
(dp1907
g62
(dp1908
g70
I4
ssg71
Nsg64
(lp1909
g57
(g73
g59
NtRp1910
(dp1911
g62
(dp1912
sg71
g1906
sg64
(lp1913
g57
(g78
g59
NtRp1914
(dp1915
g62
(dp1916
g82
g83
ssg71
g1910
sg64
(lp1917
g859
asbag57
(g78
g59
NtRp1918
(dp1919
g62
(dp1920
g89
g90
ssg71
g1910
sg64
(lp1921
S':'
asbag57
(g78
g59
NtRp1922
(dp1923
g62
(dp1924
sg71
g1910
sg64
(lp1925
g57
(g58
g59
NtRp1926
(dp1927
g62
(dp1928
g70
I4
ssg71
g1922
sg64
(lp1929
S"set(['/home/madhuri/Downloads/web2py/applications/admin/', '/home/madhuri/Downloads/web2py/applications/manager/', '/home/madhuri/Downloads/web2py/applications/welcome/'])"
p1930
asbasbasbag57
(g73
g59
NtRp1931
(dp1932
g62
(dp1933
sg71
g1906
sg64
(lp1934
g57
(g78
g59
NtRp1935
(dp1936
g62
(dp1937
g82
g83
ssg71
g1931
sg64
(lp1938
g881
asbag57
(g78
g59
NtRp1939
(dp1940
g62
(dp1941
g89
g90
ssg71
g1931
sg64
(lp1942
S':'
asbag57
(g78
g59
NtRp1943
(dp1944
g62
(dp1945
sg71
g1931
sg64
(lp1946
g57
(g58
g59
NtRp1947
(dp1948
g62
(dp1949
g70
I4
ssg71
g1943
sg64
(lp1950
g894
asbasbasbag57
(g73
g59
NtRp1951
(dp1952
g62
(dp1953
sg71
g1906
sg64
(lp1954
g57
(g78
g59
NtRp1955
(dp1956
g62
(dp1957
g82
g83
ssg71
g1951
sg64
(lp1958
g903
asbag57
(g78
g59
NtRp1959
(dp1960
g62
(dp1961
g89
g90
ssg71
g1951
sg64
(lp1962
S':'
asbag57
(g78
g59
NtRp1963
(dp1964
g62
(dp1965
sg71
g1951
sg64
(lp1966
g57
(g58
g59
NtRp1967
(dp1968
g62
(dp1969
g70
I4
ssg71
g1963
sg64
(lp1970
g57
(g66
g59
NtRp1971
(dp1972
g62
(dp1973
g70
I3
ssg71
Nsg64
(lp1974
sbasbasbasbag57
(g73
g59
NtRp1975
(dp1976
g62
(dp1977
sg71
g1906
sg64
(lp1978
g57
(g78
g59
NtRp1979
(dp1980
g62
(dp1981
g82
g83
ssg71
g1975
sg64
(lp1982
g928
asbag57
(g78
g59
NtRp1983
(dp1984
g62
(dp1985
g89
g90
ssg71
g1975
sg64
(lp1986
S':'
asbag57
(g78
g59
NtRp1987
(dp1988
g62
(dp1989
sg71
g1975
sg64
(lp1990
g57
(g58
g59
NtRp1991
(dp1992
g62
(dp1993
g70
I4
ssg71
g1987
sg64
(lp1994
S"<Values at 0x190b8c0: {'verbose': False, 'ip': '127.0.0.1', 'with_scheduler': False, 'ips': ['127.0.1.1'], 'shutdown_timeout': 5, 'taskbar': False, 'port': 8000, 'maxthreads': None, 'softcron': False, 'server_name': 'ubuntu', 'bpython': False, 'nogui': False, 'nocron': False, 'extcron': False, 'run_system_tests': False, 'test': None, 'folder': '/home/madhuri/Downloads/web2py', 'config': '', 'import_models': False, 'winservice': '', 'shell': None, 'run': '', 'log_filename': 'httpserver.log', 'debuglevel': 30, 'args': [''], 'socket_timeout': 5, 'ssl_ca_certificate': None, 'scheduler': None, 'profiler_filename': None, 'ssl_private_key': '', 'scheduler_groups': None, 'password': '1', 'request_queue_size': 5, 'ssl_certificate': '', 'cronjob': False, 'numthreads': None, 'quiet': False, 'interfaces': None, 'minthreads': None, 'timeout': 10, 'plain': False, 'nobanner': False, 'pid_filename': 'httpserver.pid'}>"
p1995
asbasbasbag57
(g73
g59
NtRp1996
(dp1997
g62
(dp1998
sg71
g1906
sg64
(lp1999
g57
(g78
g59
NtRp2000
(dp2001
g62
(dp2002
g82
g83
ssg71
g1996
sg64
(lp2003
g950
asbag57
(g78
g59
NtRp2004
(dp2005
g62
(dp2006
g89
g90
ssg71
g1996
sg64
(lp2007
S':'
asbag57
(g78
g59
NtRp2008
(dp2009
g62
(dp2010
sg71
g1996
sg64
(lp2011
g57
(g58
g59
NtRp2012
(dp2013
g62
(dp2014
g70
I4
ssg71
g2008
sg64
(lp2015
S'set([])'
p2016
asbasbasbag57
(g73
g59
NtRp2017
(dp2018
g62
(dp2019
sg71
g1906
sg64
(lp2020
g57
(g78
g59
NtRp2021
(dp2022
g62
(dp2023
g82
g83
ssg71
g2017
sg64
(lp2024
g972
asbag57
(g78
g59
NtRp2025
(dp2026
g62
(dp2027
g89
g90
ssg71
g2017
sg64
(lp2028
S':'
asbag57
(g78
g59
NtRp2029
(dp2030
g62
(dp2031
sg71
g2017
sg64
(lp2032
g57
(g58
g59
NtRp2033
(dp2034
g62
(dp2035
g70
I4
ssg71
g2029
sg64
(lp2036
g100
asbasbasbag57
(g73
g59
NtRp2037
(dp2038
g62
(dp2039
sg71
g1906
sg64
(lp2040
g57
(g78
g59
NtRp2041
(dp2042
g62
(dp2043
g82
g83
ssg71
g2037
sg64
(lp2044
g993
asbag57
(g78
g59
NtRp2045
(dp2046
g62
(dp2047
g89
g90
ssg71
g2037
sg64
(lp2048
S':'
asbag57
(g78
g59
NtRp2049
(dp2050
g62
(dp2051
sg71
g2037
sg64
(lp2052
g57
(g58
g59
NtRp2053
(dp2054
g62
(dp2055
g70
I4
ssg71
g2049
sg64
(lp2056
g1006
asbasbasbag57
(g73
g59
NtRp2057
(dp2058
g62
(dp2059
sg71
g1906
sg64
(lp2060
g57
(g78
g59
NtRp2061
(dp2062
g62
(dp2063
g82
g83
ssg71
g2057
sg64
(lp2064
g1191
asbag57
(g78
g59
NtRp2065
(dp2066
g62
(dp2067
g89
g90
ssg71
g2057
sg64
(lp2068
S':'
asbag57
(g78
g59
NtRp2069
(dp2070
g62
(dp2071
sg71
g2057
sg64
(lp2072
g57
(g58
g59
NtRp2073
(dp2074
g62
(dp2075
g70
I4
ssg71
g2069
sg64
(lp2076
g100
asbasbasbag57
(g73
g59
NtRp2077
(dp2078
g62
(dp2079
sg71
g1906
sg64
(lp2080
g57
(g78
g59
NtRp2081
(dp2082
g62
(dp2083
g82
g83
ssg71
g2077
sg64
(lp2084
g1212
asbag57
(g78
g59
NtRp2085
(dp2086
g62
(dp2087
g89
g90
ssg71
g2077
sg64
(lp2088
S':'
asbag57
(g78
g59
NtRp2089
(dp2090
g62
(dp2091
sg71
g2077
sg64
(lp2092
g57
(g58
g59
NtRp2093
(dp2094
g62
(dp2095
g70
I4
ssg71
g2089
sg64
(lp2096
g100
asbasbasbag57
(g73
g59
NtRp2097
(dp2098
g62
(dp2099
sg71
g1906
sg64
(lp2100
g57
(g78
g59
NtRp2101
(dp2102
g62
(dp2103
g82
g83
ssg71
g2097
sg64
(lp2104
g1471
asbag57
(g78
g59
NtRp2105
(dp2106
g62
(dp2107
g89
g90
ssg71
g2097
sg64
(lp2108
S':'
asbag57
(g78
g59
NtRp2109
(dp2110
g62
(dp2111
sg71
g2097
sg64
(lp2112
g57
(g58
g59
NtRp2113
(dp2114
g62
(dp2115
g70
I4
ssg71
g2109
sg64
(lp2116
g1484
asbasbasbag57
(g73
g59
NtRp2117
(dp2118
g62
(dp2119
sg71
g1906
sg64
(lp2120
g57
(g78
g59
NtRp2121
(dp2122
g62
(dp2123
g82
g83
ssg71
g2117
sg64
(lp2124
g1514
asbag57
(g78
g59
NtRp2125
(dp2126
g62
(dp2127
g89
g90
ssg71
g2117
sg64
(lp2128
S':'
asbag57
(g78
g59
NtRp2129
(dp2130
g62
(dp2131
sg71
g2117
sg64
(lp2132
g57
(g58
g59
NtRp2133
(dp2134
g62
(dp2135
g70
I4
ssg71
g2129
sg64
(lp2136
g57
(g66
g59
NtRp2137
(dp2138
g62
(dp2139
g70
I3
ssg71
Nsg64
(lp2140
g57
(g73
g59
NtRp2141
(dp2142
g62
(dp2143
sg71
g2137
sg64
(lp2144
g57
(g78
g59
NtRp2145
(dp2146
g62
(dp2147
sg71
g2141
sg64
(lp2148
g57
(g58
g59
NtRp2149
(dp2150
g62
(dp2151
g70
I3
ssg71
g2145
sg64
(lp2152
S'2'
asbasbasbag57
(g73
g59
NtRp2153
(dp2154
g62
(dp2155
sg71
g2137
sg64
(lp2156
g57
(g78
g59
NtRp2157
(dp2158
g62
(dp2159
sg71
g2153
sg64
(lp2160
g57
(g58
g59
NtRp2161
(dp2162
g62
(dp2163
g70
I3
ssg71
g2157
sg64
(lp2164
S'0'
asbasbasbag57
(g73
g59
NtRp2165
(dp2166
g62
(dp2167
sg71
g2137
sg64
(lp2168
g57
(g78
g59
NtRp2169
(dp2170
g62
(dp2171
sg71
g2165
sg64
(lp2172
g57
(g58
g59
NtRp2173
(dp2174
g62
(dp2175
g70
I3
ssg71
g2169
sg64
(lp2176
S'9'
asbasbasbag57
(g73
g59
NtRp2177
(dp2178
g62
(dp2179
sg71
g2137
sg64
(lp2180
g57
(g78
g59
NtRp2181
(dp2182
g62
(dp2183
sg71
g2177
sg64
(lp2184
g57
(g58
g59
NtRp2185
(dp2186
g62
(dp2187
g70
I3
ssg71
g2181
sg64
(lp2188
S'datetime.datetime(2012, 9, 13, 23, 51, 30)'
p2189
asbasbasbag57
(g73
g59
NtRp2190
(dp2191
g62
(dp2192
sg71
g2137
sg64
(lp2193
g57
(g78
g59
NtRp2194
(dp2195
g62
(dp2196
sg71
g2190
sg64
(lp2197
g57
(g58
g59
NtRp2198
(dp2199
g62
(dp2200
g70
I3
ssg71
g2194
sg64
(lp2201
g1592
asbasbasbasbasbasbasbasbasbasbasbag57
(g73
g59
NtRp2202
(dp2203
g62
(dp2204
sg71
g67
sg64
(lp2205
g57
(g78
g59
NtRp2206
(dp2207
g62
(dp2208
g82
g83
ssg71
g2202
sg64
(lp2209
S'is_https'
p2210
asbag57
(g78
g59
NtRp2211
(dp2212
g62
(dp2213
g89
g90
ssg71
g2202
sg64
(lp2214
S':'
asbag57
(g78
g59
NtRp2215
(dp2216
g62
(dp2217
sg71
g2202
sg64
(lp2218
g57
(g58
g59
NtRp2219
(dp2220
g62
(dp2221
g70
I5
ssg71
g2215
sg64
(lp2222
g100
asbasbasbag57
(g73
g59
NtRp2223
(dp2224
g62
(dp2225
sg71
g67
sg64
(lp2226
g57
(g78
g59
NtRp2227
(dp2228
g62
(dp2229
g82
g83
ssg71
g2223
sg64
(lp2230
S'is_local'
p2231
asbag57
(g78
g59
NtRp2232
(dp2233
g62
(dp2234
g89
g90
ssg71
g2223
sg64
(lp2235
S':'
asbag57
(g78
g59
NtRp2236
(dp2237
g62
(dp2238
sg71
g2223
sg64
(lp2239
g57
(g58
g59
NtRp2240
(dp2241
g62
(dp2242
g70
I5
ssg71
g2236
sg64
(lp2243
g1701
asbasbasbag57
(g73
g59
NtRp2244
(dp2245
g62
(dp2246
sg71
g67
sg64
(lp2247
g57
(g78
g59
NtRp2248
(dp2249
g62
(dp2250
g82
g83
ssg71
g2244
sg64
(lp2251
S'is_restful'
p2252
asbag57
(g78
g59
NtRp2253
(dp2254
g62
(dp2255
g89
g90
ssg71
g2244
sg64
(lp2256
S':'
asbag57
(g78
g59
NtRp2257
(dp2258
g62
(dp2259
sg71
g2244
sg64
(lp2260
g57
(g58
g59
NtRp2261
(dp2262
g62
(dp2263
g70
I5
ssg71
g2257
sg64
(lp2264
g100
asbasbasbag57
(g73
g59
NtRp2265
(dp2266
g62
(dp2267
sg71
g67
sg64
(lp2268
g57
(g78
g59
NtRp2269
(dp2270
g62
(dp2271
g82
g83
ssg71
g2265
sg64
(lp2272
S'now'
p2273
asbag57
(g78
g59
NtRp2274
(dp2275
g62
(dp2276
g89
g90
ssg71
g2265
sg64
(lp2277
S':'
asbag57
(g78
g59
NtRp2278
(dp2279
g62
(dp2280
sg71
g2265
sg64
(lp2281
g57
(g58
g59
NtRp2282
(dp2283
g62
(dp2284
g70
I5
ssg71
g2278
sg64
(lp2285
S'datetime.datetime(2012, 11, 12, 3, 8, 14, 926832)'
p2286
asbasbasbag57
(g73
g59
NtRp2287
(dp2288
g62
(dp2289
sg71
g67
sg64
(lp2290
g57
(g78
g59
NtRp2291
(dp2292
g62
(dp2293
g82
g83
ssg71
g2287
sg64
(lp2294
S'post_vars'
p2295
asbag57
(g78
g59
NtRp2296
(dp2297
g62
(dp2298
g89
g90
ssg71
g2287
sg64
(lp2299
S':'
asbag57
(g78
g59
NtRp2300
(dp2301
g62
(dp2302
sg71
g2287
sg64
(lp2303
g57
(g58
g59
NtRp2304
(dp2305
g62
(dp2306
g70
I5
ssg71
g2300
sg64
(lp2307
g57
(g66
g59
NtRp2308
(dp2309
g62
(dp2310
g70
I4
ssg71
Nsg64
(lp2311
sbasbasbasbag57
(g73
g59
NtRp2312
(dp2313
g62
(dp2314
sg71
g67
sg64
(lp2315
g57
(g78
g59
NtRp2316
(dp2317
g62
(dp2318
g82
g83
ssg71
g2312
sg64
(lp2319
S'raw_args'
p2320
asbag57
(g78
g59
NtRp2321
(dp2322
g62
(dp2323
g89
g90
ssg71
g2312
sg64
(lp2324
S':'
asbag57
(g78
g59
NtRp2325
(dp2326
g62
(dp2327
sg71
g2312
sg64
(lp2328
g57
(g58
g59
NtRp2329
(dp2330
g62
(dp2331
g70
I5
ssg71
g2325
sg64
(lp2332
S'None'
p2333
asbasbasbag57
(g73
g59
NtRp2334
(dp2335
g62
(dp2336
sg71
g67
sg64
(lp2337
g57
(g78
g59
NtRp2338
(dp2339
g62
(dp2340
g82
g83
ssg71
g2334
sg64
(lp2341
S'raw_extension'
p2342
asbag57
(g78
g59
NtRp2343
(dp2344
g62
(dp2345
g89
g90
ssg71
g2334
sg64
(lp2346
S':'
asbag57
(g78
g59
NtRp2347
(dp2348
g62
(dp2349
sg71
g2334
sg64
(lp2350
g57
(g58
g59
NtRp2351
(dp2352
g62
(dp2353
g70
I5
ssg71
g2347
sg64
(lp2354
S'None'
p2355
asbasbasbag57
(g73
g59
NtRp2356
(dp2357
g62
(dp2358
sg71
g67
sg64
(lp2359
g57
(g78
g59
NtRp2360
(dp2361
g62
(dp2362
g82
g83
ssg71
g2356
sg64
(lp2363
S'url'
p2364
asbag57
(g78
g59
NtRp2365
(dp2366
g62
(dp2367
g89
g90
ssg71
g2356
sg64
(lp2368
S':'
asbag57
(g78
g59
NtRp2369
(dp2370
g62
(dp2371
sg71
g2356
sg64
(lp2372
g57
(g58
g59
NtRp2373
(dp2374
g62
(dp2375
g70
I5
ssg71
g2369
sg64
(lp2376
g1246
asbasbasbag57
(g73
g59
NtRp2377
(dp2378
g62
(dp2379
sg71
g67
sg64
(lp2380
g57
(g78
g59
NtRp2381
(dp2382
g62
(dp2383
g82
g83
ssg71
g2377
sg64
(lp2384
S'utcnow'
p2385
asbag57
(g78
g59
NtRp2386
(dp2387
g62
(dp2388
g89
g90
ssg71
g2377
sg64
(lp2389
S':'
asbag57
(g78
g59
NtRp2390
(dp2391
g62
(dp2392
sg71
g2377
sg64
(lp2393
g57
(g58
g59
NtRp2394
(dp2395
g62
(dp2396
g70
I5
ssg71
g2390
sg64
(lp2397
S'datetime.datetime(2012, 11, 11, 21, 38, 14, 926887)'
p2398
asbasbasbag57
(g73
g59
NtRp2399
(dp2400
g62
(dp2401
sg71
g67
sg64
(lp2402
g57
(g78
g59
NtRp2403
(dp2404
g62
(dp2405
g82
g83
ssg71
g2399
sg64
(lp2406
S'uuid'
p2407
asbag57
(g78
g59
NtRp2408
(dp2409
g62
(dp2410
g89
g90
ssg71
g2399
sg64
(lp2411
S':'
asbag57
(g78
g59
NtRp2412
(dp2413
g62
(dp2414
sg71
g2399
sg64
(lp2415
g57
(g58
g59
NtRp2416
(dp2417
g62
(dp2418
g70
I5
ssg71
g2412
sg64
(lp2419
S'manager/127.0.0.1.2012-11-12.03-08-14.2599bd40-1e5d-44b9-b828-e47d7e934824'
p2420
asbasbasbag57
(g73
g59
NtRp2421
(dp2422
g62
(dp2423
sg71
g67
sg64
(lp2424
g57
(g78
g59
NtRp2425
(dp2426
g62
(dp2427
g82
g83
ssg71
g2421
sg64
(lp2428
S'vars'
p2429
asbag57
(g78
g59
NtRp2430
(dp2431
g62
(dp2432
g89
g90
ssg71
g2421
sg64
(lp2433
S':'
asbag57
(g78
g59
NtRp2434
(dp2435
g62
(dp2436
sg71
g2421
sg64
(lp2437
g57
(g58
g59
NtRp2438
(dp2439
g62
(dp2440
g70
I5
ssg71
g2434
sg64
(lp2441
g57
(g66
g59
NtRp2442
(dp2443
g62
(dp2444
g70
I4
ssg71
Nsg64
(lp2445
sbasbasbasbag57
(g73
g59
NtRp2446
(dp2447
g62
(dp2448
sg71
g67
sg64
(lp2449
g57
(g78
g59
NtRp2450
(dp2451
g62
(dp2452
g82
g83
ssg71
g2446
sg64
(lp2453
S'wsgi'
p2454
asbag57
(g78
g59
NtRp2455
(dp2456
g62
(dp2457
g89
g90
ssg71
g2446
sg64
(lp2458
S':'
asbag57
(g78
g59
NtRp2459
(dp2460
g62
(dp2461
sg71
g2446
sg64
(lp2462
g57
(g58
g59
NtRp2463
(dp2464
g62
(dp2465
g70
I5
ssg71
g2459
sg64
(lp2466
g57
(g66
g59
NtRp2467
(dp2468
g62
(dp2469
g70
I4
ssg71
Nsg64
(lp2470
g57
(g73
g59
NtRp2471
(dp2472
g62
(dp2473
sg71
g2467
sg64
(lp2474
g57
(g78
g59
NtRp2475
(dp2476
g62
(dp2477
g82
g83
ssg71
g2471
sg64
(lp2478
S'environ'
p2479
asbag57
(g78
g59
NtRp2480
(dp2481
g62
(dp2482
g89
g90
ssg71
g2471
sg64
(lp2483
S':'
asbag57
(g78
g59
NtRp2484
(dp2485
g62
(dp2486
sg71
g2471
sg64
(lp2487
g57
(g58
g59
NtRp2488
(dp2489
g62
(dp2490
g70
I4
ssg71
g2484
sg64
(lp2491
g57
(g66
g59
NtRp2492
(dp2493
g62
(dp2494
g70
I3
ssg71
Nsg64
(lp2495
g57
(g73
g59
NtRp2496
(dp2497
g62
(dp2498
sg71
g2492
sg64
(lp2499
g57
(g78
g59
NtRp2500
(dp2501
g62
(dp2502
g82
g83
ssg71
g2496
sg64
(lp2503
S'HTTP_ACCEPT'
p2504
asbag57
(g78
g59
NtRp2505
(dp2506
g62
(dp2507
g89
g90
ssg71
g2496
sg64
(lp2508
S':'
asbag57
(g78
g59
NtRp2509
(dp2510
g62
(dp2511
sg71
g2496
sg64
(lp2512
g57
(g58
g59
NtRp2513
(dp2514
g62
(dp2515
g70
I3
ssg71
g2509
sg64
(lp2516
g1028
asbasbasbag57
(g73
g59
NtRp2517
(dp2518
g62
(dp2519
sg71
g2492
sg64
(lp2520
g57
(g78
g59
NtRp2521
(dp2522
g62
(dp2523
g82
g83
ssg71
g2517
sg64
(lp2524
S'HTTP_ACCEPT_ENCODING'
p2525
asbag57
(g78
g59
NtRp2526
(dp2527
g62
(dp2528
g89
g90
ssg71
g2517
sg64
(lp2529
S':'
asbag57
(g78
g59
NtRp2530
(dp2531
g62
(dp2532
sg71
g2517
sg64
(lp2533
g57
(g58
g59
NtRp2534
(dp2535
g62
(dp2536
g70
I3
ssg71
g2530
sg64
(lp2537
g1050
asbasbasbag57
(g73
g59
NtRp2538
(dp2539
g62
(dp2540
sg71
g2492
sg64
(lp2541
g57
(g78
g59
NtRp2542
(dp2543
g62
(dp2544
g82
g83
ssg71
g2538
sg64
(lp2545
S'HTTP_ACCEPT_LANGUAGE'
p2546
asbag57
(g78
g59
NtRp2547
(dp2548
g62
(dp2549
g89
g90
ssg71
g2538
sg64
(lp2550
S':'
asbag57
(g78
g59
NtRp2551
(dp2552
g62
(dp2553
sg71
g2538
sg64
(lp2554
g57
(g58
g59
NtRp2555
(dp2556
g62
(dp2557
g70
I3
ssg71
g2551
sg64
(lp2558
g1072
asbasbasbag57
(g73
g59
NtRp2559
(dp2560
g62
(dp2561
sg71
g2492
sg64
(lp2562
g57
(g78
g59
NtRp2563
(dp2564
g62
(dp2565
g82
g83
ssg71
g2559
sg64
(lp2566
S'HTTP_CONNECTION'
p2567
asbag57
(g78
g59
NtRp2568
(dp2569
g62
(dp2570
g89
g90
ssg71
g2559
sg64
(lp2571
S':'
asbag57
(g78
g59
NtRp2572
(dp2573
g62
(dp2574
sg71
g2559
sg64
(lp2575
g57
(g58
g59
NtRp2576
(dp2577
g62
(dp2578
g70
I3
ssg71
g2572
sg64
(lp2579
g1094
asbasbasbag57
(g73
g59
NtRp2580
(dp2581
g62
(dp2582
sg71
g2492
sg64
(lp2583
g57
(g78
g59
NtRp2584
(dp2585
g62
(dp2586
g82
g83
ssg71
g2580
sg64
(lp2587
S'HTTP_COOKIE'
p2588
asbag57
(g78
g59
NtRp2589
(dp2590
g62
(dp2591
g89
g90
ssg71
g2580
sg64
(lp2592
S':'
asbag57
(g78
g59
NtRp2593
(dp2594
g62
(dp2595
sg71
g2580
sg64
(lp2596
g57
(g58
g59
NtRp2597
(dp2598
g62
(dp2599
g70
I3
ssg71
g2593
sg64
(lp2600
g1116
asbasbasbag57
(g73
g59
NtRp2601
(dp2602
g62
(dp2603
sg71
g2492
sg64
(lp2604
g57
(g78
g59
NtRp2605
(dp2606
g62
(dp2607
g82
g83
ssg71
g2601
sg64
(lp2608
S'HTTP_HOST'
p2609
asbag57
(g78
g59
NtRp2610
(dp2611
g62
(dp2612
g89
g90
ssg71
g2601
sg64
(lp2613
S':'
asbag57
(g78
g59
NtRp2614
(dp2615
g62
(dp2616
sg71
g2601
sg64
(lp2617
g57
(g58
g59
NtRp2618
(dp2619
g62
(dp2620
g70
I3
ssg71
g2614
sg64
(lp2621
g1138
asbasbasbag57
(g73
g59
NtRp2622
(dp2623
g62
(dp2624
sg71
g2492
sg64
(lp2625
g57
(g78
g59
NtRp2626
(dp2627
g62
(dp2628
g82
g83
ssg71
g2622
sg64
(lp2629
S'HTTP_REFERER'
p2630
asbag57
(g78
g59
NtRp2631
(dp2632
g62
(dp2633
g89
g90
ssg71
g2622
sg64
(lp2634
S':'
asbag57
(g78
g59
NtRp2635
(dp2636
g62
(dp2637
sg71
g2622
sg64
(lp2638
g57
(g58
g59
NtRp2639
(dp2640
g62
(dp2641
g70
I3
ssg71
g2635
sg64
(lp2642
g1160
asbasbasbag57
(g73
g59
NtRp2643
(dp2644
g62
(dp2645
sg71
g2492
sg64
(lp2646
g57
(g78
g59
NtRp2647
(dp2648
g62
(dp2649
g82
g83
ssg71
g2643
sg64
(lp2650
S'HTTP_USER_AGENT'
p2651
asbag57
(g78
g59
NtRp2652
(dp2653
g62
(dp2654
g89
g90
ssg71
g2643
sg64
(lp2655
S':'
asbag57
(g78
g59
NtRp2656
(dp2657
g62
(dp2658
sg71
g2643
sg64
(lp2659
g57
(g58
g59
NtRp2660
(dp2661
g62
(dp2662
g70
I3
ssg71
g2656
sg64
(lp2663
g1182
asbasbasbag57
(g73
g59
NtRp2664
(dp2665
g62
(dp2666
sg71
g2492
sg64
(lp2667
g57
(g78
g59
NtRp2668
(dp2669
g62
(dp2670
g82
g83
ssg71
g2664
sg64
(lp2671
S'PATH_INFO'
p2672
asbag57
(g78
g59
NtRp2673
(dp2674
g62
(dp2675
g89
g90
ssg71
g2664
sg64
(lp2676
S':'
asbag57
(g78
g59
NtRp2677
(dp2678
g62
(dp2679
sg71
g2664
sg64
(lp2680
g57
(g58
g59
NtRp2681
(dp2682
g62
(dp2683
g70
I3
ssg71
g2677
sg64
(lp2684
g1246
asbasbasbag57
(g73
g59
NtRp2685
(dp2686
g62
(dp2687
sg71
g2492
sg64
(lp2688
g57
(g78
g59
NtRp2689
(dp2690
g62
(dp2691
g82
g83
ssg71
g2685
sg64
(lp2692
S'QUERY_STRING'
p2693
asbag57
(g78
g59
NtRp2694
(dp2695
g62
(dp2696
g89
g90
ssg71
g2685
sg64
(lp2697
S':'
asbag57
(g78
g59
NtRp2698
(dp2699
g62
(dp2700
sg71
g2685
sg64
(lp2701
g57
(g58
g59
NtRp2702
(dp2703
g62
(dp2704
g70
I3
ssg71
g2698
sg64
(lp2705
S''
asbasbasbag57
(g73
g59
NtRp2706
(dp2707
g62
(dp2708
sg71
g2492
sg64
(lp2709
g57
(g78
g59
NtRp2710
(dp2711
g62
(dp2712
g82
g83
ssg71
g2706
sg64
(lp2713
S'REMOTE_ADDR'
p2714
asbag57
(g78
g59
NtRp2715
(dp2716
g62
(dp2717
g89
g90
ssg71
g2706
sg64
(lp2718
S':'
asbag57
(g78
g59
NtRp2719
(dp2720
g62
(dp2721
sg71
g2706
sg64
(lp2722
g57
(g58
g59
NtRp2723
(dp2724
g62
(dp2725
g70
I3
ssg71
g2719
sg64
(lp2726
g212
asbasbasbag57
(g73
g59
NtRp2727
(dp2728
g62
(dp2729
sg71
g2492
sg64
(lp2730
g57
(g78
g59
NtRp2731
(dp2732
g62
(dp2733
g82
g83
ssg71
g2727
sg64
(lp2734
S'REMOTE_PORT'
p2735
asbag57
(g78
g59
NtRp2736
(dp2737
g62
(dp2738
g89
g90
ssg71
g2727
sg64
(lp2739
S':'
asbag57
(g78
g59
NtRp2740
(dp2741
g62
(dp2742
sg71
g2727
sg64
(lp2743
g57
(g58
g59
NtRp2744
(dp2745
g62
(dp2746
g70
I3
ssg71
g2740
sg64
(lp2747
g1310
asbasbasbag57
(g73
g59
NtRp2748
(dp2749
g62
(dp2750
sg71
g2492
sg64
(lp2751
g57
(g78
g59
NtRp2752
(dp2753
g62
(dp2754
g82
g83
ssg71
g2748
sg64
(lp2755
S'REQUEST_METHOD'
p2756
asbag57
(g78
g59
NtRp2757
(dp2758
g62
(dp2759
g89
g90
ssg71
g2748
sg64
(lp2760
S':'
asbag57
(g78
g59
NtRp2761
(dp2762
g62
(dp2763
sg71
g2748
sg64
(lp2764
g57
(g58
g59
NtRp2765
(dp2766
g62
(dp2767
g70
I3
ssg71
g2761
sg64
(lp2768
g1332
asbasbasbag57
(g73
g59
NtRp2769
(dp2770
g62
(dp2771
sg71
g2492
sg64
(lp2772
g57
(g78
g59
NtRp2773
(dp2774
g62
(dp2775
g82
g83
ssg71
g2769
sg64
(lp2776
S'REQUEST_URI'
p2777
asbag57
(g78
g59
NtRp2778
(dp2779
g62
(dp2780
g89
g90
ssg71
g2769
sg64
(lp2781
S':'
asbag57
(g78
g59
NtRp2782
(dp2783
g62
(dp2784
sg71
g2769
sg64
(lp2785
g57
(g58
g59
NtRp2786
(dp2787
g62
(dp2788
g70
I3
ssg71
g2782
sg64
(lp2789
g1246
asbasbasbag57
(g73
g59
NtRp2790
(dp2791
g62
(dp2792
sg71
g2492
sg64
(lp2793
g57
(g78
g59
NtRp2794
(dp2795
g62
(dp2796
g82
g83
ssg71
g2790
sg64
(lp2797
S'SCRIPT_NAME'
p2798
asbag57
(g78
g59
NtRp2799
(dp2800
g62
(dp2801
g89
g90
ssg71
g2790
sg64
(lp2802
S':'
asbag57
(g78
g59
NtRp2803
(dp2804
g62
(dp2805
sg71
g2790
sg64
(lp2806
g57
(g58
g59
NtRp2807
(dp2808
g62
(dp2809
g70
I3
ssg71
g2803
sg64
(lp2810
S''
asbasbasbag57
(g73
g59
NtRp2811
(dp2812
g62
(dp2813
sg71
g2492
sg64
(lp2814
g57
(g78
g59
NtRp2815
(dp2816
g62
(dp2817
g82
g83
ssg71
g2811
sg64
(lp2818
S'SERVER_NAME'
p2819
asbag57
(g78
g59
NtRp2820
(dp2821
g62
(dp2822
g89
g90
ssg71
g2811
sg64
(lp2823
S':'
asbag57
(g78
g59
NtRp2824
(dp2825
g62
(dp2826
sg71
g2811
sg64
(lp2827
g57
(g58
g59
NtRp2828
(dp2829
g62
(dp2830
g70
I3
ssg71
g2824
sg64
(lp2831
g1396
asbasbasbag57
(g73
g59
NtRp2832
(dp2833
g62
(dp2834
sg71
g2492
sg64
(lp2835
g57
(g78
g59
NtRp2836
(dp2837
g62
(dp2838
g82
g83
ssg71
g2832
sg64
(lp2839
S'SERVER_PORT'
p2840
asbag57
(g78
g59
NtRp2841
(dp2842
g62
(dp2843
g89
g90
ssg71
g2832
sg64
(lp2844
S':'
asbag57
(g78
g59
NtRp2845
(dp2846
g62
(dp2847
sg71
g2832
sg64
(lp2848
g57
(g58
g59
NtRp2849
(dp2850
g62
(dp2851
g70
I3
ssg71
g2845
sg64
(lp2852
g1418
asbasbasbag57
(g73
g59
NtRp2853
(dp2854
g62
(dp2855
sg71
g2492
sg64
(lp2856
g57
(g78
g59
NtRp2857
(dp2858
g62
(dp2859
g82
g83
ssg71
g2853
sg64
(lp2860
S'SERVER_PROTOCOL'
p2861
asbag57
(g78
g59
NtRp2862
(dp2863
g62
(dp2864
g89
g90
ssg71
g2853
sg64
(lp2865
S':'
asbag57
(g78
g59
NtRp2866
(dp2867
g62
(dp2868
sg71
g2853
sg64
(lp2869
g57
(g58
g59
NtRp2870
(dp2871
g62
(dp2872
g70
I3
ssg71
g2866
sg64
(lp2873
g1440
asbasbasbag57
(g73
g59
NtRp2874
(dp2875
g62
(dp2876
sg71
g2492
sg64
(lp2877
g57
(g78
g59
NtRp2878
(dp2879
g62
(dp2880
g82
g83
ssg71
g2874
sg64
(lp2881
S'SERVER_SOFTWARE'
p2882
asbag57
(g78
g59
NtRp2883
(dp2884
g62
(dp2885
g89
g90
ssg71
g2874
sg64
(lp2886
S':'
asbag57
(g78
g59
NtRp2887
(dp2888
g62
(dp2889
sg71
g2874
sg64
(lp2890
g57
(g58
g59
NtRp2891
(dp2892
g62
(dp2893
g70
I3
ssg71
g2887
sg64
(lp2894
g1462
asbasbasbag57
(g73
g59
NtRp2895
(dp2896
g62
(dp2897
sg71
g2492
sg64
(lp2898
g57
(g78
g59
NtRp2899
(dp2900
g62
(dp2901
g82
g83
ssg71
g2895
sg64
(lp2902
S'wsgi.errors'
p2903
asbag57
(g78
g59
NtRp2904
(dp2905
g62
(dp2906
g89
g90
ssg71
g2895
sg64
(lp2907
S':'
asbag57
(g78
g59
NtRp2908
(dp2909
g62
(dp2910
sg71
g2895
sg64
(lp2911
g57
(g58
g59
NtRp2912
(dp2913
g62
(dp2914
g70
I3
ssg71
g2908
sg64
(lp2915
S"<open file '<stderr>', mode 'w' at 0x7f1dd399e270>"
p2916
asbasbasbag57
(g73
g59
NtRp2917
(dp2918
g62
(dp2919
sg71
g2492
sg64
(lp2920
g57
(g78
g59
NtRp2921
(dp2922
g62
(dp2923
g82
g83
ssg71
g2917
sg64
(lp2924
S'wsgi.file_wrapper'
p2925
asbag57
(g78
g59
NtRp2926
(dp2927
g62
(dp2928
g89
g90
ssg71
g2917
sg64
(lp2929
S':'
asbag57
(g78
g59
NtRp2930
(dp2931
g62
(dp2932
sg71
g2917
sg64
(lp2933
g57
(g58
g59
NtRp2934
(dp2935
g62
(dp2936
g70
I3
ssg71
g2930
sg64
(lp2937
S'<class wsgiref.util.FileWrapper at 0x1b5aa78>'
p2938
asbasbasbag57
(g73
g59
NtRp2939
(dp2940
g62
(dp2941
sg71
g2492
sg64
(lp2942
g57
(g78
g59
NtRp2943
(dp2944
g62
(dp2945
g82
g83
ssg71
g2939
sg64
(lp2946
S'wsgi.input'
p2947
asbag57
(g78
g59
NtRp2948
(dp2949
g62
(dp2950
g89
g90
ssg71
g2939
sg64
(lp2951
S':'
asbag57
(g78
g59
NtRp2952
(dp2953
g62
(dp2954
sg71
g2939
sg64
(lp2955
g57
(g58
g59
NtRp2956
(dp2957
g62
(dp2958
g70
I3
ssg71
g2952
sg64
(lp2959
S'<cStringIO.StringO object at 0x7f1da81dbea0>'
p2960
asbasbasbag57
(g73
g59
NtRp2961
(dp2962
g62
(dp2963
sg71
g2492
sg64
(lp2964
g57
(g78
g59
NtRp2965
(dp2966
g62
(dp2967
g82
g83
ssg71
g2961
sg64
(lp2968
S'wsgi.multiprocess'
p2969
asbag57
(g78
g59
NtRp2970
(dp2971
g62
(dp2972
g89
g90
ssg71
g2961
sg64
(lp2973
S':'
asbag57
(g78
g59
NtRp2974
(dp2975
g62
(dp2976
sg71
g2961
sg64
(lp2977
g57
(g58
g59
NtRp2978
(dp2979
g62
(dp2980
g70
I3
ssg71
g2974
sg64
(lp2981
g100
asbasbasbag57
(g73
g59
NtRp2982
(dp2983
g62
(dp2984
sg71
g2492
sg64
(lp2985
g57
(g78
g59
NtRp2986
(dp2987
g62
(dp2988
g82
g83
ssg71
g2982
sg64
(lp2989
S'wsgi.multithread'
p2990
asbag57
(g78
g59
NtRp2991
(dp2992
g62
(dp2993
g89
g90
ssg71
g2982
sg64
(lp2994
S':'
asbag57
(g78
g59
NtRp2995
(dp2996
g62
(dp2997
sg71
g2982
sg64
(lp2998
g57
(g58
g59
NtRp2999
(dp3000
g62
(dp3001
g70
I3
ssg71
g2995
sg64
(lp3002
g1701
asbasbasbag57
(g73
g59
NtRp3003
(dp3004
g62
(dp3005
sg71
g2492
sg64
(lp3006
g57
(g78
g59
NtRp3007
(dp3008
g62
(dp3009
g82
g83
ssg71
g3003
sg64
(lp3010
S'wsgi.run_once'
p3011
asbag57
(g78
g59
NtRp3012
(dp3013
g62
(dp3014
g89
g90
ssg71
g3003
sg64
(lp3015
S':'
asbag57
(g78
g59
NtRp3016
(dp3017
g62
(dp3018
sg71
g3003
sg64
(lp3019
g57
(g58
g59
NtRp3020
(dp3021
g62
(dp3022
g70
I3
ssg71
g3016
sg64
(lp3023
g100
asbasbasbag57
(g73
g59
NtRp3024
(dp3025
g62
(dp3026
sg71
g2492
sg64
(lp3027
g57
(g78
g59
NtRp3028
(dp3029
g62
(dp3030
g82
g83
ssg71
g3024
sg64
(lp3031
S'wsgi.url_scheme'
p3032
asbag57
(g78
g59
NtRp3033
(dp3034
g62
(dp3035
g89
g90
ssg71
g3024
sg64
(lp3036
S':'
asbag57
(g78
g59
NtRp3037
(dp3038
g62
(dp3039
sg71
g3024
sg64
(lp3040
g57
(g58
g59
NtRp3041
(dp3042
g62
(dp3043
g70
I3
ssg71
g3037
sg64
(lp3044
g1744
asbasbasbag57
(g73
g59
NtRp3045
(dp3046
g62
(dp3047
sg71
g2492
sg64
(lp3048
g57
(g78
g59
NtRp3049
(dp3050
g62
(dp3051
g82
g83
ssg71
g3045
sg64
(lp3052
S'wsgi.version'
p3053
asbag57
(g78
g59
NtRp3054
(dp3055
g62
(dp3056
g89
g90
ssg71
g3045
sg64
(lp3057
S':'
asbag57
(g78
g59
NtRp3058
(dp3059
g62
(dp3060
sg71
g3045
sg64
(lp3061
g57
(g58
g59
NtRp3062
(dp3063
g62
(dp3064
g70
I3
ssg71
g3058
sg64
(lp3065
S'1'
asbasbasbasbasbasbasbasbasbasbasbasbasbsS'frames'
p3066
(lp3067
(dp3068
S'file'
p3069
S'/home/madhuri/Downloads/web2py/gluon/restricted.py'
p3070
sS'dump'
p3071
(dp3072
S'environment'
p3073
S"{'A': <class 'gluon.html.A'>, 'Auth': <class 'gluon.tools.Auth'>, 'B': <class 'gluon.html.B'>, 'BEAUTIFY': <class 'gluon.html.BEAUTIFY'>, 'BODY': <class 'gluon.html.BODY'>, 'BR': <class 'gluon.html.BR'>, 'BUTTON': <class 'gluon.html.BUTTON'>, 'CAS': <Storage {'check_url': 'https://login.iiit.ac.in...: 'http://127.0.0.1:8000/manager/default/login'}>, 'CAT': <class 'gluon.html.CAT'>, 'CENTER': <class 'gluon.html.CENTER'>, ...}"
p3074
sS'ccode'
p3075
S'<code object <module> at 0x7f1dc05f9db0, file "/...ations/manager/views/default/drop1.html", line 1>'
p3076
ssS'lnum'
p3077
I209
sS'lines'
p3078
(dp3079
I204
S'    try:'
p3080
sI205
S'        if type(code) == types.CodeType:'
p3081
sI206
S'            ccode = code'
p3082
sI207
S'        else:'
p3083
sI208
S'            ccode = compile2(code,layer)'
p3084
sI209
S'        exec ccode in environment'
p3085
sI210
S'    except HTTP:'
p3086
sI211
S'        raise'
p3087
sI212
S'    except RestrictedError:'
p3088
sI213
S'        # do not encapsulate (obfuscate) the original RestrictedError'
p3089
ssS'call'
p3090
S'(code=\'response.write(\\\'<!DOCTYPE html PUBLIC "-//W3C//D...v>\\\\n  </div>\\\\n </body>\\\\n</html>\\\\n\\\', escape=False)\', environment={\'A\': <class \'gluon.html.A\'>, \'Auth\': <class \'gluon.tools.Auth\'>, \'B\': <class \'gluon.html.B\'>, \'BEAUTIFY\': <class \'gluon.html.BEAUTIFY\'>, \'BODY\': <class \'gluon.html.BODY\'>, \'BR\': <class \'gluon.html.BR\'>, \'BUTTON\': <class \'gluon.html.BUTTON\'>, \'CAS\': <Storage {\'check_url\': \'https://login.iiit.ac.in...: \'http://127.0.0.1:8000/manager/default/login\'}>, \'CAT\': <class \'gluon.html.CAT\'>, \'CENTER\': <class \'gluon.html.CENTER\'>, ...}, layer=\'/home/madhuri/Downloads/web2py/applications/manager/views/default/drop1.html\')'
p3091
sS'func'
p3092
S'restricted'
p3093
sa(dp3094
g3069
S'/home/madhuri/Downloads/web2py/applications/manager/views/default/drop1.html'
p3095
sg3071
(dp3096
sg3077
I94
sg3078
(dp3097
I96
S'    pass'
p3098
sI97
S"response.write('\\n', escape=False)"
p3099
sI98
S'response.write(\'\\n    </div>\\n    <!-- end main -->\\n    <!-- footer -->\\n    <div id="footer">\\n     <div id="left_footer">\\n      &copy; Copyright 2008 Your website\\n     </div>\\n     <div id="right_footer">\\n      <!-- Please do not change or delete this links. Read the license! Thanks. :-) -->\\n      <a href="http://www.realitysoftware.ca/website-design.html">\\n       Website design\\n      </a>\\n      by\\n      <a href="http://www.realitysoftware.ca">\\n       Reality Software\\n      </a>\\n     </div>\\n    </div>\\n    <!-- end footer -->\\n   </div>\\n  </div>\\n </body>\\n</html>\\n\', escape=False)'
p3100
sI85
S"response.write('\\n', escape=False)"
p3101
sI86
S'if id1 != 0 :'
p3102
sI87
S"    response.write('\\n<h2> You have successfully completed the allotment for the year </h2> ', escape=False)"
p3103
sI88
S'    response.write(award.year)'
p3104
sI89
S"    response.write('\\n', escape=False)"
p3105
sI90
S'    pass'
p3106
sI91
S"response.write('\\n', escape=False)"
p3107
sI92
S'if id1 == 0:'
p3108
sI93
S"    response.write('\\n<h2> Please enter year and amount to continue </h2> ', escape=False)"
p3109
sI94
S'    response.write(award.year)'
p3110
sI95
S"    response.write('\\n', escape=False)"
p3111
ssg3090
S'()'
p3112
sg3092
S'<module>'
p3113
sasS'pyver'
p3114
S'Python 2.7.3: /usr/bin/python'
p3115
sS'session'
p3116
g57
(g58
g59
NtRp3117
(dp3118
g62
(dp3119
sg64
(lp3120
g57
(g66
g59
NtRp3121
(dp3122
g62
(dp3123
g70
I5
ssg71
Nsg64
(lp3124
g57
(g73
g59
NtRp3125
(dp3126
g62
(dp3127
sg71
g3121
sg64
(lp3128
g57
(g78
g59
NtRp3129
(dp3130
g62
(dp3131
g82
g83
ssg71
g3125
sg64
(lp3132
S'LOGGEDIN'
p3133
asbag57
(g78
g59
NtRp3134
(dp3135
g62
(dp3136
g89
g90
ssg71
g3125
sg64
(lp3137
S':'
asbag57
(g78
g59
NtRp3138
(dp3139
g62
(dp3140
sg71
g3125
sg64
(lp3141
g57
(g58
g59
NtRp3142
(dp3143
g62
(dp3144
g70
I5
ssg71
g3138
sg64
(lp3145
S'0'
asbasbasbag57
(g73
g59
NtRp3146
(dp3147
g62
(dp3148
sg71
g3121
sg64
(lp3149
g57
(g78
g59
NtRp3150
(dp3151
g62
(dp3152
g82
g83
ssg71
g3146
sg64
(lp3153
S'auth'
p3154
asbag57
(g78
g59
NtRp3155
(dp3156
g62
(dp3157
g89
g90
ssg71
g3146
sg64
(lp3158
S':'
asbag57
(g78
g59
NtRp3159
(dp3160
g62
(dp3161
sg71
g3146
sg64
(lp3162
g57
(g58
g59
NtRp3163
(dp3164
g62
(dp3165
g70
I5
ssg71
g3159
sg64
(lp3166
S'None'
p3167
asbasbasbag57
(g73
g59
NtRp3168
(dp3169
g62
(dp3170
sg71
g3121
sg64
(lp3171
g57
(g78
g59
NtRp3172
(dp3173
g62
(dp3174
g82
g83
ssg71
g3168
sg64
(lp3175
S'flash'
p3176
asbag57
(g78
g59
NtRp3177
(dp3178
g62
(dp3179
g89
g90
ssg71
g3168
sg64
(lp3180
S':'
asbag57
(g78
g59
NtRp3181
(dp3182
g62
(dp3183
sg71
g3168
sg64
(lp3184
g57
(g58
g59
NtRp3185
(dp3186
g62
(dp3187
g70
I5
ssg71
g3181
sg64
(lp3188
S'None'
p3189
asbasbasbag57
(g73
g59
NtRp3190
(dp3191
g62
(dp3192
sg71
g3121
sg64
(lp3193
g57
(g78
g59
NtRp3194
(dp3195
g62
(dp3196
g82
g83
ssg71
g3190
sg64
(lp3197
S'last_orderby'
p3198
asbag57
(g78
g59
NtRp3199
(dp3200
g62
(dp3201
g89
g90
ssg71
g3190
sg64
(lp3202
S':'
asbag57
(g78
g59
NtRp3203
(dp3204
g62
(dp3205
sg71
g3190
sg64
(lp3206
g57
(g58
g59
NtRp3207
(dp3208
g62
(dp3209
g70
I5
ssg71
g3203
sg64
(lp3210
S'None'
p3211
asbasbasbag57
(g73
g59
NtRp3212
(dp3213
g62
(dp3214
sg71
g3121
sg64
(lp3215
g57
(g78
g59
NtRp3216
(dp3217
g62
(dp3218
g82
g83
ssg71
g3212
sg64
(lp3219
S'last_query'
p3220
asbag57
(g78
g59
NtRp3221
(dp3222
g62
(dp3223
g89
g90
ssg71
g3212
sg64
(lp3224
S':'
asbag57
(g78
g59
NtRp3225
(dp3226
g62
(dp3227
sg71
g3212
sg64
(lp3228
g57
(g58
g59
NtRp3229
(dp3230
g62
(dp3231
g70
I5
ssg71
g3225
sg64
(lp3232
S'db.Book.id>0'
p3233
asbasbasbag57
(g73
g59
NtRp3234
(dp3235
g62
(dp3236
sg71
g3121
sg64
(lp3237
g57
(g78
g59
NtRp3238
(dp3239
g62
(dp3240
g82
g83
ssg71
g3234
sg64
(lp3241
S'login'
p3242
asbag57
(g78
g59
NtRp3243
(dp3244
g62
(dp3245
g89
g90
ssg71
g3234
sg64
(lp3246
S':'
asbag57
(g78
g59
NtRp3247
(dp3248
g62
(dp3249
sg71
g3234
sg64
(lp3250
g57
(g58
g59
NtRp3251
(dp3252
g62
(dp3253
g70
I5
ssg71
g3247
sg64
(lp3254
S'0'
asbasbasbag57
(g73
g59
NtRp3255
(dp3256
g62
(dp3257
sg71
g3121
sg64
(lp3258
g57
(g78
g59
NtRp3259
(dp3260
g62
(dp3261
g82
g83
ssg71
g3255
sg64
(lp3262
S'token'
p3263
asbag57
(g78
g59
NtRp3264
(dp3265
g62
(dp3266
g89
g90
ssg71
g3255
sg64
(lp3267
S':'
asbag57
(g78
g59
NtRp3268
(dp3269
g62
(dp3270
sg71
g3255
sg64
(lp3271
g57
(g58
g59
NtRp3272
(dp3273
g62
(dp3274
g70
I5
ssg71
g3268
sg64
(lp3275
S'neeharikak.v@students.iiit.ac.in'
p3276
asbasbasbasbasbsS'etype'
p3277
S"<type 'exceptions.AttributeError'>"
p3278
sS'date'
p3279
S'Mon Nov 12 03:08:14 2012'
p3280
sS'response'
p3281
g57
(g58
g59
NtRp3282
(dp3283
g62
(dp3284
sg64
(lp3285
g57
(g66
g59
NtRp3286
(dp3287
g62
(dp3288
g70
I5
ssg71
Nsg64
(lp3289
g57
(g73
g59
NtRp3290
(dp3291
g62
(dp3292
sg71
g3286
sg64
(lp3293
g57
(g78
g59
NtRp3294
(dp3295
g62
(dp3296
g82
g83
ssg71
g3290
sg64
(lp3297
g155
asbag57
(g78
g59
NtRp3298
(dp3299
g62
(dp3300
g89
g90
ssg71
g3290
sg64
(lp3301
S':'
asbag57
(g78
g59
NtRp3302
(dp3303
g62
(dp3304
sg71
g3290
sg64
(lp3305
g57
(g58
g59
NtRp3306
(dp3307
g62
(dp3308
g70
I5
ssg71
g3302
sg64
(lp3309
S'<cStringIO.StringO object at 0x7f1da0122650>'
p3310
asbasbasbag57
(g73
g59
NtRp3311
(dp3312
g62
(dp3313
sg71
g3286
sg64
(lp3314
g57
(g78
g59
NtRp3315
(dp3316
g62
(dp3317
g82
g83
ssg71
g3311
sg64
(lp3318
g243
asbag57
(g78
g59
NtRp3319
(dp3320
g62
(dp3321
g89
g90
ssg71
g3311
sg64
(lp3322
S':'
asbag57
(g78
g59
NtRp3323
(dp3324
g62
(dp3325
sg71
g3311
sg64
(lp3326
g57
(g58
g59
NtRp3327
(dp3328
g62
(dp3329
g70
I5
ssg71
g3323
sg64
(lp3330
g57
(g66
g59
NtRp3331
(dp3332
g62
(dp3333
g70
I4
ssg71
Nsg64
(lp3334
g57
(g73
g59
NtRp3335
(dp3336
g62
(dp3337
sg71
g3331
sg64
(lp3338
g57
(g78
g59
NtRp3339
(dp3340
g62
(dp3341
g82
g83
ssg71
g3335
sg64
(lp3342
S'session_id_manager'
p3343
asbag57
(g78
g59
NtRp3344
(dp3345
g62
(dp3346
g89
g90
ssg71
g3335
sg64
(lp3347
S':'
asbag57
(g78
g59
NtRp3348
(dp3349
g62
(dp3350
sg71
g3335
sg64
(lp3351
g57
(g58
g59
NtRp3352
(dp3353
g62
(dp3354
g70
I4
ssg71
g3348
sg64
(lp3355
g475
ag57
(g66
g59
NtRp3356
(dp3357
g62
(dp3358
g70
I3
ssg71
Nsg64
(lp3359
g57
(g73
g59
NtRp3360
(dp3361
g62
(dp3362
sg71
g3356
sg64
(lp3363
g57
(g78
g59
NtRp3364
(dp3365
g62
(dp3366
g82
g83
ssg71
g3360
sg64
(lp3367
g294
asbag57
(g78
g59
NtRp3368
(dp3369
g62
(dp3370
g89
g90
ssg71
g3360
sg64
(lp3371
S':'
asbag57
(g78
g59
NtRp3372
(dp3373
g62
(dp3374
sg71
g3360
sg64
(lp3375
g57
(g58
g59
NtRp3376
(dp3377
g62
(dp3378
g70
I3
ssg71
g3372
sg64
(lp3379
S''
asbasbasbag57
(g73
g59
NtRp3380
(dp3381
g62
(dp3382
sg71
g3356
sg64
(lp3383
g57
(g78
g59
NtRp3384
(dp3385
g62
(dp3386
g82
g83
ssg71
g3380
sg64
(lp3387
g315
asbag57
(g78
g59
NtRp3388
(dp3389
g62
(dp3390
g89
g90
ssg71
g3380
sg64
(lp3391
S':'
asbag57
(g78
g59
NtRp3392
(dp3393
g62
(dp3394
sg71
g3380
sg64
(lp3395
g57
(g58
g59
NtRp3396
(dp3397
g62
(dp3398
g70
I3
ssg71
g3392
sg64
(lp3399
S''
asbasbasbag57
(g73
g59
NtRp3400
(dp3401
g62
(dp3402
sg71
g3356
sg64
(lp3403
g57
(g78
g59
NtRp3404
(dp3405
g62
(dp3406
g82
g83
ssg71
g3400
sg64
(lp3407
g336
asbag57
(g78
g59
NtRp3408
(dp3409
g62
(dp3410
g89
g90
ssg71
g3400
sg64
(lp3411
S':'
asbag57
(g78
g59
NtRp3412
(dp3413
g62
(dp3414
sg71
g3400
sg64
(lp3415
g57
(g58
g59
NtRp3416
(dp3417
g62
(dp3418
g70
I3
ssg71
g3412
sg64
(lp3419
S''
asbasbasbag57
(g73
g59
NtRp3420
(dp3421
g62
(dp3422
sg71
g3356
sg64
(lp3423
g57
(g78
g59
NtRp3424
(dp3425
g62
(dp3426
g82
g83
ssg71
g3420
sg64
(lp3427
g357
asbag57
(g78
g59
NtRp3428
(dp3429
g62
(dp3430
g89
g90
ssg71
g3420
sg64
(lp3431
S':'
asbag57
(g78
g59
NtRp3432
(dp3433
g62
(dp3434
sg71
g3420
sg64
(lp3435
g57
(g58
g59
NtRp3436
(dp3437
g62
(dp3438
g70
I3
ssg71
g3432
sg64
(lp3439
S''
asbasbasbag57
(g73
g59
NtRp3440
(dp3441
g62
(dp3442
sg71
g3356
sg64
(lp3443
g57
(g78
g59
NtRp3444
(dp3445
g62
(dp3446
g82
g83
ssg71
g3440
sg64
(lp3447
g378
asbag57
(g78
g59
NtRp3448
(dp3449
g62
(dp3450
g89
g90
ssg71
g3440
sg64
(lp3451
S':'
asbag57
(g78
g59
NtRp3452
(dp3453
g62
(dp3454
sg71
g3440
sg64
(lp3455
g57
(g58
g59
NtRp3456
(dp3457
g62
(dp3458
g70
I3
ssg71
g3452
sg64
(lp3459
S''
asbasbasbag57
(g73
g59
NtRp3460
(dp3461
g62
(dp3462
sg71
g3356
sg64
(lp3463
g57
(g78
g59
NtRp3464
(dp3465
g62
(dp3466
g82
g83
ssg71
g3460
sg64
(lp3467
g399
asbag57
(g78
g59
NtRp3468
(dp3469
g62
(dp3470
g89
g90
ssg71
g3460
sg64
(lp3471
S':'
asbag57
(g78
g59
NtRp3472
(dp3473
g62
(dp3474
sg71
g3460
sg64
(lp3475
g57
(g58
g59
NtRp3476
(dp3477
g62
(dp3478
g70
I3
ssg71
g3472
sg64
(lp3479
S'/'
asbasbasbag57
(g73
g59
NtRp3480
(dp3481
g62
(dp3482
sg71
g3356
sg64
(lp3483
g57
(g78
g59
NtRp3484
(dp3485
g62
(dp3486
g82
g83
ssg71
g3480
sg64
(lp3487
g420
asbag57
(g78
g59
NtRp3488
(dp3489
g62
(dp3490
g89
g90
ssg71
g3480
sg64
(lp3491
S':'
asbag57
(g78
g59
NtRp3492
(dp3493
g62
(dp3494
sg71
g3480
sg64
(lp3495
g57
(g58
g59
NtRp3496
(dp3497
g62
(dp3498
g70
I3
ssg71
g3492
sg64
(lp3499
S''
asbasbasbag57
(g73
g59
NtRp3500
(dp3501
g62
(dp3502
sg71
g3356
sg64
(lp3503
g57
(g78
g59
NtRp3504
(dp3505
g62
(dp3506
g82
g83
ssg71
g3500
sg64
(lp3507
g441
asbag57
(g78
g59
NtRp3508
(dp3509
g62
(dp3510
g89
g90
ssg71
g3500
sg64
(lp3511
S':'
asbag57
(g78
g59
NtRp3512
(dp3513
g62
(dp3514
sg71
g3500
sg64
(lp3515
g57
(g58
g59
NtRp3516
(dp3517
g62
(dp3518
g70
I3
ssg71
g3512
sg64
(lp3519
S''
asbasbasbasbasbasbasbasbasbasbasbag57
(g73
g59
NtRp3520
(dp3521
g62
(dp3522
sg71
g3286
sg64
(lp3523
g57
(g78
g59
NtRp3524
(dp3525
g62
(dp3526
g82
g83
ssg71
g3520
sg64
(lp3527
S'delimiters'
p3528
asbag57
(g78
g59
NtRp3529
(dp3530
g62
(dp3531
g89
g90
ssg71
g3520
sg64
(lp3532
S':'
asbag57
(g78
g59
NtRp3533
(dp3534
g62
(dp3535
sg71
g3520
sg64
(lp3536
g57
(g58
g59
NtRp3537
(dp3538
g62
(dp3539
g70
I5
ssg71
g3533
sg64
(lp3540
g57
(g66
g59
NtRp3541
(dp3542
g62
(dp3543
g70
I4
ssg71
Nsg64
(lp3544
g57
(g73
g59
NtRp3545
(dp3546
g62
(dp3547
sg71
g3541
sg64
(lp3548
g57
(g78
g59
NtRp3549
(dp3550
g62
(dp3551
sg71
g3545
sg64
(lp3552
g57
(g58
g59
NtRp3553
(dp3554
g62
(dp3555
g70
I4
ssg71
g3549
sg64
(lp3556
S'{{'
p3557
asbasbasbag57
(g73
g59
NtRp3558
(dp3559
g62
(dp3560
sg71
g3541
sg64
(lp3561
g57
(g78
g59
NtRp3562
(dp3563
g62
(dp3564
sg71
g3558
sg64
(lp3565
g57
(g58
g59
NtRp3566
(dp3567
g62
(dp3568
g70
I4
ssg71
g3562
sg64
(lp3569
S'}}'
p3570
asbasbasbasbasbasbasbag57
(g73
g59
NtRp3571
(dp3572
g62
(dp3573
sg71
g3286
sg64
(lp3574
g57
(g78
g59
NtRp3575
(dp3576
g62
(dp3577
g82
g83
ssg71
g3571
sg64
(lp3578
S'files'
p3579
asbag57
(g78
g59
NtRp3580
(dp3581
g62
(dp3582
g89
g90
ssg71
g3571
sg64
(lp3583
S':'
asbag57
(g78
g59
NtRp3584
(dp3585
g62
(dp3586
sg71
g3571
sg64
(lp3587
g57
(g58
g59
NtRp3588
(dp3589
g62
(dp3590
g70
I5
ssg71
g3584
sg64
(lp3591
g57
(g66
g59
NtRp3592
(dp3593
g62
(dp3594
g70
I4
ssg71
Nsg64
(lp3595
g57
(g73
g59
NtRp3596
(dp3597
g62
(dp3598
sg71
g3592
sg64
(lp3599
g57
(g78
g59
NtRp3600
(dp3601
g62
(dp3602
sg71
g3596
sg64
(lp3603
g57
(g58
g59
NtRp3604
(dp3605
g62
(dp3606
g70
I4
ssg71
g3600
sg64
(lp3607
S'/manager/static/js/jquery.js'
p3608
asbasbasbag57
(g73
g59
NtRp3609
(dp3610
g62
(dp3611
sg71
g3592
sg64
(lp3612
g57
(g78
g59
NtRp3613
(dp3614
g62
(dp3615
sg71
g3609
sg64
(lp3616
g57
(g58
g59
NtRp3617
(dp3618
g62
(dp3619
g70
I4
ssg71
g3613
sg64
(lp3620
S'/manager/static/plugin_layouts/layouts/Papira/style.css'
p3621
asbasbasbag57
(g73
g59
NtRp3622
(dp3623
g62
(dp3624
sg71
g3592
sg64
(lp3625
g57
(g78
g59
NtRp3626
(dp3627
g62
(dp3628
sg71
g3622
sg64
(lp3629
g57
(g58
g59
NtRp3630
(dp3631
g62
(dp3632
g70
I4
ssg71
g3626
sg64
(lp3633
S'/manager/static/plugin_layouts/superfish.js'
p3634
asbasbasbag57
(g73
g59
NtRp3635
(dp3636
g62
(dp3637
sg71
g3592
sg64
(lp3638
g57
(g78
g59
NtRp3639
(dp3640
g62
(dp3641
sg71
g3635
sg64
(lp3642
g57
(g58
g59
NtRp3643
(dp3644
g62
(dp3645
g70
I4
ssg71
g3639
sg64
(lp3646
S'/manager/static/js/web2py.js'
p3647
asbasbasbasbasbasbasbag57
(g73
g59
NtRp3648
(dp3649
g62
(dp3650
sg71
g3286
sg64
(lp3651
g57
(g78
g59
NtRp3652
(dp3653
g62
(dp3654
g82
g83
ssg71
g3648
sg64
(lp3655
S'flash'
p3656
asbag57
(g78
g59
NtRp3657
(dp3658
g62
(dp3659
g89
g90
ssg71
g3648
sg64
(lp3660
S':'
asbag57
(g78
g59
NtRp3661
(dp3662
g62
(dp3663
sg71
g3648
sg64
(lp3664
g57
(g58
g59
NtRp3665
(dp3666
g62
(dp3667
g70
I5
ssg71
g3661
sg64
(lp3668
S''
asbasbasbag57
(g73
g59
NtRp3669
(dp3670
g62
(dp3671
sg71
g3286
sg64
(lp3672
g57
(g78
g59
NtRp3673
(dp3674
g62
(dp3675
g82
g83
ssg71
g3669
sg64
(lp3676
S'generic_patterns'
p3677
asbag57
(g78
g59
NtRp3678
(dp3679
g62
(dp3680
g89
g90
ssg71
g3669
sg64
(lp3681
S':'
asbag57
(g78
g59
NtRp3682
(dp3683
g62
(dp3684
sg71
g3669
sg64
(lp3685
g57
(g58
g59
NtRp3686
(dp3687
g62
(dp3688
g70
I5
ssg71
g3682
sg64
(lp3689
g57
(g66
g59
NtRp3690
(dp3691
g62
(dp3692
g70
I4
ssg71
Nsg64
(lp3693
g57
(g73
g59
NtRp3694
(dp3695
g62
(dp3696
sg71
g3690
sg64
(lp3697
g57
(g78
g59
NtRp3698
(dp3699
g62
(dp3700
sg71
g3694
sg64
(lp3701
g57
(g58
g59
NtRp3702
(dp3703
g62
(dp3704
g70
I4
ssg71
g3698
sg64
(lp3705
S'*'
asbasbasbasbasbasbasbag57
(g73
g59
NtRp3706
(dp3707
g62
(dp3708
sg71
g3286
sg64
(lp3709
g57
(g78
g59
NtRp3710
(dp3711
g62
(dp3712
g82
g83
ssg71
g3706
sg64
(lp3713
S'google_analytics_id'
p3714
asbag57
(g78
g59
NtRp3715
(dp3716
g62
(dp3717
g89
g90
ssg71
g3706
sg64
(lp3718
S':'
asbag57
(g78
g59
NtRp3719
(dp3720
g62
(dp3721
sg71
g3706
sg64
(lp3722
g57
(g58
g59
NtRp3723
(dp3724
g62
(dp3725
g70
I5
ssg71
g3719
sg64
(lp3726
S'None'
p3727
asbasbasbag57
(g73
g59
NtRp3728
(dp3729
g62
(dp3730
sg71
g3286
sg64
(lp3731
g57
(g78
g59
NtRp3732
(dp3733
g62
(dp3734
g82
g83
ssg71
g3728
sg64
(lp3735
S'headers'
p3736
asbag57
(g78
g59
NtRp3737
(dp3738
g62
(dp3739
g89
g90
ssg71
g3728
sg64
(lp3740
S':'
asbag57
(g78
g59
NtRp3741
(dp3742
g62
(dp3743
sg71
g3728
sg64
(lp3744
g57
(g58
g59
NtRp3745
(dp3746
g62
(dp3747
g70
I5
ssg71
g3741
sg64
(lp3748
g57
(g66
g59
NtRp3749
(dp3750
g62
(dp3751
g70
I4
ssg71
Nsg64
(lp3752
g57
(g73
g59
NtRp3753
(dp3754
g62
(dp3755
sg71
g3749
sg64
(lp3756
g57
(g78
g59
NtRp3757
(dp3758
g62
(dp3759
g82
g83
ssg71
g3753
sg64
(lp3760
S'X-Powered-By'
p3761
asbag57
(g78
g59
NtRp3762
(dp3763
g62
(dp3764
g89
g90
ssg71
g3753
sg64
(lp3765
S':'
asbag57
(g78
g59
NtRp3766
(dp3767
g62
(dp3768
sg71
g3753
sg64
(lp3769
g57
(g58
g59
NtRp3770
(dp3771
g62
(dp3772
g70
I4
ssg71
g3766
sg64
(lp3773
S'web2py'
p3774
asbasbasbasbasbasbasbag57
(g73
g59
NtRp3775
(dp3776
g62
(dp3777
sg71
g3286
sg64
(lp3778
g57
(g78
g59
NtRp3779
(dp3780
g62
(dp3781
g82
g83
ssg71
g3775
sg64
(lp3782
S'menu'
p3783
asbag57
(g78
g59
NtRp3784
(dp3785
g62
(dp3786
g89
g90
ssg71
g3775
sg64
(lp3787
S':'
asbag57
(g78
g59
NtRp3788
(dp3789
g62
(dp3790
sg71
g3775
sg64
(lp3791
g57
(g58
g59
NtRp3792
(dp3793
g62
(dp3794
g70
I5
ssg71
g3788
sg64
(lp3795
g57
(g66
g59
NtRp3796
(dp3797
g62
(dp3798
g70
I4
ssg71
Nsg64
(lp3799
g57
(g73
g59
NtRp3800
(dp3801
g62
(dp3802
sg71
g3796
sg64
(lp3803
g57
(g78
g59
NtRp3804
(dp3805
g62
(dp3806
sg71
g3800
sg64
(lp3807
g57
(g58
g59
NtRp3808
(dp3809
g62
(dp3810
g70
I4
ssg71
g3804
sg64
(lp3811
g57
(g66
g59
NtRp3812
(dp3813
g62
(dp3814
g70
I3
ssg71
Nsg64
(lp3815
g57
(g73
g59
NtRp3816
(dp3817
g62
(dp3818
sg71
g3812
sg64
(lp3819
g57
(g78
g59
NtRp3820
(dp3821
g62
(dp3822
sg71
g3816
sg64
(lp3823
g57
(g58
g59
NtRp3824
(dp3825
g62
(dp3826
g70
I3
ssg71
g3820
sg64
(lp3827
cgluon.languages
lazyT_unpickle
p3828
(S't\x04\x00\x00\x00Home'
tRp3829
asbasbasbag57
(g73
g59
NtRp3830
(dp3831
g62
(dp3832
sg71
g3812
sg64
(lp3833
g57
(g78
g59
NtRp3834
(dp3835
g62
(dp3836
sg71
g3830
sg64
(lp3837
g57
(g58
g59
NtRp3838
(dp3839
g62
(dp3840
g70
I3
ssg71
g3834
sg64
(lp3841
g100
asbasbasbag57
(g73
g59
NtRp3842
(dp3843
g62
(dp3844
sg71
g3812
sg64
(lp3845
g57
(g78
g59
NtRp3846
(dp3847
g62
(dp3848
sg71
g3842
sg64
(lp3849
g57
(g58
g59
NtRp3850
(dp3851
g62
(dp3852
g70
I3
ssg71
g3846
sg64
(lp3853
S'/manager/default/index'
p3854
asbasbasbasbasbasbasbag57
(g73
g59
NtRp3855
(dp3856
g62
(dp3857
sg71
g3796
sg64
(lp3858
g57
(g78
g59
NtRp3859
(dp3860
g62
(dp3861
sg71
g3855
sg64
(lp3862
g57
(g58
g59
NtRp3863
(dp3864
g62
(dp3865
g70
I4
ssg71
g3859
sg64
(lp3866
g57
(g66
g59
NtRp3867
(dp3868
g62
(dp3869
g70
I3
ssg71
Nsg64
(lp3870
g57
(g73
g59
NtRp3871
(dp3872
g62
(dp3873
sg71
g3867
sg64
(lp3874
g57
(g78
g59
NtRp3875
(dp3876
g62
(dp3877
sg71
g3871
sg64
(lp3878
g57
(g58
g59
NtRp3879
(dp3880
g62
(dp3881
g70
I3
ssg71
g3875
sg64
(lp3882
g3828
(S't\x06\x00\x00\x00logout'
tRp3883
asbasbasbag57
(g73
g59
NtRp3884
(dp3885
g62
(dp3886
sg71
g3867
sg64
(lp3887
g57
(g78
g59
NtRp3888
(dp3889
g62
(dp3890
sg71
g3884
sg64
(lp3891
g57
(g58
g59
NtRp3892
(dp3893
g62
(dp3894
g70
I3
ssg71
g3888
sg64
(lp3895
g100
asbasbasbag57
(g73
g59
NtRp3896
(dp3897
g62
(dp3898
sg71
g3867
sg64
(lp3899
g57
(g78
g59
NtRp3900
(dp3901
g62
(dp3902
sg71
g3896
sg64
(lp3903
g57
(g58
g59
NtRp3904
(dp3905
g62
(dp3906
g70
I3
ssg71
g3900
sg64
(lp3907
S'/manager/default/logout'
p3908
asbasbasbasbasbasbasbasbasbasbasbag57
(g73
g59
NtRp3909
(dp3910
g62
(dp3911
sg71
g3286
sg64
(lp3912
g57
(g78
g59
NtRp3913
(dp3914
g62
(dp3915
g82
g83
ssg71
g3909
sg64
(lp3916
S'meta'
p3917
asbag57
(g78
g59
NtRp3918
(dp3919
g62
(dp3920
g89
g90
ssg71
g3909
sg64
(lp3921
S':'
asbag57
(g78
g59
NtRp3922
(dp3923
g62
(dp3924
sg71
g3909
sg64
(lp3925
g57
(g58
g59
NtRp3926
(dp3927
g62
(dp3928
g70
I5
ssg71
g3922
sg64
(lp3929
g57
(g66
g59
NtRp3930
(dp3931
g62
(dp3932
g70
I4
ssg71
Nsg64
(lp3933
g57
(g73
g59
NtRp3934
(dp3935
g62
(dp3936
sg71
g3930
sg64
(lp3937
g57
(g78
g59
NtRp3938
(dp3939
g62
(dp3940
g82
g83
ssg71
g3934
sg64
(lp3941
S'author'
p3942
asbag57
(g78
g59
NtRp3943
(dp3944
g62
(dp3945
g89
g90
ssg71
g3934
sg64
(lp3946
S':'
asbag57
(g78
g59
NtRp3947
(dp3948
g62
(dp3949
sg71
g3934
sg64
(lp3950
g57
(g58
g59
NtRp3951
(dp3952
g62
(dp3953
g70
I4
ssg71
g3947
sg64
(lp3954
S'Your Name <you@example.com>'
p3955
asbasbasbag57
(g73
g59
NtRp3956
(dp3957
g62
(dp3958
sg71
g3930
sg64
(lp3959
g57
(g78
g59
NtRp3960
(dp3961
g62
(dp3962
g82
g83
ssg71
g3956
sg64
(lp3963
S'copyright'
p3964
asbag57
(g78
g59
NtRp3965
(dp3966
g62
(dp3967
g89
g90
ssg71
g3956
sg64
(lp3968
S':'
asbag57
(g78
g59
NtRp3969
(dp3970
g62
(dp3971
sg71
g3956
sg64
(lp3972
g57
(g58
g59
NtRp3973
(dp3974
g62
(dp3975
g70
I4
ssg71
g3969
sg64
(lp3976
S'Copyright 2011'
p3977
asbasbasbag57
(g73
g59
NtRp3978
(dp3979
g62
(dp3980
sg71
g3930
sg64
(lp3981
g57
(g78
g59
NtRp3982
(dp3983
g62
(dp3984
g82
g83
ssg71
g3978
sg64
(lp3985
S'description'
p3986
asbag57
(g78
g59
NtRp3987
(dp3988
g62
(dp3989
g89
g90
ssg71
g3978
sg64
(lp3990
S':'
asbag57
(g78
g59
NtRp3991
(dp3992
g62
(dp3993
sg71
g3978
sg64
(lp3994
g57
(g58
g59
NtRp3995
(dp3996
g62
(dp3997
g70
I4
ssg71
g3991
sg64
(lp3998
S'a cool new app'
p3999
asbasbasbag57
(g73
g59
NtRp4000
(dp4001
g62
(dp4002
sg71
g3930
sg64
(lp4003
g57
(g78
g59
NtRp4004
(dp4005
g62
(dp4006
g82
g83
ssg71
g4000
sg64
(lp4007
S'generator'
p4008
asbag57
(g78
g59
NtRp4009
(dp4010
g62
(dp4011
g89
g90
ssg71
g4000
sg64
(lp4012
S':'
asbag57
(g78
g59
NtRp4013
(dp4014
g62
(dp4015
sg71
g4000
sg64
(lp4016
g57
(g58
g59
NtRp4017
(dp4018
g62
(dp4019
g70
I4
ssg71
g4013
sg64
(lp4020
S'Web2py Web Framework'
p4021
asbasbasbag57
(g73
g59
NtRp4022
(dp4023
g62
(dp4024
sg71
g3930
sg64
(lp4025
g57
(g78
g59
NtRp4026
(dp4027
g62
(dp4028
g82
g83
ssg71
g4022
sg64
(lp4029
S'keywords'
p4030
asbag57
(g78
g59
NtRp4031
(dp4032
g62
(dp4033
g89
g90
ssg71
g4022
sg64
(lp4034
S':'
asbag57
(g78
g59
NtRp4035
(dp4036
g62
(dp4037
sg71
g4022
sg64
(lp4038
g57
(g58
g59
NtRp4039
(dp4040
g62
(dp4041
g70
I4
ssg71
g4035
sg64
(lp4042
S'web2py, python, framework'
p4043
asbasbasbasbasbasbasbag57
(g73
g59
NtRp4044
(dp4045
g62
(dp4046
sg71
g3286
sg64
(lp4047
g57
(g78
g59
NtRp4048
(dp4049
g62
(dp4050
g82
g83
ssg71
g4044
sg64
(lp4051
S'models_to_run'
p4052
asbag57
(g78
g59
NtRp4053
(dp4054
g62
(dp4055
g89
g90
ssg71
g4044
sg64
(lp4056
S':'
asbag57
(g78
g59
NtRp4057
(dp4058
g62
(dp4059
sg71
g4044
sg64
(lp4060
g57
(g58
g59
NtRp4061
(dp4062
g62
(dp4063
g70
I5
ssg71
g4057
sg64
(lp4064
g57
(g66
g59
NtRp4065
(dp4066
g62
(dp4067
g70
I4
ssg71
Nsg64
(lp4068
g57
(g73
g59
NtRp4069
(dp4070
g62
(dp4071
sg71
g4065
sg64
(lp4072
g57
(g78
g59
NtRp4073
(dp4074
g62
(dp4075
sg71
g4069
sg64
(lp4076
g57
(g58
g59
NtRp4077
(dp4078
g62
(dp4079
g70
I4
ssg71
g4073
sg64
(lp4080
S'^\\w+\\.py$'
p4081
asbasbasbag57
(g73
g59
NtRp4082
(dp4083
g62
(dp4084
sg71
g4065
sg64
(lp4085
g57
(g78
g59
NtRp4086
(dp4087
g62
(dp4088
sg71
g4082
sg64
(lp4089
g57
(g58
g59
NtRp4090
(dp4091
g62
(dp4092
g70
I4
ssg71
g4086
sg64
(lp4093
S'^default/\\w+\\.py$'
p4094
asbasbasbag57
(g73
g59
NtRp4095
(dp4096
g62
(dp4097
sg71
g4065
sg64
(lp4098
g57
(g78
g59
NtRp4099
(dp4100
g62
(dp4101
sg71
g4095
sg64
(lp4102
g57
(g58
g59
NtRp4103
(dp4104
g62
(dp4105
g70
I4
ssg71
g4099
sg64
(lp4106
S'^default/drop1/\\w+\\.py$'
p4107
asbasbasbasbasbasbasbag57
(g73
g59
NtRp4108
(dp4109
g62
(dp4110
sg71
g3286
sg64
(lp4111
g57
(g78
g59
NtRp4112
(dp4113
g62
(dp4114
g82
g83
ssg71
g4108
sg64
(lp4115
S'postprocessing'
p4116
asbag57
(g78
g59
NtRp4117
(dp4118
g62
(dp4119
g89
g90
ssg71
g4108
sg64
(lp4120
S':'
asbag57
(g78
g59
NtRp4121
(dp4122
g62
(dp4123
sg71
g4108
sg64
(lp4124
g57
(g58
g59
NtRp4125
(dp4126
g62
(dp4127
g70
I5
ssg71
g4121
sg64
(lp4128
g57
(g66
g59
NtRp4129
(dp4130
g62
(dp4131
g70
I4
ssg71
Nsg64
(lp4132
sbasbasbasbag57
(g73
g59
NtRp4133
(dp4134
g62
(dp4135
sg71
g3286
sg64
(lp4136
g57
(g78
g59
NtRp4137
(dp4138
g62
(dp4139
g82
g83
ssg71
g4133
sg64
(lp4140
S'session_file'
p4141
asbag57
(g78
g59
NtRp4142
(dp4143
g62
(dp4144
g89
g90
ssg71
g4133
sg64
(lp4145
S':'
asbag57
(g78
g59
NtRp4146
(dp4147
g62
(dp4148
sg71
g4133
sg64
(lp4149
g57
(g58
g59
NtRp4150
(dp4151
g62
(dp4152
g70
I5
ssg71
g4146
sg64
(lp4153
S"<open file '/home/madhuri/Downloads/web2py/applications/manager/sessions/127.0.0.1-6f272149-6c92-44cc-85ba-c8ea1e4f1e04', mode 'rb+' at 0x7f1dc05eee40>"
p4154
asbasbasbag57
(g73
g59
NtRp4155
(dp4156
g62
(dp4157
sg71
g3286
sg64
(lp4158
g57
(g78
g59
NtRp4159
(dp4160
g62
(dp4161
g82
g83
ssg71
g4155
sg64
(lp4162
S'session_filename'
p4163
asbag57
(g78
g59
NtRp4164
(dp4165
g62
(dp4166
g89
g90
ssg71
g4155
sg64
(lp4167
S':'
asbag57
(g78
g59
NtRp4168
(dp4169
g62
(dp4170
sg71
g4155
sg64
(lp4171
g57
(g58
g59
NtRp4172
(dp4173
g62
(dp4174
g70
I5
ssg71
g4168
sg64
(lp4175
S'/home/madhuri/Downloads/web2py/applications/manager/sessions/127.0.0.1-6f272149-6c92-44cc-85ba-c8ea1e4f1e04'
p4176
asbasbasbag57
(g73
g59
NtRp4177
(dp4178
g62
(dp4179
sg71
g3286
sg64
(lp4180
g57
(g78
g59
NtRp4181
(dp4182
g62
(dp4183
g82
g83
ssg71
g4177
sg64
(lp4184
S'session_id'
p4185
asbag57
(g78
g59
NtRp4186
(dp4187
g62
(dp4188
g89
g90
ssg71
g4177
sg64
(lp4189
S':'
asbag57
(g78
g59
NtRp4190
(dp4191
g62
(dp4192
sg71
g4177
sg64
(lp4193
g57
(g58
g59
NtRp4194
(dp4195
g62
(dp4196
g70
I5
ssg71
g4190
sg64
(lp4197
g475
asbasbasbag57
(g73
g59
NtRp4198
(dp4199
g62
(dp4200
sg71
g3286
sg64
(lp4201
g57
(g78
g59
NtRp4202
(dp4203
g62
(dp4204
g82
g83
ssg71
g4198
sg64
(lp4205
S'session_id_name'
p4206
asbag57
(g78
g59
NtRp4207
(dp4208
g62
(dp4209
g89
g90
ssg71
g4198
sg64
(lp4210
S':'
asbag57
(g78
g59
NtRp4211
(dp4212
g62
(dp4213
sg71
g4198
sg64
(lp4214
g57
(g58
g59
NtRp4215
(dp4216
g62
(dp4217
g70
I5
ssg71
g4211
sg64
(lp4218
g3343
asbasbasbag57
(g73
g59
NtRp4219
(dp4220
g62
(dp4221
sg71
g3286
sg64
(lp4222
g57
(g78
g59
NtRp4223
(dp4224
g62
(dp4225
g82
g83
ssg71
g4219
sg64
(lp4226
S'session_locked'
p4227
asbag57
(g78
g59
NtRp4228
(dp4229
g62
(dp4230
g89
g90
ssg71
g4219
sg64
(lp4231
S':'
asbag57
(g78
g59
NtRp4232
(dp4233
g62
(dp4234
sg71
g4219
sg64
(lp4235
g57
(g58
g59
NtRp4236
(dp4237
g62
(dp4238
g70
I5
ssg71
g4232
sg64
(lp4239
g1701
asbasbasbag57
(g73
g59
NtRp4240
(dp4241
g62
(dp4242
sg71
g3286
sg64
(lp4243
g57
(g78
g59
NtRp4244
(dp4245
g62
(dp4246
g82
g83
ssg71
g4240
sg64
(lp4247
S'session_new'
p4248
asbag57
(g78
g59
NtRp4249
(dp4250
g62
(dp4251
g89
g90
ssg71
g4240
sg64
(lp4252
S':'
asbag57
(g78
g59
NtRp4253
(dp4254
g62
(dp4255
sg71
g4240
sg64
(lp4256
g57
(g58
g59
NtRp4257
(dp4258
g62
(dp4259
g70
I5
ssg71
g4253
sg64
(lp4260
g100
asbasbasbag57
(g73
g59
NtRp4261
(dp4262
g62
(dp4263
sg71
g3286
sg64
(lp4264
g57
(g78
g59
NtRp4265
(dp4266
g62
(dp4267
g82
g83
ssg71
g4261
sg64
(lp4268
S'status'
p4269
asbag57
(g78
g59
NtRp4270
(dp4271
g62
(dp4272
g89
g90
ssg71
g4261
sg64
(lp4273
S':'
asbag57
(g78
g59
NtRp4274
(dp4275
g62
(dp4276
sg71
g4261
sg64
(lp4277
g57
(g58
g59
NtRp4278
(dp4279
g62
(dp4280
g70
I5
ssg71
g4274
sg64
(lp4281
S'200'
p4282
asbasbasbag57
(g73
g59
NtRp4283
(dp4284
g62
(dp4285
sg71
g3286
sg64
(lp4286
g57
(g78
g59
NtRp4287
(dp4288
g62
(dp4289
g82
g83
ssg71
g4283
sg64
(lp4290
S'subtitle'
p4291
asbag57
(g78
g59
NtRp4292
(dp4293
g62
(dp4294
g89
g90
ssg71
g4283
sg64
(lp4295
S':'
asbag57
(g78
g59
NtRp4296
(dp4297
g62
(dp4298
sg71
g4283
sg64
(lp4299
g57
(g58
g59
NtRp4300
(dp4301
g62
(dp4302
g70
I5
ssg71
g4296
sg64
(lp4303
g3828
(S's\r\x00\x00\x00customize me!'
tRp4304
asbasbasbag57
(g73
g59
NtRp4305
(dp4306
g62
(dp4307
sg71
g3286
sg64
(lp4308
g57
(g78
g59
NtRp4309
(dp4310
g62
(dp4311
g82
g83
ssg71
g4305
sg64
(lp4312
S'title'
p4313
asbag57
(g78
g59
NtRp4314
(dp4315
g62
(dp4316
g89
g90
ssg71
g4305
sg64
(lp4317
S':'
asbag57
(g78
g59
NtRp4318
(dp4319
g62
(dp4320
sg71
g4305
sg64
(lp4321
g57
(g58
g59
NtRp4322
(dp4323
g62
(dp4324
g70
I5
ssg71
g4318
sg64
(lp4325
S'Manager'
p4326
asbasbasbag57
(g73
g59
NtRp4327
(dp4328
g62
(dp4329
sg71
g3286
sg64
(lp4330
g57
(g78
g59
NtRp4331
(dp4332
g62
(dp4333
g82
g83
ssg71
g4327
sg64
(lp4334
S'view'
p4335
asbag57
(g78
g59
NtRp4336
(dp4337
g62
(dp4338
g89
g90
ssg71
g4327
sg64
(lp4339
S':'
asbag57
(g78
g59
NtRp4340
(dp4341
g62
(dp4342
sg71
g4327
sg64
(lp4343
g57
(g58
g59
NtRp4344
(dp4345
g62
(dp4346
g70
I5
ssg71
g4340
sg64
(lp4347
S'default/drop1.html'
p4348
asbasbasbasbasbsS'locals'
p4349
(dp4350
S'Service'
p4351
S"<class 'gluon.tools.Service'>"
p4352
sS'OBJECT'
p4353
S"<class 'gluon.html.OBJECT'>"
p4354
sS'SQLDB'
p4355
S"<class 'gluon.dal.DAL'>"
p4356
sg3116
S"<Storage {'LOGGEDIN': 0, 'flash': None, 'last_or...115de3-fcc8-4fa5-8034-3ea9464b186b', 'login': 0}>"
p4357
sS'LINK'
p4358
S"<class 'gluon.html.LINK'>"
p4359
sS'BR'
p4360
S"<class 'gluon.html.BR'>"
p4361
sS'local_import'
p4362
S'<function <lambda>>'
p4363
sS'OPTGROUP'
p4364
S"<class 'gluon.html.OPTGROUP'>"
p4365
sS'__package__'
p4366
S'None'
p4367
sS'PRE'
p4368
S"<class 'gluon.html.PRE'>"
p4369
sS'IS_INT_IN_RANGE'
p4370
S"<class 'gluon.validators.IS_INT_IN_RANGE'>"
p4371
sS'_CAS_logout'
p4372
S'<function _CAS_logout>'
p4373
sS'IS_LOWER'
p4374
S"<class 'gluon.validators.IS_LOWER'>"
p4375
sS'IS_STRONG'
p4376
S"<class 'gluon.validators.IS_STRONG'>"
p4377
sS'Recaptcha'
p4378
S"<class 'gluon.tools.Recaptcha'>"
p4379
sS'cache'
p4380
S'<gluon.cache.Cache object>'
p4381
sS'IS_IN_DB'
p4382
S"<class 'gluon.validators.IS_IN_DB'>"
p4383
sS'TAG'
p4384
S'<gluon.html.__TAG__ object>'
p4385
sS'SQLField'
p4386
S"<class 'gluon.dal.Field'>"
p4387
sS'BODY'
p4388
S"<class 'gluon.html.BODY'>"
p4389
sS'IS_DATE_IN_RANGE'
p4390
S"<class 'gluon.validators.IS_DATE_IN_RANGE'>"
p4391
sS'TH'
p4392
S"<class 'gluon.html.TH'>"
p4393
sS'URL'
p4394
S'<function URL>'
p4395
sS'__file__'
p4396
S"'/home/madhuri/Downloads/web2py/applications/manager/views/default/drop1.html'"
p4397
sS'db'
p4398
S'<DAL sqlite://storage.sqlite>'
p4399
sS'auth'
p4400
S'<gluon.tools.Auth object>'
p4401
sS'P'
S"<class 'gluon.html.P'>"
p4402
sS'TFOOT'
p4403
S"<class 'gluon.html.TFOOT'>"
p4404
sS'XHTML'
p4405
S"<class 'gluon.html.XHTML'>"
p4406
sS'ON'
p4407
g1701
sS'OL'
p4408
S"<class 'gluon.html.OL'>"
p4409
sS'TEXTAREA'
p4410
S"<class 'gluon.html.TEXTAREA'>"
p4411
sS'MENU'
p4412
S"<class 'gluon.html.MENU'>"
p4413
sS'IS_IMAGE'
p4414
S"<class 'gluon.validators.IS_IMAGE'>"
p4415
sS'LOAD'
p4416
S'<function LOAD>'
p4417
sS'CODE'
p4418
S"<class 'gluon.html.CODE'>"
p4419
sS'HTTP'
p4420
S"<class 'gluon.http.HTTP'>"
p4421
sS'HR'
p4422
S"<class 'gluon.html.HR'>"
p4423
sS'IS_DATETIME'
p4424
S"<class 'gluon.validators.IS_DATETIME'>"
p4425
sS'HEAD'
p4426
S"<class 'gluon.html.HEAD'>"
p4427
sS'LABEL'
p4428
S"<class 'gluon.html.LABEL'>"
p4429
sS'META'
p4430
S"<class 'gluon.html.META'>"
p4431
sS'SELECT'
p4432
S"<class 'gluon.html.SELECT'>"
p4433
sS'CENTER'
p4434
S"<class 'gluon.html.CENTER'>"
p4435
sS'prettydate'
p4436
S'<function prettydate>'
p4437
sS'Crud'
p4438
S"<class 'gluon.tools.Crud'>"
p4439
sS'Auth'
p4440
S"<class 'gluon.tools.Auth'>"
p4441
sS'id1'
p4442
S'0'
sS'IS_EQUAL_TO'
p4443
S"<class 'gluon.validators.IS_EQUAL_TO'>"
p4444
sS'HTML'
p4445
S"<class 'gluon.html.HTML'>"
p4446
sS'SQLFORM'
p4447
S"<class 'gluon.sqlhtml.SQLFORM'>"
p4448
sS'EM'
p4449
S"<class 'gluon.html.EM'>"
p4450
sS'redirect'
p4451
S'<function redirect>'
p4452
sS'FIELDSET'
p4453
S"<class 'gluon.html.FIELDSET'>"
p4454
sS'__builtins__'
p4455
S"{'ArithmeticError': <type 'exceptions.ArithmeticError'>, 'AssertionError': <type 'exceptions.AssertionError'>, 'AttributeError': <type 'exceptions.AttributeError'>, 'BaseException': <type 'exceptions.BaseException'>, 'BufferError': <type 'exceptions.BufferError'>, 'BytesWarning': <type 'exceptions.BytesWarning'>, 'DeprecationWarning': <type 'exceptions.DeprecationWarning'>, 'EOFError': <type 'exceptions.EOFError'>, 'Ellipsis': Ellipsis, 'EnvironmentError': <type 'exceptions.EnvironmentError'>, ...}"
p4456
sS'embed64'
p4457
S'<function embed64>'
p4458
sS'IS_LIST_OF'
p4459
S"<class 'gluon.validators.IS_LIST_OF'>"
p4460
sS'INPUT'
p4461
S"<class 'gluon.html.INPUT'>"
p4462
sS'EMBED'
p4463
S"<class 'gluon.html.EMBED'>"
p4464
sS'_'
S'<function _>'
p4465
sS'H2'
p4466
S"<class 'gluon.html.H2'>"
p4467
sS'H3'
p4468
S"<class 'gluon.html.H3'>"
p4469
sS'BUTTON'
p4470
S"<class 'gluon.html.BUTTON'>"
p4471
sS'H1'
p4472
S"<class 'gluon.html.H1'>"
p4473
sS'H6'
p4474
S"<class 'gluon.html.H6'>"
p4475
sS'H4'
p4476
S"<class 'gluon.html.H4'>"
p4477
sS'H5'
p4478
S"<class 'gluon.html.H5'>"
p4479
sS'UL'
p4480
S"<class 'gluon.html.UL'>"
p4481
sS'IS_UPPER'
p4482
S"<class 'gluon.validators.IS_UPPER'>"
p4483
sS'xmlescape'
p4484
S'<function xmlescape>'
p4485
sS'IS_TIME'
p4486
S"<class 'gluon.validators.IS_TIME'>"
p4487
sS'OPTION'
p4488
S"<class 'gluon.html.OPTION'>"
p4489
sS'TITLE'
p4490
S"<class 'gluon.html.TITLE'>"
p4491
sS'CRYPT'
p4492
S"<class 'gluon.validators.CRYPT'>"
p4493
sS'IS_EMPTY_OR'
p4494
S"<class 'gluon.validators.IS_EMPTY_OR'>"
p4495
sS'MARKMIN'
p4496
S"<class 'gluon.html.MARKMIN'>"
p4497
sS'gluon'
p4498
S"<module 'gluon' from '/home/madhuri/Downloads/web2py/gluon/__init__.pyc'>"
p4499
sS'__name__'
p4500
S"'__restricted__'"
p4501
sS'STRONG'
p4502
S"<class 'gluon.html.STRONG'>"
p4503
sS'COL'
p4504
S"<class 'gluon.html.COL'>"
p4505
sS'service'
p4506
S'<gluon.tools.Service object>'
p4507
sS'SCRIPT'
p4508
S"<class 'gluon.html.SCRIPT'>"
p4509
sS'CAS'
p4510
S"<Storage {'check_url': 'https://login.iiit.ac.in...: 'http://127.0.0.1:8000/manager/default/login'}>"
p4511
sS'geocode'
p4512
S'<function geocode>'
p4513
sS'TABLE'
p4514
S"<class 'gluon.html.TABLE'>"
p4515
sS'IS_IPV4'
p4516
S"<class 'gluon.validators.IS_IPV4'>"
p4517
sS'IS_LENGTH'
p4518
S"<class 'gluon.validators.IS_LENGTH'>"
p4519
sS'XML'
p4520
S"<class 'gluon.html.XML'>"
p4521
sS'B'
S"<class 'gluon.html.B'>"
p4522
sS'IMG'
p4523
S"<class 'gluon.html.IMG'>"
p4524
sS'SQLTABLE'
p4525
S"<class 'gluon.sqlhtml.SQLTABLE'>"
p4526
sS'IS_MATCH'
p4527
S"<class 'gluon.validators.IS_MATCH'>"
p4528
sS'IS_ALPHANUMERIC'
p4529
S"<class 'gluon.validators.IS_ALPHANUMERIC'>"
p4530
sS'award'
p4531
S'None'
p4532
sS'HOST'
p4533
S"'127.0.0.1:8000'"
p4534
sS'SPAN'
p4535
S"<class 'gluon.html.SPAN'>"
p4536
sS'IS_SLUG'
p4537
S"<class 'gluon.validators.IS_SLUG'>"
p4538
sS'CLEANUP'
p4539
S"<class 'gluon.validators.CLEANUP'>"
p4540
sS'fetch'
p4541
S'<function fetch>'
p4542
sS'IS_DATE'
p4543
S"<class 'gluon.validators.IS_DATE'>"
p4544
sS'IS_EMAIL'
p4545
S"<class 'gluon.validators.IS_EMAIL'>"
p4546
sS'IS_NOT_EMPTY'
p4547
S"<class 'gluon.validators.IS_NOT_EMPTY'>"
p4548
sg56
S"<Storage {'function': 'drop1', 'body': <cStringI...plications/manager/', 'post_vars': <Storage {}>}>"
p4549
sS'BEAUTIFY'
p4550
S"<class 'gluon.html.BEAUTIFY'>"
p4551
sS'TBODY'
p4552
S"<class 'gluon.html.TBODY'>"
p4553
sS'CAT'
p4554
S"<class 'gluon.html.CAT'>"
p4555
sS'Field'
p4556
S"<class 'gluon.dal.Field'>"
p4557
sS'_CAS_login'
p4558
S'<function _CAS_login>'
p4559
sS'Mail'
p4560
S"<class 'gluon.tools.Mail'>"
p4561
sS'DIV'
p4562
S"<class 'gluon.html.DIV'>"
p4563
sS'LEGEND'
p4564
S"<class 'gluon.html.LEGEND'>"
p4565
sS'COLGROUP'
p4566
S"<class 'gluon.html.COLGROUP'>"
p4567
sS'DAL'
p4568
S"<class 'gluon.dal.DAL'>"
p4569
sS'TT'
p4570
S"<class 'gluon.html.TT'>"
p4571
sS'TR'
p4572
S"<class 'gluon.html.TR'>"
p4573
sS'LI'
p4574
S"<class 'gluon.html.LI'>"
p4575
sS'IFRAME'
p4576
S"<class 'gluon.html.IFRAME'>"
p4577
sS'TD'
p4578
S"<class 'gluon.html.TD'>"
p4579
sS'PluginManager'
p4580
S"<class 'gluon.tools.PluginManager'>"
p4581
sS'IS_URL'
p4582
S"<class 'gluon.validators.IS_URL'>"
p4583
sS'A'
S"<class 'gluon.html.A'>"
p4584
sS'STYLE'
p4585
S"<class 'gluon.html.STYLE'>"
p4586
sS'IS_DATETIME_IN_RANGE'
p4587
S"<class 'gluon.validators.IS_DATETIME_IN_RANGE'>"
p4588
sS'FORM'
p4589
S"<class 'gluon.html.FORM'>"
p4590
sS'I'
S"<class 'gluon.html.I'>"
p4591
sS'crud'
p4592
S'<gluon.tools.Crud object>'
p4593
sS'IS_NOT_IN_DB'
p4594
S"<class 'gluon.validators.IS_NOT_IN_DB'>"
p4595
sg3281
S"<Storage {'body': <cStringIO.StringO object at 0...t 0x7f1da0121938>, 'view': 'default/drop1.html'}>"
p4596
sS'THEAD'
p4597
S"<class 'gluon.html.THEAD'>"
p4598
sS'Wiki'
p4599
S"<class 'gluon.tools.Wiki'>"
p4600
sS'IS_NULL_OR'
p4601
S"<class 'gluon.validators.IS_EMPTY_OR'>"
p4602
sS'IS_FLOAT_IN_RANGE'
p4603
S"<class 'gluon.validators.IS_FLOAT_IN_RANGE'>"
p4604
sS'IS_EXPR'
p4605
S"<class 'gluon.validators.IS_EXPR'>"
p4606
sS'T'
S'<gluon.languages.translator object>'
p4607
sS'IS_IN_SET'
p4608
S"<class 'gluon.validators.IS_IN_SET'>"
p4609
sS'IS_UPLOAD_FILENAME'
p4610
S"<class 'gluon.validators.IS_UPLOAD_FILENAME'>"
p4611
sS'IS_DECIMAL_IN_RANGE'
p4612
S"<class 'gluon.validators.IS_DECIMAL_IN_RANGE'>"
p4613
sssS'traceback'
p4614
S'Traceback (most recent call last):\n  File "/home/madhuri/Downloads/web2py/gluon/restricted.py", line 209, in restricted\n    exec ccode in environment\n  File "/home/madhuri/Downloads/web2py/applications/manager/views/default/drop1.html", line 94, in <module>\nAttributeError: \'NoneType\' object has no attribute \'year\'\n'
p4615
s.