(dp1
S'output'
p2
S"<type 'exceptions.AttributeError'> 'NoneType' object has no attribute 'D1'"
p3
sS'layer'
p4
S'/home/madhuri/Downloads/web2py/applications/manager/controllers/default.py'
p5
sS'code'
p6
S'#########################################################################\n# Coding done by Madhuri,Neeharika,Abhishek\n# \n#########################################################################\nfrom gluon.sqlhtml import form_factory\nimport socket\n\n#define the Login,Logout,Redirecting URL\'s here\nCAS.login_url=\'https://login.iiit.ac.in/cas/login\'\nCAS.check_url=\'https://login.iiit.ac.in/cas/validate\'\nCAS.logout_url=\'https://login.iiit.ac.in/cas/logout\'\nCAS.my_url=\'http://127.0.0.1:8000/manager/default/login\'\n#if not logged in redirect to login page\nif not session.token and not request.function==\'login\':\n    redirect(URL(r=request, f=\'login\'))\n#--------Abhishek---------#\n#define the session.login to distinguish between different users\n#get the session.token\ndef login():\n    session.login = 0 \n    session.token = CAS.login(request)\n    return dict()\n    \n      \ndef logout():\n    session.token=None\n    CAS.logout()\n    \ndef index():\n  """\n  example action using the internationalization operator T and flash\n  rendered by views/default/index.html or views/generic.html\n  """\n  name=session.token.split(\'@\')[0]        #get the firstname.lastname from email\n  first_name=name.split(\'.\')[0]           #get the first name\n  last_name=name.split(\'.\')[1]            #get ethe last name\n  test1 = db(db.auth_user.email == session.token).select()            #select the user whose email is the one logged in\n  if(len(test1)==0):                                                  #if not already in database then store it for further use\n        db.auth_user.insert(\n        first_name=first_name,\n        last_name=last_name,\n        email=session.token)\n  session.login = 0\n  session.LOGGEDIN = 0\n  users1 = db().select(db.Lpref.ALL)\n  users2 = db().select(db.Lpref.ALL)\n  for i in users1:\n      for j in users2:\n          if i.id > j.id:\n              if i.E == j.E:\n                  db(db.Lpref.id == j.id).delete()\n  images=db().select(db.Book.ALL)\n #   return dict(message=T(\'Hello World\'))\n  return dict(images=images,t=session.token)\ndef drop():\n  db(db.User.id > 0).delete() \n  db(db.Book.id > 0).delete() \n  db(db.UPBook.id > 0).delete() \n  db(db.Admin.id > 0).delete()\n  return dict()\ndef drop1():\n  db(db.User.id > 0).delete() \n  db(db.Book.id > 0).delete() \n  db(db.UPBook.id > 0).delete() \n  \n  db(db.Lpref.id>0).delete()\n  db(db.prebook.id>0).delete()\n  db(db.auth_user.id>0).delete()\n  award = db(db.Admin.id > 0).select().first()\n  db(db.Admin.id > 0).delete()\n  return dict(award=award)\ndef label():\n   users = users = db().select(db.User.ALL, orderby=db.User.Name)\n   books = books = db().select(db.UPBook.ALL, orderby=db.UPBook.usd)\n   return dict(users=users,books=books)\ndef admin():\n    award = db(db.Admin.id > 0).select().first()\n    return dict(award=award)\ndef user():\n    """\n    exposes:\n    http://..../[app]/default/user/login\n    http://..../[app]/default/user/logout\n    http://..../[app]/default/user/register\n    http://..../[app]/default/user/profile\n    http://..../[app]/default/user/retrieve_password\n    http://..../[app]/default/user/change_password\n    use @auth.requires_login()\n        @auth.requires_membership(\'group name\')\n        @auth.requires_permission(\'read\',\'table name\',record_id)\n    to decorate functions that need access control\n    """\n    return dict(form=auth())\n#@auth.requires_login()\ndef choose():\n  users1 = db().select(db.User.ALL, orderby=db.User.Name)\n  users2 = db().select(db.User.ALL, orderby=db.User.Name)\n  for i in users1:\n      for j in users2:\n          if i.id < j.id:\n              if i.RollNo == j.RollNo:\n                  db(db.User.id == i.id).update(Total=i.Total+j.Total)\n                  db(db.User.id == i.id).update(Award1=j.Award)\n                  db(db.User.id == j.id).delete()\n  users = db().select(db.User.ALL, orderby=db.User.Name)\n  return dict(users=users)\n\ndef show():\n User = db.User(request.args(0)) or redirect(URL(\'choose\'))\n Books = db().select(db.Book.ALL, orderby=db.Book.Name)\n UPBooks = db(db.UPBook.usd==User.RollNo).select()\n upbooks1 = db(db.UPBook.usd==User.RollNo).select()\n upbooks = db(db.UPBook.usd==User.RollNo).select()\n \n for i in upbooks:\n      for j in upbooks1:\n          if i.id < j.id:\n              if i.Bid == j.Bid:\n                 db(db.UPBook.Bid == j.Bid).delete()\n langu = db().select(db.Lpref.ALL)\n lang = db().select(db.lang.ALL)\n return dict(User=User,UPBooks=UPBooks,Books=Books,langu=langu,lang=lang)\ndef alloted():\n  users = db().select(db.User.ALL, orderby=db.User.Name)\n  return dict(users=users)\ndef preference():\n  for rows in db(db.auth_user.email == session.token).select(db.auth_user.email):\n   id1=rows.email\n  db.Lpref.E.default=id1\n  form1 = crud.create(db.Lpref,\n         next=URL("index"))\n  users1 = db().select(db.Lpref.ALL)\n  users2 = db().select(db.Lpref.ALL)\n  for i in users1:\n      for j in users2:\n          if i.id > j.id:\n              if i.E == j.E:\n                  db(db.Lpref.id == j.id).delete()\n  return dict(form1=form1)\ndef total():\n   users = db().select(db.User.ALL, orderby=db.User.Name)\n  # award = db().select(db.Admin.ALL).first()\n   award = db(db.Admin.id > 0).select().first()\n   return dict(users=users,award=award)\ndef Admin():  \n  form2 = crud.create(db.Admin,\n         next=URL("index"))\n  \n  return dict(form2=form2)\ndef submit():\n db(request.args(0) == db.User.id).update(flag = 1)\n users = db().select(db.User.ALL, orderby=db.User.Name)\n return dict(users=users)\ndef upload():\n    if request.vars.csvfile != None:\n        table = db[request.vars.table]\n        file = request.vars.csvfile.file\n        table.import_from_csv_file(file) #Import from the csv file\n        award = db(db.Admin.id > 0).select().first()                                         \n        #query = db.stlist.flag==""\n        #db(query).update(flag="1")         \n        for k in db(db.User.Award=="D1").select():\n            k.Total=award.D1                                                        #Change the value to change the cost of D1\n            k.update_record()\n        for k in db(db.User.Award=="D2").select():\n            k.Total=award.D2                                                        #change the value to cost of D2\n            k.update_record()\n        for k in db(db.User.Award=="D3").select():\n            k.Total=award.D3                                                       #Change the value to change the cost of D3\n            k.update_record()\n        for k in db(db.User.Award=="ML").select():\n            k.Total=award.ML                                                       #Change the value to change the cost of ML\n            k.update_record()\n        #db(db.stlist.Award==k).update(total="1200")\n        #response.flash = \'Students List uploaded\'\n    users1 = db().select(db.User.ALL, orderby=db.User.Name)\n    users2 = db().select(db.User.ALL, orderby=db.User.Name)\n    for i in users1:\n         for j in users2:\n           if i.id < j.id:\n              if i.RollNo == j.RollNo:\n                  db(db.User.id == i.id).update(Total=i.Total+j.Total)\n                  db(db.User.id == i.id).update(Award1=j.Award)\n                  db(db.User.id == j.id).delete()  \n \n        \n    return dict()\n#@auth.requires_membership(\'Administrator\')\ndef upload1():\n     if request.vars.csvfile != None:\n        table = db[request.vars.table]\n        file = request.vars.csvfile.file\n        table.import_from_csv_file(file)                                          #Import from the csv file\n        response.flash = \'Books List uploaded\'\n     return dict()\ndef update():        \n  db.UPBook.insert(Stu_name=request.args(0),usd=request.args(1),Name=request.args(2),Language=request.args(3),Bid=request.args(7),Copies=request.args(8),Cost=request.args(5)) \n  db(db.User.id ==request.args(4)).update(Uptotal=int(int(request.args(6))+int(request.args(5))))\n  db(db.Book.id ==request.args(7)).update(Copies=int(int(request.args(8))-1))\n  #db.UPBook.Stu_name.default = request.args(0)\n  #db.UPBook.usd.default = request.args(1))\n  #db.UPBook.Name.default=request.args(2)\n  #db.UPBook.Language.default=request.args(3)\n  #return dict(redirect(URL(\'show\')))\n  User = db.User(request.args(4)) or redirect(URL(\'choose\'))\n  upbooks1 = db(db.UPBook.usd==User.RollNo).select()\n  upbooks = db(db.UPBook.usd==User.RollNo).select()\n  \n  for i in upbooks:\n      for j in upbooks1:\n          if i.id < j.id:\n              if i.Bid == j.Bid:\n                 \n                  db(db.UPBook.id == j.id).delete()\n  \n  UPBooks = db(db.UPBook.usd==request.args(1)).select()\n  langu = db().select(db.Lpref.ALL)\n  lang = db().select(db.lang.ALL)\n  Books = db().select(db.Book.ALL, orderby=db.Book.Name)\n  return dict(User=User,UPBooks=UPBooks,Books=Books,lang=lang,langu=langu)\ndef delete():\n  db(db.UPBook.id == request.args(2)).delete()\n  db(db.User.id ==request.args(0)).update(Uptotal=int(int(request.args(1))-int(request.args(6))))\n  db(db.Book.id ==request.args(4)).update(Copies=int(int(request.args(3))))\n  User = db.User(request.args(0)) or redirect(URL(\'choose\'))\n  UPBooks = db(db.UPBook.usd==request.args(5)).select()\n  Books = db().select(db.Book.ALL, orderby=db.Book.Name)\n  langu = db().select(db.Lpref.ALL)\n  lang = db().select(db.lang.ALL)\n  return dict(User=User,UPBooks=UPBooks,Books=Books,langu=langu,lang=lang)\ndef choose1():\n for rows in db(db.auth_user.email == session.token).select(db.auth_user.id):\n  id1=rows.id\n prebooks = db(db.prebook.usd == id1).select()\n Books = db().select(db.Book.ALL, orderby=db.Book.Name)\n return dict(prebooks=prebooks,Books=Books)\n \n \n\ndef update1():\n  db.prebook.insert(usd=request.args(0),Name=request.args(1),Language=request.args(2),Bid=request.args(3),Stu_name=request.args(4))\n  db(db.prebook.Stu_name == \'static\').delete()\n \n  #db.UPBook.Stu_name.default = request.args(0)\n  #db.UPBook.usd.default = request.args(1))\n  #db.UPBook.Name.default=request.args(2)\n  #db.UPBook.Language.default=request.args(3)\n  #return dict(redirect(URL(\'show\')))\n # User = db.User(request.args(0)) or redirect(URL(\'choose1\'))\n\n  \n  prebooks2 = db(db.prebook.usd ==request.args(0)).select()\n  prebooks1 = db(db.prebook.usd ==request.args(0)).select()\n  \n  for i in prebooks2:\n      for j in prebooks1:\n          if i.id < j.id:\n              if i.Bid == j.Bid:\n                 \n                  db(db.prebook.id == j.id).delete()\n  prebooks = db(db.prebook.usd ==request.args(0)).select()\n  Books = db().select(db.Book.ALL, orderby=db.Book.Name)\n  return dict(prebooks=prebooks,Books=Books)\ndef delete1():\n  db(db.prebook.id == request.args(1)).delete()\n  \n  prebooks = db(db.prebook.usd == request.args(0)).select()\n  Books = db().select(db.Book.ALL, orderby=db.Book.Name)\n  return dict(prebooks=prebooks,Books=Books)\ndef download():\n    """\n    allows downloading of uploaded files\n    http://..../[app]/default/download/[filename]\n    """\n    return response.download(request,db)\n\n\ndef call():\n    """\n    exposes services. for example:\n    http://..../[app]/default/call/jsonrpc\n    decorate with @services.jsonrpc the functions to expose\n    supports xml, json, xmlrpc, jsonrpc, amfrpc, rss, csv\n    """\n    return service()\n\n\n@auth.requires_signature()\ndef data():\n    """\n    http://..../[app]/default/data/tables\n    http://..../[app]/default/data/create/[table]\n    http://..../[app]/default/data/read/[table]/[id]\n    http://..../[app]/default/data/update/[table]/[id]\n    http://..../[app]/default/data/delete/[table]/[id]\n    http://..../[app]/default/data/select/[table]\n    http://..../[app]/default/data/search/[table]\n    but URLs must be signed, i.e. linked with\n      A(\'table\',_href=URL(\'data/tables\',user_signature=True))\n    or with the signed load operator\n      LOAD(\'default\',\'data.load\',args=\'tables\',ajax=True,user_signature=True)\n    """\n    return dict(form=crud())\ndef manage():\n    grid = SQLFORM.smartgrid(db.UPBook)\n    return dict(grid=grid)\n\nresponse._vars=response._caller(upload)\n'
p7
sS'snapshot'
p8
(dp9
S'exception'
p10
(dp11
S'__hash__'
p12
S"<method-wrapper '__hash__' of exceptions.AttributeError object>"
p13
sS'__setattr__'
p14
S"<method-wrapper '__setattr__' of exceptions.AttributeError object>"
p15
sS'__reduce_ex__'
p16
S'<built-in method __reduce_ex__ of exceptions.AttributeError object>'
p17
sS'__getslice__'
p18
S"<method-wrapper '__getslice__' of exceptions.AttributeError object>"
p19
sS'__getitem__'
p20
S"<method-wrapper '__getitem__' of exceptions.AttributeError object>"
p21
sS'__setstate__'
p22
S'<built-in method __setstate__ of exceptions.AttributeError object>'
p23
sS'args'
p24
S'("\'NoneType\' object has no attribute \'D1\'",)'
p25
sS'__reduce__'
p26
S'<built-in method __reduce__ of exceptions.AttributeError object>'
p27
sS'__str__'
p28
S"<method-wrapper '__str__' of exceptions.AttributeError object>"
p29
sS'__format__'
p30
S'<built-in method __format__ of exceptions.AttributeError object>'
p31
sS'__getattribute__'
p32
S"<method-wrapper '__getattribute__' of exceptions.AttributeError object>"
p33
sS'__class__'
p34
S"<type 'exceptions.AttributeError'>"
p35
sS'__unicode__'
p36
S'<built-in method __unicode__ of exceptions.AttributeError object>'
p37
sS'__delattr__'
p38
S"<method-wrapper '__delattr__' of exceptions.AttributeError object>"
p39
sS'__subclasshook__'
p40
S'<built-in method __subclasshook__ of type object>'
p41
sS'__repr__'
p42
S"<method-wrapper '__repr__' of exceptions.AttributeError object>"
p43
sS'__dict__'
p44
S'{}'
p45
sS'__sizeof__'
p46
S'<built-in method __sizeof__ of exceptions.AttributeError object>'
p47
sS'__doc__'
p48
S"'Attribute not found.'"
p49
sS'__init__'
p50
S"<method-wrapper '__init__' of exceptions.AttributeError object>"
p51
sS'__new__'
p52
S'<built-in method __new__ of type object>'
p53
ssS'evalue'
p54
S"'NoneType' object has no attribute 'D1'"
p55
sS'request'
p56
ccopy_reg
_reconstructor
p57
(cgluon.html
BEAUTIFY
p58
c__builtin__
object
p59
NtRp60
(dp61
S'attributes'
p62
(dp63
sS'components'
p64
(lp65
g57
(cgluon.html
TABLE
p66
g59
NtRp67
(dp68
g62
(dp69
S'level'
p70
I5
ssS'parent'
p71
Nsg64
(lp72
g57
(cgluon.html
TR
p73
g59
NtRp74
(dp75
g62
(dp76
sg71
g67
sg64
(lp77
g57
(cgluon.html
TD
p78
g59
NtRp79
(dp80
g62
(dp81
S'_style'
p82
S'font-weight:bold;vertical-align:top'
p83
ssg71
g74
sg64
(lp84
S'ajax'
p85
asbag57
(g78
g59
NtRp86
(dp87
g62
(dp88
S'_valign'
p89
S'top'
p90
ssg71
g74
sg64
(lp91
S':'
asbag57
(g78
g59
NtRp92
(dp93
g62
(dp94
sg71
g74
sg64
(lp95
g57
(g58
g59
NtRp96
(dp97
g62
(dp98
g70
I5
ssg71
g92
sg64
(lp99
S'False'
p100
asbasbasbag57
(g73
g59
NtRp101
(dp102
g62
(dp103
sg71
g67
sg64
(lp104
g57
(g78
g59
NtRp105
(dp106
g62
(dp107
g82
g83
ssg71
g101
sg64
(lp108
S'application'
p109
asbag57
(g78
g59
NtRp110
(dp111
g62
(dp112
g89
g90
ssg71
g101
sg64
(lp113
S':'
asbag57
(g78
g59
NtRp114
(dp115
g62
(dp116
sg71
g101
sg64
(lp117
g57
(g58
g59
NtRp118
(dp119
g62
(dp120
g70
I5
ssg71
g114
sg64
(lp121
S'manager'
p122
asbasbasbag57
(g73
g59
NtRp123
(dp124
g62
(dp125
sg71
g67
sg64
(lp126
g57
(g78
g59
NtRp127
(dp128
g62
(dp129
g82
g83
ssg71
g123
sg64
(lp130
g24
asbag57
(g78
g59
NtRp131
(dp132
g62
(dp133
g89
g90
ssg71
g123
sg64
(lp134
S':'
asbag57
(g78
g59
NtRp135
(dp136
g62
(dp137
sg71
g123
sg64
(lp138
g57
(g58
g59
NtRp139
(dp140
g62
(dp141
g70
I5
ssg71
g135
sg64
(lp142
g57
(g66
g59
NtRp143
(dp144
g62
(dp145
g70
I4
ssg71
Nsg64
(lp146
sbasbasbasbag57
(g73
g59
NtRp147
(dp148
g62
(dp149
sg71
g67
sg64
(lp150
g57
(g78
g59
NtRp151
(dp152
g62
(dp153
g82
g83
ssg71
g147
sg64
(lp154
S'body'
p155
asbag57
(g78
g59
NtRp156
(dp157
g62
(dp158
g89
g90
ssg71
g147
sg64
(lp159
S':'
asbag57
(g78
g59
NtRp160
(dp161
g62
(dp162
sg71
g147
sg64
(lp163
g57
(g58
g59
NtRp164
(dp165
g62
(dp166
g70
I5
ssg71
g160
sg64
(lp167
S"<open file '<fdopen>', mode 'w+b' at 0x7f54482c7030>"
p168
asbasbasbag57
(g73
g59
NtRp169
(dp170
g62
(dp171
sg71
g67
sg64
(lp172
g57
(g78
g59
NtRp173
(dp174
g62
(dp175
g82
g83
ssg71
g169
sg64
(lp176
S'cid'
p177
asbag57
(g78
g59
NtRp178
(dp179
g62
(dp180
g89
g90
ssg71
g169
sg64
(lp181
S':'
asbag57
(g78
g59
NtRp182
(dp183
g62
(dp184
sg71
g169
sg64
(lp185
g57
(g58
g59
NtRp186
(dp187
g62
(dp188
g70
I5
ssg71
g182
sg64
(lp189
S'None'
p190
asbasbasbag57
(g73
g59
NtRp191
(dp192
g62
(dp193
sg71
g67
sg64
(lp194
g57
(g78
g59
NtRp195
(dp196
g62
(dp197
g82
g83
ssg71
g191
sg64
(lp198
S'client'
p199
asbag57
(g78
g59
NtRp200
(dp201
g62
(dp202
g89
g90
ssg71
g191
sg64
(lp203
S':'
asbag57
(g78
g59
NtRp204
(dp205
g62
(dp206
sg71
g191
sg64
(lp207
g57
(g58
g59
NtRp208
(dp209
g62
(dp210
g70
I5
ssg71
g204
sg64
(lp211
S'127.0.0.1'
p212
asbasbasbag57
(g73
g59
NtRp213
(dp214
g62
(dp215
sg71
g67
sg64
(lp216
g57
(g78
g59
NtRp217
(dp218
g62
(dp219
g82
g83
ssg71
g213
sg64
(lp220
S'controller'
p221
asbag57
(g78
g59
NtRp222
(dp223
g62
(dp224
g89
g90
ssg71
g213
sg64
(lp225
S':'
asbag57
(g78
g59
NtRp226
(dp227
g62
(dp228
sg71
g213
sg64
(lp229
g57
(g58
g59
NtRp230
(dp231
g62
(dp232
g70
I5
ssg71
g226
sg64
(lp233
S'default'
p234
asbasbasbag57
(g73
g59
NtRp235
(dp236
g62
(dp237
sg71
g67
sg64
(lp238
g57
(g78
g59
NtRp239
(dp240
g62
(dp241
g82
g83
ssg71
g235
sg64
(lp242
S'cookies'
p243
asbag57
(g78
g59
NtRp244
(dp245
g62
(dp246
g89
g90
ssg71
g235
sg64
(lp247
S':'
asbag57
(g78
g59
NtRp248
(dp249
g62
(dp250
sg71
g235
sg64
(lp251
g57
(g58
g59
NtRp252
(dp253
g62
(dp254
g70
I5
ssg71
g248
sg64
(lp255
g57
(g66
g59
NtRp256
(dp257
g62
(dp258
g70
I4
ssg71
Nsg64
(lp259
g57
(g73
g59
NtRp260
(dp261
g62
(dp262
sg71
g256
sg64
(lp263
g57
(g78
g59
NtRp264
(dp265
g62
(dp266
g82
g83
ssg71
g260
sg64
(lp267
S'session_id_admin'
p268
asbag57
(g78
g59
NtRp269
(dp270
g62
(dp271
g89
g90
ssg71
g260
sg64
(lp272
S':'
asbag57
(g78
g59
NtRp273
(dp274
g62
(dp275
sg71
g260
sg64
(lp276
g57
(g58
g59
NtRp277
(dp278
g62
(dp279
g70
I4
ssg71
g273
sg64
(lp280
S'127.0.0.1-a164f780-8141-43dc-8c9b-75ac988d3003'
p281
ag57
(g66
g59
NtRp282
(dp283
g62
(dp284
g70
I3
ssg71
Nsg64
(lp285
g57
(g73
g59
NtRp286
(dp287
g62
(dp288
sg71
g282
sg64
(lp289
g57
(g78
g59
NtRp290
(dp291
g62
(dp292
g82
g83
ssg71
g286
sg64
(lp293
S'comment'
p294
asbag57
(g78
g59
NtRp295
(dp296
g62
(dp297
g89
g90
ssg71
g286
sg64
(lp298
S':'
asbag57
(g78
g59
NtRp299
(dp300
g62
(dp301
sg71
g286
sg64
(lp302
g57
(g58
g59
NtRp303
(dp304
g62
(dp305
g70
I3
ssg71
g299
sg64
(lp306
S''
asbasbasbag57
(g73
g59
NtRp307
(dp308
g62
(dp309
sg71
g282
sg64
(lp310
g57
(g78
g59
NtRp311
(dp312
g62
(dp313
g82
g83
ssg71
g307
sg64
(lp314
S'domain'
p315
asbag57
(g78
g59
NtRp316
(dp317
g62
(dp318
g89
g90
ssg71
g307
sg64
(lp319
S':'
asbag57
(g78
g59
NtRp320
(dp321
g62
(dp322
sg71
g307
sg64
(lp323
g57
(g58
g59
NtRp324
(dp325
g62
(dp326
g70
I3
ssg71
g320
sg64
(lp327
S''
asbasbasbag57
(g73
g59
NtRp328
(dp329
g62
(dp330
sg71
g282
sg64
(lp331
g57
(g78
g59
NtRp332
(dp333
g62
(dp334
g82
g83
ssg71
g328
sg64
(lp335
S'expires'
p336
asbag57
(g78
g59
NtRp337
(dp338
g62
(dp339
g89
g90
ssg71
g328
sg64
(lp340
S':'
asbag57
(g78
g59
NtRp341
(dp342
g62
(dp343
sg71
g328
sg64
(lp344
g57
(g58
g59
NtRp345
(dp346
g62
(dp347
g70
I3
ssg71
g341
sg64
(lp348
S''
asbasbasbag57
(g73
g59
NtRp349
(dp350
g62
(dp351
sg71
g282
sg64
(lp352
g57
(g78
g59
NtRp353
(dp354
g62
(dp355
g82
g83
ssg71
g349
sg64
(lp356
S'httponly'
p357
asbag57
(g78
g59
NtRp358
(dp359
g62
(dp360
g89
g90
ssg71
g349
sg64
(lp361
S':'
asbag57
(g78
g59
NtRp362
(dp363
g62
(dp364
sg71
g349
sg64
(lp365
g57
(g58
g59
NtRp366
(dp367
g62
(dp368
g70
I3
ssg71
g362
sg64
(lp369
S''
asbasbasbag57
(g73
g59
NtRp370
(dp371
g62
(dp372
sg71
g282
sg64
(lp373
g57
(g78
g59
NtRp374
(dp375
g62
(dp376
g82
g83
ssg71
g370
sg64
(lp377
S'max-age'
p378
asbag57
(g78
g59
NtRp379
(dp380
g62
(dp381
g89
g90
ssg71
g370
sg64
(lp382
S':'
asbag57
(g78
g59
NtRp383
(dp384
g62
(dp385
sg71
g370
sg64
(lp386
g57
(g58
g59
NtRp387
(dp388
g62
(dp389
g70
I3
ssg71
g383
sg64
(lp390
S''
asbasbasbag57
(g73
g59
NtRp391
(dp392
g62
(dp393
sg71
g282
sg64
(lp394
g57
(g78
g59
NtRp395
(dp396
g62
(dp397
g82
g83
ssg71
g391
sg64
(lp398
S'path'
p399
asbag57
(g78
g59
NtRp400
(dp401
g62
(dp402
g89
g90
ssg71
g391
sg64
(lp403
S':'
asbag57
(g78
g59
NtRp404
(dp405
g62
(dp406
sg71
g391
sg64
(lp407
g57
(g58
g59
NtRp408
(dp409
g62
(dp410
g70
I3
ssg71
g404
sg64
(lp411
S''
asbasbasbag57
(g73
g59
NtRp412
(dp413
g62
(dp414
sg71
g282
sg64
(lp415
g57
(g78
g59
NtRp416
(dp417
g62
(dp418
g82
g83
ssg71
g412
sg64
(lp419
S'secure'
p420
asbag57
(g78
g59
NtRp421
(dp422
g62
(dp423
g89
g90
ssg71
g412
sg64
(lp424
S':'
asbag57
(g78
g59
NtRp425
(dp426
g62
(dp427
sg71
g412
sg64
(lp428
g57
(g58
g59
NtRp429
(dp430
g62
(dp431
g70
I3
ssg71
g425
sg64
(lp432
S''
asbasbasbag57
(g73
g59
NtRp433
(dp434
g62
(dp435
sg71
g282
sg64
(lp436
g57
(g78
g59
NtRp437
(dp438
g62
(dp439
g82
g83
ssg71
g433
sg64
(lp440
S'version'
p441
asbag57
(g78
g59
NtRp442
(dp443
g62
(dp444
g89
g90
ssg71
g433
sg64
(lp445
S':'
asbag57
(g78
g59
NtRp446
(dp447
g62
(dp448
sg71
g433
sg64
(lp449
g57
(g58
g59
NtRp450
(dp451
g62
(dp452
g70
I3
ssg71
g446
sg64
(lp453
S''
asbasbasbasbasbasbasbag57
(g73
g59
NtRp454
(dp455
g62
(dp456
sg71
g256
sg64
(lp457
g57
(g78
g59
NtRp458
(dp459
g62
(dp460
g82
g83
ssg71
g454
sg64
(lp461
S'session_id_manager'
p462
asbag57
(g78
g59
NtRp463
(dp464
g62
(dp465
g89
g90
ssg71
g454
sg64
(lp466
S':'
asbag57
(g78
g59
NtRp467
(dp468
g62
(dp469
sg71
g454
sg64
(lp470
g57
(g58
g59
NtRp471
(dp472
g62
(dp473
g70
I4
ssg71
g467
sg64
(lp474
S'127.0.0.1-f3c006a7-b1bc-40dc-8ed2-8a737ee2dc70'
p475
ag57
(g66
g59
NtRp476
(dp477
g62
(dp478
g70
I3
ssg71
Nsg64
(lp479
g57
(g73
g59
NtRp480
(dp481
g62
(dp482
sg71
g476
sg64
(lp483
g57
(g78
g59
NtRp484
(dp485
g62
(dp486
g82
g83
ssg71
g480
sg64
(lp487
g294
asbag57
(g78
g59
NtRp488
(dp489
g62
(dp490
g89
g90
ssg71
g480
sg64
(lp491
S':'
asbag57
(g78
g59
NtRp492
(dp493
g62
(dp494
sg71
g480
sg64
(lp495
g57
(g58
g59
NtRp496
(dp497
g62
(dp498
g70
I3
ssg71
g492
sg64
(lp499
S''
asbasbasbag57
(g73
g59
NtRp500
(dp501
g62
(dp502
sg71
g476
sg64
(lp503
g57
(g78
g59
NtRp504
(dp505
g62
(dp506
g82
g83
ssg71
g500
sg64
(lp507
g315
asbag57
(g78
g59
NtRp508
(dp509
g62
(dp510
g89
g90
ssg71
g500
sg64
(lp511
S':'
asbag57
(g78
g59
NtRp512
(dp513
g62
(dp514
sg71
g500
sg64
(lp515
g57
(g58
g59
NtRp516
(dp517
g62
(dp518
g70
I3
ssg71
g512
sg64
(lp519
S''
asbasbasbag57
(g73
g59
NtRp520
(dp521
g62
(dp522
sg71
g476
sg64
(lp523
g57
(g78
g59
NtRp524
(dp525
g62
(dp526
g82
g83
ssg71
g520
sg64
(lp527
g336
asbag57
(g78
g59
NtRp528
(dp529
g62
(dp530
g89
g90
ssg71
g520
sg64
(lp531
S':'
asbag57
(g78
g59
NtRp532
(dp533
g62
(dp534
sg71
g520
sg64
(lp535
g57
(g58
g59
NtRp536
(dp537
g62
(dp538
g70
I3
ssg71
g532
sg64
(lp539
S''
asbasbasbag57
(g73
g59
NtRp540
(dp541
g62
(dp542
sg71
g476
sg64
(lp543
g57
(g78
g59
NtRp544
(dp545
g62
(dp546
g82
g83
ssg71
g540
sg64
(lp547
g357
asbag57
(g78
g59
NtRp548
(dp549
g62
(dp550
g89
g90
ssg71
g540
sg64
(lp551
S':'
asbag57
(g78
g59
NtRp552
(dp553
g62
(dp554
sg71
g540
sg64
(lp555
g57
(g58
g59
NtRp556
(dp557
g62
(dp558
g70
I3
ssg71
g552
sg64
(lp559
S''
asbasbasbag57
(g73
g59
NtRp560
(dp561
g62
(dp562
sg71
g476
sg64
(lp563
g57
(g78
g59
NtRp564
(dp565
g62
(dp566
g82
g83
ssg71
g560
sg64
(lp567
g378
asbag57
(g78
g59
NtRp568
(dp569
g62
(dp570
g89
g90
ssg71
g560
sg64
(lp571
S':'
asbag57
(g78
g59
NtRp572
(dp573
g62
(dp574
sg71
g560
sg64
(lp575
g57
(g58
g59
NtRp576
(dp577
g62
(dp578
g70
I3
ssg71
g572
sg64
(lp579
S''
asbasbasbag57
(g73
g59
NtRp580
(dp581
g62
(dp582
sg71
g476
sg64
(lp583
g57
(g78
g59
NtRp584
(dp585
g62
(dp586
g82
g83
ssg71
g580
sg64
(lp587
g399
asbag57
(g78
g59
NtRp588
(dp589
g62
(dp590
g89
g90
ssg71
g580
sg64
(lp591
S':'
asbag57
(g78
g59
NtRp592
(dp593
g62
(dp594
sg71
g580
sg64
(lp595
g57
(g58
g59
NtRp596
(dp597
g62
(dp598
g70
I3
ssg71
g592
sg64
(lp599
S''
asbasbasbag57
(g73
g59
NtRp600
(dp601
g62
(dp602
sg71
g476
sg64
(lp603
g57
(g78
g59
NtRp604
(dp605
g62
(dp606
g82
g83
ssg71
g600
sg64
(lp607
g420
asbag57
(g78
g59
NtRp608
(dp609
g62
(dp610
g89
g90
ssg71
g600
sg64
(lp611
S':'
asbag57
(g78
g59
NtRp612
(dp613
g62
(dp614
sg71
g600
sg64
(lp615
g57
(g58
g59
NtRp616
(dp617
g62
(dp618
g70
I3
ssg71
g612
sg64
(lp619
S''
asbasbasbag57
(g73
g59
NtRp620
(dp621
g62
(dp622
sg71
g476
sg64
(lp623
g57
(g78
g59
NtRp624
(dp625
g62
(dp626
g82
g83
ssg71
g620
sg64
(lp627
g441
asbag57
(g78
g59
NtRp628
(dp629
g62
(dp630
g89
g90
ssg71
g620
sg64
(lp631
S':'
asbag57
(g78
g59
NtRp632
(dp633
g62
(dp634
sg71
g620
sg64
(lp635
g57
(g58
g59
NtRp636
(dp637
g62
(dp638
g70
I3
ssg71
g632
sg64
(lp639
S''
asbasbasbasbasbasbasbag57
(g73
g59
NtRp640
(dp641
g62
(dp642
sg71
g256
sg64
(lp643
g57
(g78
g59
NtRp644
(dp645
g62
(dp646
g82
g83
ssg71
g640
sg64
(lp647
S'session_id_welcome'
p648
asbag57
(g78
g59
NtRp649
(dp650
g62
(dp651
g89
g90
ssg71
g640
sg64
(lp652
S':'
asbag57
(g78
g59
NtRp653
(dp654
g62
(dp655
sg71
g640
sg64
(lp656
g57
(g58
g59
NtRp657
(dp658
g62
(dp659
g70
I4
ssg71
g653
sg64
(lp660
S'127.0.0.1-649d899e-d80e-41d7-9289-d969b1ae1c5a'
p661
ag57
(g66
g59
NtRp662
(dp663
g62
(dp664
g70
I3
ssg71
Nsg64
(lp665
g57
(g73
g59
NtRp666
(dp667
g62
(dp668
sg71
g662
sg64
(lp669
g57
(g78
g59
NtRp670
(dp671
g62
(dp672
g82
g83
ssg71
g666
sg64
(lp673
g294
asbag57
(g78
g59
NtRp674
(dp675
g62
(dp676
g89
g90
ssg71
g666
sg64
(lp677
S':'
asbag57
(g78
g59
NtRp678
(dp679
g62
(dp680
sg71
g666
sg64
(lp681
g57
(g58
g59
NtRp682
(dp683
g62
(dp684
g70
I3
ssg71
g678
sg64
(lp685
S''
asbasbasbag57
(g73
g59
NtRp686
(dp687
g62
(dp688
sg71
g662
sg64
(lp689
g57
(g78
g59
NtRp690
(dp691
g62
(dp692
g82
g83
ssg71
g686
sg64
(lp693
g315
asbag57
(g78
g59
NtRp694
(dp695
g62
(dp696
g89
g90
ssg71
g686
sg64
(lp697
S':'
asbag57
(g78
g59
NtRp698
(dp699
g62
(dp700
sg71
g686
sg64
(lp701
g57
(g58
g59
NtRp702
(dp703
g62
(dp704
g70
I3
ssg71
g698
sg64
(lp705
S''
asbasbasbag57
(g73
g59
NtRp706
(dp707
g62
(dp708
sg71
g662
sg64
(lp709
g57
(g78
g59
NtRp710
(dp711
g62
(dp712
g82
g83
ssg71
g706
sg64
(lp713
g336
asbag57
(g78
g59
NtRp714
(dp715
g62
(dp716
g89
g90
ssg71
g706
sg64
(lp717
S':'
asbag57
(g78
g59
NtRp718
(dp719
g62
(dp720
sg71
g706
sg64
(lp721
g57
(g58
g59
NtRp722
(dp723
g62
(dp724
g70
I3
ssg71
g718
sg64
(lp725
S''
asbasbasbag57
(g73
g59
NtRp726
(dp727
g62
(dp728
sg71
g662
sg64
(lp729
g57
(g78
g59
NtRp730
(dp731
g62
(dp732
g82
g83
ssg71
g726
sg64
(lp733
g357
asbag57
(g78
g59
NtRp734
(dp735
g62
(dp736
g89
g90
ssg71
g726
sg64
(lp737
S':'
asbag57
(g78
g59
NtRp738
(dp739
g62
(dp740
sg71
g726
sg64
(lp741
g57
(g58
g59
NtRp742
(dp743
g62
(dp744
g70
I3
ssg71
g738
sg64
(lp745
S''
asbasbasbag57
(g73
g59
NtRp746
(dp747
g62
(dp748
sg71
g662
sg64
(lp749
g57
(g78
g59
NtRp750
(dp751
g62
(dp752
g82
g83
ssg71
g746
sg64
(lp753
g378
asbag57
(g78
g59
NtRp754
(dp755
g62
(dp756
g89
g90
ssg71
g746
sg64
(lp757
S':'
asbag57
(g78
g59
NtRp758
(dp759
g62
(dp760
sg71
g746
sg64
(lp761
g57
(g58
g59
NtRp762
(dp763
g62
(dp764
g70
I3
ssg71
g758
sg64
(lp765
S''
asbasbasbag57
(g73
g59
NtRp766
(dp767
g62
(dp768
sg71
g662
sg64
(lp769
g57
(g78
g59
NtRp770
(dp771
g62
(dp772
g82
g83
ssg71
g766
sg64
(lp773
g399
asbag57
(g78
g59
NtRp774
(dp775
g62
(dp776
g89
g90
ssg71
g766
sg64
(lp777
S':'
asbag57
(g78
g59
NtRp778
(dp779
g62
(dp780
sg71
g766
sg64
(lp781
g57
(g58
g59
NtRp782
(dp783
g62
(dp784
g70
I3
ssg71
g778
sg64
(lp785
S''
asbasbasbag57
(g73
g59
NtRp786
(dp787
g62
(dp788
sg71
g662
sg64
(lp789
g57
(g78
g59
NtRp790
(dp791
g62
(dp792
g82
g83
ssg71
g786
sg64
(lp793
g420
asbag57
(g78
g59
NtRp794
(dp795
g62
(dp796
g89
g90
ssg71
g786
sg64
(lp797
S':'
asbag57
(g78
g59
NtRp798
(dp799
g62
(dp800
sg71
g786
sg64
(lp801
g57
(g58
g59
NtRp802
(dp803
g62
(dp804
g70
I3
ssg71
g798
sg64
(lp805
S''
asbasbasbag57
(g73
g59
NtRp806
(dp807
g62
(dp808
sg71
g662
sg64
(lp809
g57
(g78
g59
NtRp810
(dp811
g62
(dp812
g82
g83
ssg71
g806
sg64
(lp813
g441
asbag57
(g78
g59
NtRp814
(dp815
g62
(dp816
g89
g90
ssg71
g806
sg64
(lp817
S':'
asbag57
(g78
g59
NtRp818
(dp819
g62
(dp820
sg71
g806
sg64
(lp821
g57
(g58
g59
NtRp822
(dp823
g62
(dp824
g70
I3
ssg71
g818
sg64
(lp825
S''
asbasbasbasbasbasbasbasbasbasbasbag57
(g73
g59
NtRp826
(dp827
g62
(dp828
sg71
g67
sg64
(lp829
g57
(g78
g59
NtRp830
(dp831
g62
(dp832
g82
g83
ssg71
g826
sg64
(lp833
S'env'
p834
asbag57
(g78
g59
NtRp835
(dp836
g62
(dp837
g89
g90
ssg71
g826
sg64
(lp838
S':'
asbag57
(g78
g59
NtRp839
(dp840
g62
(dp841
sg71
g826
sg64
(lp842
g57
(g58
g59
NtRp843
(dp844
g62
(dp845
g70
I5
ssg71
g839
sg64
(lp846
g57
(g66
g59
NtRp847
(dp848
g62
(dp849
g70
I4
ssg71
Nsg64
(lp850
g57
(g73
g59
NtRp851
(dp852
g62
(dp853
sg71
g847
sg64
(lp854
g57
(g78
g59
NtRp855
(dp856
g62
(dp857
g82
g83
ssg71
g851
sg64
(lp858
S'app_folders'
p859
asbag57
(g78
g59
NtRp860
(dp861
g62
(dp862
g89
g90
ssg71
g851
sg64
(lp863
S':'
asbag57
(g78
g59
NtRp864
(dp865
g62
(dp866
sg71
g851
sg64
(lp867
g57
(g58
g59
NtRp868
(dp869
g62
(dp870
g70
I4
ssg71
g864
sg64
(lp871
S"set(['/home/madhuri/Downloads/web2py/applications/admin/', '/home/madhuri/Downloads/web2py/applications/manager/', '/home/madhuri/Downloads/web2py/applications/welcome/'])"
p872
asbasbasbag57
(g73
g59
NtRp873
(dp874
g62
(dp875
sg71
g847
sg64
(lp876
g57
(g78
g59
NtRp877
(dp878
g62
(dp879
g82
g83
ssg71
g873
sg64
(lp880
S'applications_parent'
p881
asbag57
(g78
g59
NtRp882
(dp883
g62
(dp884
g89
g90
ssg71
g873
sg64
(lp885
S':'
asbag57
(g78
g59
NtRp886
(dp887
g62
(dp888
sg71
g873
sg64
(lp889
g57
(g58
g59
NtRp890
(dp891
g62
(dp892
g70
I4
ssg71
g886
sg64
(lp893
S'/home/madhuri/Downloads/web2py'
p894
asbasbasbag57
(g73
g59
NtRp895
(dp896
g62
(dp897
sg71
g847
sg64
(lp898
g57
(g78
g59
NtRp899
(dp900
g62
(dp901
g82
g83
ssg71
g895
sg64
(lp902
S'cmd_args'
p903
asbag57
(g78
g59
NtRp904
(dp905
g62
(dp906
g89
g90
ssg71
g895
sg64
(lp907
S':'
asbag57
(g78
g59
NtRp908
(dp909
g62
(dp910
sg71
g895
sg64
(lp911
g57
(g58
g59
NtRp912
(dp913
g62
(dp914
g70
I4
ssg71
g908
sg64
(lp915
g57
(g66
g59
NtRp916
(dp917
g62
(dp918
g70
I3
ssg71
Nsg64
(lp919
sbasbasbasbag57
(g73
g59
NtRp920
(dp921
g62
(dp922
sg71
g847
sg64
(lp923
g57
(g78
g59
NtRp924
(dp925
g62
(dp926
g82
g83
ssg71
g920
sg64
(lp927
S'cmd_options'
p928
asbag57
(g78
g59
NtRp929
(dp930
g62
(dp931
g89
g90
ssg71
g920
sg64
(lp932
S':'
asbag57
(g78
g59
NtRp933
(dp934
g62
(dp935
sg71
g920
sg64
(lp936
g57
(g58
g59
NtRp937
(dp938
g62
(dp939
g70
I4
ssg71
g933
sg64
(lp940
S"<Values at 0x14bf950: {'verbose': False, 'ip': '127.0.0.1', 'with_scheduler': False, 'ips': ['127.0.1.1'], 'shutdown_timeout': 5, 'taskbar': False, 'port': 8000, 'maxthreads': None, 'softcron': False, 'server_name': 'ubuntu', 'bpython': False, 'nogui': False, 'nocron': False, 'extcron': False, 'run_system_tests': False, 'test': None, 'folder': '/home/madhuri/Downloads/web2py', 'config': '', 'import_models': False, 'winservice': '', 'shell': None, 'run': '', 'log_filename': 'httpserver.log', 'debuglevel': 30, 'args': [''], 'socket_timeout': 5, 'ssl_ca_certificate': None, 'scheduler': None, 'profiler_filename': None, 'ssl_private_key': '', 'scheduler_groups': None, 'password': '1', 'request_queue_size': 5, 'ssl_certificate': '', 'cronjob': False, 'numthreads': None, 'quiet': False, 'interfaces': None, 'minthreads': None, 'timeout': 10, 'plain': False, 'nobanner': False, 'pid_filename': 'httpserver.pid'}>"
p941
asbasbasbag57
(g73
g59
NtRp942
(dp943
g62
(dp944
sg71
g847
sg64
(lp945
g57
(g78
g59
NtRp946
(dp947
g62
(dp948
g82
g83
ssg71
g942
sg64
(lp949
S'content_length'
p950
asbag57
(g78
g59
NtRp951
(dp952
g62
(dp953
g89
g90
ssg71
g942
sg64
(lp954
S':'
asbag57
(g78
g59
NtRp955
(dp956
g62
(dp957
sg71
g942
sg64
(lp958
g57
(g58
g59
NtRp959
(dp960
g62
(dp961
g70
I4
ssg71
g955
sg64
(lp962
S'17304'
p963
asbasbasbag57
(g73
g59
NtRp964
(dp965
g62
(dp966
sg71
g847
sg64
(lp967
g57
(g78
g59
NtRp968
(dp969
g62
(dp970
g82
g83
ssg71
g964
sg64
(lp971
S'content_type'
p972
asbag57
(g78
g59
NtRp973
(dp974
g62
(dp975
g89
g90
ssg71
g964
sg64
(lp976
S':'
asbag57
(g78
g59
NtRp977
(dp978
g62
(dp979
sg71
g964
sg64
(lp980
g57
(g58
g59
NtRp981
(dp982
g62
(dp983
g70
I4
ssg71
g977
sg64
(lp984
S'multipart/form-data; boundary=---------------------------88713716907999771861104817'
p985
asbasbasbag57
(g73
g59
NtRp986
(dp987
g62
(dp988
sg71
g847
sg64
(lp989
g57
(g78
g59
NtRp990
(dp991
g62
(dp992
g82
g83
ssg71
g986
sg64
(lp993
S'db_sessions'
p994
asbag57
(g78
g59
NtRp995
(dp996
g62
(dp997
g89
g90
ssg71
g986
sg64
(lp998
S':'
asbag57
(g78
g59
NtRp999
(dp1000
g62
(dp1001
sg71
g986
sg64
(lp1002
g57
(g58
g59
NtRp1003
(dp1004
g62
(dp1005
g70
I4
ssg71
g999
sg64
(lp1006
S'set([])'
p1007
asbasbasbag57
(g73
g59
NtRp1008
(dp1009
g62
(dp1010
sg71
g847
sg64
(lp1011
g57
(g78
g59
NtRp1012
(dp1013
g62
(dp1014
g82
g83
ssg71
g1008
sg64
(lp1015
S'debugging'
p1016
asbag57
(g78
g59
NtRp1017
(dp1018
g62
(dp1019
g89
g90
ssg71
g1008
sg64
(lp1020
S':'
asbag57
(g78
g59
NtRp1021
(dp1022
g62
(dp1023
sg71
g1008
sg64
(lp1024
g57
(g58
g59
NtRp1025
(dp1026
g62
(dp1027
g70
I4
ssg71
g1021
sg64
(lp1028
g100
asbasbasbag57
(g73
g59
NtRp1029
(dp1030
g62
(dp1031
sg71
g847
sg64
(lp1032
g57
(g78
g59
NtRp1033
(dp1034
g62
(dp1035
g82
g83
ssg71
g1029
sg64
(lp1036
S'gluon_parent'
p1037
asbag57
(g78
g59
NtRp1038
(dp1039
g62
(dp1040
g89
g90
ssg71
g1029
sg64
(lp1041
S':'
asbag57
(g78
g59
NtRp1042
(dp1043
g62
(dp1044
sg71
g1029
sg64
(lp1045
g57
(g58
g59
NtRp1046
(dp1047
g62
(dp1048
g70
I4
ssg71
g1042
sg64
(lp1049
S'/home/madhuri/Downloads/web2py'
p1050
asbasbasbag57
(g73
g59
NtRp1051
(dp1052
g62
(dp1053
sg71
g847
sg64
(lp1054
g57
(g78
g59
NtRp1055
(dp1056
g62
(dp1057
g82
g83
ssg71
g1051
sg64
(lp1058
S'http_accept'
p1059
asbag57
(g78
g59
NtRp1060
(dp1061
g62
(dp1062
g89
g90
ssg71
g1051
sg64
(lp1063
S':'
asbag57
(g78
g59
NtRp1064
(dp1065
g62
(dp1066
sg71
g1051
sg64
(lp1067
g57
(g58
g59
NtRp1068
(dp1069
g62
(dp1070
g70
I4
ssg71
g1064
sg64
(lp1071
S'text/html,application/xhtml+xml,application/xml;q=0.9,*/*;q=0.8'
p1072
asbasbasbag57
(g73
g59
NtRp1073
(dp1074
g62
(dp1075
sg71
g847
sg64
(lp1076
g57
(g78
g59
NtRp1077
(dp1078
g62
(dp1079
g82
g83
ssg71
g1073
sg64
(lp1080
S'http_accept_encoding'
p1081
asbag57
(g78
g59
NtRp1082
(dp1083
g62
(dp1084
g89
g90
ssg71
g1073
sg64
(lp1085
S':'
asbag57
(g78
g59
NtRp1086
(dp1087
g62
(dp1088
sg71
g1073
sg64
(lp1089
g57
(g58
g59
NtRp1090
(dp1091
g62
(dp1092
g70
I4
ssg71
g1086
sg64
(lp1093
S'gzip, deflate'
p1094
asbasbasbag57
(g73
g59
NtRp1095
(dp1096
g62
(dp1097
sg71
g847
sg64
(lp1098
g57
(g78
g59
NtRp1099
(dp1100
g62
(dp1101
g82
g83
ssg71
g1095
sg64
(lp1102
S'http_accept_language'
p1103
asbag57
(g78
g59
NtRp1104
(dp1105
g62
(dp1106
g89
g90
ssg71
g1095
sg64
(lp1107
S':'
asbag57
(g78
g59
NtRp1108
(dp1109
g62
(dp1110
sg71
g1095
sg64
(lp1111
g57
(g58
g59
NtRp1112
(dp1113
g62
(dp1114
g70
I4
ssg71
g1108
sg64
(lp1115
S'en-us,en;q=0.5'
p1116
asbasbasbag57
(g73
g59
NtRp1117
(dp1118
g62
(dp1119
sg71
g847
sg64
(lp1120
g57
(g78
g59
NtRp1121
(dp1122
g62
(dp1123
g82
g83
ssg71
g1117
sg64
(lp1124
S'http_connection'
p1125
asbag57
(g78
g59
NtRp1126
(dp1127
g62
(dp1128
g89
g90
ssg71
g1117
sg64
(lp1129
S':'
asbag57
(g78
g59
NtRp1130
(dp1131
g62
(dp1132
sg71
g1117
sg64
(lp1133
g57
(g58
g59
NtRp1134
(dp1135
g62
(dp1136
g70
I4
ssg71
g1130
sg64
(lp1137
S'keep-alive'
p1138
asbasbasbag57
(g73
g59
NtRp1139
(dp1140
g62
(dp1141
sg71
g847
sg64
(lp1142
g57
(g78
g59
NtRp1143
(dp1144
g62
(dp1145
g82
g83
ssg71
g1139
sg64
(lp1146
S'http_content_length'
p1147
asbag57
(g78
g59
NtRp1148
(dp1149
g62
(dp1150
g89
g90
ssg71
g1139
sg64
(lp1151
S':'
asbag57
(g78
g59
NtRp1152
(dp1153
g62
(dp1154
sg71
g1139
sg64
(lp1155
g57
(g58
g59
NtRp1156
(dp1157
g62
(dp1158
g70
I4
ssg71
g1152
sg64
(lp1159
g963
asbasbasbag57
(g73
g59
NtRp1160
(dp1161
g62
(dp1162
sg71
g847
sg64
(lp1163
g57
(g78
g59
NtRp1164
(dp1165
g62
(dp1166
g82
g83
ssg71
g1160
sg64
(lp1167
S'http_content_type'
p1168
asbag57
(g78
g59
NtRp1169
(dp1170
g62
(dp1171
g89
g90
ssg71
g1160
sg64
(lp1172
S':'
asbag57
(g78
g59
NtRp1173
(dp1174
g62
(dp1175
sg71
g1160
sg64
(lp1176
g57
(g58
g59
NtRp1177
(dp1178
g62
(dp1179
g70
I4
ssg71
g1173
sg64
(lp1180
g985
asbasbasbag57
(g73
g59
NtRp1181
(dp1182
g62
(dp1183
sg71
g847
sg64
(lp1184
g57
(g78
g59
NtRp1185
(dp1186
g62
(dp1187
g82
g83
ssg71
g1181
sg64
(lp1188
S'http_cookie'
p1189
asbag57
(g78
g59
NtRp1190
(dp1191
g62
(dp1192
g89
g90
ssg71
g1181
sg64
(lp1193
S':'
asbag57
(g78
g59
NtRp1194
(dp1195
g62
(dp1196
sg71
g1181
sg64
(lp1197
g57
(g58
g59
NtRp1198
(dp1199
g62
(dp1200
g70
I4
ssg71
g1194
sg64
(lp1201
S'session_id_welcome=127.0.0.1-649d899e-d80e-41d7-9289-d969b1ae1c5a; session_id_admin=127.0.0.1-a164f780-8141-43dc-8c9b-75ac988d3003; session_id_manager=127.0.0.1-f3c006a7-b1bc-40dc-8ed2-8a737ee2dc70'
p1202
asbasbasbag57
(g73
g59
NtRp1203
(dp1204
g62
(dp1205
sg71
g847
sg64
(lp1206
g57
(g78
g59
NtRp1207
(dp1208
g62
(dp1209
g82
g83
ssg71
g1203
sg64
(lp1210
S'http_host'
p1211
asbag57
(g78
g59
NtRp1212
(dp1213
g62
(dp1214
g89
g90
ssg71
g1203
sg64
(lp1215
S':'
asbag57
(g78
g59
NtRp1216
(dp1217
g62
(dp1218
sg71
g1203
sg64
(lp1219
g57
(g58
g59
NtRp1220
(dp1221
g62
(dp1222
g70
I4
ssg71
g1216
sg64
(lp1223
S'127.0.0.1:8000'
p1224
asbasbasbag57
(g73
g59
NtRp1225
(dp1226
g62
(dp1227
sg71
g847
sg64
(lp1228
g57
(g78
g59
NtRp1229
(dp1230
g62
(dp1231
g82
g83
ssg71
g1225
sg64
(lp1232
S'http_referer'
p1233
asbag57
(g78
g59
NtRp1234
(dp1235
g62
(dp1236
g89
g90
ssg71
g1225
sg64
(lp1237
S':'
asbag57
(g78
g59
NtRp1238
(dp1239
g62
(dp1240
sg71
g1225
sg64
(lp1241
g57
(g58
g59
NtRp1242
(dp1243
g62
(dp1244
g70
I4
ssg71
g1238
sg64
(lp1245
S'http://127.0.0.1:8000/manager/default/upload'
p1246
asbasbasbag57
(g73
g59
NtRp1247
(dp1248
g62
(dp1249
sg71
g847
sg64
(lp1250
g57
(g78
g59
NtRp1251
(dp1252
g62
(dp1253
g82
g83
ssg71
g1247
sg64
(lp1254
S'http_user_agent'
p1255
asbag57
(g78
g59
NtRp1256
(dp1257
g62
(dp1258
g89
g90
ssg71
g1247
sg64
(lp1259
S':'
asbag57
(g78
g59
NtRp1260
(dp1261
g62
(dp1262
sg71
g1247
sg64
(lp1263
g57
(g58
g59
NtRp1264
(dp1265
g62
(dp1266
g70
I4
ssg71
g1260
sg64
(lp1267
S'Mozilla/5.0 (X11; Ubuntu; Linux x86_64; rv:14.0) Gecko/20100101 Firefox/14.0.1'
p1268
asbasbasbag57
(g73
g59
NtRp1269
(dp1270
g62
(dp1271
sg71
g847
sg64
(lp1272
g57
(g78
g59
NtRp1273
(dp1274
g62
(dp1275
g82
g83
ssg71
g1269
sg64
(lp1276
S'is_jython'
p1277
asbag57
(g78
g59
NtRp1278
(dp1279
g62
(dp1280
g89
g90
ssg71
g1269
sg64
(lp1281
S':'
asbag57
(g78
g59
NtRp1282
(dp1283
g62
(dp1284
sg71
g1269
sg64
(lp1285
g57
(g58
g59
NtRp1286
(dp1287
g62
(dp1288
g70
I4
ssg71
g1282
sg64
(lp1289
g100
asbasbasbag57
(g73
g59
NtRp1290
(dp1291
g62
(dp1292
sg71
g847
sg64
(lp1293
g57
(g78
g59
NtRp1294
(dp1295
g62
(dp1296
g82
g83
ssg71
g1290
sg64
(lp1297
S'is_pypy'
p1298
asbag57
(g78
g59
NtRp1299
(dp1300
g62
(dp1301
g89
g90
ssg71
g1290
sg64
(lp1302
S':'
asbag57
(g78
g59
NtRp1303
(dp1304
g62
(dp1305
sg71
g1290
sg64
(lp1306
g57
(g58
g59
NtRp1307
(dp1308
g62
(dp1309
g70
I4
ssg71
g1303
sg64
(lp1310
g100
asbasbasbag57
(g73
g59
NtRp1311
(dp1312
g62
(dp1313
sg71
g847
sg64
(lp1314
g57
(g78
g59
NtRp1315
(dp1316
g62
(dp1317
g82
g83
ssg71
g1311
sg64
(lp1318
S'path_info'
p1319
asbag57
(g78
g59
NtRp1320
(dp1321
g62
(dp1322
g89
g90
ssg71
g1311
sg64
(lp1323
S':'
asbag57
(g78
g59
NtRp1324
(dp1325
g62
(dp1326
sg71
g1311
sg64
(lp1327
g57
(g58
g59
NtRp1328
(dp1329
g62
(dp1330
g70
I4
ssg71
g1324
sg64
(lp1331
S'/manager/default/upload'
p1332
asbasbasbag57
(g73
g59
NtRp1333
(dp1334
g62
(dp1335
sg71
g847
sg64
(lp1336
g57
(g78
g59
NtRp1337
(dp1338
g62
(dp1339
g82
g83
ssg71
g1333
sg64
(lp1340
S'query_string'
p1341
asbag57
(g78
g59
NtRp1342
(dp1343
g62
(dp1344
g89
g90
ssg71
g1333
sg64
(lp1345
S':'
asbag57
(g78
g59
NtRp1346
(dp1347
g62
(dp1348
sg71
g1333
sg64
(lp1349
g57
(g58
g59
NtRp1350
(dp1351
g62
(dp1352
g70
I4
ssg71
g1346
sg64
(lp1353
S''
asbasbasbag57
(g73
g59
NtRp1354
(dp1355
g62
(dp1356
sg71
g847
sg64
(lp1357
g57
(g78
g59
NtRp1358
(dp1359
g62
(dp1360
g82
g83
ssg71
g1354
sg64
(lp1361
S'remote_addr'
p1362
asbag57
(g78
g59
NtRp1363
(dp1364
g62
(dp1365
g89
g90
ssg71
g1354
sg64
(lp1366
S':'
asbag57
(g78
g59
NtRp1367
(dp1368
g62
(dp1369
sg71
g1354
sg64
(lp1370
g57
(g58
g59
NtRp1371
(dp1372
g62
(dp1373
g70
I4
ssg71
g1367
sg64
(lp1374
g212
asbasbasbag57
(g73
g59
NtRp1375
(dp1376
g62
(dp1377
sg71
g847
sg64
(lp1378
g57
(g78
g59
NtRp1379
(dp1380
g62
(dp1381
g82
g83
ssg71
g1375
sg64
(lp1382
S'remote_port'
p1383
asbag57
(g78
g59
NtRp1384
(dp1385
g62
(dp1386
g89
g90
ssg71
g1375
sg64
(lp1387
S':'
asbag57
(g78
g59
NtRp1388
(dp1389
g62
(dp1390
sg71
g1375
sg64
(lp1391
g57
(g58
g59
NtRp1392
(dp1393
g62
(dp1394
g70
I4
ssg71
g1388
sg64
(lp1395
S'47486'
p1396
asbasbasbag57
(g73
g59
NtRp1397
(dp1398
g62
(dp1399
sg71
g847
sg64
(lp1400
g57
(g78
g59
NtRp1401
(dp1402
g62
(dp1403
g82
g83
ssg71
g1397
sg64
(lp1404
S'request_method'
p1405
asbag57
(g78
g59
NtRp1406
(dp1407
g62
(dp1408
g89
g90
ssg71
g1397
sg64
(lp1409
S':'
asbag57
(g78
g59
NtRp1410
(dp1411
g62
(dp1412
sg71
g1397
sg64
(lp1413
g57
(g58
g59
NtRp1414
(dp1415
g62
(dp1416
g70
I4
ssg71
g1410
sg64
(lp1417
S'POST'
p1418
asbasbasbag57
(g73
g59
NtRp1419
(dp1420
g62
(dp1421
sg71
g847
sg64
(lp1422
g57
(g78
g59
NtRp1423
(dp1424
g62
(dp1425
g82
g83
ssg71
g1419
sg64
(lp1426
S'request_uri'
p1427
asbag57
(g78
g59
NtRp1428
(dp1429
g62
(dp1430
g89
g90
ssg71
g1419
sg64
(lp1431
S':'
asbag57
(g78
g59
NtRp1432
(dp1433
g62
(dp1434
sg71
g1419
sg64
(lp1435
g57
(g58
g59
NtRp1436
(dp1437
g62
(dp1438
g70
I4
ssg71
g1432
sg64
(lp1439
g1332
asbasbasbag57
(g73
g59
NtRp1440
(dp1441
g62
(dp1442
sg71
g847
sg64
(lp1443
g57
(g78
g59
NtRp1444
(dp1445
g62
(dp1446
g82
g83
ssg71
g1440
sg64
(lp1447
S'script_name'
p1448
asbag57
(g78
g59
NtRp1449
(dp1450
g62
(dp1451
g89
g90
ssg71
g1440
sg64
(lp1452
S':'
asbag57
(g78
g59
NtRp1453
(dp1454
g62
(dp1455
sg71
g1440
sg64
(lp1456
g57
(g58
g59
NtRp1457
(dp1458
g62
(dp1459
g70
I4
ssg71
g1453
sg64
(lp1460
S''
asbasbasbag57
(g73
g59
NtRp1461
(dp1462
g62
(dp1463
sg71
g847
sg64
(lp1464
g57
(g78
g59
NtRp1465
(dp1466
g62
(dp1467
g82
g83
ssg71
g1461
sg64
(lp1468
S'server_name'
p1469
asbag57
(g78
g59
NtRp1470
(dp1471
g62
(dp1472
g89
g90
ssg71
g1461
sg64
(lp1473
S':'
asbag57
(g78
g59
NtRp1474
(dp1475
g62
(dp1476
sg71
g1461
sg64
(lp1477
g57
(g58
g59
NtRp1478
(dp1479
g62
(dp1480
g70
I4
ssg71
g1474
sg64
(lp1481
S'ubuntu'
p1482
asbasbasbag57
(g73
g59
NtRp1483
(dp1484
g62
(dp1485
sg71
g847
sg64
(lp1486
g57
(g78
g59
NtRp1487
(dp1488
g62
(dp1489
g82
g83
ssg71
g1483
sg64
(lp1490
S'server_port'
p1491
asbag57
(g78
g59
NtRp1492
(dp1493
g62
(dp1494
g89
g90
ssg71
g1483
sg64
(lp1495
S':'
asbag57
(g78
g59
NtRp1496
(dp1497
g62
(dp1498
sg71
g1483
sg64
(lp1499
g57
(g58
g59
NtRp1500
(dp1501
g62
(dp1502
g70
I4
ssg71
g1496
sg64
(lp1503
S'8000'
p1504
asbasbasbag57
(g73
g59
NtRp1505
(dp1506
g62
(dp1507
sg71
g847
sg64
(lp1508
g57
(g78
g59
NtRp1509
(dp1510
g62
(dp1511
g82
g83
ssg71
g1505
sg64
(lp1512
S'server_protocol'
p1513
asbag57
(g78
g59
NtRp1514
(dp1515
g62
(dp1516
g89
g90
ssg71
g1505
sg64
(lp1517
S':'
asbag57
(g78
g59
NtRp1518
(dp1519
g62
(dp1520
sg71
g1505
sg64
(lp1521
g57
(g58
g59
NtRp1522
(dp1523
g62
(dp1524
g70
I4
ssg71
g1518
sg64
(lp1525
S'HTTP/1.1'
p1526
asbasbasbag57
(g73
g59
NtRp1527
(dp1528
g62
(dp1529
sg71
g847
sg64
(lp1530
g57
(g78
g59
NtRp1531
(dp1532
g62
(dp1533
g82
g83
ssg71
g1527
sg64
(lp1534
S'server_software'
p1535
asbag57
(g78
g59
NtRp1536
(dp1537
g62
(dp1538
g89
g90
ssg71
g1527
sg64
(lp1539
S':'
asbag57
(g78
g59
NtRp1540
(dp1541
g62
(dp1542
sg71
g1527
sg64
(lp1543
g57
(g58
g59
NtRp1544
(dp1545
g62
(dp1546
g70
I4
ssg71
g1540
sg64
(lp1547
S'Rocket 1.2.4'
p1548
asbasbasbag57
(g73
g59
NtRp1549
(dp1550
g62
(dp1551
sg71
g847
sg64
(lp1552
g57
(g78
g59
NtRp1553
(dp1554
g62
(dp1555
g82
g83
ssg71
g1549
sg64
(lp1556
S'web2py_crontype'
p1557
asbag57
(g78
g59
NtRp1558
(dp1559
g62
(dp1560
g89
g90
ssg71
g1549
sg64
(lp1561
S':'
asbag57
(g78
g59
NtRp1562
(dp1563
g62
(dp1564
sg71
g1549
sg64
(lp1565
g57
(g58
g59
NtRp1566
(dp1567
g62
(dp1568
g70
I4
ssg71
g1562
sg64
(lp1569
S'hard'
p1570
asbasbasbag57
(g73
g59
NtRp1571
(dp1572
g62
(dp1573
sg71
g847
sg64
(lp1574
g57
(g78
g59
NtRp1575
(dp1576
g62
(dp1577
g82
g83
ssg71
g1571
sg64
(lp1578
S'web2py_path'
p1579
asbag57
(g78
g59
NtRp1580
(dp1581
g62
(dp1582
g89
g90
ssg71
g1571
sg64
(lp1583
S':'
asbag57
(g78
g59
NtRp1584
(dp1585
g62
(dp1586
sg71
g1571
sg64
(lp1587
g57
(g58
g59
NtRp1588
(dp1589
g62
(dp1590
g70
I4
ssg71
g1584
sg64
(lp1591
g894
asbasbasbag57
(g73
g59
NtRp1592
(dp1593
g62
(dp1594
sg71
g847
sg64
(lp1595
g57
(g78
g59
NtRp1596
(dp1597
g62
(dp1598
g82
g83
ssg71
g1592
sg64
(lp1599
S'web2py_version'
p1600
asbag57
(g78
g59
NtRp1601
(dp1602
g62
(dp1603
g89
g90
ssg71
g1592
sg64
(lp1604
S':'
asbag57
(g78
g59
NtRp1605
(dp1606
g62
(dp1607
sg71
g1592
sg64
(lp1608
g57
(g58
g59
NtRp1609
(dp1610
g62
(dp1611
g70
I4
ssg71
g1605
sg64
(lp1612
g57
(g66
g59
NtRp1613
(dp1614
g62
(dp1615
g70
I3
ssg71
Nsg64
(lp1616
g57
(g73
g59
NtRp1617
(dp1618
g62
(dp1619
sg71
g1613
sg64
(lp1620
g57
(g78
g59
NtRp1621
(dp1622
g62
(dp1623
sg71
g1617
sg64
(lp1624
g57
(g58
g59
NtRp1625
(dp1626
g62
(dp1627
g70
I3
ssg71
g1621
sg64
(lp1628
S'2'
asbasbasbag57
(g73
g59
NtRp1629
(dp1630
g62
(dp1631
sg71
g1613
sg64
(lp1632
g57
(g78
g59
NtRp1633
(dp1634
g62
(dp1635
sg71
g1629
sg64
(lp1636
g57
(g58
g59
NtRp1637
(dp1638
g62
(dp1639
g70
I3
ssg71
g1633
sg64
(lp1640
S'0'
asbasbasbag57
(g73
g59
NtRp1641
(dp1642
g62
(dp1643
sg71
g1613
sg64
(lp1644
g57
(g78
g59
NtRp1645
(dp1646
g62
(dp1647
sg71
g1641
sg64
(lp1648
g57
(g58
g59
NtRp1649
(dp1650
g62
(dp1651
g70
I3
ssg71
g1645
sg64
(lp1652
S'9'
asbasbasbag57
(g73
g59
NtRp1653
(dp1654
g62
(dp1655
sg71
g1613
sg64
(lp1656
g57
(g78
g59
NtRp1657
(dp1658
g62
(dp1659
sg71
g1653
sg64
(lp1660
g57
(g58
g59
NtRp1661
(dp1662
g62
(dp1663
g70
I3
ssg71
g1657
sg64
(lp1664
S'datetime.datetime(2012, 9, 13, 23, 51, 30)'
p1665
asbasbasbag57
(g73
g59
NtRp1666
(dp1667
g62
(dp1668
sg71
g1613
sg64
(lp1669
g57
(g78
g59
NtRp1670
(dp1671
g62
(dp1672
sg71
g1666
sg64
(lp1673
g57
(g58
g59
NtRp1674
(dp1675
g62
(dp1676
g70
I3
ssg71
g1670
sg64
(lp1677
S'stable'
p1678
asbasbasbasbasbasbasbag57
(g73
g59
NtRp1679
(dp1680
g62
(dp1681
sg71
g847
sg64
(lp1682
g57
(g78
g59
NtRp1683
(dp1684
g62
(dp1685
g82
g83
ssg71
g1679
sg64
(lp1686
S'wsgi_errors'
p1687
asbag57
(g78
g59
NtRp1688
(dp1689
g62
(dp1690
g89
g90
ssg71
g1679
sg64
(lp1691
S':'
asbag57
(g78
g59
NtRp1692
(dp1693
g62
(dp1694
sg71
g1679
sg64
(lp1695
g57
(g58
g59
NtRp1696
(dp1697
g62
(dp1698
g70
I4
ssg71
g1692
sg64
(lp1699
S"<open file '<stderr>', mode 'w' at 0x7f545738b270>"
p1700
asbasbasbag57
(g73
g59
NtRp1701
(dp1702
g62
(dp1703
sg71
g847
sg64
(lp1704
g57
(g78
g59
NtRp1705
(dp1706
g62
(dp1707
g82
g83
ssg71
g1701
sg64
(lp1708
S'wsgi_file_wrapper'
p1709
asbag57
(g78
g59
NtRp1710
(dp1711
g62
(dp1712
g89
g90
ssg71
g1701
sg64
(lp1713
S':'
asbag57
(g78
g59
NtRp1714
(dp1715
g62
(dp1716
sg71
g1701
sg64
(lp1717
g57
(g58
g59
NtRp1718
(dp1719
g62
(dp1720
g70
I4
ssg71
g1714
sg64
(lp1721
S'<class wsgiref.util.FileWrapper at 0x185aa78>'
p1722
asbasbasbag57
(g73
g59
NtRp1723
(dp1724
g62
(dp1725
sg71
g847
sg64
(lp1726
g57
(g78
g59
NtRp1727
(dp1728
g62
(dp1729
g82
g83
ssg71
g1723
sg64
(lp1730
S'wsgi_input'
p1731
asbag57
(g78
g59
NtRp1732
(dp1733
g62
(dp1734
g89
g90
ssg71
g1723
sg64
(lp1735
S':'
asbag57
(g78
g59
NtRp1736
(dp1737
g62
(dp1738
sg71
g1723
sg64
(lp1739
g57
(g58
g59
NtRp1740
(dp1741
g62
(dp1742
g70
I4
ssg71
g1736
sg64
(lp1743
S'<socket._fileobject object at 0x7f542c18f2d0>'
p1744
asbasbasbag57
(g73
g59
NtRp1745
(dp1746
g62
(dp1747
sg71
g847
sg64
(lp1748
g57
(g78
g59
NtRp1749
(dp1750
g62
(dp1751
g82
g83
ssg71
g1745
sg64
(lp1752
S'wsgi_multiprocess'
p1753
asbag57
(g78
g59
NtRp1754
(dp1755
g62
(dp1756
g89
g90
ssg71
g1745
sg64
(lp1757
S':'
asbag57
(g78
g59
NtRp1758
(dp1759
g62
(dp1760
sg71
g1745
sg64
(lp1761
g57
(g58
g59
NtRp1762
(dp1763
g62
(dp1764
g70
I4
ssg71
g1758
sg64
(lp1765
g100
asbasbasbag57
(g73
g59
NtRp1766
(dp1767
g62
(dp1768
sg71
g847
sg64
(lp1769
g57
(g78
g59
NtRp1770
(dp1771
g62
(dp1772
g82
g83
ssg71
g1766
sg64
(lp1773
S'wsgi_multithread'
p1774
asbag57
(g78
g59
NtRp1775
(dp1776
g62
(dp1777
g89
g90
ssg71
g1766
sg64
(lp1778
S':'
asbag57
(g78
g59
NtRp1779
(dp1780
g62
(dp1781
sg71
g1766
sg64
(lp1782
g57
(g58
g59
NtRp1783
(dp1784
g62
(dp1785
g70
I4
ssg71
g1779
sg64
(lp1786
S'True'
p1787
asbasbasbag57
(g73
g59
NtRp1788
(dp1789
g62
(dp1790
sg71
g847
sg64
(lp1791
g57
(g78
g59
NtRp1792
(dp1793
g62
(dp1794
g82
g83
ssg71
g1788
sg64
(lp1795
S'wsgi_run_once'
p1796
asbag57
(g78
g59
NtRp1797
(dp1798
g62
(dp1799
g89
g90
ssg71
g1788
sg64
(lp1800
S':'
asbag57
(g78
g59
NtRp1801
(dp1802
g62
(dp1803
sg71
g1788
sg64
(lp1804
g57
(g58
g59
NtRp1805
(dp1806
g62
(dp1807
g70
I4
ssg71
g1801
sg64
(lp1808
g100
asbasbasbag57
(g73
g59
NtRp1809
(dp1810
g62
(dp1811
sg71
g847
sg64
(lp1812
g57
(g78
g59
NtRp1813
(dp1814
g62
(dp1815
g82
g83
ssg71
g1809
sg64
(lp1816
S'wsgi_url_scheme'
p1817
asbag57
(g78
g59
NtRp1818
(dp1819
g62
(dp1820
g89
g90
ssg71
g1809
sg64
(lp1821
S':'
asbag57
(g78
g59
NtRp1822
(dp1823
g62
(dp1824
sg71
g1809
sg64
(lp1825
g57
(g58
g59
NtRp1826
(dp1827
g62
(dp1828
g70
I4
ssg71
g1822
sg64
(lp1829
S'http'
p1830
asbasbasbag57
(g73
g59
NtRp1831
(dp1832
g62
(dp1833
sg71
g847
sg64
(lp1834
g57
(g78
g59
NtRp1835
(dp1836
g62
(dp1837
g82
g83
ssg71
g1831
sg64
(lp1838
S'wsgi_version'
p1839
asbag57
(g78
g59
NtRp1840
(dp1841
g62
(dp1842
g89
g90
ssg71
g1831
sg64
(lp1843
S':'
asbag57
(g78
g59
NtRp1844
(dp1845
g62
(dp1846
sg71
g1831
sg64
(lp1847
g57
(g58
g59
NtRp1848
(dp1849
g62
(dp1850
g70
I4
ssg71
g1844
sg64
(lp1851
g57
(g66
g59
NtRp1852
(dp1853
g62
(dp1854
g70
I3
ssg71
Nsg64
(lp1855
g57
(g73
g59
NtRp1856
(dp1857
g62
(dp1858
sg71
g1852
sg64
(lp1859
g57
(g78
g59
NtRp1860
(dp1861
g62
(dp1862
sg71
g1856
sg64
(lp1863
g57
(g58
g59
NtRp1864
(dp1865
g62
(dp1866
g70
I3
ssg71
g1860
sg64
(lp1867
S'1'
asbasbasbag57
(g73
g59
NtRp1868
(dp1869
g62
(dp1870
sg71
g1852
sg64
(lp1871
g57
(g78
g59
NtRp1872
(dp1873
g62
(dp1874
sg71
g1868
sg64
(lp1875
g57
(g58
g59
NtRp1876
(dp1877
g62
(dp1878
g70
I3
ssg71
g1872
sg64
(lp1879
S'0'
asbasbasbasbasbasbasbasbasbasbasbag57
(g73
g59
NtRp1880
(dp1881
g62
(dp1882
sg71
g67
sg64
(lp1883
g57
(g78
g59
NtRp1884
(dp1885
g62
(dp1886
g82
g83
ssg71
g1880
sg64
(lp1887
S'extension'
p1888
asbag57
(g78
g59
NtRp1889
(dp1890
g62
(dp1891
g89
g90
ssg71
g1880
sg64
(lp1892
S':'
asbag57
(g78
g59
NtRp1893
(dp1894
g62
(dp1895
sg71
g1880
sg64
(lp1896
g57
(g58
g59
NtRp1897
(dp1898
g62
(dp1899
g70
I5
ssg71
g1893
sg64
(lp1900
S'html'
p1901
asbasbasbag57
(g73
g59
NtRp1902
(dp1903
g62
(dp1904
sg71
g67
sg64
(lp1905
g57
(g78
g59
NtRp1906
(dp1907
g62
(dp1908
g82
g83
ssg71
g1902
sg64
(lp1909
S'folder'
p1910
asbag57
(g78
g59
NtRp1911
(dp1912
g62
(dp1913
g89
g90
ssg71
g1902
sg64
(lp1914
S':'
asbag57
(g78
g59
NtRp1915
(dp1916
g62
(dp1917
sg71
g1902
sg64
(lp1918
g57
(g58
g59
NtRp1919
(dp1920
g62
(dp1921
g70
I5
ssg71
g1915
sg64
(lp1922
S'/home/madhuri/Downloads/web2py/applications/manager/'
p1923
asbasbasbag57
(g73
g59
NtRp1924
(dp1925
g62
(dp1926
sg71
g67
sg64
(lp1927
g57
(g78
g59
NtRp1928
(dp1929
g62
(dp1930
g82
g83
ssg71
g1924
sg64
(lp1931
S'function'
p1932
asbag57
(g78
g59
NtRp1933
(dp1934
g62
(dp1935
g89
g90
ssg71
g1924
sg64
(lp1936
S':'
asbag57
(g78
g59
NtRp1937
(dp1938
g62
(dp1939
sg71
g1924
sg64
(lp1940
g57
(g58
g59
NtRp1941
(dp1942
g62
(dp1943
g70
I5
ssg71
g1937
sg64
(lp1944
S'upload'
p1945
asbasbasbag57
(g73
g59
NtRp1946
(dp1947
g62
(dp1948
sg71
g67
sg64
(lp1949
g57
(g78
g59
NtRp1950
(dp1951
g62
(dp1952
g82
g83
ssg71
g1946
sg64
(lp1953
S'get_vars'
p1954
asbag57
(g78
g59
NtRp1955
(dp1956
g62
(dp1957
g89
g90
ssg71
g1946
sg64
(lp1958
S':'
asbag57
(g78
g59
NtRp1959
(dp1960
g62
(dp1961
sg71
g1946
sg64
(lp1962
g57
(g58
g59
NtRp1963
(dp1964
g62
(dp1965
g70
I5
ssg71
g1959
sg64
(lp1966
g57
(g66
g59
NtRp1967
(dp1968
g62
(dp1969
g70
I4
ssg71
Nsg64
(lp1970
sbasbasbasbag57
(g73
g59
NtRp1971
(dp1972
g62
(dp1973
sg71
g67
sg64
(lp1974
g57
(g78
g59
NtRp1975
(dp1976
g62
(dp1977
g82
g83
ssg71
g1971
sg64
(lp1978
S'global_settings'
p1979
asbag57
(g78
g59
NtRp1980
(dp1981
g62
(dp1982
g89
g90
ssg71
g1971
sg64
(lp1983
S':'
asbag57
(g78
g59
NtRp1984
(dp1985
g62
(dp1986
sg71
g1971
sg64
(lp1987
g57
(g58
g59
NtRp1988
(dp1989
g62
(dp1990
g70
I5
ssg71
g1984
sg64
(lp1991
g57
(g66
g59
NtRp1992
(dp1993
g62
(dp1994
g70
I4
ssg71
Nsg64
(lp1995
g57
(g73
g59
NtRp1996
(dp1997
g62
(dp1998
sg71
g1992
sg64
(lp1999
g57
(g78
g59
NtRp2000
(dp2001
g62
(dp2002
g82
g83
ssg71
g1996
sg64
(lp2003
g859
asbag57
(g78
g59
NtRp2004
(dp2005
g62
(dp2006
g89
g90
ssg71
g1996
sg64
(lp2007
S':'
asbag57
(g78
g59
NtRp2008
(dp2009
g62
(dp2010
sg71
g1996
sg64
(lp2011
g57
(g58
g59
NtRp2012
(dp2013
g62
(dp2014
g70
I4
ssg71
g2008
sg64
(lp2015
S"set(['/home/madhuri/Downloads/web2py/applications/admin/', '/home/madhuri/Downloads/web2py/applications/manager/', '/home/madhuri/Downloads/web2py/applications/welcome/'])"
p2016
asbasbasbag57
(g73
g59
NtRp2017
(dp2018
g62
(dp2019
sg71
g1992
sg64
(lp2020
g57
(g78
g59
NtRp2021
(dp2022
g62
(dp2023
g82
g83
ssg71
g2017
sg64
(lp2024
g881
asbag57
(g78
g59
NtRp2025
(dp2026
g62
(dp2027
g89
g90
ssg71
g2017
sg64
(lp2028
S':'
asbag57
(g78
g59
NtRp2029
(dp2030
g62
(dp2031
sg71
g2017
sg64
(lp2032
g57
(g58
g59
NtRp2033
(dp2034
g62
(dp2035
g70
I4
ssg71
g2029
sg64
(lp2036
g894
asbasbasbag57
(g73
g59
NtRp2037
(dp2038
g62
(dp2039
sg71
g1992
sg64
(lp2040
g57
(g78
g59
NtRp2041
(dp2042
g62
(dp2043
g82
g83
ssg71
g2037
sg64
(lp2044
g903
asbag57
(g78
g59
NtRp2045
(dp2046
g62
(dp2047
g89
g90
ssg71
g2037
sg64
(lp2048
S':'
asbag57
(g78
g59
NtRp2049
(dp2050
g62
(dp2051
sg71
g2037
sg64
(lp2052
g57
(g58
g59
NtRp2053
(dp2054
g62
(dp2055
g70
I4
ssg71
g2049
sg64
(lp2056
g57
(g66
g59
NtRp2057
(dp2058
g62
(dp2059
g70
I3
ssg71
Nsg64
(lp2060
sbasbasbasbag57
(g73
g59
NtRp2061
(dp2062
g62
(dp2063
sg71
g1992
sg64
(lp2064
g57
(g78
g59
NtRp2065
(dp2066
g62
(dp2067
g82
g83
ssg71
g2061
sg64
(lp2068
g928
asbag57
(g78
g59
NtRp2069
(dp2070
g62
(dp2071
g89
g90
ssg71
g2061
sg64
(lp2072
S':'
asbag57
(g78
g59
NtRp2073
(dp2074
g62
(dp2075
sg71
g2061
sg64
(lp2076
g57
(g58
g59
NtRp2077
(dp2078
g62
(dp2079
g70
I4
ssg71
g2073
sg64
(lp2080
S"<Values at 0x14bf950: {'verbose': False, 'ip': '127.0.0.1', 'with_scheduler': False, 'ips': ['127.0.1.1'], 'shutdown_timeout': 5, 'taskbar': False, 'port': 8000, 'maxthreads': None, 'softcron': False, 'server_name': 'ubuntu', 'bpython': False, 'nogui': False, 'nocron': False, 'extcron': False, 'run_system_tests': False, 'test': None, 'folder': '/home/madhuri/Downloads/web2py', 'config': '', 'import_models': False, 'winservice': '', 'shell': None, 'run': '', 'log_filename': 'httpserver.log', 'debuglevel': 30, 'args': [''], 'socket_timeout': 5, 'ssl_ca_certificate': None, 'scheduler': None, 'profiler_filename': None, 'ssl_private_key': '', 'scheduler_groups': None, 'password': '1', 'request_queue_size': 5, 'ssl_certificate': '', 'cronjob': False, 'numthreads': None, 'quiet': False, 'interfaces': None, 'minthreads': None, 'timeout': 10, 'plain': False, 'nobanner': False, 'pid_filename': 'httpserver.pid'}>"
p2081
asbasbasbag57
(g73
g59
NtRp2082
(dp2083
g62
(dp2084
sg71
g1992
sg64
(lp2085
g57
(g78
g59
NtRp2086
(dp2087
g62
(dp2088
g82
g83
ssg71
g2082
sg64
(lp2089
g994
asbag57
(g78
g59
NtRp2090
(dp2091
g62
(dp2092
g89
g90
ssg71
g2082
sg64
(lp2093
S':'
asbag57
(g78
g59
NtRp2094
(dp2095
g62
(dp2096
sg71
g2082
sg64
(lp2097
g57
(g58
g59
NtRp2098
(dp2099
g62
(dp2100
g70
I4
ssg71
g2094
sg64
(lp2101
S'set([])'
p2102
asbasbasbag57
(g73
g59
NtRp2103
(dp2104
g62
(dp2105
sg71
g1992
sg64
(lp2106
g57
(g78
g59
NtRp2107
(dp2108
g62
(dp2109
g82
g83
ssg71
g2103
sg64
(lp2110
g1016
asbag57
(g78
g59
NtRp2111
(dp2112
g62
(dp2113
g89
g90
ssg71
g2103
sg64
(lp2114
S':'
asbag57
(g78
g59
NtRp2115
(dp2116
g62
(dp2117
sg71
g2103
sg64
(lp2118
g57
(g58
g59
NtRp2119
(dp2120
g62
(dp2121
g70
I4
ssg71
g2115
sg64
(lp2122
g100
asbasbasbag57
(g73
g59
NtRp2123
(dp2124
g62
(dp2125
sg71
g1992
sg64
(lp2126
g57
(g78
g59
NtRp2127
(dp2128
g62
(dp2129
g82
g83
ssg71
g2123
sg64
(lp2130
g1037
asbag57
(g78
g59
NtRp2131
(dp2132
g62
(dp2133
g89
g90
ssg71
g2123
sg64
(lp2134
S':'
asbag57
(g78
g59
NtRp2135
(dp2136
g62
(dp2137
sg71
g2123
sg64
(lp2138
g57
(g58
g59
NtRp2139
(dp2140
g62
(dp2141
g70
I4
ssg71
g2135
sg64
(lp2142
g1050
asbasbasbag57
(g73
g59
NtRp2143
(dp2144
g62
(dp2145
sg71
g1992
sg64
(lp2146
g57
(g78
g59
NtRp2147
(dp2148
g62
(dp2149
g82
g83
ssg71
g2143
sg64
(lp2150
g1277
asbag57
(g78
g59
NtRp2151
(dp2152
g62
(dp2153
g89
g90
ssg71
g2143
sg64
(lp2154
S':'
asbag57
(g78
g59
NtRp2155
(dp2156
g62
(dp2157
sg71
g2143
sg64
(lp2158
g57
(g58
g59
NtRp2159
(dp2160
g62
(dp2161
g70
I4
ssg71
g2155
sg64
(lp2162
g100
asbasbasbag57
(g73
g59
NtRp2163
(dp2164
g62
(dp2165
sg71
g1992
sg64
(lp2166
g57
(g78
g59
NtRp2167
(dp2168
g62
(dp2169
g82
g83
ssg71
g2163
sg64
(lp2170
g1298
asbag57
(g78
g59
NtRp2171
(dp2172
g62
(dp2173
g89
g90
ssg71
g2163
sg64
(lp2174
S':'
asbag57
(g78
g59
NtRp2175
(dp2176
g62
(dp2177
sg71
g2163
sg64
(lp2178
g57
(g58
g59
NtRp2179
(dp2180
g62
(dp2181
g70
I4
ssg71
g2175
sg64
(lp2182
g100
asbasbasbag57
(g73
g59
NtRp2183
(dp2184
g62
(dp2185
sg71
g1992
sg64
(lp2186
g57
(g78
g59
NtRp2187
(dp2188
g62
(dp2189
g82
g83
ssg71
g2183
sg64
(lp2190
g1557
asbag57
(g78
g59
NtRp2191
(dp2192
g62
(dp2193
g89
g90
ssg71
g2183
sg64
(lp2194
S':'
asbag57
(g78
g59
NtRp2195
(dp2196
g62
(dp2197
sg71
g2183
sg64
(lp2198
g57
(g58
g59
NtRp2199
(dp2200
g62
(dp2201
g70
I4
ssg71
g2195
sg64
(lp2202
g1570
asbasbasbag57
(g73
g59
NtRp2203
(dp2204
g62
(dp2205
sg71
g1992
sg64
(lp2206
g57
(g78
g59
NtRp2207
(dp2208
g62
(dp2209
g82
g83
ssg71
g2203
sg64
(lp2210
g1600
asbag57
(g78
g59
NtRp2211
(dp2212
g62
(dp2213
g89
g90
ssg71
g2203
sg64
(lp2214
S':'
asbag57
(g78
g59
NtRp2215
(dp2216
g62
(dp2217
sg71
g2203
sg64
(lp2218
g57
(g58
g59
NtRp2219
(dp2220
g62
(dp2221
g70
I4
ssg71
g2215
sg64
(lp2222
g57
(g66
g59
NtRp2223
(dp2224
g62
(dp2225
g70
I3
ssg71
Nsg64
(lp2226
g57
(g73
g59
NtRp2227
(dp2228
g62
(dp2229
sg71
g2223
sg64
(lp2230
g57
(g78
g59
NtRp2231
(dp2232
g62
(dp2233
sg71
g2227
sg64
(lp2234
g57
(g58
g59
NtRp2235
(dp2236
g62
(dp2237
g70
I3
ssg71
g2231
sg64
(lp2238
S'2'
asbasbasbag57
(g73
g59
NtRp2239
(dp2240
g62
(dp2241
sg71
g2223
sg64
(lp2242
g57
(g78
g59
NtRp2243
(dp2244
g62
(dp2245
sg71
g2239
sg64
(lp2246
g57
(g58
g59
NtRp2247
(dp2248
g62
(dp2249
g70
I3
ssg71
g2243
sg64
(lp2250
S'0'
asbasbasbag57
(g73
g59
NtRp2251
(dp2252
g62
(dp2253
sg71
g2223
sg64
(lp2254
g57
(g78
g59
NtRp2255
(dp2256
g62
(dp2257
sg71
g2251
sg64
(lp2258
g57
(g58
g59
NtRp2259
(dp2260
g62
(dp2261
g70
I3
ssg71
g2255
sg64
(lp2262
S'9'
asbasbasbag57
(g73
g59
NtRp2263
(dp2264
g62
(dp2265
sg71
g2223
sg64
(lp2266
g57
(g78
g59
NtRp2267
(dp2268
g62
(dp2269
sg71
g2263
sg64
(lp2270
g57
(g58
g59
NtRp2271
(dp2272
g62
(dp2273
g70
I3
ssg71
g2267
sg64
(lp2274
S'datetime.datetime(2012, 9, 13, 23, 51, 30)'
p2275
asbasbasbag57
(g73
g59
NtRp2276
(dp2277
g62
(dp2278
sg71
g2223
sg64
(lp2279
g57
(g78
g59
NtRp2280
(dp2281
g62
(dp2282
sg71
g2276
sg64
(lp2283
g57
(g58
g59
NtRp2284
(dp2285
g62
(dp2286
g70
I3
ssg71
g2280
sg64
(lp2287
g1678
asbasbasbasbasbasbasbasbasbasbasbag57
(g73
g59
NtRp2288
(dp2289
g62
(dp2290
sg71
g67
sg64
(lp2291
g57
(g78
g59
NtRp2292
(dp2293
g62
(dp2294
g82
g83
ssg71
g2288
sg64
(lp2295
S'is_https'
p2296
asbag57
(g78
g59
NtRp2297
(dp2298
g62
(dp2299
g89
g90
ssg71
g2288
sg64
(lp2300
S':'
asbag57
(g78
g59
NtRp2301
(dp2302
g62
(dp2303
sg71
g2288
sg64
(lp2304
g57
(g58
g59
NtRp2305
(dp2306
g62
(dp2307
g70
I5
ssg71
g2301
sg64
(lp2308
g100
asbasbasbag57
(g73
g59
NtRp2309
(dp2310
g62
(dp2311
sg71
g67
sg64
(lp2312
g57
(g78
g59
NtRp2313
(dp2314
g62
(dp2315
g82
g83
ssg71
g2309
sg64
(lp2316
S'is_local'
p2317
asbag57
(g78
g59
NtRp2318
(dp2319
g62
(dp2320
g89
g90
ssg71
g2309
sg64
(lp2321
S':'
asbag57
(g78
g59
NtRp2322
(dp2323
g62
(dp2324
sg71
g2309
sg64
(lp2325
g57
(g58
g59
NtRp2326
(dp2327
g62
(dp2328
g70
I5
ssg71
g2322
sg64
(lp2329
g1787
asbasbasbag57
(g73
g59
NtRp2330
(dp2331
g62
(dp2332
sg71
g67
sg64
(lp2333
g57
(g78
g59
NtRp2334
(dp2335
g62
(dp2336
g82
g83
ssg71
g2330
sg64
(lp2337
S'is_restful'
p2338
asbag57
(g78
g59
NtRp2339
(dp2340
g62
(dp2341
g89
g90
ssg71
g2330
sg64
(lp2342
S':'
asbag57
(g78
g59
NtRp2343
(dp2344
g62
(dp2345
sg71
g2330
sg64
(lp2346
g57
(g58
g59
NtRp2347
(dp2348
g62
(dp2349
g70
I5
ssg71
g2343
sg64
(lp2350
g100
asbasbasbag57
(g73
g59
NtRp2351
(dp2352
g62
(dp2353
sg71
g67
sg64
(lp2354
g57
(g78
g59
NtRp2355
(dp2356
g62
(dp2357
g82
g83
ssg71
g2351
sg64
(lp2358
S'now'
p2359
asbag57
(g78
g59
NtRp2360
(dp2361
g62
(dp2362
g89
g90
ssg71
g2351
sg64
(lp2363
S':'
asbag57
(g78
g59
NtRp2364
(dp2365
g62
(dp2366
sg71
g2351
sg64
(lp2367
g57
(g58
g59
NtRp2368
(dp2369
g62
(dp2370
g70
I5
ssg71
g2364
sg64
(lp2371
S'datetime.datetime(2012, 11, 11, 15, 33, 29, 591307)'
p2372
asbasbasbag57
(g73
g59
NtRp2373
(dp2374
g62
(dp2375
sg71
g67
sg64
(lp2376
g57
(g78
g59
NtRp2377
(dp2378
g62
(dp2379
g82
g83
ssg71
g2373
sg64
(lp2380
S'post_vars'
p2381
asbag57
(g78
g59
NtRp2382
(dp2383
g62
(dp2384
g89
g90
ssg71
g2373
sg64
(lp2385
S':'
asbag57
(g78
g59
NtRp2386
(dp2387
g62
(dp2388
sg71
g2373
sg64
(lp2389
g57
(g58
g59
NtRp2390
(dp2391
g62
(dp2392
g70
I5
ssg71
g2386
sg64
(lp2393
g57
(g66
g59
NtRp2394
(dp2395
g62
(dp2396
g70
I4
ssg71
Nsg64
(lp2397
g57
(g73
g59
NtRp2398
(dp2399
g62
(dp2400
sg71
g2394
sg64
(lp2401
g57
(g78
g59
NtRp2402
(dp2403
g62
(dp2404
g82
g83
ssg71
g2398
sg64
(lp2405
S'csvfile'
p2406
asbag57
(g78
g59
NtRp2407
(dp2408
g62
(dp2409
g89
g90
ssg71
g2398
sg64
(lp2410
S':'
asbag57
(g78
g59
NtRp2411
(dp2412
g62
(dp2413
sg71
g2398
sg64
(lp2414
g57
(g58
g59
NtRp2415
(dp2416
g62
(dp2417
g70
I4
ssg71
g2411
sg64
(lp2418
S'SlNo,RollNo,Name,Email,Award,year\r\n1,200802035,SHIPRA MALHOTRA,shipra.malhotraug08@students.iiit.ac.in,D1,2011-12\r\n2,200802010,DEEPIKA PATHANIA,deepika.pathaniaug08@students.iiit.ac.in,D1,2011-12\r\n3,200802005,APEKSHA KHARE,apeksha.khareug08@students.iiit.ac.in,D2,2011-12\r\n4,200802002,AKULA ARJUN REDDY,arjunreddy.aug08@students.iiit.ac.in,D2,2011-12\r\n5,200802004,ANKIT GANDHI,ankit.gandhiug08@students.iiit.ac.in,D3,2011-12\r\n6,200802022,MALLADI DEEPAK KUMAR,deepak.malladiug08@students.iiit.ac.in,D3,2011-12\r\n7,200802019,KOLLI SINDHU,sindhu.kolliug08@students.iiit.ac.in,ML,2011-12\r\n8,200802013,HARSHIT AGRAWAL,harshit.agrawalug08@students.iiit.ac.in,ML,2011-12\r\n9,200802032,SAKET MADHUKAR BHARAMBE,saket.bharambeug08@students.iiit.ac.in,D1,2011-12\r\n10,200802038,V. CHANDRASHEKAR,chandrasekhar.vug08@students.iiit.ac.in,D1,2011-12\r\n11,200802002,AKULA ARJUN REDDY,arjunreddy.aug08@students.iiit.ac.in,D2,2011-12\r\n12,200802004,ANKIT GANDHI,ankit.gandhiug08@students.iiit.ac.in,D2,2011-12\r\n13,200802011,DESHPANDE ADITYA RAJIV,adity.deshapandeug08@students.iiit.ac.in,D3,2011-12\r\n14,200802035,SHIPRA MALHOTRA,shipra.malhotraug08@students.iiit.ac.in,D3,2011-12\r\n15,200802025,NADEEM MOIDU,nadeem.moiduug08@students.iiit.ac.in,ML,2011-12\r\n16,200802042,VYAS RAM. S,vyasram.sug08@students.iiit.ac.in,ML,2011-12\r\n17,200831010,ROOPAK DUBEY,roopak.dubeyug08@students.iiit.ac.in,D1,2011-12\r\n18,200831009,PALASH JAIN,palash.jainug08@students.iiit.ac.in,D2,2011-12\r\n19,200831007,MADHULIKA JAIN,madhulika.jainug08@students.iiit.ac.in,D3,2011-12\r\n20,200831011,VARUN RAMCHANDANI,varun.ramchandaniug08@students.iiit.ac.in,ML,2011-12\r\n21,200831002,ANIRBAN GUHA,anirban.guhaug08@students.iiit.ac.in,D1,2011-12\r\n22,200831005,BASIL GEORGE,basil.georgeug08@students.iiit.ac.in,D2,2011-12\r\n23,200831007,MADHULIKA JAIN,madhulika.jainug08@students.iiit.ac.in,D3,2011-12\r\n24,200831011,VARUN RAMCHANDANI,varun.ramchandaniug08@students.iiit.ac.in,ML,2011-12\r\n25,200901054,VAIDEHI CHHAJER,vaidehi.chhajer@students.iiit.ac.in,D1,2011-12\r\n26,200901022,JEEVAN SHANKAR,jeevan.shankar@students.iiit.ac.in,D1,2011-12\r\n27,200902043,HIMANSHU JAIN,himanshu.jain@students.iiit.ac.in,D1,2011-12\r\n28,200901084,KARAN THAPAR,karan.thapar@students.iiit.ac.in,D1,2011-12\r\n29,200902022,RASHMI VILAS TONGE,rashmivilas.tonge@students.iiit.ac.in,D1,2011-12\r\n30,200901089,MOUNICA M,mounica.m@students.iiit.ac.in,D1,2011-12\r\n31,200901088,MOHAMED THANVIR P,mohamed.thanvir@students.iiit.ac.in,D2,2011-12\r\n32,200901028,MEHAK BHATIA,mehak.bhatia@students.iiit.ac.in,D2,2011-12\r\n33,200901024,KRISHNA KUMAR SINGH,krishnakumar.singh@students.iiit.ac.in,D2,2011-12\r\n34,200901036,RAVI AGARWAL,ravi.agarwal@students.iiit.ac.in,D2,2011-12\r\n35,200901096,SHAIK ALLAUDDIN,shaik.allauddin@students.iiit.ac.in,D2,2011-12\r\n36,200901082,GOUTAM HARI TULSIYAN,goutamhari.tulsiyan@students.iiit.ac.in,D2,2011-12\r\n37,200901049,SURAJ MENON,suraj.menon@students.iiit.ac.in,D3,2011-12\r\n38,200901007,ANJALI SACHDEVA,anjali.sachdeva@students.iiit.ac.in,D3,2011-12\r\n39,200901015,DONTULA KAPIL,dontula.kapil@students.iiit.ac.in,D3,2011-12\r\n40,200901097,SHRENIK LAD,shrenik.lad@students.iiit.ac.in,D3,2011-12\r\n41,200901001,ABHAYJEET SINGH,abhayjeet.singh@students.iiit.ac.in,D3,2011-12\r\n42,200902045,KULDEEP PORWAL,kuldeep.porwal@students.iiit.ac.in,D3,2011-12\r\n43,200901076,AMIT KUMAR BANSAL,amitkumar.bansal@students.iiit.ac.in,ML,2011-12\r\n44,200901070,VIBHOR GOEL,vibhor.goel@students.iiit.ac.in,ML,2011-12\r\n45,200901020,HARSH SATIJA,harsh.satija@students.iiit.ac.in,ML,2011-12\r\n46,200901011,CHARNEET SINGH,charneet.singh@students.iiit.ac.in,ML,2011-12\r\n47,200901040,SAMAY SHARMA,samay.sharma@students.iiit.ac.in,ML,2011-12\r\n48,200901065,SIMPI KUMARI,simpi.kumari@students.iiit.ac.in,ML,2011-12\r\n49,200901054,VAIDEHI CHHAJER,vaidehi.chhajer@students.iiit.ac.in,D1,2011-12\r\n50,200901084,KARAN THAPAR,karan.thapar@students.iiit.ac.in,D1,2011-12\r\n51,200901049,SURAJ MENON,suraj.menon@students.iiit.ac.in,D1,2011-12\r\n52,200901096,SHAIK ALLAUDDIN,shaik.allauddin@students.iiit.ac.in,D1,2011-12\r\n53,200901062,NAMITA PORWAL,namita.porwal@students.iiit.ac.in,D1,2011-12\r\n54,200902022,RASHMI VILAS TONGE,rashmivilas.tonge@students.iiit.ac.in,D1,2011-12\r\n55,200901015,DONTULA KAPIL,dontula.kapil@students.iiit.ac.in,D2,2011-12\r\n56,200901024,KRISHNA KUMAR SINGH,krishnakumar.singh@students.iiit.ac.in,D2,2011-12\r\n57,200901093,RAHUL SIHAG,rahul.sihag@students.iiit.ac.in,D2,2011-12\r\n58,200901007,ANJALI SACHDEVA,anjali.sachdeva@students.iiit.ac.in,D2,2011-12\r\n59,200901097,SHRENIK LAD,shrenik.lad@students.iiit.ac.in,D2,2011-12\r\n60,200901070,VIBHOR GOEL,vibhor.goel@students.iiit.ac.in,D2,2011-12\r\n61,200901089,MOUNICA M,mounica.m@students.iiit.ac.in,D3,2011-12\r\n62,200901001,ABHAYJEET SINGH,abhayjeet.singh@students.iiit.ac.in,D3,2011-12\r\n63,200901065,SIMPI KUMARI,simpi.kumari@students.iiit.ac.in,D3,2011-12\r\n64,200902039,ANUJ ANIL KUMAR TOSHNIWAL,anuj.t@students.iiit.ac.in,D3,2011-12\r\n65,200901091,RAGHAV KATYAL,raghav.katyal@students.iiit.ac.in,D3,2011-12\r\n66,200901072,DEVENDER GOYAL,devender.goyal@students.iiit.ac.in,D3,2011-12\r\n67,200902038,ANNAMANENI NARENDRA,narendra.annamaneni@students.iiit.ac.in,ML,2011-12\r\n68,200901014,DIVIJ RAO,divij.rao@students.iiit.ac.in,ML,2011-12\r\n69,200901033,PARESH VERMA,paresh.verma@students.iiit.ac.in,ML,2011-12\r\n70,200901028,MEHAK BHATIA,mehak.bhatia@students.iiit.ac.in,ML,2011-12\r\n71,200901076,AMIT KUMAR BANSAL,amitkumar.bansal@students.iiit.ac.in,ML,2011-12\r\n72,200901082,GOUTAM HARI TULSIYAN,goutamhari.tulsiyan@students.iiit.ac.in,ML,2011-12\r\n73,200930025,SIHORA JAIDEEP NAVINBHAI,jaideep.sihora@students.iiit.ac.in,D1,2011-12\r\n74,200930005,PRAHAL GHAI,prahal.ghai@students.iiit.ac.in,D1,2011-12\r\n75,200930008,RAMAKRISHNA VEDANTAM.S,ramakrishna.vedantam@students.iiit.ac.in,D2,2011-12\r\n76,200930007,PRIYAM PARASHAR,priyam.parashar@students.iiit.ac.in,D2,2011-12\r\n77,200930033,RAHUL P.R,rahul.pr@students.iiit.ac.in,D3,2011-12\r\n78,200930032,MANCHIREDDY SHIVA RAM REDDY,shivaram.manchi@students.iiit.ac.in,D3,2011-12\r\n79,200930009,RUDRARAJU DINESH SAIVARMA,dinesh.rudraraju@students.iiit.ac.in,ML,2011-12\r\n80,200930015,AAKASH AGARWAL,aakash.agarwal@students.iiit.ac.in,ML,2011-12\r\n81,200930008,RAMAKRISHNA VEDANTAM.S,ramakrishna.vedantam@students.iiit.ac.in,D1,2011-12\r\n82,200930027,ABHAY VINAYAK,abhaya.vinayak@students.iiit.ac.in,D1,2011-12\r\n83,200930024,RITU RAJ YADAV,rituraj.yadav@students.iiit.ac.in,D2,2011-12\r\n84,200930006,PRAVIN KUMAR GADODIA,pravin.gadodia@students.iiit.ac.in,D2,2011-12\r\n85,200930007,PRIYAM PARASHAR,priyam.parashar@students.iiit.ac.in,D3,2011-12\r\n86,200930012,SHUBHAM GUPTA,shubham.gupta@students.iiit.ac.in,D3,2011-12\r\n87,200964014,BELLAMKONDA PRANEETHA,pranneetha.bellamkonda@students.iiit.ac.in,D1,2011-12\r\n88,200964003,ABHISHEK VINAYAK DESHPANDE,abishek.deshpande@students.iiit.ac.in,D2,2011-12\r\n89,200964003,ABHISHEK VINAYAK DESHPANDE,abishek.deshpande@students.iiit.ac.in,D1,2011-12\r\n90,200925006,URMI GHOSH,urmi.ghosh@students.iiit.ac.in,D1,2011-12\r\n91,201001047,ROHIT GIRDHAR,rohit.girdhar@students.iiit.ac.in,D1,2011-12\r\n92,201001038,LOVEPREET SINGH,lovepreet.singh@students.iiit.ac.in,D1,2011-12\r\n93,201001079,J V S ARUN,satya.venkata@students.iiit.ac.in,D1,2011-12\r\n94,201001149,SHANKA SAI SUDHEER KUMAR,sai.shanka@students.iiit.ac.in,D1,2011-12\r\n95,201002088,VIVEK HAMIRWASIA,vivek.hamirwasia@students.iiit.ac.in,D1,2011-12\r\n96,201001085,ANISH SHANKAR,anish.shankar@students.iiit.ac.in,D1,2011-12\r\n97,201001044,AKSHAT AGGARWAL,akshat.aggarwal@students.iiit.ac.in,D2,2011-12\r\n98,201001146,MONICA PULLURI,monica.pulluri@students.iiit.ac.in,D2,2011-12\r\n99,201001032,AJIT KUMAR SINGH,ajit.singh@students.iiit.ac.in,D2,2011-12\r\n100,201001093,ASHUTOSH KUMAR,ashutosh.kumar@students.iiit.ac.in,D2,2011-12\r\n101,201001015,YASH DILIP VADALIA,yash.vadalia@students.iiit.ac.in,D2,2011-12\r\n102,201001084,DURGI V P DATTA SAI KASHYAP,durgi.kashyap@students.iiit.ac.in,D2,2011-12\r\n103,201001126,SAUMYA DWIVEDI,saumya.dwivedi@students.iiit.ac.in,D3,2011-12\r\n104,201001011,RAHUL BANSAL,rahul.bansal@students.iiit.ac.in,D3,2011-12\r\n105,201001047,ROHIT GIRDHAR,rohit.girdhar@students.iiit.ac.in,D1,2011-12\r\n106,201001079,J V S ARUN,satya.venkata@students.iiit.ac.in,D1,2011-12\r\n107,201002088,VIVEK HAMIRWASIA,vivek.hamirwasia@students.iiit.ac.in,D1,2011-12\r\n108,201001044,AKSHAT AGGARWAL,akshat.aggarwal@students.iiit.ac.in,D1,2011-12\r\n109,201002132,K RAGHAV,raghav.k@students.iiit.ac.in,D1,2011-12\r\n110,201001149,SHANKA SAI SUDHEER KUMAR,sai.shanka@students.iiit.ac.in,D1,2011-12\r\n111,201001053,MASUM KUMAR LODHA,masum.lodha@students.iiit.ac.in,D2,2011-12\r\n112,201001015,YASH DILIP VADALIA,yash.vadalia@students.iiit.ac.in,D2,2011-12\r\n113,201001014,MINOCHA AYUSH ARUN,ayush.minocha@students.iiit.ac.in,D2,2011-12\r\n114,201001067,PRATEEK GOEL,prateek.goel@students.iiit.ac.in,D2,2011-12\r\n115,201001086,CHETLUR MADHAVAN MALOLAN,madhavan.chetlur@students.iiit.ac.in,D2,2011-12\r\n116,201001143,AYUSH TEWARI,ayush.tewari@students.iiit.ac.in,D2,2011-12\r\n117,201001139,HINSU SMIT VASANTBHAI,hinsu.vasantbhai@students.iiit.ac.in,D3,2011-12\r\n118,201001126,SAUMYA DWIVEDI,saumya.dwivedi@students.iiit.ac.in,D3,2011-12\r\n119,201001039,HARSHITH MEELA,meela.harshith@students.iiit.ac.in,D3,2011-12\r\n120,201001048,ABHISHEK PALIWAL,abhishek.paliwal@students.iiit.ac.in,D3,2011-12\r\n121,201001130,NIKHIL SIDDHARTHA,nikhil.siddhartha@students.iiit.ac.in,D3,2011-12\r\n122,201031077,SYED TABISH ABBAS,syed.abbas@students.iiit.ac.in,D1,2011-12\r\n123,201030050,PIYUSH KUMAR BARANWAL,piyush.baranwal@students.iiit.ac.in,D2,2011-12\r\n124,201030147,KOPPURAVURI SRI HAINDAVI,haindavi.koppuravuri@students.iiit.ac.in,D3,2011-12\r\n125,201030169,PRIYANKA DESHPANDE,priyanka.deshpande@students.iiit.ac.in,ML,2011-12\r\n126,201030050,PIYUSH KUMAR BARANWAL,piyush.baranwal@students.iiit.ac.in,D1,2011-12\r\n127,201031077,SYED TABISH ABBAS,syed.abbas@students.iiit.ac.in,D2,2011-12\r\n128,201030147,KOPPURAVURI SRI HAINDAVI,haindavi.koppuravuri@students.iiit.ac.in,D3,2011-12\r\n129,201030141,RAKESH N R,rakesh.r@students.iiit.ac.in,ML,2011-12\r\n130,201064049,SIDDHARTH GOYAL,siddharth.goyal@students.iiit.ac.in,D1,2011-12\r\n131,201064049,SIDDHARTH GOYAL,siddharth.goyal@students.iiit.ac.in,D1,2011-12\r\n132,201025173,K PRATHYUSHA,prathyusha.k@students.iiit.ac.in,D1,2011-12\r\n133,201025173,K PRATHYUSHA,prathyusha.k@students.iiit.ac.in,D1,2011-12\r\n134,201056174,BHARAT MUNSHI,bharat.munshi@students.iiit.ac.in,D1,2011-12\r\n135,201056174,BHARAT MUNSHI,bharat.munshi@students.iiit.ac.in,D1,2011-12\r\n136,201101164,MOHIT AGGARWAL,mohit.aggarwal@students.iiit.ac.in,D1,2011-12\r\n137,201101169,SHASHANK YADAV,shashank.yadav@students.iiit.ac.in,D1,2011-12\r\n138,201101126,SANCHIT GANGWAR,sanchit.gangwar@students.iiit.ac.in,D1,2011-12\r\n139,201101004,MAYANK GUPTA,mayank.g@students.iiit.ac.in,D1,2011-12\r\n140,201101054,SOMAY JAIN,somay.jain@students.iiit.ac.in,D1,2011-12\r\n141,201101086,G. MADHURI,madhuri.gaddam@students.iiit.ac.in,D1,2011-12\r\n142,201101209,S. DIVYA,divya.s@students.iiit.ac.in,D1,2011-12\r\n143,201101159,MEEDINTI SUPRAJA,meedinti.supraja@students.iiit.ac.in,D2,2011-12\r\n144,201101025,AANCHAL BINDAL,aanchal.bindal@students.iiit.ac.in,D2,2011-12\r\n145,201101158,R. GURU PRAKASH,ramaguruguru.prakash@students.iiit.ac.in,D2,2011-12\r\n146,201101217,NIKHAR AGRAWAL,nikhar.agrawal@students.iiit.ac.in,D2,2011-12\r\n147,201101220,CHITRA KHATWANI,chitra.khatwani@students.iiit.ac.in,D2,2011-12\r\n148,201101173,HARSH VARDHAN SHUKLA,harshvardhan.shukla@students.iiit.ac.in,D2,2011-12\r\n149,201101224,AAYUSH CHUGH,aayush.chugh@students.iiit.ac.in,D2,2011-12\r\n150,201101010,ANKUSH JAIN,ankush.jain@students.iiit.ac.in,D3,2011-12\r\n151,201101195,PALLAV SHAH,pallav.shah@students.iiit.ac.in,D3,2011-12\r\n152,201101029,VINIL NARANG,vinil.narang@students.iiit.ac.in,D3,2011-12\r\n153,201101074,CHETNA,chetna@students.iiit.ac.in,D3,2011-12\r\n154,201101141,SAUMYA PATHAK,saumya.pathak@students.iiit.ac.in,D3,2011-12\r\n155,201101194,CHANDAN SINGH,chandan.singh@students.iiit.ac.in,D3,2011-12\r\n156,201101168,SUDHANSHU SHEKHAR,sudhanshu.shekhar@students.iiit.ac.in,D3,2011-12\r\n157,201101012,KRITI KANSAL,kriti.kansal@students.iiit.ac.in,ML,2011-12\r\n158,201101052,AKHIL JINDAL,akhil.jindal@students.iiit.ac.in,ML,2011-12\r\n159,201101107,LAKSHIT ARORA,lakshit.arora@students.iiit.ac.in,ML,2011-12\r\n160,201101153,RITIKA TANWANI,ritika.tanwani@students.iiit.ac.in,ML,2011-12\r\n161,201102111,P YASHASWI,p.yashaswi@students.iiit.ac.in,ML,2011-12\r\n162,201101046,RISHI RAJ SINGH JHELUMI,rishirajsingh.jhelumi@students.iiit.ac.in,ML,2011-12\r\n163,201101081,DEEPESH JAIN,deepesh.jain@students.iiit.ac.in,ML,2011-12\r\n164,201101139,NISHANT RAM KRISHAN,nishantr.krishan@students.iiit.ac.in,ML,2011-12\r\n165,201101198,MONAM AGARWAL,monam.agarwal@students.iiit.ac.in,ML,2011-12\r\n166,201101054,SOMAY JAIN,somay.jain@students.iiit.ac.in,D1,2011-12\r\n167,201101004,MAYANK GUPTA,mayank.g@students.iiit.ac.in,D1,2011-12\r\n168,201101178,PAPIREDDYGARI MANEESHA,papireddygari.maneesha@students.iiit.ac.in,D1,2011-12\r\n169,201101217,NIKHAR AGRAWAL,nikhar.agrawal@students.iiit.ac.in,D1,2011-12\r\n170,201101209,S. DIVYA,divya.s@students.iiit.ac.in,D1,2011-12\r\n171,201101107,LAKSHIT ARORA,lakshit.arora@students.iiit.ac.in,D1,2011-12\r\n172,201101164,MOHIT AGGARWAL,mohit.aggarwal@students.iiit.ac.in,D1,2011-12\r\n173,201101198,MONAM AGARWAL,monam.agarwal@students.iiit.ac.in,D2,2011-12\r\n174,201101158,R. GURU PRAKASH,ramaguruguru.prakash@students.iiit.ac.in,D2,2011-12\r\n175,201101012,KRITI KANSAL,kriti.kansal@students.iiit.ac.in,D2,2011-12\r\n176,201101213,DEEPAK KATHAYAT,deepak.kathayat@students.iiit.ac.in,D2,2011-12\r\n177,201101098,THAKKAR KUNJ RAJESH,kunj.thakkar@students.iiit.ac.in,D2,2011-12\r\n178,201101086,G. MADHURI,madhuri.gaddam@students.iiit.ac.in,D2,2011-12\r\n179,201101139,NISHANT RAM KRISHAN,nishantr.krishan@students.iiit.ac.in,D2,2011-12\r\n180,201101112,KAPIL KUMAR,kapil.kumar@students.iiit.ac.in,D3,2011-12\r\n181,201101169,SHASHANK YADAV,shashank.yadav@students.iiit.ac.in,D3,2011-12\r\n182,201101159,MEEDINTI SUPRAJA,meedinti.supraja@students.iiit.ac.in,D3,2011-12\r\n183,201101010,ANKUSH JAIN,ankush.jain@students.iiit.ac.in,D3,2011-12\r\n184,201101074,CHETNA,chetna@students.iiit.ac.in,D3,2011-12\r\n185,201102200,AKASH AGARWAL,akash.agarwal@students.iiit.ac.in,D3,2011-12\r\n186,201102082,CHALUVADI BHANU DEV,chaluvadibhanu.dev@students.iiit.ac.in,D3,2011-12\r\n187,201101029,VINIL NARANG,vinil.narang@students.iiit.ac.in,ML,2011-12\r\n188,201101025,AANCHAL BINDAL,aanchal.bindal@students.iiit.ac.in,ML,2011-12\r\n189,201101173,HARSH VARDHAN SHUKLA,harshvardhan.shukla@students.iiit.ac.in,ML,2011-12\r\n190,201101168,SUDHANSHU SHEKHAR,sudhanshu.shekhar@students.iiit.ac.in,ML,2011-12\r\n191,201101079,NIKITA NATARAJ,nikita.nataraj@students.iiit.ac.in,ML,2011-12\r\n192,201101052,AKHIL JINDAL,akhil.jindal@students.iiit.ac.in,ML,2011-12\r\n193,201101146,YASHASVI GIRDHAR,yashasvi.girdhar@students.iiit.ac.in,ML,2011-12\r\n194,201130110,MANU VISWANADHAN,manu.viswanadhan@students.iiit.ac.in,D1,2011-12\r\n195,201130050,ADITI GUPTA,aditi.gupta@students.iiit.ac.in,D1,2011-12\r\n196,201130196,SHANTANU PATIL PRABHAKAR,shantanu.patil@students.iiit.ac.in,D2,2011-12\r\n197,201130065,AJIT MATHEW,ajit.mathew@students.iiit.ac.in,D2,2011-12\r\n198,201130179,VISHAL GUPTA,vishal.gupta@students.iiit.ac.in,D3,2011-12\r\n199,201130119,SOMANSHU AGARWAL,somanshu.agarwal@students.iiit.ac.in,D3,2011-12\r\n200,201130115,AKSHAYA PUROHIT,akshaya.purohit@students.iiit.ac.in,ML,2011-12\r\n201,201130228,RISHAV KUMAR,rishav.kumar@students.iiit.ac.in,ML,2011-12\r\n202,201130196,SHANTANU PATIL PRABHAKAR,shantanu.patil@students.iiit.ac.in,D1,2011-12\r\n203,201130110,MANU VISWANADHAN,manu.viswanadhan@students.iiit.ac.in,D1,2011-12\r\n204,201130065,AJIT MATHEW,ajit.mathew@students.iiit.ac.in,D2,2011-12\r\n205,201130050,ADITI GUPTA,aditi.gupta@students.iiit.ac.in,D2,2011-12\r\n206,201130179,VISHAL GUPTA,vishal.gupta@students.iiit.ac.in,D3,2011-12\r\n207,201130115,AKSHAYA PUROHIT,akshaya.purohit@students.iiit.ac.in,D3,2011-12\r\n208,201131133,NAMAN GOVIL,naman.govil@students.iiit.ac.in,ML,2011-12\r\n209,201131122,GURSHAANT SINGH MALIK,gurshaantsingh.malik@students.iiit.ac.in,ML,2011-12\r\n210,201164191,ABHINANDHAN PANIGRAHI,abhinandan.panigrahi@students.iiit.ac.in,D1,2011-12\r\n211,201164080,MANISH KUMAR SHUKLA,manish.shukla@students.iiit.ac.in,D2,2011-12\r\n212,201164064,ADITI GUPTA,aditi.g@students.iiit.ac.in,D3,2011-12\r\n213,201164137,MOHIT GOEL,mohit.goel@students.iiit.ac.in,ML,2011-12\r\n214,201164191,ABHINANDHAN PANIGRAHI,abhinandan.panigrahi@students.iiit.ac.in,D1,2011-12\r\n215,201164064,ADITI GUPTA,aditi.g@students.iiit.ac.in,D2,2011-12\r\n216,201125034,M. VENNELA,miryala.vennela@students.iiit.ac.in,D1,2011-12\r\n217,201125005,NEHAL JAGDISH WANI,nehal.wani@students.iiit.ac.in,D2,2011-12\r\n218,201125188,CHANDU KHYATHI RAGHAVI,chandukhyathi.raghavi@students.iiit.ac.in,D3,2011-12\r\n219,201125005,NEHAL JAGDISH WANI,nehal.wani@students.iiit.ac.in,D1,2011-12\r\n220,201125034,M. VENNELA,miryala.vennela@students.iiit.ac.in,D2,2011-12\r\n221,201125188,CHANDU KHYATHI RAGHAVI,chandukhyathi.raghavi@students.iiit.ac.in,D3,2011-12\r\n,,,,,\r\n,,,,,\r\n,,,,,\r\n'
p2419
aS'FieldStorage object'
p2420
asbasbasbag57
(g73
g59
NtRp2421
(dp2422
g62
(dp2423
sg71
g2394
sg64
(lp2424
g57
(g78
g59
NtRp2425
(dp2426
g62
(dp2427
g82
g83
ssg71
g2421
sg64
(lp2428
S'table'
p2429
asbag57
(g78
g59
NtRp2430
(dp2431
g62
(dp2432
g89
g90
ssg71
g2421
sg64
(lp2433
S':'
asbag57
(g78
g59
NtRp2434
(dp2435
g62
(dp2436
sg71
g2421
sg64
(lp2437
g57
(g58
g59
NtRp2438
(dp2439
g62
(dp2440
g70
I4
ssg71
g2434
sg64
(lp2441
S'User'
p2442
asbasbasbasbasbasbasbag57
(g73
g59
NtRp2443
(dp2444
g62
(dp2445
sg71
g67
sg64
(lp2446
g57
(g78
g59
NtRp2447
(dp2448
g62
(dp2449
g82
g83
ssg71
g2443
sg64
(lp2450
S'raw_args'
p2451
asbag57
(g78
g59
NtRp2452
(dp2453
g62
(dp2454
g89
g90
ssg71
g2443
sg64
(lp2455
S':'
asbag57
(g78
g59
NtRp2456
(dp2457
g62
(dp2458
sg71
g2443
sg64
(lp2459
g57
(g58
g59
NtRp2460
(dp2461
g62
(dp2462
g70
I5
ssg71
g2456
sg64
(lp2463
S'None'
p2464
asbasbasbag57
(g73
g59
NtRp2465
(dp2466
g62
(dp2467
sg71
g67
sg64
(lp2468
g57
(g78
g59
NtRp2469
(dp2470
g62
(dp2471
g82
g83
ssg71
g2465
sg64
(lp2472
S'raw_extension'
p2473
asbag57
(g78
g59
NtRp2474
(dp2475
g62
(dp2476
g89
g90
ssg71
g2465
sg64
(lp2477
S':'
asbag57
(g78
g59
NtRp2478
(dp2479
g62
(dp2480
sg71
g2465
sg64
(lp2481
g57
(g58
g59
NtRp2482
(dp2483
g62
(dp2484
g70
I5
ssg71
g2478
sg64
(lp2485
S'None'
p2486
asbasbasbag57
(g73
g59
NtRp2487
(dp2488
g62
(dp2489
sg71
g67
sg64
(lp2490
g57
(g78
g59
NtRp2491
(dp2492
g62
(dp2493
g82
g83
ssg71
g2487
sg64
(lp2494
S'url'
p2495
asbag57
(g78
g59
NtRp2496
(dp2497
g62
(dp2498
g89
g90
ssg71
g2487
sg64
(lp2499
S':'
asbag57
(g78
g59
NtRp2500
(dp2501
g62
(dp2502
sg71
g2487
sg64
(lp2503
g57
(g58
g59
NtRp2504
(dp2505
g62
(dp2506
g70
I5
ssg71
g2500
sg64
(lp2507
g1332
asbasbasbag57
(g73
g59
NtRp2508
(dp2509
g62
(dp2510
sg71
g67
sg64
(lp2511
g57
(g78
g59
NtRp2512
(dp2513
g62
(dp2514
g82
g83
ssg71
g2508
sg64
(lp2515
S'utcnow'
p2516
asbag57
(g78
g59
NtRp2517
(dp2518
g62
(dp2519
g89
g90
ssg71
g2508
sg64
(lp2520
S':'
asbag57
(g78
g59
NtRp2521
(dp2522
g62
(dp2523
sg71
g2508
sg64
(lp2524
g57
(g58
g59
NtRp2525
(dp2526
g62
(dp2527
g70
I5
ssg71
g2521
sg64
(lp2528
S'datetime.datetime(2012, 11, 11, 10, 3, 29, 591370)'
p2529
asbasbasbag57
(g73
g59
NtRp2530
(dp2531
g62
(dp2532
sg71
g67
sg64
(lp2533
g57
(g78
g59
NtRp2534
(dp2535
g62
(dp2536
g82
g83
ssg71
g2530
sg64
(lp2537
S'uuid'
p2538
asbag57
(g78
g59
NtRp2539
(dp2540
g62
(dp2541
g89
g90
ssg71
g2530
sg64
(lp2542
S':'
asbag57
(g78
g59
NtRp2543
(dp2544
g62
(dp2545
sg71
g2530
sg64
(lp2546
g57
(g58
g59
NtRp2547
(dp2548
g62
(dp2549
g70
I5
ssg71
g2543
sg64
(lp2550
S'manager/127.0.0.1.2012-11-11.15-33-29.4b018b77-52a5-4b71-b709-92e33b79f694'
p2551
asbasbasbag57
(g73
g59
NtRp2552
(dp2553
g62
(dp2554
sg71
g67
sg64
(lp2555
g57
(g78
g59
NtRp2556
(dp2557
g62
(dp2558
g82
g83
ssg71
g2552
sg64
(lp2559
S'vars'
p2560
asbag57
(g78
g59
NtRp2561
(dp2562
g62
(dp2563
g89
g90
ssg71
g2552
sg64
(lp2564
S':'
asbag57
(g78
g59
NtRp2565
(dp2566
g62
(dp2567
sg71
g2552
sg64
(lp2568
g57
(g58
g59
NtRp2569
(dp2570
g62
(dp2571
g70
I5
ssg71
g2565
sg64
(lp2572
g57
(g66
g59
NtRp2573
(dp2574
g62
(dp2575
g70
I4
ssg71
Nsg64
(lp2576
g57
(g73
g59
NtRp2577
(dp2578
g62
(dp2579
sg71
g2573
sg64
(lp2580
g57
(g78
g59
NtRp2581
(dp2582
g62
(dp2583
g82
g83
ssg71
g2577
sg64
(lp2584
g2406
asbag57
(g78
g59
NtRp2585
(dp2586
g62
(dp2587
g89
g90
ssg71
g2577
sg64
(lp2588
S':'
asbag57
(g78
g59
NtRp2589
(dp2590
g62
(dp2591
sg71
g2577
sg64
(lp2592
g57
(g58
g59
NtRp2593
(dp2594
g62
(dp2595
g70
I4
ssg71
g2589
sg64
(lp2596
S'SlNo,RollNo,Name,Email,Award,year\r\n1,200802035,SHIPRA MALHOTRA,shipra.malhotraug08@students.iiit.ac.in,D1,2011-12\r\n2,200802010,DEEPIKA PATHANIA,deepika.pathaniaug08@students.iiit.ac.in,D1,2011-12\r\n3,200802005,APEKSHA KHARE,apeksha.khareug08@students.iiit.ac.in,D2,2011-12\r\n4,200802002,AKULA ARJUN REDDY,arjunreddy.aug08@students.iiit.ac.in,D2,2011-12\r\n5,200802004,ANKIT GANDHI,ankit.gandhiug08@students.iiit.ac.in,D3,2011-12\r\n6,200802022,MALLADI DEEPAK KUMAR,deepak.malladiug08@students.iiit.ac.in,D3,2011-12\r\n7,200802019,KOLLI SINDHU,sindhu.kolliug08@students.iiit.ac.in,ML,2011-12\r\n8,200802013,HARSHIT AGRAWAL,harshit.agrawalug08@students.iiit.ac.in,ML,2011-12\r\n9,200802032,SAKET MADHUKAR BHARAMBE,saket.bharambeug08@students.iiit.ac.in,D1,2011-12\r\n10,200802038,V. CHANDRASHEKAR,chandrasekhar.vug08@students.iiit.ac.in,D1,2011-12\r\n11,200802002,AKULA ARJUN REDDY,arjunreddy.aug08@students.iiit.ac.in,D2,2011-12\r\n12,200802004,ANKIT GANDHI,ankit.gandhiug08@students.iiit.ac.in,D2,2011-12\r\n13,200802011,DESHPANDE ADITYA RAJIV,adity.deshapandeug08@students.iiit.ac.in,D3,2011-12\r\n14,200802035,SHIPRA MALHOTRA,shipra.malhotraug08@students.iiit.ac.in,D3,2011-12\r\n15,200802025,NADEEM MOIDU,nadeem.moiduug08@students.iiit.ac.in,ML,2011-12\r\n16,200802042,VYAS RAM. S,vyasram.sug08@students.iiit.ac.in,ML,2011-12\r\n17,200831010,ROOPAK DUBEY,roopak.dubeyug08@students.iiit.ac.in,D1,2011-12\r\n18,200831009,PALASH JAIN,palash.jainug08@students.iiit.ac.in,D2,2011-12\r\n19,200831007,MADHULIKA JAIN,madhulika.jainug08@students.iiit.ac.in,D3,2011-12\r\n20,200831011,VARUN RAMCHANDANI,varun.ramchandaniug08@students.iiit.ac.in,ML,2011-12\r\n21,200831002,ANIRBAN GUHA,anirban.guhaug08@students.iiit.ac.in,D1,2011-12\r\n22,200831005,BASIL GEORGE,basil.georgeug08@students.iiit.ac.in,D2,2011-12\r\n23,200831007,MADHULIKA JAIN,madhulika.jainug08@students.iiit.ac.in,D3,2011-12\r\n24,200831011,VARUN RAMCHANDANI,varun.ramchandaniug08@students.iiit.ac.in,ML,2011-12\r\n25,200901054,VAIDEHI CHHAJER,vaidehi.chhajer@students.iiit.ac.in,D1,2011-12\r\n26,200901022,JEEVAN SHANKAR,jeevan.shankar@students.iiit.ac.in,D1,2011-12\r\n27,200902043,HIMANSHU JAIN,himanshu.jain@students.iiit.ac.in,D1,2011-12\r\n28,200901084,KARAN THAPAR,karan.thapar@students.iiit.ac.in,D1,2011-12\r\n29,200902022,RASHMI VILAS TONGE,rashmivilas.tonge@students.iiit.ac.in,D1,2011-12\r\n30,200901089,MOUNICA M,mounica.m@students.iiit.ac.in,D1,2011-12\r\n31,200901088,MOHAMED THANVIR P,mohamed.thanvir@students.iiit.ac.in,D2,2011-12\r\n32,200901028,MEHAK BHATIA,mehak.bhatia@students.iiit.ac.in,D2,2011-12\r\n33,200901024,KRISHNA KUMAR SINGH,krishnakumar.singh@students.iiit.ac.in,D2,2011-12\r\n34,200901036,RAVI AGARWAL,ravi.agarwal@students.iiit.ac.in,D2,2011-12\r\n35,200901096,SHAIK ALLAUDDIN,shaik.allauddin@students.iiit.ac.in,D2,2011-12\r\n36,200901082,GOUTAM HARI TULSIYAN,goutamhari.tulsiyan@students.iiit.ac.in,D2,2011-12\r\n37,200901049,SURAJ MENON,suraj.menon@students.iiit.ac.in,D3,2011-12\r\n38,200901007,ANJALI SACHDEVA,anjali.sachdeva@students.iiit.ac.in,D3,2011-12\r\n39,200901015,DONTULA KAPIL,dontula.kapil@students.iiit.ac.in,D3,2011-12\r\n40,200901097,SHRENIK LAD,shrenik.lad@students.iiit.ac.in,D3,2011-12\r\n41,200901001,ABHAYJEET SINGH,abhayjeet.singh@students.iiit.ac.in,D3,2011-12\r\n42,200902045,KULDEEP PORWAL,kuldeep.porwal@students.iiit.ac.in,D3,2011-12\r\n43,200901076,AMIT KUMAR BANSAL,amitkumar.bansal@students.iiit.ac.in,ML,2011-12\r\n44,200901070,VIBHOR GOEL,vibhor.goel@students.iiit.ac.in,ML,2011-12\r\n45,200901020,HARSH SATIJA,harsh.satija@students.iiit.ac.in,ML,2011-12\r\n46,200901011,CHARNEET SINGH,charneet.singh@students.iiit.ac.in,ML,2011-12\r\n47,200901040,SAMAY SHARMA,samay.sharma@students.iiit.ac.in,ML,2011-12\r\n48,200901065,SIMPI KUMARI,simpi.kumari@students.iiit.ac.in,ML,2011-12\r\n49,200901054,VAIDEHI CHHAJER,vaidehi.chhajer@students.iiit.ac.in,D1,2011-12\r\n50,200901084,KARAN THAPAR,karan.thapar@students.iiit.ac.in,D1,2011-12\r\n51,200901049,SURAJ MENON,suraj.menon@students.iiit.ac.in,D1,2011-12\r\n52,200901096,SHAIK ALLAUDDIN,shaik.allauddin@students.iiit.ac.in,D1,2011-12\r\n53,200901062,NAMITA PORWAL,namita.porwal@students.iiit.ac.in,D1,2011-12\r\n54,200902022,RASHMI VILAS TONGE,rashmivilas.tonge@students.iiit.ac.in,D1,2011-12\r\n55,200901015,DONTULA KAPIL,dontula.kapil@students.iiit.ac.in,D2,2011-12\r\n56,200901024,KRISHNA KUMAR SINGH,krishnakumar.singh@students.iiit.ac.in,D2,2011-12\r\n57,200901093,RAHUL SIHAG,rahul.sihag@students.iiit.ac.in,D2,2011-12\r\n58,200901007,ANJALI SACHDEVA,anjali.sachdeva@students.iiit.ac.in,D2,2011-12\r\n59,200901097,SHRENIK LAD,shrenik.lad@students.iiit.ac.in,D2,2011-12\r\n60,200901070,VIBHOR GOEL,vibhor.goel@students.iiit.ac.in,D2,2011-12\r\n61,200901089,MOUNICA M,mounica.m@students.iiit.ac.in,D3,2011-12\r\n62,200901001,ABHAYJEET SINGH,abhayjeet.singh@students.iiit.ac.in,D3,2011-12\r\n63,200901065,SIMPI KUMARI,simpi.kumari@students.iiit.ac.in,D3,2011-12\r\n64,200902039,ANUJ ANIL KUMAR TOSHNIWAL,anuj.t@students.iiit.ac.in,D3,2011-12\r\n65,200901091,RAGHAV KATYAL,raghav.katyal@students.iiit.ac.in,D3,2011-12\r\n66,200901072,DEVENDER GOYAL,devender.goyal@students.iiit.ac.in,D3,2011-12\r\n67,200902038,ANNAMANENI NARENDRA,narendra.annamaneni@students.iiit.ac.in,ML,2011-12\r\n68,200901014,DIVIJ RAO,divij.rao@students.iiit.ac.in,ML,2011-12\r\n69,200901033,PARESH VERMA,paresh.verma@students.iiit.ac.in,ML,2011-12\r\n70,200901028,MEHAK BHATIA,mehak.bhatia@students.iiit.ac.in,ML,2011-12\r\n71,200901076,AMIT KUMAR BANSAL,amitkumar.bansal@students.iiit.ac.in,ML,2011-12\r\n72,200901082,GOUTAM HARI TULSIYAN,goutamhari.tulsiyan@students.iiit.ac.in,ML,2011-12\r\n73,200930025,SIHORA JAIDEEP NAVINBHAI,jaideep.sihora@students.iiit.ac.in,D1,2011-12\r\n74,200930005,PRAHAL GHAI,prahal.ghai@students.iiit.ac.in,D1,2011-12\r\n75,200930008,RAMAKRISHNA VEDANTAM.S,ramakrishna.vedantam@students.iiit.ac.in,D2,2011-12\r\n76,200930007,PRIYAM PARASHAR,priyam.parashar@students.iiit.ac.in,D2,2011-12\r\n77,200930033,RAHUL P.R,rahul.pr@students.iiit.ac.in,D3,2011-12\r\n78,200930032,MANCHIREDDY SHIVA RAM REDDY,shivaram.manchi@students.iiit.ac.in,D3,2011-12\r\n79,200930009,RUDRARAJU DINESH SAIVARMA,dinesh.rudraraju@students.iiit.ac.in,ML,2011-12\r\n80,200930015,AAKASH AGARWAL,aakash.agarwal@students.iiit.ac.in,ML,2011-12\r\n81,200930008,RAMAKRISHNA VEDANTAM.S,ramakrishna.vedantam@students.iiit.ac.in,D1,2011-12\r\n82,200930027,ABHAY VINAYAK,abhaya.vinayak@students.iiit.ac.in,D1,2011-12\r\n83,200930024,RITU RAJ YADAV,rituraj.yadav@students.iiit.ac.in,D2,2011-12\r\n84,200930006,PRAVIN KUMAR GADODIA,pravin.gadodia@students.iiit.ac.in,D2,2011-12\r\n85,200930007,PRIYAM PARASHAR,priyam.parashar@students.iiit.ac.in,D3,2011-12\r\n86,200930012,SHUBHAM GUPTA,shubham.gupta@students.iiit.ac.in,D3,2011-12\r\n87,200964014,BELLAMKONDA PRANEETHA,pranneetha.bellamkonda@students.iiit.ac.in,D1,2011-12\r\n88,200964003,ABHISHEK VINAYAK DESHPANDE,abishek.deshpande@students.iiit.ac.in,D2,2011-12\r\n89,200964003,ABHISHEK VINAYAK DESHPANDE,abishek.deshpande@students.iiit.ac.in,D1,2011-12\r\n90,200925006,URMI GHOSH,urmi.ghosh@students.iiit.ac.in,D1,2011-12\r\n91,201001047,ROHIT GIRDHAR,rohit.girdhar@students.iiit.ac.in,D1,2011-12\r\n92,201001038,LOVEPREET SINGH,lovepreet.singh@students.iiit.ac.in,D1,2011-12\r\n93,201001079,J V S ARUN,satya.venkata@students.iiit.ac.in,D1,2011-12\r\n94,201001149,SHANKA SAI SUDHEER KUMAR,sai.shanka@students.iiit.ac.in,D1,2011-12\r\n95,201002088,VIVEK HAMIRWASIA,vivek.hamirwasia@students.iiit.ac.in,D1,2011-12\r\n96,201001085,ANISH SHANKAR,anish.shankar@students.iiit.ac.in,D1,2011-12\r\n97,201001044,AKSHAT AGGARWAL,akshat.aggarwal@students.iiit.ac.in,D2,2011-12\r\n98,201001146,MONICA PULLURI,monica.pulluri@students.iiit.ac.in,D2,2011-12\r\n99,201001032,AJIT KUMAR SINGH,ajit.singh@students.iiit.ac.in,D2,2011-12\r\n100,201001093,ASHUTOSH KUMAR,ashutosh.kumar@students.iiit.ac.in,D2,2011-12\r\n101,201001015,YASH DILIP VADALIA,yash.vadalia@students.iiit.ac.in,D2,2011-12\r\n102,201001084,DURGI V P DATTA SAI KASHYAP,durgi.kashyap@students.iiit.ac.in,D2,2011-12\r\n103,201001126,SAUMYA DWIVEDI,saumya.dwivedi@students.iiit.ac.in,D3,2011-12\r\n104,201001011,RAHUL BANSAL,rahul.bansal@students.iiit.ac.in,D3,2011-12\r\n105,201001047,ROHIT GIRDHAR,rohit.girdhar@students.iiit.ac.in,D1,2011-12\r\n106,201001079,J V S ARUN,satya.venkata@students.iiit.ac.in,D1,2011-12\r\n107,201002088,VIVEK HAMIRWASIA,vivek.hamirwasia@students.iiit.ac.in,D1,2011-12\r\n108,201001044,AKSHAT AGGARWAL,akshat.aggarwal@students.iiit.ac.in,D1,2011-12\r\n109,201002132,K RAGHAV,raghav.k@students.iiit.ac.in,D1,2011-12\r\n110,201001149,SHANKA SAI SUDHEER KUMAR,sai.shanka@students.iiit.ac.in,D1,2011-12\r\n111,201001053,MASUM KUMAR LODHA,masum.lodha@students.iiit.ac.in,D2,2011-12\r\n112,201001015,YASH DILIP VADALIA,yash.vadalia@students.iiit.ac.in,D2,2011-12\r\n113,201001014,MINOCHA AYUSH ARUN,ayush.minocha@students.iiit.ac.in,D2,2011-12\r\n114,201001067,PRATEEK GOEL,prateek.goel@students.iiit.ac.in,D2,2011-12\r\n115,201001086,CHETLUR MADHAVAN MALOLAN,madhavan.chetlur@students.iiit.ac.in,D2,2011-12\r\n116,201001143,AYUSH TEWARI,ayush.tewari@students.iiit.ac.in,D2,2011-12\r\n117,201001139,HINSU SMIT VASANTBHAI,hinsu.vasantbhai@students.iiit.ac.in,D3,2011-12\r\n118,201001126,SAUMYA DWIVEDI,saumya.dwivedi@students.iiit.ac.in,D3,2011-12\r\n119,201001039,HARSHITH MEELA,meela.harshith@students.iiit.ac.in,D3,2011-12\r\n120,201001048,ABHISHEK PALIWAL,abhishek.paliwal@students.iiit.ac.in,D3,2011-12\r\n121,201001130,NIKHIL SIDDHARTHA,nikhil.siddhartha@students.iiit.ac.in,D3,2011-12\r\n122,201031077,SYED TABISH ABBAS,syed.abbas@students.iiit.ac.in,D1,2011-12\r\n123,201030050,PIYUSH KUMAR BARANWAL,piyush.baranwal@students.iiit.ac.in,D2,2011-12\r\n124,201030147,KOPPURAVURI SRI HAINDAVI,haindavi.koppuravuri@students.iiit.ac.in,D3,2011-12\r\n125,201030169,PRIYANKA DESHPANDE,priyanka.deshpande@students.iiit.ac.in,ML,2011-12\r\n126,201030050,PIYUSH KUMAR BARANWAL,piyush.baranwal@students.iiit.ac.in,D1,2011-12\r\n127,201031077,SYED TABISH ABBAS,syed.abbas@students.iiit.ac.in,D2,2011-12\r\n128,201030147,KOPPURAVURI SRI HAINDAVI,haindavi.koppuravuri@students.iiit.ac.in,D3,2011-12\r\n129,201030141,RAKESH N R,rakesh.r@students.iiit.ac.in,ML,2011-12\r\n130,201064049,SIDDHARTH GOYAL,siddharth.goyal@students.iiit.ac.in,D1,2011-12\r\n131,201064049,SIDDHARTH GOYAL,siddharth.goyal@students.iiit.ac.in,D1,2011-12\r\n132,201025173,K PRATHYUSHA,prathyusha.k@students.iiit.ac.in,D1,2011-12\r\n133,201025173,K PRATHYUSHA,prathyusha.k@students.iiit.ac.in,D1,2011-12\r\n134,201056174,BHARAT MUNSHI,bharat.munshi@students.iiit.ac.in,D1,2011-12\r\n135,201056174,BHARAT MUNSHI,bharat.munshi@students.iiit.ac.in,D1,2011-12\r\n136,201101164,MOHIT AGGARWAL,mohit.aggarwal@students.iiit.ac.in,D1,2011-12\r\n137,201101169,SHASHANK YADAV,shashank.yadav@students.iiit.ac.in,D1,2011-12\r\n138,201101126,SANCHIT GANGWAR,sanchit.gangwar@students.iiit.ac.in,D1,2011-12\r\n139,201101004,MAYANK GUPTA,mayank.g@students.iiit.ac.in,D1,2011-12\r\n140,201101054,SOMAY JAIN,somay.jain@students.iiit.ac.in,D1,2011-12\r\n141,201101086,G. MADHURI,madhuri.gaddam@students.iiit.ac.in,D1,2011-12\r\n142,201101209,S. DIVYA,divya.s@students.iiit.ac.in,D1,2011-12\r\n143,201101159,MEEDINTI SUPRAJA,meedinti.supraja@students.iiit.ac.in,D2,2011-12\r\n144,201101025,AANCHAL BINDAL,aanchal.bindal@students.iiit.ac.in,D2,2011-12\r\n145,201101158,R. GURU PRAKASH,ramaguruguru.prakash@students.iiit.ac.in,D2,2011-12\r\n146,201101217,NIKHAR AGRAWAL,nikhar.agrawal@students.iiit.ac.in,D2,2011-12\r\n147,201101220,CHITRA KHATWANI,chitra.khatwani@students.iiit.ac.in,D2,2011-12\r\n148,201101173,HARSH VARDHAN SHUKLA,harshvardhan.shukla@students.iiit.ac.in,D2,2011-12\r\n149,201101224,AAYUSH CHUGH,aayush.chugh@students.iiit.ac.in,D2,2011-12\r\n150,201101010,ANKUSH JAIN,ankush.jain@students.iiit.ac.in,D3,2011-12\r\n151,201101195,PALLAV SHAH,pallav.shah@students.iiit.ac.in,D3,2011-12\r\n152,201101029,VINIL NARANG,vinil.narang@students.iiit.ac.in,D3,2011-12\r\n153,201101074,CHETNA,chetna@students.iiit.ac.in,D3,2011-12\r\n154,201101141,SAUMYA PATHAK,saumya.pathak@students.iiit.ac.in,D3,2011-12\r\n155,201101194,CHANDAN SINGH,chandan.singh@students.iiit.ac.in,D3,2011-12\r\n156,201101168,SUDHANSHU SHEKHAR,sudhanshu.shekhar@students.iiit.ac.in,D3,2011-12\r\n157,201101012,KRITI KANSAL,kriti.kansal@students.iiit.ac.in,ML,2011-12\r\n158,201101052,AKHIL JINDAL,akhil.jindal@students.iiit.ac.in,ML,2011-12\r\n159,201101107,LAKSHIT ARORA,lakshit.arora@students.iiit.ac.in,ML,2011-12\r\n160,201101153,RITIKA TANWANI,ritika.tanwani@students.iiit.ac.in,ML,2011-12\r\n161,201102111,P YASHASWI,p.yashaswi@students.iiit.ac.in,ML,2011-12\r\n162,201101046,RISHI RAJ SINGH JHELUMI,rishirajsingh.jhelumi@students.iiit.ac.in,ML,2011-12\r\n163,201101081,DEEPESH JAIN,deepesh.jain@students.iiit.ac.in,ML,2011-12\r\n164,201101139,NISHANT RAM KRISHAN,nishantr.krishan@students.iiit.ac.in,ML,2011-12\r\n165,201101198,MONAM AGARWAL,monam.agarwal@students.iiit.ac.in,ML,2011-12\r\n166,201101054,SOMAY JAIN,somay.jain@students.iiit.ac.in,D1,2011-12\r\n167,201101004,MAYANK GUPTA,mayank.g@students.iiit.ac.in,D1,2011-12\r\n168,201101178,PAPIREDDYGARI MANEESHA,papireddygari.maneesha@students.iiit.ac.in,D1,2011-12\r\n169,201101217,NIKHAR AGRAWAL,nikhar.agrawal@students.iiit.ac.in,D1,2011-12\r\n170,201101209,S. DIVYA,divya.s@students.iiit.ac.in,D1,2011-12\r\n171,201101107,LAKSHIT ARORA,lakshit.arora@students.iiit.ac.in,D1,2011-12\r\n172,201101164,MOHIT AGGARWAL,mohit.aggarwal@students.iiit.ac.in,D1,2011-12\r\n173,201101198,MONAM AGARWAL,monam.agarwal@students.iiit.ac.in,D2,2011-12\r\n174,201101158,R. GURU PRAKASH,ramaguruguru.prakash@students.iiit.ac.in,D2,2011-12\r\n175,201101012,KRITI KANSAL,kriti.kansal@students.iiit.ac.in,D2,2011-12\r\n176,201101213,DEEPAK KATHAYAT,deepak.kathayat@students.iiit.ac.in,D2,2011-12\r\n177,201101098,THAKKAR KUNJ RAJESH,kunj.thakkar@students.iiit.ac.in,D2,2011-12\r\n178,201101086,G. MADHURI,madhuri.gaddam@students.iiit.ac.in,D2,2011-12\r\n179,201101139,NISHANT RAM KRISHAN,nishantr.krishan@students.iiit.ac.in,D2,2011-12\r\n180,201101112,KAPIL KUMAR,kapil.kumar@students.iiit.ac.in,D3,2011-12\r\n181,201101169,SHASHANK YADAV,shashank.yadav@students.iiit.ac.in,D3,2011-12\r\n182,201101159,MEEDINTI SUPRAJA,meedinti.supraja@students.iiit.ac.in,D3,2011-12\r\n183,201101010,ANKUSH JAIN,ankush.jain@students.iiit.ac.in,D3,2011-12\r\n184,201101074,CHETNA,chetna@students.iiit.ac.in,D3,2011-12\r\n185,201102200,AKASH AGARWAL,akash.agarwal@students.iiit.ac.in,D3,2011-12\r\n186,201102082,CHALUVADI BHANU DEV,chaluvadibhanu.dev@students.iiit.ac.in,D3,2011-12\r\n187,201101029,VINIL NARANG,vinil.narang@students.iiit.ac.in,ML,2011-12\r\n188,201101025,AANCHAL BINDAL,aanchal.bindal@students.iiit.ac.in,ML,2011-12\r\n189,201101173,HARSH VARDHAN SHUKLA,harshvardhan.shukla@students.iiit.ac.in,ML,2011-12\r\n190,201101168,SUDHANSHU SHEKHAR,sudhanshu.shekhar@students.iiit.ac.in,ML,2011-12\r\n191,201101079,NIKITA NATARAJ,nikita.nataraj@students.iiit.ac.in,ML,2011-12\r\n192,201101052,AKHIL JINDAL,akhil.jindal@students.iiit.ac.in,ML,2011-12\r\n193,201101146,YASHASVI GIRDHAR,yashasvi.girdhar@students.iiit.ac.in,ML,2011-12\r\n194,201130110,MANU VISWANADHAN,manu.viswanadhan@students.iiit.ac.in,D1,2011-12\r\n195,201130050,ADITI GUPTA,aditi.gupta@students.iiit.ac.in,D1,2011-12\r\n196,201130196,SHANTANU PATIL PRABHAKAR,shantanu.patil@students.iiit.ac.in,D2,2011-12\r\n197,201130065,AJIT MATHEW,ajit.mathew@students.iiit.ac.in,D2,2011-12\r\n198,201130179,VISHAL GUPTA,vishal.gupta@students.iiit.ac.in,D3,2011-12\r\n199,201130119,SOMANSHU AGARWAL,somanshu.agarwal@students.iiit.ac.in,D3,2011-12\r\n200,201130115,AKSHAYA PUROHIT,akshaya.purohit@students.iiit.ac.in,ML,2011-12\r\n201,201130228,RISHAV KUMAR,rishav.kumar@students.iiit.ac.in,ML,2011-12\r\n202,201130196,SHANTANU PATIL PRABHAKAR,shantanu.patil@students.iiit.ac.in,D1,2011-12\r\n203,201130110,MANU VISWANADHAN,manu.viswanadhan@students.iiit.ac.in,D1,2011-12\r\n204,201130065,AJIT MATHEW,ajit.mathew@students.iiit.ac.in,D2,2011-12\r\n205,201130050,ADITI GUPTA,aditi.gupta@students.iiit.ac.in,D2,2011-12\r\n206,201130179,VISHAL GUPTA,vishal.gupta@students.iiit.ac.in,D3,2011-12\r\n207,201130115,AKSHAYA PUROHIT,akshaya.purohit@students.iiit.ac.in,D3,2011-12\r\n208,201131133,NAMAN GOVIL,naman.govil@students.iiit.ac.in,ML,2011-12\r\n209,201131122,GURSHAANT SINGH MALIK,gurshaantsingh.malik@students.iiit.ac.in,ML,2011-12\r\n210,201164191,ABHINANDHAN PANIGRAHI,abhinandan.panigrahi@students.iiit.ac.in,D1,2011-12\r\n211,201164080,MANISH KUMAR SHUKLA,manish.shukla@students.iiit.ac.in,D2,2011-12\r\n212,201164064,ADITI GUPTA,aditi.g@students.iiit.ac.in,D3,2011-12\r\n213,201164137,MOHIT GOEL,mohit.goel@students.iiit.ac.in,ML,2011-12\r\n214,201164191,ABHINANDHAN PANIGRAHI,abhinandan.panigrahi@students.iiit.ac.in,D1,2011-12\r\n215,201164064,ADITI GUPTA,aditi.g@students.iiit.ac.in,D2,2011-12\r\n216,201125034,M. VENNELA,miryala.vennela@students.iiit.ac.in,D1,2011-12\r\n217,201125005,NEHAL JAGDISH WANI,nehal.wani@students.iiit.ac.in,D2,2011-12\r\n218,201125188,CHANDU KHYATHI RAGHAVI,chandukhyathi.raghavi@students.iiit.ac.in,D3,2011-12\r\n219,201125005,NEHAL JAGDISH WANI,nehal.wani@students.iiit.ac.in,D1,2011-12\r\n220,201125034,M. VENNELA,miryala.vennela@students.iiit.ac.in,D2,2011-12\r\n221,201125188,CHANDU KHYATHI RAGHAVI,chandukhyathi.raghavi@students.iiit.ac.in,D3,2011-12\r\n,,,,,\r\n,,,,,\r\n,,,,,\r\n'
p2597
ag2420
asbasbasbag57
(g73
g59
NtRp2598
(dp2599
g62
(dp2600
sg71
g2573
sg64
(lp2601
g57
(g78
g59
NtRp2602
(dp2603
g62
(dp2604
g82
g83
ssg71
g2598
sg64
(lp2605
g2429
asbag57
(g78
g59
NtRp2606
(dp2607
g62
(dp2608
g89
g90
ssg71
g2598
sg64
(lp2609
S':'
asbag57
(g78
g59
NtRp2610
(dp2611
g62
(dp2612
sg71
g2598
sg64
(lp2613
g57
(g58
g59
NtRp2614
(dp2615
g62
(dp2616
g70
I4
ssg71
g2610
sg64
(lp2617
g2442
asbasbasbasbasbasbasbag57
(g73
g59
NtRp2618
(dp2619
g62
(dp2620
sg71
g67
sg64
(lp2621
g57
(g78
g59
NtRp2622
(dp2623
g62
(dp2624
g82
g83
ssg71
g2618
sg64
(lp2625
S'wsgi'
p2626
asbag57
(g78
g59
NtRp2627
(dp2628
g62
(dp2629
g89
g90
ssg71
g2618
sg64
(lp2630
S':'
asbag57
(g78
g59
NtRp2631
(dp2632
g62
(dp2633
sg71
g2618
sg64
(lp2634
g57
(g58
g59
NtRp2635
(dp2636
g62
(dp2637
g70
I5
ssg71
g2631
sg64
(lp2638
g57
(g66
g59
NtRp2639
(dp2640
g62
(dp2641
g70
I4
ssg71
Nsg64
(lp2642
g57
(g73
g59
NtRp2643
(dp2644
g62
(dp2645
sg71
g2639
sg64
(lp2646
g57
(g78
g59
NtRp2647
(dp2648
g62
(dp2649
g82
g83
ssg71
g2643
sg64
(lp2650
S'environ'
p2651
asbag57
(g78
g59
NtRp2652
(dp2653
g62
(dp2654
g89
g90
ssg71
g2643
sg64
(lp2655
S':'
asbag57
(g78
g59
NtRp2656
(dp2657
g62
(dp2658
sg71
g2643
sg64
(lp2659
g57
(g58
g59
NtRp2660
(dp2661
g62
(dp2662
g70
I4
ssg71
g2656
sg64
(lp2663
g57
(g66
g59
NtRp2664
(dp2665
g62
(dp2666
g70
I3
ssg71
Nsg64
(lp2667
g57
(g73
g59
NtRp2668
(dp2669
g62
(dp2670
sg71
g2664
sg64
(lp2671
g57
(g78
g59
NtRp2672
(dp2673
g62
(dp2674
g82
g83
ssg71
g2668
sg64
(lp2675
S'CONTENT_LENGTH'
p2676
asbag57
(g78
g59
NtRp2677
(dp2678
g62
(dp2679
g89
g90
ssg71
g2668
sg64
(lp2680
S':'
asbag57
(g78
g59
NtRp2681
(dp2682
g62
(dp2683
sg71
g2668
sg64
(lp2684
g57
(g58
g59
NtRp2685
(dp2686
g62
(dp2687
g70
I3
ssg71
g2681
sg64
(lp2688
g963
asbasbasbag57
(g73
g59
NtRp2689
(dp2690
g62
(dp2691
sg71
g2664
sg64
(lp2692
g57
(g78
g59
NtRp2693
(dp2694
g62
(dp2695
g82
g83
ssg71
g2689
sg64
(lp2696
S'CONTENT_TYPE'
p2697
asbag57
(g78
g59
NtRp2698
(dp2699
g62
(dp2700
g89
g90
ssg71
g2689
sg64
(lp2701
S':'
asbag57
(g78
g59
NtRp2702
(dp2703
g62
(dp2704
sg71
g2689
sg64
(lp2705
g57
(g58
g59
NtRp2706
(dp2707
g62
(dp2708
g70
I3
ssg71
g2702
sg64
(lp2709
g985
asbasbasbag57
(g73
g59
NtRp2710
(dp2711
g62
(dp2712
sg71
g2664
sg64
(lp2713
g57
(g78
g59
NtRp2714
(dp2715
g62
(dp2716
g82
g83
ssg71
g2710
sg64
(lp2717
S'HTTP_ACCEPT'
p2718
asbag57
(g78
g59
NtRp2719
(dp2720
g62
(dp2721
g89
g90
ssg71
g2710
sg64
(lp2722
S':'
asbag57
(g78
g59
NtRp2723
(dp2724
g62
(dp2725
sg71
g2710
sg64
(lp2726
g57
(g58
g59
NtRp2727
(dp2728
g62
(dp2729
g70
I3
ssg71
g2723
sg64
(lp2730
g1072
asbasbasbag57
(g73
g59
NtRp2731
(dp2732
g62
(dp2733
sg71
g2664
sg64
(lp2734
g57
(g78
g59
NtRp2735
(dp2736
g62
(dp2737
g82
g83
ssg71
g2731
sg64
(lp2738
S'HTTP_ACCEPT_ENCODING'
p2739
asbag57
(g78
g59
NtRp2740
(dp2741
g62
(dp2742
g89
g90
ssg71
g2731
sg64
(lp2743
S':'
asbag57
(g78
g59
NtRp2744
(dp2745
g62
(dp2746
sg71
g2731
sg64
(lp2747
g57
(g58
g59
NtRp2748
(dp2749
g62
(dp2750
g70
I3
ssg71
g2744
sg64
(lp2751
g1094
asbasbasbag57
(g73
g59
NtRp2752
(dp2753
g62
(dp2754
sg71
g2664
sg64
(lp2755
g57
(g78
g59
NtRp2756
(dp2757
g62
(dp2758
g82
g83
ssg71
g2752
sg64
(lp2759
S'HTTP_ACCEPT_LANGUAGE'
p2760
asbag57
(g78
g59
NtRp2761
(dp2762
g62
(dp2763
g89
g90
ssg71
g2752
sg64
(lp2764
S':'
asbag57
(g78
g59
NtRp2765
(dp2766
g62
(dp2767
sg71
g2752
sg64
(lp2768
g57
(g58
g59
NtRp2769
(dp2770
g62
(dp2771
g70
I3
ssg71
g2765
sg64
(lp2772
g1116
asbasbasbag57
(g73
g59
NtRp2773
(dp2774
g62
(dp2775
sg71
g2664
sg64
(lp2776
g57
(g78
g59
NtRp2777
(dp2778
g62
(dp2779
g82
g83
ssg71
g2773
sg64
(lp2780
S'HTTP_CONNECTION'
p2781
asbag57
(g78
g59
NtRp2782
(dp2783
g62
(dp2784
g89
g90
ssg71
g2773
sg64
(lp2785
S':'
asbag57
(g78
g59
NtRp2786
(dp2787
g62
(dp2788
sg71
g2773
sg64
(lp2789
g57
(g58
g59
NtRp2790
(dp2791
g62
(dp2792
g70
I3
ssg71
g2786
sg64
(lp2793
g1138
asbasbasbag57
(g73
g59
NtRp2794
(dp2795
g62
(dp2796
sg71
g2664
sg64
(lp2797
g57
(g78
g59
NtRp2798
(dp2799
g62
(dp2800
g82
g83
ssg71
g2794
sg64
(lp2801
S'HTTP_CONTENT_LENGTH'
p2802
asbag57
(g78
g59
NtRp2803
(dp2804
g62
(dp2805
g89
g90
ssg71
g2794
sg64
(lp2806
S':'
asbag57
(g78
g59
NtRp2807
(dp2808
g62
(dp2809
sg71
g2794
sg64
(lp2810
g57
(g58
g59
NtRp2811
(dp2812
g62
(dp2813
g70
I3
ssg71
g2807
sg64
(lp2814
g963
asbasbasbag57
(g73
g59
NtRp2815
(dp2816
g62
(dp2817
sg71
g2664
sg64
(lp2818
g57
(g78
g59
NtRp2819
(dp2820
g62
(dp2821
g82
g83
ssg71
g2815
sg64
(lp2822
S'HTTP_CONTENT_TYPE'
p2823
asbag57
(g78
g59
NtRp2824
(dp2825
g62
(dp2826
g89
g90
ssg71
g2815
sg64
(lp2827
S':'
asbag57
(g78
g59
NtRp2828
(dp2829
g62
(dp2830
sg71
g2815
sg64
(lp2831
g57
(g58
g59
NtRp2832
(dp2833
g62
(dp2834
g70
I3
ssg71
g2828
sg64
(lp2835
g985
asbasbasbag57
(g73
g59
NtRp2836
(dp2837
g62
(dp2838
sg71
g2664
sg64
(lp2839
g57
(g78
g59
NtRp2840
(dp2841
g62
(dp2842
g82
g83
ssg71
g2836
sg64
(lp2843
S'HTTP_COOKIE'
p2844
asbag57
(g78
g59
NtRp2845
(dp2846
g62
(dp2847
g89
g90
ssg71
g2836
sg64
(lp2848
S':'
asbag57
(g78
g59
NtRp2849
(dp2850
g62
(dp2851
sg71
g2836
sg64
(lp2852
g57
(g58
g59
NtRp2853
(dp2854
g62
(dp2855
g70
I3
ssg71
g2849
sg64
(lp2856
g1202
asbasbasbag57
(g73
g59
NtRp2857
(dp2858
g62
(dp2859
sg71
g2664
sg64
(lp2860
g57
(g78
g59
NtRp2861
(dp2862
g62
(dp2863
g82
g83
ssg71
g2857
sg64
(lp2864
S'HTTP_HOST'
p2865
asbag57
(g78
g59
NtRp2866
(dp2867
g62
(dp2868
g89
g90
ssg71
g2857
sg64
(lp2869
S':'
asbag57
(g78
g59
NtRp2870
(dp2871
g62
(dp2872
sg71
g2857
sg64
(lp2873
g57
(g58
g59
NtRp2874
(dp2875
g62
(dp2876
g70
I3
ssg71
g2870
sg64
(lp2877
g1224
asbasbasbag57
(g73
g59
NtRp2878
(dp2879
g62
(dp2880
sg71
g2664
sg64
(lp2881
g57
(g78
g59
NtRp2882
(dp2883
g62
(dp2884
g82
g83
ssg71
g2878
sg64
(lp2885
S'HTTP_REFERER'
p2886
asbag57
(g78
g59
NtRp2887
(dp2888
g62
(dp2889
g89
g90
ssg71
g2878
sg64
(lp2890
S':'
asbag57
(g78
g59
NtRp2891
(dp2892
g62
(dp2893
sg71
g2878
sg64
(lp2894
g57
(g58
g59
NtRp2895
(dp2896
g62
(dp2897
g70
I3
ssg71
g2891
sg64
(lp2898
g1246
asbasbasbag57
(g73
g59
NtRp2899
(dp2900
g62
(dp2901
sg71
g2664
sg64
(lp2902
g57
(g78
g59
NtRp2903
(dp2904
g62
(dp2905
g82
g83
ssg71
g2899
sg64
(lp2906
S'HTTP_USER_AGENT'
p2907
asbag57
(g78
g59
NtRp2908
(dp2909
g62
(dp2910
g89
g90
ssg71
g2899
sg64
(lp2911
S':'
asbag57
(g78
g59
NtRp2912
(dp2913
g62
(dp2914
sg71
g2899
sg64
(lp2915
g57
(g58
g59
NtRp2916
(dp2917
g62
(dp2918
g70
I3
ssg71
g2912
sg64
(lp2919
g1268
asbasbasbag57
(g73
g59
NtRp2920
(dp2921
g62
(dp2922
sg71
g2664
sg64
(lp2923
g57
(g78
g59
NtRp2924
(dp2925
g62
(dp2926
g82
g83
ssg71
g2920
sg64
(lp2927
S'PATH_INFO'
p2928
asbag57
(g78
g59
NtRp2929
(dp2930
g62
(dp2931
g89
g90
ssg71
g2920
sg64
(lp2932
S':'
asbag57
(g78
g59
NtRp2933
(dp2934
g62
(dp2935
sg71
g2920
sg64
(lp2936
g57
(g58
g59
NtRp2937
(dp2938
g62
(dp2939
g70
I3
ssg71
g2933
sg64
(lp2940
g1332
asbasbasbag57
(g73
g59
NtRp2941
(dp2942
g62
(dp2943
sg71
g2664
sg64
(lp2944
g57
(g78
g59
NtRp2945
(dp2946
g62
(dp2947
g82
g83
ssg71
g2941
sg64
(lp2948
S'QUERY_STRING'
p2949
asbag57
(g78
g59
NtRp2950
(dp2951
g62
(dp2952
g89
g90
ssg71
g2941
sg64
(lp2953
S':'
asbag57
(g78
g59
NtRp2954
(dp2955
g62
(dp2956
sg71
g2941
sg64
(lp2957
g57
(g58
g59
NtRp2958
(dp2959
g62
(dp2960
g70
I3
ssg71
g2954
sg64
(lp2961
S''
asbasbasbag57
(g73
g59
NtRp2962
(dp2963
g62
(dp2964
sg71
g2664
sg64
(lp2965
g57
(g78
g59
NtRp2966
(dp2967
g62
(dp2968
g82
g83
ssg71
g2962
sg64
(lp2969
S'REMOTE_ADDR'
p2970
asbag57
(g78
g59
NtRp2971
(dp2972
g62
(dp2973
g89
g90
ssg71
g2962
sg64
(lp2974
S':'
asbag57
(g78
g59
NtRp2975
(dp2976
g62
(dp2977
sg71
g2962
sg64
(lp2978
g57
(g58
g59
NtRp2979
(dp2980
g62
(dp2981
g70
I3
ssg71
g2975
sg64
(lp2982
g212
asbasbasbag57
(g73
g59
NtRp2983
(dp2984
g62
(dp2985
sg71
g2664
sg64
(lp2986
g57
(g78
g59
NtRp2987
(dp2988
g62
(dp2989
g82
g83
ssg71
g2983
sg64
(lp2990
S'REMOTE_PORT'
p2991
asbag57
(g78
g59
NtRp2992
(dp2993
g62
(dp2994
g89
g90
ssg71
g2983
sg64
(lp2995
S':'
asbag57
(g78
g59
NtRp2996
(dp2997
g62
(dp2998
sg71
g2983
sg64
(lp2999
g57
(g58
g59
NtRp3000
(dp3001
g62
(dp3002
g70
I3
ssg71
g2996
sg64
(lp3003
g1396
asbasbasbag57
(g73
g59
NtRp3004
(dp3005
g62
(dp3006
sg71
g2664
sg64
(lp3007
g57
(g78
g59
NtRp3008
(dp3009
g62
(dp3010
g82
g83
ssg71
g3004
sg64
(lp3011
S'REQUEST_METHOD'
p3012
asbag57
(g78
g59
NtRp3013
(dp3014
g62
(dp3015
g89
g90
ssg71
g3004
sg64
(lp3016
S':'
asbag57
(g78
g59
NtRp3017
(dp3018
g62
(dp3019
sg71
g3004
sg64
(lp3020
g57
(g58
g59
NtRp3021
(dp3022
g62
(dp3023
g70
I3
ssg71
g3017
sg64
(lp3024
g1418
asbasbasbag57
(g73
g59
NtRp3025
(dp3026
g62
(dp3027
sg71
g2664
sg64
(lp3028
g57
(g78
g59
NtRp3029
(dp3030
g62
(dp3031
g82
g83
ssg71
g3025
sg64
(lp3032
S'REQUEST_URI'
p3033
asbag57
(g78
g59
NtRp3034
(dp3035
g62
(dp3036
g89
g90
ssg71
g3025
sg64
(lp3037
S':'
asbag57
(g78
g59
NtRp3038
(dp3039
g62
(dp3040
sg71
g3025
sg64
(lp3041
g57
(g58
g59
NtRp3042
(dp3043
g62
(dp3044
g70
I3
ssg71
g3038
sg64
(lp3045
g1332
asbasbasbag57
(g73
g59
NtRp3046
(dp3047
g62
(dp3048
sg71
g2664
sg64
(lp3049
g57
(g78
g59
NtRp3050
(dp3051
g62
(dp3052
g82
g83
ssg71
g3046
sg64
(lp3053
S'SCRIPT_NAME'
p3054
asbag57
(g78
g59
NtRp3055
(dp3056
g62
(dp3057
g89
g90
ssg71
g3046
sg64
(lp3058
S':'
asbag57
(g78
g59
NtRp3059
(dp3060
g62
(dp3061
sg71
g3046
sg64
(lp3062
g57
(g58
g59
NtRp3063
(dp3064
g62
(dp3065
g70
I3
ssg71
g3059
sg64
(lp3066
S''
asbasbasbag57
(g73
g59
NtRp3067
(dp3068
g62
(dp3069
sg71
g2664
sg64
(lp3070
g57
(g78
g59
NtRp3071
(dp3072
g62
(dp3073
g82
g83
ssg71
g3067
sg64
(lp3074
S'SERVER_NAME'
p3075
asbag57
(g78
g59
NtRp3076
(dp3077
g62
(dp3078
g89
g90
ssg71
g3067
sg64
(lp3079
S':'
asbag57
(g78
g59
NtRp3080
(dp3081
g62
(dp3082
sg71
g3067
sg64
(lp3083
g57
(g58
g59
NtRp3084
(dp3085
g62
(dp3086
g70
I3
ssg71
g3080
sg64
(lp3087
g1482
asbasbasbag57
(g73
g59
NtRp3088
(dp3089
g62
(dp3090
sg71
g2664
sg64
(lp3091
g57
(g78
g59
NtRp3092
(dp3093
g62
(dp3094
g82
g83
ssg71
g3088
sg64
(lp3095
S'SERVER_PORT'
p3096
asbag57
(g78
g59
NtRp3097
(dp3098
g62
(dp3099
g89
g90
ssg71
g3088
sg64
(lp3100
S':'
asbag57
(g78
g59
NtRp3101
(dp3102
g62
(dp3103
sg71
g3088
sg64
(lp3104
g57
(g58
g59
NtRp3105
(dp3106
g62
(dp3107
g70
I3
ssg71
g3101
sg64
(lp3108
g1504
asbasbasbag57
(g73
g59
NtRp3109
(dp3110
g62
(dp3111
sg71
g2664
sg64
(lp3112
g57
(g78
g59
NtRp3113
(dp3114
g62
(dp3115
g82
g83
ssg71
g3109
sg64
(lp3116
S'SERVER_PROTOCOL'
p3117
asbag57
(g78
g59
NtRp3118
(dp3119
g62
(dp3120
g89
g90
ssg71
g3109
sg64
(lp3121
S':'
asbag57
(g78
g59
NtRp3122
(dp3123
g62
(dp3124
sg71
g3109
sg64
(lp3125
g57
(g58
g59
NtRp3126
(dp3127
g62
(dp3128
g70
I3
ssg71
g3122
sg64
(lp3129
g1526
asbasbasbag57
(g73
g59
NtRp3130
(dp3131
g62
(dp3132
sg71
g2664
sg64
(lp3133
g57
(g78
g59
NtRp3134
(dp3135
g62
(dp3136
g82
g83
ssg71
g3130
sg64
(lp3137
S'SERVER_SOFTWARE'
p3138
asbag57
(g78
g59
NtRp3139
(dp3140
g62
(dp3141
g89
g90
ssg71
g3130
sg64
(lp3142
S':'
asbag57
(g78
g59
NtRp3143
(dp3144
g62
(dp3145
sg71
g3130
sg64
(lp3146
g57
(g58
g59
NtRp3147
(dp3148
g62
(dp3149
g70
I3
ssg71
g3143
sg64
(lp3150
g1548
asbasbasbag57
(g73
g59
NtRp3151
(dp3152
g62
(dp3153
sg71
g2664
sg64
(lp3154
g57
(g78
g59
NtRp3155
(dp3156
g62
(dp3157
g82
g83
ssg71
g3151
sg64
(lp3158
S'wsgi.errors'
p3159
asbag57
(g78
g59
NtRp3160
(dp3161
g62
(dp3162
g89
g90
ssg71
g3151
sg64
(lp3163
S':'
asbag57
(g78
g59
NtRp3164
(dp3165
g62
(dp3166
sg71
g3151
sg64
(lp3167
g57
(g58
g59
NtRp3168
(dp3169
g62
(dp3170
g70
I3
ssg71
g3164
sg64
(lp3171
S"<open file '<stderr>', mode 'w' at 0x7f545738b270>"
p3172
asbasbasbag57
(g73
g59
NtRp3173
(dp3174
g62
(dp3175
sg71
g2664
sg64
(lp3176
g57
(g78
g59
NtRp3177
(dp3178
g62
(dp3179
g82
g83
ssg71
g3173
sg64
(lp3180
S'wsgi.file_wrapper'
p3181
asbag57
(g78
g59
NtRp3182
(dp3183
g62
(dp3184
g89
g90
ssg71
g3173
sg64
(lp3185
S':'
asbag57
(g78
g59
NtRp3186
(dp3187
g62
(dp3188
sg71
g3173
sg64
(lp3189
g57
(g58
g59
NtRp3190
(dp3191
g62
(dp3192
g70
I3
ssg71
g3186
sg64
(lp3193
S'<class wsgiref.util.FileWrapper at 0x185aa78>'
p3194
asbasbasbag57
(g73
g59
NtRp3195
(dp3196
g62
(dp3197
sg71
g2664
sg64
(lp3198
g57
(g78
g59
NtRp3199
(dp3200
g62
(dp3201
g82
g83
ssg71
g3195
sg64
(lp3202
S'wsgi.input'
p3203
asbag57
(g78
g59
NtRp3204
(dp3205
g62
(dp3206
g89
g90
ssg71
g3195
sg64
(lp3207
S':'
asbag57
(g78
g59
NtRp3208
(dp3209
g62
(dp3210
sg71
g3195
sg64
(lp3211
g57
(g58
g59
NtRp3212
(dp3213
g62
(dp3214
g70
I3
ssg71
g3208
sg64
(lp3215
S"<open file '<fdopen>', mode 'w+b' at 0x7f54482c7030>"
p3216
asbasbasbag57
(g73
g59
NtRp3217
(dp3218
g62
(dp3219
sg71
g2664
sg64
(lp3220
g57
(g78
g59
NtRp3221
(dp3222
g62
(dp3223
g82
g83
ssg71
g3217
sg64
(lp3224
S'wsgi.multiprocess'
p3225
asbag57
(g78
g59
NtRp3226
(dp3227
g62
(dp3228
g89
g90
ssg71
g3217
sg64
(lp3229
S':'
asbag57
(g78
g59
NtRp3230
(dp3231
g62
(dp3232
sg71
g3217
sg64
(lp3233
g57
(g58
g59
NtRp3234
(dp3235
g62
(dp3236
g70
I3
ssg71
g3230
sg64
(lp3237
g100
asbasbasbag57
(g73
g59
NtRp3238
(dp3239
g62
(dp3240
sg71
g2664
sg64
(lp3241
g57
(g78
g59
NtRp3242
(dp3243
g62
(dp3244
g82
g83
ssg71
g3238
sg64
(lp3245
S'wsgi.multithread'
p3246
asbag57
(g78
g59
NtRp3247
(dp3248
g62
(dp3249
g89
g90
ssg71
g3238
sg64
(lp3250
S':'
asbag57
(g78
g59
NtRp3251
(dp3252
g62
(dp3253
sg71
g3238
sg64
(lp3254
g57
(g58
g59
NtRp3255
(dp3256
g62
(dp3257
g70
I3
ssg71
g3251
sg64
(lp3258
g1787
asbasbasbag57
(g73
g59
NtRp3259
(dp3260
g62
(dp3261
sg71
g2664
sg64
(lp3262
g57
(g78
g59
NtRp3263
(dp3264
g62
(dp3265
g82
g83
ssg71
g3259
sg64
(lp3266
S'wsgi.run_once'
p3267
asbag57
(g78
g59
NtRp3268
(dp3269
g62
(dp3270
g89
g90
ssg71
g3259
sg64
(lp3271
S':'
asbag57
(g78
g59
NtRp3272
(dp3273
g62
(dp3274
sg71
g3259
sg64
(lp3275
g57
(g58
g59
NtRp3276
(dp3277
g62
(dp3278
g70
I3
ssg71
g3272
sg64
(lp3279
g100
asbasbasbag57
(g73
g59
NtRp3280
(dp3281
g62
(dp3282
sg71
g2664
sg64
(lp3283
g57
(g78
g59
NtRp3284
(dp3285
g62
(dp3286
g82
g83
ssg71
g3280
sg64
(lp3287
S'wsgi.url_scheme'
p3288
asbag57
(g78
g59
NtRp3289
(dp3290
g62
(dp3291
g89
g90
ssg71
g3280
sg64
(lp3292
S':'
asbag57
(g78
g59
NtRp3293
(dp3294
g62
(dp3295
sg71
g3280
sg64
(lp3296
g57
(g58
g59
NtRp3297
(dp3298
g62
(dp3299
g70
I3
ssg71
g3293
sg64
(lp3300
g1830
asbasbasbag57
(g73
g59
NtRp3301
(dp3302
g62
(dp3303
sg71
g2664
sg64
(lp3304
g57
(g78
g59
NtRp3305
(dp3306
g62
(dp3307
g82
g83
ssg71
g3301
sg64
(lp3308
S'wsgi.version'
p3309
asbag57
(g78
g59
NtRp3310
(dp3311
g62
(dp3312
g89
g90
ssg71
g3301
sg64
(lp3313
S':'
asbag57
(g78
g59
NtRp3314
(dp3315
g62
(dp3316
sg71
g3301
sg64
(lp3317
g57
(g58
g59
NtRp3318
(dp3319
g62
(dp3320
g70
I3
ssg71
g3314
sg64
(lp3321
S'1'
asbasbasbasbasbasbasbasbasbasbasbasbasbsS'frames'
p3322
(lp3323
(dp3324
S'file'
p3325
S'/home/madhuri/Downloads/web2py/gluon/restricted.py'
p3326
sS'dump'
p3327
(dp3328
S'environment'
p3329
S"{'A': <class 'gluon.html.A'>, 'Admin': <function Admin>, 'Auth': <class 'gluon.tools.Auth'>, 'B': <class 'gluon.html.B'>, 'BEAUTIFY': <class 'gluon.html.BEAUTIFY'>, 'BODY': <class 'gluon.html.BODY'>, 'BR': <class 'gluon.html.BR'>, 'BUTTON': <class 'gluon.html.BUTTON'>, 'CAS': <Storage {'check_url': 'https://login.iiit.ac.in...: 'http://127.0.0.1:8000/manager/default/login'}>, 'CAT': <class 'gluon.html.CAT'>, ...}"
p3330
sS'ccode'
p3331
S'<code object <module> at 0x7f5434300730, file "/...ications/manager/controllers/default.py", line 5>'
p3332
ssS'lnum'
p3333
I209
sS'lines'
p3334
(dp3335
I204
S'    try:'
p3336
sI205
S'        if type(code) == types.CodeType:'
p3337
sI206
S'            ccode = code'
p3338
sI207
S'        else:'
p3339
sI208
S'            ccode = compile2(code,layer)'
p3340
sI209
S'        exec ccode in environment'
p3341
sI210
S'    except HTTP:'
p3342
sI211
S'        raise'
p3343
sI212
S'    except RestrictedError:'
p3344
sI213
S'        # do not encapsulate (obfuscate) the original RestrictedError'
p3345
ssS'call'
p3346
S"(code='################################################...d=grid)\\n\\nresponse._vars=response._caller(upload)\\n', environment={'A': <class 'gluon.html.A'>, 'Admin': <function Admin>, 'Auth': <class 'gluon.tools.Auth'>, 'B': <class 'gluon.html.B'>, 'BEAUTIFY': <class 'gluon.html.BEAUTIFY'>, 'BODY': <class 'gluon.html.BODY'>, 'BR': <class 'gluon.html.BR'>, 'BUTTON': <class 'gluon.html.BUTTON'>, 'CAS': <Storage {'check_url': 'https://login.iiit.ac.in...: 'http://127.0.0.1:8000/manager/default/login'}>, 'CAT': <class 'gluon.html.CAT'>, ...}, layer='/home/madhuri/Downloads/web2py/applications/manager/controllers/default.py')"
p3347
sS'func'
p3348
S'restricted'
p3349
sa(dp3350
g3325
S'/home/madhuri/Downloads/web2py/applications/manager/controllers/default.py'
p3351
sg3327
(dp3352
sg3333
I308
sg3334
(dp3353
I297
S'    http://..../[app]/default/data/search/[table]'
p3354
sI298
S'    but URLs must be signed, i.e. linked with'
p3355
sI299
S"      A('table',_href=URL('data/tables',user_signature=True))"
p3356
sI300
S'    or with the signed load operator'
p3357
sI301
S"      LOAD('default','data.load',args='tables',ajax=True,user_signature=True)"
p3358
sI302
S'    """'
p3359
sI303
S'    return dict(form=crud())'
p3360
sI304
S'def manage():'
p3361
sI305
S'    grid = SQLFORM.smartgrid(db.UPBook)'
p3362
sI306
S'    return dict(grid=grid)'
p3363
ssg3346
S'()'
p3364
sg3348
S'<module>'
p3365
sa(dp3366
g3325
S'/home/madhuri/Downloads/web2py/gluon/globals.py'
p3367
sg3327
(dp3368
S'self'
p3369
S'undefined'
p3370
sS'f'
S'<function upload>'
p3371
ssg3333
I186
sg3334
(dp3372
I181
S'        self.menu = []             # used by the default view layout'
p3373
sI182
S'        self.files = []            # used by web2py_ajax.html'
p3374
sI183
S'        self.generic_patterns = [] # patterns to allow generic views'
p3375
sI184
S"        self.delimiters = ('{{','}}')"
p3376
sI185
S'        self._vars = None'
p3377
sI186
S'        self._caller = lambda f: f()'
p3378
sI187
S'        self._view_environment = None'
p3379
sI188
S'        self._custom_commit = None'
p3380
sI189
S'        self._custom_rollback = None'
p3381
sI190
S''
ssg3346
S'(f=<function upload>)'
p3382
sg3348
S'<lambda>'
p3383
sa(dp3384
g3325
S'/home/madhuri/Downloads/web2py/applications/manager/controllers/default.py'
p3385
sg3327
(dp3386
S'k.Total'
p3387
S'0'
sS'k'
S"<Row {'Name': 'SHIPRA MALHOTRA', 'RollNo': '2008...uon.dal.RecordDeleter object at 0x7f54403f8b50>}>"
p3388
sS'award.D1'
p3389
g3370
sS'award'
p3390
S'None'
p3391
ssg3333
I163
sg3334
(dp3392
I160
S'        #query = db.stlist.flag==""'
p3393
sI161
S'        #db(query).update(flag="1")'
p3394
sI162
S'        for k in db(db.User.Award=="D1").select():'
p3395
sI163
S'            k.Total=award.D1                                                        #Change the value to change the cost of D1'
p3396
sI164
S'            k.update_record()'
p3397
sI165
S'        for k in db(db.User.Award=="D2").select():'
p3398
sI166
S'            k.Total=award.D2                                                        #change the value to cost of D2'
p3399
sI167
S'            k.update_record()'
p3400
sI158
S'        table.import_from_csv_file(file) #Import from the csv file'
p3401
sI159
S'        award = db(db.Admin.id > 0).select().first()'
p3402
ssg3346
S'()'
p3403
sg3348
S'upload'
p3404
sasS'pyver'
p3405
S'Python 2.7.3: /usr/bin/python'
p3406
sS'session'
p3407
g57
(g58
g59
NtRp3408
(dp3409
g62
(dp3410
sg64
(lp3411
g57
(g66
g59
NtRp3412
(dp3413
g62
(dp3414
g70
I5
ssg71
Nsg64
(lp3415
g57
(g73
g59
NtRp3416
(dp3417
g62
(dp3418
sg71
g3412
sg64
(lp3419
g57
(g78
g59
NtRp3420
(dp3421
g62
(dp3422
g82
g83
ssg71
g3416
sg64
(lp3423
S'LOGGEDIN'
p3424
asbag57
(g78
g59
NtRp3425
(dp3426
g62
(dp3427
g89
g90
ssg71
g3416
sg64
(lp3428
S':'
asbag57
(g78
g59
NtRp3429
(dp3430
g62
(dp3431
sg71
g3416
sg64
(lp3432
g57
(g58
g59
NtRp3433
(dp3434
g62
(dp3435
g70
I5
ssg71
g3429
sg64
(lp3436
S'0'
asbasbasbag57
(g73
g59
NtRp3437
(dp3438
g62
(dp3439
sg71
g3412
sg64
(lp3440
g57
(g78
g59
NtRp3441
(dp3442
g62
(dp3443
g82
g83
ssg71
g3437
sg64
(lp3444
S'auth'
p3445
asbag57
(g78
g59
NtRp3446
(dp3447
g62
(dp3448
g89
g90
ssg71
g3437
sg64
(lp3449
S':'
asbag57
(g78
g59
NtRp3450
(dp3451
g62
(dp3452
sg71
g3437
sg64
(lp3453
g57
(g58
g59
NtRp3454
(dp3455
g62
(dp3456
g70
I5
ssg71
g3450
sg64
(lp3457
S'None'
p3458
asbasbasbag57
(g73
g59
NtRp3459
(dp3460
g62
(dp3461
sg71
g3412
sg64
(lp3462
g57
(g78
g59
NtRp3463
(dp3464
g62
(dp3465
g82
g83
ssg71
g3459
sg64
(lp3466
S'flash'
p3467
asbag57
(g78
g59
NtRp3468
(dp3469
g62
(dp3470
g89
g90
ssg71
g3459
sg64
(lp3471
S':'
asbag57
(g78
g59
NtRp3472
(dp3473
g62
(dp3474
sg71
g3459
sg64
(lp3475
g57
(g58
g59
NtRp3476
(dp3477
g62
(dp3478
g70
I5
ssg71
g3472
sg64
(lp3479
S'None'
p3480
asbasbasbag57
(g73
g59
NtRp3481
(dp3482
g62
(dp3483
sg71
g3412
sg64
(lp3484
g57
(g78
g59
NtRp3485
(dp3486
g62
(dp3487
g82
g83
ssg71
g3481
sg64
(lp3488
S'last_orderby'
p3489
asbag57
(g78
g59
NtRp3490
(dp3491
g62
(dp3492
g89
g90
ssg71
g3481
sg64
(lp3493
S':'
asbag57
(g78
g59
NtRp3494
(dp3495
g62
(dp3496
sg71
g3481
sg64
(lp3497
g57
(g58
g59
NtRp3498
(dp3499
g62
(dp3500
g70
I5
ssg71
g3494
sg64
(lp3501
S'None'
p3502
asbasbasbag57
(g73
g59
NtRp3503
(dp3504
g62
(dp3505
sg71
g3412
sg64
(lp3506
g57
(g78
g59
NtRp3507
(dp3508
g62
(dp3509
g82
g83
ssg71
g3503
sg64
(lp3510
S'last_query'
p3511
asbag57
(g78
g59
NtRp3512
(dp3513
g62
(dp3514
g89
g90
ssg71
g3503
sg64
(lp3515
S':'
asbag57
(g78
g59
NtRp3516
(dp3517
g62
(dp3518
sg71
g3503
sg64
(lp3519
g57
(g58
g59
NtRp3520
(dp3521
g62
(dp3522
g70
I5
ssg71
g3516
sg64
(lp3523
S'db.Admin.id>0'
p3524
asbasbasbag57
(g73
g59
NtRp3525
(dp3526
g62
(dp3527
sg71
g3412
sg64
(lp3528
g57
(g78
g59
NtRp3529
(dp3530
g62
(dp3531
g82
g83
ssg71
g3525
sg64
(lp3532
S'login'
p3533
asbag57
(g78
g59
NtRp3534
(dp3535
g62
(dp3536
g89
g90
ssg71
g3525
sg64
(lp3537
S':'
asbag57
(g78
g59
NtRp3538
(dp3539
g62
(dp3540
sg71
g3525
sg64
(lp3541
g57
(g58
g59
NtRp3542
(dp3543
g62
(dp3544
g70
I5
ssg71
g3538
sg64
(lp3545
S'0'
asbasbasbag57
(g73
g59
NtRp3546
(dp3547
g62
(dp3548
sg71
g3412
sg64
(lp3549
g57
(g78
g59
NtRp3550
(dp3551
g62
(dp3552
g82
g83
ssg71
g3546
sg64
(lp3553
S'token'
p3554
asbag57
(g78
g59
NtRp3555
(dp3556
g62
(dp3557
g89
g90
ssg71
g3546
sg64
(lp3558
S':'
asbag57
(g78
g59
NtRp3559
(dp3560
g62
(dp3561
sg71
g3546
sg64
(lp3562
g57
(g58
g59
NtRp3563
(dp3564
g62
(dp3565
g70
I5
ssg71
g3559
sg64
(lp3566
S'neeharikak.v@students.iiit.ac.in'
p3567
asbasbasbasbasbsS'etype'
p3568
S"<type 'exceptions.AttributeError'>"
p3569
sS'date'
p3570
S'Sun Nov 11 15:33:29 2012'
p3571
sS'response'
p3572
g57
(g58
g59
NtRp3573
(dp3574
g62
(dp3575
sg64
(lp3576
g57
(g66
g59
NtRp3577
(dp3578
g62
(dp3579
g70
I5
ssg71
Nsg64
(lp3580
g57
(g73
g59
NtRp3581
(dp3582
g62
(dp3583
sg71
g3577
sg64
(lp3584
g57
(g78
g59
NtRp3585
(dp3586
g62
(dp3587
g82
g83
ssg71
g3581
sg64
(lp3588
g155
asbag57
(g78
g59
NtRp3589
(dp3590
g62
(dp3591
g89
g90
ssg71
g3581
sg64
(lp3592
S':'
asbag57
(g78
g59
NtRp3593
(dp3594
g62
(dp3595
sg71
g3581
sg64
(lp3596
g57
(g58
g59
NtRp3597
(dp3598
g62
(dp3599
g70
I5
ssg71
g3593
sg64
(lp3600
S'<cStringIO.StringO object at 0x7f543c447ce0>'
p3601
asbasbasbag57
(g73
g59
NtRp3602
(dp3603
g62
(dp3604
sg71
g3577
sg64
(lp3605
g57
(g78
g59
NtRp3606
(dp3607
g62
(dp3608
g82
g83
ssg71
g3602
sg64
(lp3609
g243
asbag57
(g78
g59
NtRp3610
(dp3611
g62
(dp3612
g89
g90
ssg71
g3602
sg64
(lp3613
S':'
asbag57
(g78
g59
NtRp3614
(dp3615
g62
(dp3616
sg71
g3602
sg64
(lp3617
g57
(g58
g59
NtRp3618
(dp3619
g62
(dp3620
g70
I5
ssg71
g3614
sg64
(lp3621
g57
(g66
g59
NtRp3622
(dp3623
g62
(dp3624
g70
I4
ssg71
Nsg64
(lp3625
g57
(g73
g59
NtRp3626
(dp3627
g62
(dp3628
sg71
g3622
sg64
(lp3629
g57
(g78
g59
NtRp3630
(dp3631
g62
(dp3632
g82
g83
ssg71
g3626
sg64
(lp3633
S'session_id_manager'
p3634
asbag57
(g78
g59
NtRp3635
(dp3636
g62
(dp3637
g89
g90
ssg71
g3626
sg64
(lp3638
S':'
asbag57
(g78
g59
NtRp3639
(dp3640
g62
(dp3641
sg71
g3626
sg64
(lp3642
g57
(g58
g59
NtRp3643
(dp3644
g62
(dp3645
g70
I4
ssg71
g3639
sg64
(lp3646
g475
ag57
(g66
g59
NtRp3647
(dp3648
g62
(dp3649
g70
I3
ssg71
Nsg64
(lp3650
g57
(g73
g59
NtRp3651
(dp3652
g62
(dp3653
sg71
g3647
sg64
(lp3654
g57
(g78
g59
NtRp3655
(dp3656
g62
(dp3657
g82
g83
ssg71
g3651
sg64
(lp3658
g294
asbag57
(g78
g59
NtRp3659
(dp3660
g62
(dp3661
g89
g90
ssg71
g3651
sg64
(lp3662
S':'
asbag57
(g78
g59
NtRp3663
(dp3664
g62
(dp3665
sg71
g3651
sg64
(lp3666
g57
(g58
g59
NtRp3667
(dp3668
g62
(dp3669
g70
I3
ssg71
g3663
sg64
(lp3670
S''
asbasbasbag57
(g73
g59
NtRp3671
(dp3672
g62
(dp3673
sg71
g3647
sg64
(lp3674
g57
(g78
g59
NtRp3675
(dp3676
g62
(dp3677
g82
g83
ssg71
g3671
sg64
(lp3678
g315
asbag57
(g78
g59
NtRp3679
(dp3680
g62
(dp3681
g89
g90
ssg71
g3671
sg64
(lp3682
S':'
asbag57
(g78
g59
NtRp3683
(dp3684
g62
(dp3685
sg71
g3671
sg64
(lp3686
g57
(g58
g59
NtRp3687
(dp3688
g62
(dp3689
g70
I3
ssg71
g3683
sg64
(lp3690
S''
asbasbasbag57
(g73
g59
NtRp3691
(dp3692
g62
(dp3693
sg71
g3647
sg64
(lp3694
g57
(g78
g59
NtRp3695
(dp3696
g62
(dp3697
g82
g83
ssg71
g3691
sg64
(lp3698
g336
asbag57
(g78
g59
NtRp3699
(dp3700
g62
(dp3701
g89
g90
ssg71
g3691
sg64
(lp3702
S':'
asbag57
(g78
g59
NtRp3703
(dp3704
g62
(dp3705
sg71
g3691
sg64
(lp3706
g57
(g58
g59
NtRp3707
(dp3708
g62
(dp3709
g70
I3
ssg71
g3703
sg64
(lp3710
S''
asbasbasbag57
(g73
g59
NtRp3711
(dp3712
g62
(dp3713
sg71
g3647
sg64
(lp3714
g57
(g78
g59
NtRp3715
(dp3716
g62
(dp3717
g82
g83
ssg71
g3711
sg64
(lp3718
g357
asbag57
(g78
g59
NtRp3719
(dp3720
g62
(dp3721
g89
g90
ssg71
g3711
sg64
(lp3722
S':'
asbag57
(g78
g59
NtRp3723
(dp3724
g62
(dp3725
sg71
g3711
sg64
(lp3726
g57
(g58
g59
NtRp3727
(dp3728
g62
(dp3729
g70
I3
ssg71
g3723
sg64
(lp3730
S''
asbasbasbag57
(g73
g59
NtRp3731
(dp3732
g62
(dp3733
sg71
g3647
sg64
(lp3734
g57
(g78
g59
NtRp3735
(dp3736
g62
(dp3737
g82
g83
ssg71
g3731
sg64
(lp3738
g378
asbag57
(g78
g59
NtRp3739
(dp3740
g62
(dp3741
g89
g90
ssg71
g3731
sg64
(lp3742
S':'
asbag57
(g78
g59
NtRp3743
(dp3744
g62
(dp3745
sg71
g3731
sg64
(lp3746
g57
(g58
g59
NtRp3747
(dp3748
g62
(dp3749
g70
I3
ssg71
g3743
sg64
(lp3750
S''
asbasbasbag57
(g73
g59
NtRp3751
(dp3752
g62
(dp3753
sg71
g3647
sg64
(lp3754
g57
(g78
g59
NtRp3755
(dp3756
g62
(dp3757
g82
g83
ssg71
g3751
sg64
(lp3758
g399
asbag57
(g78
g59
NtRp3759
(dp3760
g62
(dp3761
g89
g90
ssg71
g3751
sg64
(lp3762
S':'
asbag57
(g78
g59
NtRp3763
(dp3764
g62
(dp3765
sg71
g3751
sg64
(lp3766
g57
(g58
g59
NtRp3767
(dp3768
g62
(dp3769
g70
I3
ssg71
g3763
sg64
(lp3770
S'/'
asbasbasbag57
(g73
g59
NtRp3771
(dp3772
g62
(dp3773
sg71
g3647
sg64
(lp3774
g57
(g78
g59
NtRp3775
(dp3776
g62
(dp3777
g82
g83
ssg71
g3771
sg64
(lp3778
g420
asbag57
(g78
g59
NtRp3779
(dp3780
g62
(dp3781
g89
g90
ssg71
g3771
sg64
(lp3782
S':'
asbag57
(g78
g59
NtRp3783
(dp3784
g62
(dp3785
sg71
g3771
sg64
(lp3786
g57
(g58
g59
NtRp3787
(dp3788
g62
(dp3789
g70
I3
ssg71
g3783
sg64
(lp3790
S''
asbasbasbag57
(g73
g59
NtRp3791
(dp3792
g62
(dp3793
sg71
g3647
sg64
(lp3794
g57
(g78
g59
NtRp3795
(dp3796
g62
(dp3797
g82
g83
ssg71
g3791
sg64
(lp3798
g441
asbag57
(g78
g59
NtRp3799
(dp3800
g62
(dp3801
g89
g90
ssg71
g3791
sg64
(lp3802
S':'
asbag57
(g78
g59
NtRp3803
(dp3804
g62
(dp3805
sg71
g3791
sg64
(lp3806
g57
(g58
g59
NtRp3807
(dp3808
g62
(dp3809
g70
I3
ssg71
g3803
sg64
(lp3810
S''
asbasbasbasbasbasbasbasbasbasbasbag57
(g73
g59
NtRp3811
(dp3812
g62
(dp3813
sg71
g3577
sg64
(lp3814
g57
(g78
g59
NtRp3815
(dp3816
g62
(dp3817
g82
g83
ssg71
g3811
sg64
(lp3818
S'delimiters'
p3819
asbag57
(g78
g59
NtRp3820
(dp3821
g62
(dp3822
g89
g90
ssg71
g3811
sg64
(lp3823
S':'
asbag57
(g78
g59
NtRp3824
(dp3825
g62
(dp3826
sg71
g3811
sg64
(lp3827
g57
(g58
g59
NtRp3828
(dp3829
g62
(dp3830
g70
I5
ssg71
g3824
sg64
(lp3831
g57
(g66
g59
NtRp3832
(dp3833
g62
(dp3834
g70
I4
ssg71
Nsg64
(lp3835
g57
(g73
g59
NtRp3836
(dp3837
g62
(dp3838
sg71
g3832
sg64
(lp3839
g57
(g78
g59
NtRp3840
(dp3841
g62
(dp3842
sg71
g3836
sg64
(lp3843
g57
(g58
g59
NtRp3844
(dp3845
g62
(dp3846
g70
I4
ssg71
g3840
sg64
(lp3847
S'{{'
p3848
asbasbasbag57
(g73
g59
NtRp3849
(dp3850
g62
(dp3851
sg71
g3832
sg64
(lp3852
g57
(g78
g59
NtRp3853
(dp3854
g62
(dp3855
sg71
g3849
sg64
(lp3856
g57
(g58
g59
NtRp3857
(dp3858
g62
(dp3859
g70
I4
ssg71
g3853
sg64
(lp3860
S'}}'
p3861
asbasbasbasbasbasbasbag57
(g73
g59
NtRp3862
(dp3863
g62
(dp3864
sg71
g3577
sg64
(lp3865
g57
(g78
g59
NtRp3866
(dp3867
g62
(dp3868
g82
g83
ssg71
g3862
sg64
(lp3869
S'files'
p3870
asbag57
(g78
g59
NtRp3871
(dp3872
g62
(dp3873
g89
g90
ssg71
g3862
sg64
(lp3874
S':'
asbag57
(g78
g59
NtRp3875
(dp3876
g62
(dp3877
sg71
g3862
sg64
(lp3878
g57
(g58
g59
NtRp3879
(dp3880
g62
(dp3881
g70
I5
ssg71
g3875
sg64
(lp3882
g57
(g66
g59
NtRp3883
(dp3884
g62
(dp3885
g70
I4
ssg71
Nsg64
(lp3886
sbasbasbasbag57
(g73
g59
NtRp3887
(dp3888
g62
(dp3889
sg71
g3577
sg64
(lp3890
g57
(g78
g59
NtRp3891
(dp3892
g62
(dp3893
g82
g83
ssg71
g3887
sg64
(lp3894
S'flash'
p3895
asbag57
(g78
g59
NtRp3896
(dp3897
g62
(dp3898
g89
g90
ssg71
g3887
sg64
(lp3899
S':'
asbag57
(g78
g59
NtRp3900
(dp3901
g62
(dp3902
sg71
g3887
sg64
(lp3903
g57
(g58
g59
NtRp3904
(dp3905
g62
(dp3906
g70
I5
ssg71
g3900
sg64
(lp3907
S''
asbasbasbag57
(g73
g59
NtRp3908
(dp3909
g62
(dp3910
sg71
g3577
sg64
(lp3911
g57
(g78
g59
NtRp3912
(dp3913
g62
(dp3914
g82
g83
ssg71
g3908
sg64
(lp3915
S'generic_patterns'
p3916
asbag57
(g78
g59
NtRp3917
(dp3918
g62
(dp3919
g89
g90
ssg71
g3908
sg64
(lp3920
S':'
asbag57
(g78
g59
NtRp3921
(dp3922
g62
(dp3923
sg71
g3908
sg64
(lp3924
g57
(g58
g59
NtRp3925
(dp3926
g62
(dp3927
g70
I5
ssg71
g3921
sg64
(lp3928
g57
(g66
g59
NtRp3929
(dp3930
g62
(dp3931
g70
I4
ssg71
Nsg64
(lp3932
g57
(g73
g59
NtRp3933
(dp3934
g62
(dp3935
sg71
g3929
sg64
(lp3936
g57
(g78
g59
NtRp3937
(dp3938
g62
(dp3939
sg71
g3933
sg64
(lp3940
g57
(g58
g59
NtRp3941
(dp3942
g62
(dp3943
g70
I4
ssg71
g3937
sg64
(lp3944
S'*'
asbasbasbasbasbasbasbag57
(g73
g59
NtRp3945
(dp3946
g62
(dp3947
sg71
g3577
sg64
(lp3948
g57
(g78
g59
NtRp3949
(dp3950
g62
(dp3951
g82
g83
ssg71
g3945
sg64
(lp3952
S'google_analytics_id'
p3953
asbag57
(g78
g59
NtRp3954
(dp3955
g62
(dp3956
g89
g90
ssg71
g3945
sg64
(lp3957
S':'
asbag57
(g78
g59
NtRp3958
(dp3959
g62
(dp3960
sg71
g3945
sg64
(lp3961
g57
(g58
g59
NtRp3962
(dp3963
g62
(dp3964
g70
I5
ssg71
g3958
sg64
(lp3965
S'None'
p3966
asbasbasbag57
(g73
g59
NtRp3967
(dp3968
g62
(dp3969
sg71
g3577
sg64
(lp3970
g57
(g78
g59
NtRp3971
(dp3972
g62
(dp3973
g82
g83
ssg71
g3967
sg64
(lp3974
S'headers'
p3975
asbag57
(g78
g59
NtRp3976
(dp3977
g62
(dp3978
g89
g90
ssg71
g3967
sg64
(lp3979
S':'
asbag57
(g78
g59
NtRp3980
(dp3981
g62
(dp3982
sg71
g3967
sg64
(lp3983
g57
(g58
g59
NtRp3984
(dp3985
g62
(dp3986
g70
I5
ssg71
g3980
sg64
(lp3987
g57
(g66
g59
NtRp3988
(dp3989
g62
(dp3990
g70
I4
ssg71
Nsg64
(lp3991
g57
(g73
g59
NtRp3992
(dp3993
g62
(dp3994
sg71
g3988
sg64
(lp3995
g57
(g78
g59
NtRp3996
(dp3997
g62
(dp3998
g82
g83
ssg71
g3992
sg64
(lp3999
S'X-Powered-By'
p4000
asbag57
(g78
g59
NtRp4001
(dp4002
g62
(dp4003
g89
g90
ssg71
g3992
sg64
(lp4004
S':'
asbag57
(g78
g59
NtRp4005
(dp4006
g62
(dp4007
sg71
g3992
sg64
(lp4008
g57
(g58
g59
NtRp4009
(dp4010
g62
(dp4011
g70
I4
ssg71
g4005
sg64
(lp4012
S'web2py'
p4013
asbasbasbasbasbasbasbag57
(g73
g59
NtRp4014
(dp4015
g62
(dp4016
sg71
g3577
sg64
(lp4017
g57
(g78
g59
NtRp4018
(dp4019
g62
(dp4020
g82
g83
ssg71
g4014
sg64
(lp4021
S'menu'
p4022
asbag57
(g78
g59
NtRp4023
(dp4024
g62
(dp4025
g89
g90
ssg71
g4014
sg64
(lp4026
S':'
asbag57
(g78
g59
NtRp4027
(dp4028
g62
(dp4029
sg71
g4014
sg64
(lp4030
g57
(g58
g59
NtRp4031
(dp4032
g62
(dp4033
g70
I5
ssg71
g4027
sg64
(lp4034
g57
(g66
g59
NtRp4035
(dp4036
g62
(dp4037
g70
I4
ssg71
Nsg64
(lp4038
g57
(g73
g59
NtRp4039
(dp4040
g62
(dp4041
sg71
g4035
sg64
(lp4042
g57
(g78
g59
NtRp4043
(dp4044
g62
(dp4045
sg71
g4039
sg64
(lp4046
g57
(g58
g59
NtRp4047
(dp4048
g62
(dp4049
g70
I4
ssg71
g4043
sg64
(lp4050
g57
(g66
g59
NtRp4051
(dp4052
g62
(dp4053
g70
I3
ssg71
Nsg64
(lp4054
g57
(g73
g59
NtRp4055
(dp4056
g62
(dp4057
sg71
g4051
sg64
(lp4058
g57
(g78
g59
NtRp4059
(dp4060
g62
(dp4061
sg71
g4055
sg64
(lp4062
g57
(g58
g59
NtRp4063
(dp4064
g62
(dp4065
g70
I3
ssg71
g4059
sg64
(lp4066
cgluon.languages
lazyT_unpickle
p4067
(S't\x04\x00\x00\x00Home'
tRp4068
asbasbasbag57
(g73
g59
NtRp4069
(dp4070
g62
(dp4071
sg71
g4051
sg64
(lp4072
g57
(g78
g59
NtRp4073
(dp4074
g62
(dp4075
sg71
g4069
sg64
(lp4076
g57
(g58
g59
NtRp4077
(dp4078
g62
(dp4079
g70
I3
ssg71
g4073
sg64
(lp4080
g100
asbasbasbag57
(g73
g59
NtRp4081
(dp4082
g62
(dp4083
sg71
g4051
sg64
(lp4084
g57
(g78
g59
NtRp4085
(dp4086
g62
(dp4087
sg71
g4081
sg64
(lp4088
g57
(g58
g59
NtRp4089
(dp4090
g62
(dp4091
g70
I3
ssg71
g4085
sg64
(lp4092
S'/manager/default/index'
p4093
asbasbasbasbasbasbasbag57
(g73
g59
NtRp4094
(dp4095
g62
(dp4096
sg71
g4035
sg64
(lp4097
g57
(g78
g59
NtRp4098
(dp4099
g62
(dp4100
sg71
g4094
sg64
(lp4101
g57
(g58
g59
NtRp4102
(dp4103
g62
(dp4104
g70
I4
ssg71
g4098
sg64
(lp4105
g57
(g66
g59
NtRp4106
(dp4107
g62
(dp4108
g70
I3
ssg71
Nsg64
(lp4109
g57
(g73
g59
NtRp4110
(dp4111
g62
(dp4112
sg71
g4106
sg64
(lp4113
g57
(g78
g59
NtRp4114
(dp4115
g62
(dp4116
sg71
g4110
sg64
(lp4117
g57
(g58
g59
NtRp4118
(dp4119
g62
(dp4120
g70
I3
ssg71
g4114
sg64
(lp4121
g4067
(S't\x06\x00\x00\x00logout'
tRp4122
asbasbasbag57
(g73
g59
NtRp4123
(dp4124
g62
(dp4125
sg71
g4106
sg64
(lp4126
g57
(g78
g59
NtRp4127
(dp4128
g62
(dp4129
sg71
g4123
sg64
(lp4130
g57
(g58
g59
NtRp4131
(dp4132
g62
(dp4133
g70
I3
ssg71
g4127
sg64
(lp4134
g100
asbasbasbag57
(g73
g59
NtRp4135
(dp4136
g62
(dp4137
sg71
g4106
sg64
(lp4138
g57
(g78
g59
NtRp4139
(dp4140
g62
(dp4141
sg71
g4135
sg64
(lp4142
g57
(g58
g59
NtRp4143
(dp4144
g62
(dp4145
g70
I3
ssg71
g4139
sg64
(lp4146
S'/manager/default/logout'
p4147
asbasbasbasbasbasbasbasbasbasbasbag57
(g73
g59
NtRp4148
(dp4149
g62
(dp4150
sg71
g3577
sg64
(lp4151
g57
(g78
g59
NtRp4152
(dp4153
g62
(dp4154
g82
g83
ssg71
g4148
sg64
(lp4155
S'meta'
p4156
asbag57
(g78
g59
NtRp4157
(dp4158
g62
(dp4159
g89
g90
ssg71
g4148
sg64
(lp4160
S':'
asbag57
(g78
g59
NtRp4161
(dp4162
g62
(dp4163
sg71
g4148
sg64
(lp4164
g57
(g58
g59
NtRp4165
(dp4166
g62
(dp4167
g70
I5
ssg71
g4161
sg64
(lp4168
g57
(g66
g59
NtRp4169
(dp4170
g62
(dp4171
g70
I4
ssg71
Nsg64
(lp4172
g57
(g73
g59
NtRp4173
(dp4174
g62
(dp4175
sg71
g4169
sg64
(lp4176
g57
(g78
g59
NtRp4177
(dp4178
g62
(dp4179
g82
g83
ssg71
g4173
sg64
(lp4180
S'author'
p4181
asbag57
(g78
g59
NtRp4182
(dp4183
g62
(dp4184
g89
g90
ssg71
g4173
sg64
(lp4185
S':'
asbag57
(g78
g59
NtRp4186
(dp4187
g62
(dp4188
sg71
g4173
sg64
(lp4189
g57
(g58
g59
NtRp4190
(dp4191
g62
(dp4192
g70
I4
ssg71
g4186
sg64
(lp4193
S'Your Name <you@example.com>'
p4194
asbasbasbag57
(g73
g59
NtRp4195
(dp4196
g62
(dp4197
sg71
g4169
sg64
(lp4198
g57
(g78
g59
NtRp4199
(dp4200
g62
(dp4201
g82
g83
ssg71
g4195
sg64
(lp4202
S'copyright'
p4203
asbag57
(g78
g59
NtRp4204
(dp4205
g62
(dp4206
g89
g90
ssg71
g4195
sg64
(lp4207
S':'
asbag57
(g78
g59
NtRp4208
(dp4209
g62
(dp4210
sg71
g4195
sg64
(lp4211
g57
(g58
g59
NtRp4212
(dp4213
g62
(dp4214
g70
I4
ssg71
g4208
sg64
(lp4215
S'Copyright 2011'
p4216
asbasbasbag57
(g73
g59
NtRp4217
(dp4218
g62
(dp4219
sg71
g4169
sg64
(lp4220
g57
(g78
g59
NtRp4221
(dp4222
g62
(dp4223
g82
g83
ssg71
g4217
sg64
(lp4224
S'description'
p4225
asbag57
(g78
g59
NtRp4226
(dp4227
g62
(dp4228
g89
g90
ssg71
g4217
sg64
(lp4229
S':'
asbag57
(g78
g59
NtRp4230
(dp4231
g62
(dp4232
sg71
g4217
sg64
(lp4233
g57
(g58
g59
NtRp4234
(dp4235
g62
(dp4236
g70
I4
ssg71
g4230
sg64
(lp4237
S'a cool new app'
p4238
asbasbasbag57
(g73
g59
NtRp4239
(dp4240
g62
(dp4241
sg71
g4169
sg64
(lp4242
g57
(g78
g59
NtRp4243
(dp4244
g62
(dp4245
g82
g83
ssg71
g4239
sg64
(lp4246
S'generator'
p4247
asbag57
(g78
g59
NtRp4248
(dp4249
g62
(dp4250
g89
g90
ssg71
g4239
sg64
(lp4251
S':'
asbag57
(g78
g59
NtRp4252
(dp4253
g62
(dp4254
sg71
g4239
sg64
(lp4255
g57
(g58
g59
NtRp4256
(dp4257
g62
(dp4258
g70
I4
ssg71
g4252
sg64
(lp4259
S'Web2py Web Framework'
p4260
asbasbasbag57
(g73
g59
NtRp4261
(dp4262
g62
(dp4263
sg71
g4169
sg64
(lp4264
g57
(g78
g59
NtRp4265
(dp4266
g62
(dp4267
g82
g83
ssg71
g4261
sg64
(lp4268
S'keywords'
p4269
asbag57
(g78
g59
NtRp4270
(dp4271
g62
(dp4272
g89
g90
ssg71
g4261
sg64
(lp4273
S':'
asbag57
(g78
g59
NtRp4274
(dp4275
g62
(dp4276
sg71
g4261
sg64
(lp4277
g57
(g58
g59
NtRp4278
(dp4279
g62
(dp4280
g70
I4
ssg71
g4274
sg64
(lp4281
S'web2py, python, framework'
p4282
asbasbasbasbasbasbasbag57
(g73
g59
NtRp4283
(dp4284
g62
(dp4285
sg71
g3577
sg64
(lp4286
g57
(g78
g59
NtRp4287
(dp4288
g62
(dp4289
g82
g83
ssg71
g4283
sg64
(lp4290
S'models_to_run'
p4291
asbag57
(g78
g59
NtRp4292
(dp4293
g62
(dp4294
g89
g90
ssg71
g4283
sg64
(lp4295
S':'
asbag57
(g78
g59
NtRp4296
(dp4297
g62
(dp4298
sg71
g4283
sg64
(lp4299
g57
(g58
g59
NtRp4300
(dp4301
g62
(dp4302
g70
I5
ssg71
g4296
sg64
(lp4303
g57
(g66
g59
NtRp4304
(dp4305
g62
(dp4306
g70
I4
ssg71
Nsg64
(lp4307
g57
(g73
g59
NtRp4308
(dp4309
g62
(dp4310
sg71
g4304
sg64
(lp4311
g57
(g78
g59
NtRp4312
(dp4313
g62
(dp4314
sg71
g4308
sg64
(lp4315
g57
(g58
g59
NtRp4316
(dp4317
g62
(dp4318
g70
I4
ssg71
g4312
sg64
(lp4319
S'^\\w+\\.py$'
p4320
asbasbasbag57
(g73
g59
NtRp4321
(dp4322
g62
(dp4323
sg71
g4304
sg64
(lp4324
g57
(g78
g59
NtRp4325
(dp4326
g62
(dp4327
sg71
g4321
sg64
(lp4328
g57
(g58
g59
NtRp4329
(dp4330
g62
(dp4331
g70
I4
ssg71
g4325
sg64
(lp4332
S'^default/\\w+\\.py$'
p4333
asbasbasbag57
(g73
g59
NtRp4334
(dp4335
g62
(dp4336
sg71
g4304
sg64
(lp4337
g57
(g78
g59
NtRp4338
(dp4339
g62
(dp4340
sg71
g4334
sg64
(lp4341
g57
(g58
g59
NtRp4342
(dp4343
g62
(dp4344
g70
I4
ssg71
g4338
sg64
(lp4345
S'^default/upload/\\w+\\.py$'
p4346
asbasbasbasbasbasbasbag57
(g73
g59
NtRp4347
(dp4348
g62
(dp4349
sg71
g3577
sg64
(lp4350
g57
(g78
g59
NtRp4351
(dp4352
g62
(dp4353
g82
g83
ssg71
g4347
sg64
(lp4354
S'postprocessing'
p4355
asbag57
(g78
g59
NtRp4356
(dp4357
g62
(dp4358
g89
g90
ssg71
g4347
sg64
(lp4359
S':'
asbag57
(g78
g59
NtRp4360
(dp4361
g62
(dp4362
sg71
g4347
sg64
(lp4363
g57
(g58
g59
NtRp4364
(dp4365
g62
(dp4366
g70
I5
ssg71
g4360
sg64
(lp4367
g57
(g66
g59
NtRp4368
(dp4369
g62
(dp4370
g70
I4
ssg71
Nsg64
(lp4371
sbasbasbasbag57
(g73
g59
NtRp4372
(dp4373
g62
(dp4374
sg71
g3577
sg64
(lp4375
g57
(g78
g59
NtRp4376
(dp4377
g62
(dp4378
g82
g83
ssg71
g4372
sg64
(lp4379
S'session_file'
p4380
asbag57
(g78
g59
NtRp4381
(dp4382
g62
(dp4383
g89
g90
ssg71
g4372
sg64
(lp4384
S':'
asbag57
(g78
g59
NtRp4385
(dp4386
g62
(dp4387
sg71
g4372
sg64
(lp4388
g57
(g58
g59
NtRp4389
(dp4390
g62
(dp4391
g70
I5
ssg71
g4385
sg64
(lp4392
S"<open file '/home/madhuri/Downloads/web2py/applications/manager/sessions/127.0.0.1-f3c006a7-b1bc-40dc-8ed2-8a737ee2dc70', mode 'rb+' at 0x7f54482c75d0>"
p4393
asbasbasbag57
(g73
g59
NtRp4394
(dp4395
g62
(dp4396
sg71
g3577
sg64
(lp4397
g57
(g78
g59
NtRp4398
(dp4399
g62
(dp4400
g82
g83
ssg71
g4394
sg64
(lp4401
S'session_filename'
p4402
asbag57
(g78
g59
NtRp4403
(dp4404
g62
(dp4405
g89
g90
ssg71
g4394
sg64
(lp4406
S':'
asbag57
(g78
g59
NtRp4407
(dp4408
g62
(dp4409
sg71
g4394
sg64
(lp4410
g57
(g58
g59
NtRp4411
(dp4412
g62
(dp4413
g70
I5
ssg71
g4407
sg64
(lp4414
S'/home/madhuri/Downloads/web2py/applications/manager/sessions/127.0.0.1-f3c006a7-b1bc-40dc-8ed2-8a737ee2dc70'
p4415
asbasbasbag57
(g73
g59
NtRp4416
(dp4417
g62
(dp4418
sg71
g3577
sg64
(lp4419
g57
(g78
g59
NtRp4420
(dp4421
g62
(dp4422
g82
g83
ssg71
g4416
sg64
(lp4423
S'session_id'
p4424
asbag57
(g78
g59
NtRp4425
(dp4426
g62
(dp4427
g89
g90
ssg71
g4416
sg64
(lp4428
S':'
asbag57
(g78
g59
NtRp4429
(dp4430
g62
(dp4431
sg71
g4416
sg64
(lp4432
g57
(g58
g59
NtRp4433
(dp4434
g62
(dp4435
g70
I5
ssg71
g4429
sg64
(lp4436
g475
asbasbasbag57
(g73
g59
NtRp4437
(dp4438
g62
(dp4439
sg71
g3577
sg64
(lp4440
g57
(g78
g59
NtRp4441
(dp4442
g62
(dp4443
g82
g83
ssg71
g4437
sg64
(lp4444
S'session_id_name'
p4445
asbag57
(g78
g59
NtRp4446
(dp4447
g62
(dp4448
g89
g90
ssg71
g4437
sg64
(lp4449
S':'
asbag57
(g78
g59
NtRp4450
(dp4451
g62
(dp4452
sg71
g4437
sg64
(lp4453
g57
(g58
g59
NtRp4454
(dp4455
g62
(dp4456
g70
I5
ssg71
g4450
sg64
(lp4457
g3634
asbasbasbag57
(g73
g59
NtRp4458
(dp4459
g62
(dp4460
sg71
g3577
sg64
(lp4461
g57
(g78
g59
NtRp4462
(dp4463
g62
(dp4464
g82
g83
ssg71
g4458
sg64
(lp4465
S'session_locked'
p4466
asbag57
(g78
g59
NtRp4467
(dp4468
g62
(dp4469
g89
g90
ssg71
g4458
sg64
(lp4470
S':'
asbag57
(g78
g59
NtRp4471
(dp4472
g62
(dp4473
sg71
g4458
sg64
(lp4474
g57
(g58
g59
NtRp4475
(dp4476
g62
(dp4477
g70
I5
ssg71
g4471
sg64
(lp4478
g1787
asbasbasbag57
(g73
g59
NtRp4479
(dp4480
g62
(dp4481
sg71
g3577
sg64
(lp4482
g57
(g78
g59
NtRp4483
(dp4484
g62
(dp4485
g82
g83
ssg71
g4479
sg64
(lp4486
S'session_new'
p4487
asbag57
(g78
g59
NtRp4488
(dp4489
g62
(dp4490
g89
g90
ssg71
g4479
sg64
(lp4491
S':'
asbag57
(g78
g59
NtRp4492
(dp4493
g62
(dp4494
sg71
g4479
sg64
(lp4495
g57
(g58
g59
NtRp4496
(dp4497
g62
(dp4498
g70
I5
ssg71
g4492
sg64
(lp4499
g100
asbasbasbag57
(g73
g59
NtRp4500
(dp4501
g62
(dp4502
sg71
g3577
sg64
(lp4503
g57
(g78
g59
NtRp4504
(dp4505
g62
(dp4506
g82
g83
ssg71
g4500
sg64
(lp4507
S'status'
p4508
asbag57
(g78
g59
NtRp4509
(dp4510
g62
(dp4511
g89
g90
ssg71
g4500
sg64
(lp4512
S':'
asbag57
(g78
g59
NtRp4513
(dp4514
g62
(dp4515
sg71
g4500
sg64
(lp4516
g57
(g58
g59
NtRp4517
(dp4518
g62
(dp4519
g70
I5
ssg71
g4513
sg64
(lp4520
S'200'
p4521
asbasbasbag57
(g73
g59
NtRp4522
(dp4523
g62
(dp4524
sg71
g3577
sg64
(lp4525
g57
(g78
g59
NtRp4526
(dp4527
g62
(dp4528
g82
g83
ssg71
g4522
sg64
(lp4529
S'subtitle'
p4530
asbag57
(g78
g59
NtRp4531
(dp4532
g62
(dp4533
g89
g90
ssg71
g4522
sg64
(lp4534
S':'
asbag57
(g78
g59
NtRp4535
(dp4536
g62
(dp4537
sg71
g4522
sg64
(lp4538
g57
(g58
g59
NtRp4539
(dp4540
g62
(dp4541
g70
I5
ssg71
g4535
sg64
(lp4542
g4067
(S's\r\x00\x00\x00customize me!'
tRp4543
asbasbasbag57
(g73
g59
NtRp4544
(dp4545
g62
(dp4546
sg71
g3577
sg64
(lp4547
g57
(g78
g59
NtRp4548
(dp4549
g62
(dp4550
g82
g83
ssg71
g4544
sg64
(lp4551
S'title'
p4552
asbag57
(g78
g59
NtRp4553
(dp4554
g62
(dp4555
g89
g90
ssg71
g4544
sg64
(lp4556
S':'
asbag57
(g78
g59
NtRp4557
(dp4558
g62
(dp4559
sg71
g4544
sg64
(lp4560
g57
(g58
g59
NtRp4561
(dp4562
g62
(dp4563
g70
I5
ssg71
g4557
sg64
(lp4564
S'Manager'
p4565
asbasbasbag57
(g73
g59
NtRp4566
(dp4567
g62
(dp4568
sg71
g3577
sg64
(lp4569
g57
(g78
g59
NtRp4570
(dp4571
g62
(dp4572
g82
g83
ssg71
g4566
sg64
(lp4573
S'view'
p4574
asbag57
(g78
g59
NtRp4575
(dp4576
g62
(dp4577
g89
g90
ssg71
g4566
sg64
(lp4578
S':'
asbag57
(g78
g59
NtRp4579
(dp4580
g62
(dp4581
sg71
g4566
sg64
(lp4582
g57
(g58
g59
NtRp4583
(dp4584
g62
(dp4585
g70
I5
ssg71
g4579
sg64
(lp4586
S'default/upload.html'
p4587
asbasbasbasbasbsS'locals'
p4588
(dp4589
S'table'
p4590
S'<Table User (id,SlNo,RollNo,Name,Email,Award,year,Award1,flag,Uptotal,Total)>'
p4591
sS'k'
S"<Row {'Name': 'SHIPRA MALHOTRA', 'RollNo': '2008...uon.dal.RecordDeleter object at 0x7f54403f8b50>}>"
p4592
sS'award'
p4593
S'None'
p4594
sg3325
S"<open file '<fdopen>', mode 'w+b'>"
p4595
sssS'traceback'
p4596
S'Traceback (most recent call last):\n  File "/home/madhuri/Downloads/web2py/gluon/restricted.py", line 209, in restricted\n    exec ccode in environment\n  File "/home/madhuri/Downloads/web2py/applications/manager/controllers/default.py", line 308, in <module>\n  File "/home/madhuri/Downloads/web2py/gluon/globals.py", line 186, in <lambda>\n    self._caller = lambda f: f()\n  File "/home/madhuri/Downloads/web2py/applications/manager/controllers/default.py", line 163, in upload\n    k.Total=award.D1                                                        #Change the value to change the cost of D1\nAttributeError: \'NoneType\' object has no attribute \'D1\'\n'
p4597
s.