(dp1
S'output'
p2
S"<type 'exceptions.TypeError'> cannot concatenate 'str' and 'int' objects"
p3
sS'layer'
p4
S'/home/unic/web2py/applications/Award_Manager/controllers/default.py'
p5
sS'code'
p6
S'# -*- coding: utf-8 -*-\n# this file is released under public domain and you can use without limitations\n\n#########################################################################\n## This is a samples controller\n## - index is the default action of any application\n## - user is required for authentication and authorization\n## - download is for downloading files uploaded in the db (does streaming)\n## - call exposes all registered services (none by default)\n#########################################################################\n@auth.requires_login()\ndef index():\n  """\n  example action using the internationalization operator T and flash\n  rendered by views/default/index.html or views/generic.html\n  """\n  users1 = db().select(db.Lpref.ALL)\n  users2 = db().select(db.Lpref.ALL)\n  for i in users1:\n      for j in users2:\n          if i.id > j.id:\n              if i.E == j.E:\n                  db(db.Lpref.id == j.id).delete()\n  images=db().select(db.Book.ALL)\n #   return dict(message=T(\'Hello World\'))\n  return dict(images=images)\ndef admin():\n    return dict()\ndef user():\n    """\n    exposes:\n    http://..../[app]/default/user/login\n    http://..../[app]/default/user/logout\n    http://..../[app]/default/user/register\n    http://..../[app]/default/user/profile\n    http://..../[app]/default/user/retrieve_password\n    http://..../[app]/default/user/change_password\n    use @auth.requires_login()\n        @auth.requires_membership(\'group name\')\n        @auth.requires_permission(\'read\',\'table name\',record_id)\n    to decorate functions that need access control\n    """\n    return dict(form=auth())\n#@auth.requires_login()\ndef choose():\n  users1 = db().select(db.User.ALL, orderby=db.User.Name)\n  users2 = db().select(db.User.ALL, orderby=db.User.Name)\n  for i in users1:\n      for j in users2:\n          if i.id < j.id:\n              if i.RollNo == j.RollNo:\n                  db(db.User.id == i.id).update(Total=i.Total+j.Total)\n                  db(db.User.id == i.id).update(Award1=j.Award)\n                  db(db.User.id == j.id).delete()\n  users = db().select(db.User.ALL, orderby=db.User.Name)\n  return dict(users=users)\n\ndef show():\n User = db.User(request.args(0)) or redirect(URL(\'choose\'))\n Books = db().select(db.Book.ALL, orderby=db.Book.Name)\n UPBooks = db(db.UPBook.usd==User.RollNo).select()\n upbooks1 = db(db.UPBook.usd==User.RollNo).select()\n upbooks = db(db.UPBook.usd==User.RollNo).select()\n \n for i in upbooks:\n      for j in upbooks1:\n          if i.id < j.id:\n              if i.Bid == j.Bid:\n                 db(db.UPBook.Bid == j.Bid).delete()\n langu = db().select(db.Lpref.ALL)\n lang = db().select(db.lang.ALL)\n return dict(User=User,UPBooks=UPBooks,Books=Books,langu=langu,lang=lang)\n\ndef preference():\n  db.Lpref.E.default=auth.user.email\n  form1 = crud.create(db.Lpref,\n         next=URL("index"))\n  users1 = db().select(db.Lpref.ALL)\n  users2 = db().select(db.Lpref.ALL)\n  for i in users1:\n      for j in users2:\n          if i.id > j.id:\n              if i.E == j.E:\n                  db(db.Lpref.id == j.id).delete()\n  return dict(form1=form1)\ndef total():\n  users = db().select(db.User.ALL, orderby=db.User.Name)\n  for i in users:\n   request.args[0] = int(request.args[0] + i.Total)\n  return dict()  \ndef submit():\n db(request.args(0) == db.User.id).update(flag = 1)\n users = db().select(db.User.ALL, orderby=db.User.Name)\n return dict(users=users)\ndef upload():\n    if request.vars.csvfile != None:\n        table = db[request.vars.table]\n        file = request.vars.csvfile.file\n        table.import_from_csv_file(file)                                          #Import from the csv file\n        #query = db.stlist.flag==""\n        #db(query).update(flag="1")         \n        for k in db(db.User.Award=="D1").select():\n            k.Total="1200"                                                        #Change the value to change the cost of D1\n            k.update_record()\n        for k in db(db.User.Award=="D2").select():\n            k.Total="1000"                                                        #change the value to cost of D2\n            k.update_record()\n        for k in db(db.User.Award=="D3").select():\n            k.Total="800"                                                         #Change the value to change the cost of D3\n            k.update_record()\n        for k in db(db.User.Award=="ML").select():\n            k.Total="600"                                                         #Change the value to change the cost of ML\n            k.update_record()\n        #db(db.stlist.Award==k).update(total="1200")\n        #response.flash = \'Students List uploaded\'\n    users1 = db().select(db.User.ALL, orderby=db.User.Name)\n    users2 = db().select(db.User.ALL, orderby=db.User.Name)\n    for i in users1:\n         for j in users2:\n           if i.id < j.id:\n              if i.RollNo == j.RollNo:\n                  db(db.User.id == i.id).update(Total=i.Total+j.Total)\n                  db(db.User.id == i.id).update(Award1=j.Award)\n                  db(db.User.id == j.id).delete()  \n \n        \n    return dict()\n#@auth.requires_membership(\'Administrator\')\ndef upload1():\n     if request.vars.csvfile != None:\n        table = db[request.vars.table]\n        file = request.vars.csvfile.file\n        table.import_from_csv_file(file)                                          #Import from the csv file\n        response.flash = \'Books List uploaded\'\n     return dict()\ndef update():\n  db.UPBook.insert(Stu_name=request.args(0),usd=request.args(1),Name=request.args(2),Language=request.args(3),Bid=request.args(7),Copies=request.args(8),Cost=request.args(5))\n  db(db.User.id ==request.args(4)).update(Uptotal=int(int(request.args(6))+int(request.args(5))))\n  db(db.Book.id ==request.args(7)).update(Copies=int(int(request.args(8))-1))\n  #db.UPBook.Stu_name.default = request.args(0)\n  #db.UPBook.usd.default = request.args(1))\n  #db.UPBook.Name.default=request.args(2)\n  #db.UPBook.Language.default=request.args(3)\n  #return dict(redirect(URL(\'show\')))\n  User = db.User(request.args(4)) or redirect(URL(\'choose\'))\n  upbooks1 = db(db.UPBook.usd==User.RollNo).select()\n  upbooks = db(db.UPBook.usd==User.RollNo).select()\n  \n  for i in upbooks:\n      for j in upbooks1:\n          if i.id < j.id:\n              if i.Bid == j.Bid:\n                 \n                  db(db.UPBook.id == j.id).delete()\n  \n  UPBooks = db(db.UPBook.usd==request.args(1)).select()\n  langu = db().select(db.Lpref.ALL)\n  lang = db().select(db.lang.ALL)\n  Books = db().select(db.Book.ALL, orderby=db.Book.Name)\n  return dict(User=User,UPBooks=UPBooks,Books=Books,lang=lang,langu=langu)\ndef delete():\n  db(db.UPBook.id == request.args(2)).delete()\n  db(db.User.id ==request.args(0)).update(Uptotal=int(int(request.args(1))-int(request.args(6))))\n  db(db.Book.id ==request.args(4)).update(Copies=int(int(request.args(3))))\n  User = db.User(request.args(0)) or redirect(URL(\'choose\'))\n  UPBooks = db(db.UPBook.usd==request.args(5)).select()\n  Books = db().select(db.Book.ALL, orderby=db.Book.Name)\n  langu = db().select(db.Lpref.ALL)\n  lang = db().select(db.lang.ALL)\n  return dict(User=User,UPBooks=UPBooks,Books=Books,langu=langu,lang=lang)\ndef choose1():\n prebooks = db(db.prebook.usd == auth.user_id).select()\n Books = db().select(db.Book.ALL, orderby=db.Book.Name)\n return dict(prebooks=prebooks,Books=Books)\n \n\ndef update1():\n  db.prebook.insert(usd=request.args(0),Name=request.args(1),Language=request.args(2),Bid=request.args(3),Stu_name=request.args(4))\n  db(db.prebook.Stu_name == \'static\').delete()\n \n  #db.UPBook.Stu_name.default = request.args(0)\n  #db.UPBook.usd.default = request.args(1))\n  #db.UPBook.Name.default=request.args(2)\n  #db.UPBook.Language.default=request.args(3)\n  #return dict(redirect(URL(\'show\')))\n # User = db.User(request.args(0)) or redirect(URL(\'choose1\'))\n\n  \n  prebooks2 = db(db.prebook.usd ==request.args(0)).select()\n  prebooks1 = db(db.prebook.usd ==request.args(0)).select()\n  \n  for i in prebooks2:\n      for j in prebooks1:\n          if i.id < j.id:\n              if i.Bid == j.Bid:\n                 \n                  db(db.prebook.id == j.id).delete()\n  prebooks = db(db.prebook.usd ==request.args(0)).select()\n  Books = db().select(db.Book.ALL, orderby=db.Book.Name)\n  return dict(prebooks=prebooks,Books=Books)\ndef delete1():\n  db(db.prebook.id == request.args(1)).delete()\n  \n  prebooks = db(db.prebook.usd == request.args(0)).select()\n  Books = db().select(db.Book.ALL, orderby=db.Book.Name)\n  return dict(prebooks=prebooks,Books=Books)\ndef download():\n    """\n    allows downloading of uploaded files\n    http://..../[app]/default/download/[filename]\n    """\n    return response.download(request,db)\n\n\ndef call():\n    """\n    exposes services. for example:\n    http://..../[app]/default/call/jsonrpc\n    decorate with @services.jsonrpc the functions to expose\n    supports xml, json, xmlrpc, jsonrpc, amfrpc, rss, csv\n    """\n    return service()\n\n\n@auth.requires_signature()\ndef data():\n    """\n    http://..../[app]/default/data/tables\n    http://..../[app]/default/data/create/[table]\n    http://..../[app]/default/data/read/[table]/[id]\n    http://..../[app]/default/data/update/[table]/[id]\n    http://..../[app]/default/data/delete/[table]/[id]\n    http://..../[app]/default/data/select/[table]\n    http://..../[app]/default/data/search/[table]\n    but URLs must be signed, i.e. linked with\n      A(\'table\',_href=URL(\'data/tables\',user_signature=True))\n    or with the signed load operator\n      LOAD(\'default\',\'data.load\',args=\'tables\',ajax=True,user_signature=True)\n    """\n    return dict(form=crud())\ndef manage():\n    grid = SQLFORM.smartgrid(db.UPBook)\n    return dict(grid=grid)\n\nresponse._vars=response._caller(total)\n'
p7
sS'snapshot'
p8
(dp9
S'exception'
p10
(dp11
S'__hash__'
p12
S"<method-wrapper '__hash__' of exceptions.TypeError object>"
p13
sS'__setattr__'
p14
S"<method-wrapper '__setattr__' of exceptions.TypeError object>"
p15
sS'__reduce_ex__'
p16
S'<built-in method __reduce_ex__ of exceptions.TypeError object>'
p17
sS'__getslice__'
p18
S"<method-wrapper '__getslice__' of exceptions.TypeError object>"
p19
sS'__getitem__'
p20
S"<method-wrapper '__getitem__' of exceptions.TypeError object>"
p21
sS'__setstate__'
p22
S'<built-in method __setstate__ of exceptions.TypeError object>'
p23
sS'__reduce__'
p24
S'<built-in method __reduce__ of exceptions.TypeError object>'
p25
sS'__str__'
p26
S"<method-wrapper '__str__' of exceptions.TypeError object>"
p27
sS'__format__'
p28
S'<built-in method __format__ of exceptions.TypeError object>'
p29
sS'__getattribute__'
p30
S"<method-wrapper '__getattribute__' of exceptions.TypeError object>"
p31
sS'__class__'
p32
S"<type 'exceptions.TypeError'>"
p33
sS'__unicode__'
p34
S'<built-in method __unicode__ of exceptions.TypeError object>'
p35
sS'__delattr__'
p36
S"<method-wrapper '__delattr__' of exceptions.TypeError object>"
p37
sS'__subclasshook__'
p38
S'<built-in method __subclasshook__ of type object>'
p39
sS'__repr__'
p40
S"<method-wrapper '__repr__' of exceptions.TypeError object>"
p41
sS'args'
p42
S'("cannot concatenate \'str\' and \'int\' objects",)'
p43
sS'__dict__'
p44
S'{}'
p45
sS'__sizeof__'
p46
S'<built-in method __sizeof__ of exceptions.TypeError object>'
p47
sS'__doc__'
p48
S"'Inappropriate argument type.'"
p49
sS'__init__'
p50
S"<method-wrapper '__init__' of exceptions.TypeError object>"
p51
sS'__new__'
p52
S'<built-in method __new__ of type object>'
p53
ssS'evalue'
p54
S"cannot concatenate 'str' and 'int' objects"
p55
sS'request'
p56
ccopy_reg
_reconstructor
p57
(cgluon.html
BEAUTIFY
p58
c__builtin__
object
p59
NtRp60
(dp61
S'attributes'
p62
(dp63
sS'components'
p64
(lp65
g57
(cgluon.html
TABLE
p66
g59
NtRp67
(dp68
g62
(dp69
S'level'
p70
I5
ssS'parent'
p71
Nsg64
(lp72
g57
(cgluon.html
TR
p73
g59
NtRp74
(dp75
g62
(dp76
sg71
g67
sg64
(lp77
g57
(cgluon.html
TD
p78
g59
NtRp79
(dp80
g62
(dp81
S'_style'
p82
S'font-weight:bold;vertical-align:top'
p83
ssg71
g74
sg64
(lp84
S'ajax'
p85
asbag57
(g78
g59
NtRp86
(dp87
g62
(dp88
S'_valign'
p89
S'top'
p90
ssg71
g74
sg64
(lp91
S':'
asbag57
(g78
g59
NtRp92
(dp93
g62
(dp94
sg71
g74
sg64
(lp95
g57
(g58
g59
NtRp96
(dp97
g62
(dp98
g70
I5
ssg71
g92
sg64
(lp99
S'False'
p100
asbasbasbag57
(g73
g59
NtRp101
(dp102
g62
(dp103
sg71
g67
sg64
(lp104
g57
(g78
g59
NtRp105
(dp106
g62
(dp107
g82
g83
ssg71
g101
sg64
(lp108
S'application'
p109
asbag57
(g78
g59
NtRp110
(dp111
g62
(dp112
g89
g90
ssg71
g101
sg64
(lp113
S':'
asbag57
(g78
g59
NtRp114
(dp115
g62
(dp116
sg71
g101
sg64
(lp117
g57
(g58
g59
NtRp118
(dp119
g62
(dp120
g70
I5
ssg71
g114
sg64
(lp121
S'Award_Manager'
p122
asbasbasbag57
(g73
g59
NtRp123
(dp124
g62
(dp125
sg71
g67
sg64
(lp126
g57
(g78
g59
NtRp127
(dp128
g62
(dp129
g82
g83
ssg71
g123
sg64
(lp130
g42
asbag57
(g78
g59
NtRp131
(dp132
g62
(dp133
g89
g90
ssg71
g123
sg64
(lp134
S':'
asbag57
(g78
g59
NtRp135
(dp136
g62
(dp137
sg71
g123
sg64
(lp138
g57
(g58
g59
NtRp139
(dp140
g62
(dp141
g70
I5
ssg71
g135
sg64
(lp142
g57
(g66
g59
NtRp143
(dp144
g62
(dp145
g70
I4
ssg71
Nsg64
(lp146
g57
(g73
g59
NtRp147
(dp148
g62
(dp149
sg71
g143
sg64
(lp150
g57
(g78
g59
NtRp151
(dp152
g62
(dp153
sg71
g147
sg64
(lp154
g57
(g58
g59
NtRp155
(dp156
g62
(dp157
g70
I4
ssg71
g151
sg64
(lp158
S'Output.Total'
p159
asbasbasbasbasbasbasbag57
(g73
g59
NtRp160
(dp161
g62
(dp162
sg71
g67
sg64
(lp163
g57
(g78
g59
NtRp164
(dp165
g62
(dp166
g82
g83
ssg71
g160
sg64
(lp167
S'body'
p168
asbag57
(g78
g59
NtRp169
(dp170
g62
(dp171
g89
g90
ssg71
g160
sg64
(lp172
S':'
asbag57
(g78
g59
NtRp173
(dp174
g62
(dp175
sg71
g160
sg64
(lp176
g57
(g58
g59
NtRp177
(dp178
g62
(dp179
g70
I5
ssg71
g173
sg64
(lp180
S'<cStringIO.StringO object at 0xac850c0>'
p181
asbasbasbag57
(g73
g59
NtRp182
(dp183
g62
(dp184
sg71
g67
sg64
(lp185
g57
(g78
g59
NtRp186
(dp187
g62
(dp188
g82
g83
ssg71
g182
sg64
(lp189
S'client'
p190
asbag57
(g78
g59
NtRp191
(dp192
g62
(dp193
g89
g90
ssg71
g182
sg64
(lp194
S':'
asbag57
(g78
g59
NtRp195
(dp196
g62
(dp197
sg71
g182
sg64
(lp198
g57
(g58
g59
NtRp199
(dp200
g62
(dp201
g70
I5
ssg71
g195
sg64
(lp202
S'127.0.0.1'
p203
asbasbasbag57
(g73
g59
NtRp204
(dp205
g62
(dp206
sg71
g67
sg64
(lp207
g57
(g78
g59
NtRp208
(dp209
g62
(dp210
g82
g83
ssg71
g204
sg64
(lp211
S'controller'
p212
asbag57
(g78
g59
NtRp213
(dp214
g62
(dp215
g89
g90
ssg71
g204
sg64
(lp216
S':'
asbag57
(g78
g59
NtRp217
(dp218
g62
(dp219
sg71
g204
sg64
(lp220
g57
(g58
g59
NtRp221
(dp222
g62
(dp223
g70
I5
ssg71
g217
sg64
(lp224
S'default'
p225
asbasbasbag57
(g73
g59
NtRp226
(dp227
g62
(dp228
sg71
g67
sg64
(lp229
g57
(g78
g59
NtRp230
(dp231
g62
(dp232
g82
g83
ssg71
g226
sg64
(lp233
S'cookies'
p234
asbag57
(g78
g59
NtRp235
(dp236
g62
(dp237
g89
g90
ssg71
g226
sg64
(lp238
S':'
asbag57
(g78
g59
NtRp239
(dp240
g62
(dp241
sg71
g226
sg64
(lp242
g57
(g58
g59
NtRp243
(dp244
g62
(dp245
g70
I5
ssg71
g239
sg64
(lp246
g57
(g66
g59
NtRp247
(dp248
g62
(dp249
g70
I4
ssg71
Nsg64
(lp250
g57
(g73
g59
NtRp251
(dp252
g62
(dp253
sg71
g247
sg64
(lp254
g57
(g78
g59
NtRp255
(dp256
g62
(dp257
g82
g83
ssg71
g251
sg64
(lp258
S'session_id_admin'
p259
asbag57
(g78
g59
NtRp260
(dp261
g62
(dp262
g89
g90
ssg71
g251
sg64
(lp263
S':'
asbag57
(g78
g59
NtRp264
(dp265
g62
(dp266
sg71
g251
sg64
(lp267
g57
(g58
g59
NtRp268
(dp269
g62
(dp270
g70
I4
ssg71
g264
sg64
(lp271
g57
(g66
g59
NtRp272
(dp273
g62
(dp274
g70
I3
ssg71
Nsg64
(lp275
g57
(g73
g59
NtRp276
(dp277
g62
(dp278
sg71
g272
sg64
(lp279
g57
(g78
g59
NtRp280
(dp281
g62
(dp282
g82
g83
ssg71
g276
sg64
(lp283
S'comment'
p284
asbag57
(g78
g59
NtRp285
(dp286
g62
(dp287
g89
g90
ssg71
g276
sg64
(lp288
S':'
asbag57
(g78
g59
NtRp289
(dp290
g62
(dp291
sg71
g276
sg64
(lp292
g57
(g58
g59
NtRp293
(dp294
g62
(dp295
g70
I3
ssg71
g289
sg64
(lp296
S''
asbasbasbag57
(g73
g59
NtRp297
(dp298
g62
(dp299
sg71
g272
sg64
(lp300
g57
(g78
g59
NtRp301
(dp302
g62
(dp303
g82
g83
ssg71
g297
sg64
(lp304
S'domain'
p305
asbag57
(g78
g59
NtRp306
(dp307
g62
(dp308
g89
g90
ssg71
g297
sg64
(lp309
S':'
asbag57
(g78
g59
NtRp310
(dp311
g62
(dp312
sg71
g297
sg64
(lp313
g57
(g58
g59
NtRp314
(dp315
g62
(dp316
g70
I3
ssg71
g310
sg64
(lp317
S''
asbasbasbag57
(g73
g59
NtRp318
(dp319
g62
(dp320
sg71
g272
sg64
(lp321
g57
(g78
g59
NtRp322
(dp323
g62
(dp324
g82
g83
ssg71
g318
sg64
(lp325
S'expires'
p326
asbag57
(g78
g59
NtRp327
(dp328
g62
(dp329
g89
g90
ssg71
g318
sg64
(lp330
S':'
asbag57
(g78
g59
NtRp331
(dp332
g62
(dp333
sg71
g318
sg64
(lp334
g57
(g58
g59
NtRp335
(dp336
g62
(dp337
g70
I3
ssg71
g331
sg64
(lp338
S''
asbasbasbag57
(g73
g59
NtRp339
(dp340
g62
(dp341
sg71
g272
sg64
(lp342
g57
(g78
g59
NtRp343
(dp344
g62
(dp345
g82
g83
ssg71
g339
sg64
(lp346
S'httponly'
p347
asbag57
(g78
g59
NtRp348
(dp349
g62
(dp350
g89
g90
ssg71
g339
sg64
(lp351
S':'
asbag57
(g78
g59
NtRp352
(dp353
g62
(dp354
sg71
g339
sg64
(lp355
g57
(g58
g59
NtRp356
(dp357
g62
(dp358
g70
I3
ssg71
g352
sg64
(lp359
S''
asbasbasbag57
(g73
g59
NtRp360
(dp361
g62
(dp362
sg71
g272
sg64
(lp363
g57
(g78
g59
NtRp364
(dp365
g62
(dp366
g82
g83
ssg71
g360
sg64
(lp367
S'max-age'
p368
asbag57
(g78
g59
NtRp369
(dp370
g62
(dp371
g89
g90
ssg71
g360
sg64
(lp372
S':'
asbag57
(g78
g59
NtRp373
(dp374
g62
(dp375
sg71
g360
sg64
(lp376
g57
(g58
g59
NtRp377
(dp378
g62
(dp379
g70
I3
ssg71
g373
sg64
(lp380
S''
asbasbasbag57
(g73
g59
NtRp381
(dp382
g62
(dp383
sg71
g272
sg64
(lp384
g57
(g78
g59
NtRp385
(dp386
g62
(dp387
g82
g83
ssg71
g381
sg64
(lp388
S'path'
p389
asbag57
(g78
g59
NtRp390
(dp391
g62
(dp392
g89
g90
ssg71
g381
sg64
(lp393
S':'
asbag57
(g78
g59
NtRp394
(dp395
g62
(dp396
sg71
g381
sg64
(lp397
g57
(g58
g59
NtRp398
(dp399
g62
(dp400
g70
I3
ssg71
g394
sg64
(lp401
S''
asbasbasbag57
(g73
g59
NtRp402
(dp403
g62
(dp404
sg71
g272
sg64
(lp405
g57
(g78
g59
NtRp406
(dp407
g62
(dp408
g82
g83
ssg71
g402
sg64
(lp409
S'secure'
p410
asbag57
(g78
g59
NtRp411
(dp412
g62
(dp413
g89
g90
ssg71
g402
sg64
(lp414
S':'
asbag57
(g78
g59
NtRp415
(dp416
g62
(dp417
sg71
g402
sg64
(lp418
g57
(g58
g59
NtRp419
(dp420
g62
(dp421
g70
I3
ssg71
g415
sg64
(lp422
S''
asbasbasbag57
(g73
g59
NtRp423
(dp424
g62
(dp425
sg71
g272
sg64
(lp426
g57
(g78
g59
NtRp427
(dp428
g62
(dp429
g82
g83
ssg71
g423
sg64
(lp430
S'version'
p431
asbag57
(g78
g59
NtRp432
(dp433
g62
(dp434
g89
g90
ssg71
g423
sg64
(lp435
S':'
asbag57
(g78
g59
NtRp436
(dp437
g62
(dp438
sg71
g423
sg64
(lp439
g57
(g58
g59
NtRp440
(dp441
g62
(dp442
g70
I3
ssg71
g436
sg64
(lp443
S''
asbasbasbasbasbasbasbag57
(g73
g59
NtRp444
(dp445
g62
(dp446
sg71
g247
sg64
(lp447
g57
(g78
g59
NtRp448
(dp449
g62
(dp450
g82
g83
ssg71
g444
sg64
(lp451
S'session_id_award_manager'
p452
asbag57
(g78
g59
NtRp453
(dp454
g62
(dp455
g89
g90
ssg71
g444
sg64
(lp456
S':'
asbag57
(g78
g59
NtRp457
(dp458
g62
(dp459
sg71
g444
sg64
(lp460
g57
(g58
g59
NtRp461
(dp462
g62
(dp463
g70
I4
ssg71
g457
sg64
(lp464
g57
(g66
g59
NtRp465
(dp466
g62
(dp467
g70
I3
ssg71
Nsg64
(lp468
g57
(g73
g59
NtRp469
(dp470
g62
(dp471
sg71
g465
sg64
(lp472
g57
(g78
g59
NtRp473
(dp474
g62
(dp475
g82
g83
ssg71
g469
sg64
(lp476
g284
asbag57
(g78
g59
NtRp477
(dp478
g62
(dp479
g89
g90
ssg71
g469
sg64
(lp480
S':'
asbag57
(g78
g59
NtRp481
(dp482
g62
(dp483
sg71
g469
sg64
(lp484
g57
(g58
g59
NtRp485
(dp486
g62
(dp487
g70
I3
ssg71
g481
sg64
(lp488
S''
asbasbasbag57
(g73
g59
NtRp489
(dp490
g62
(dp491
sg71
g465
sg64
(lp492
g57
(g78
g59
NtRp493
(dp494
g62
(dp495
g82
g83
ssg71
g489
sg64
(lp496
g305
asbag57
(g78
g59
NtRp497
(dp498
g62
(dp499
g89
g90
ssg71
g489
sg64
(lp500
S':'
asbag57
(g78
g59
NtRp501
(dp502
g62
(dp503
sg71
g489
sg64
(lp504
g57
(g58
g59
NtRp505
(dp506
g62
(dp507
g70
I3
ssg71
g501
sg64
(lp508
S''
asbasbasbag57
(g73
g59
NtRp509
(dp510
g62
(dp511
sg71
g465
sg64
(lp512
g57
(g78
g59
NtRp513
(dp514
g62
(dp515
g82
g83
ssg71
g509
sg64
(lp516
g326
asbag57
(g78
g59
NtRp517
(dp518
g62
(dp519
g89
g90
ssg71
g509
sg64
(lp520
S':'
asbag57
(g78
g59
NtRp521
(dp522
g62
(dp523
sg71
g509
sg64
(lp524
g57
(g58
g59
NtRp525
(dp526
g62
(dp527
g70
I3
ssg71
g521
sg64
(lp528
S''
asbasbasbag57
(g73
g59
NtRp529
(dp530
g62
(dp531
sg71
g465
sg64
(lp532
g57
(g78
g59
NtRp533
(dp534
g62
(dp535
g82
g83
ssg71
g529
sg64
(lp536
g347
asbag57
(g78
g59
NtRp537
(dp538
g62
(dp539
g89
g90
ssg71
g529
sg64
(lp540
S':'
asbag57
(g78
g59
NtRp541
(dp542
g62
(dp543
sg71
g529
sg64
(lp544
g57
(g58
g59
NtRp545
(dp546
g62
(dp547
g70
I3
ssg71
g541
sg64
(lp548
S''
asbasbasbag57
(g73
g59
NtRp549
(dp550
g62
(dp551
sg71
g465
sg64
(lp552
g57
(g78
g59
NtRp553
(dp554
g62
(dp555
g82
g83
ssg71
g549
sg64
(lp556
g368
asbag57
(g78
g59
NtRp557
(dp558
g62
(dp559
g89
g90
ssg71
g549
sg64
(lp560
S':'
asbag57
(g78
g59
NtRp561
(dp562
g62
(dp563
sg71
g549
sg64
(lp564
g57
(g58
g59
NtRp565
(dp566
g62
(dp567
g70
I3
ssg71
g561
sg64
(lp568
S''
asbasbasbag57
(g73
g59
NtRp569
(dp570
g62
(dp571
sg71
g465
sg64
(lp572
g57
(g78
g59
NtRp573
(dp574
g62
(dp575
g82
g83
ssg71
g569
sg64
(lp576
g389
asbag57
(g78
g59
NtRp577
(dp578
g62
(dp579
g89
g90
ssg71
g569
sg64
(lp580
S':'
asbag57
(g78
g59
NtRp581
(dp582
g62
(dp583
sg71
g569
sg64
(lp584
g57
(g58
g59
NtRp585
(dp586
g62
(dp587
g70
I3
ssg71
g581
sg64
(lp588
S''
asbasbasbag57
(g73
g59
NtRp589
(dp590
g62
(dp591
sg71
g465
sg64
(lp592
g57
(g78
g59
NtRp593
(dp594
g62
(dp595
g82
g83
ssg71
g589
sg64
(lp596
g410
asbag57
(g78
g59
NtRp597
(dp598
g62
(dp599
g89
g90
ssg71
g589
sg64
(lp600
S':'
asbag57
(g78
g59
NtRp601
(dp602
g62
(dp603
sg71
g589
sg64
(lp604
g57
(g58
g59
NtRp605
(dp606
g62
(dp607
g70
I3
ssg71
g601
sg64
(lp608
S''
asbasbasbag57
(g73
g59
NtRp609
(dp610
g62
(dp611
sg71
g465
sg64
(lp612
g57
(g78
g59
NtRp613
(dp614
g62
(dp615
g82
g83
ssg71
g609
sg64
(lp616
g431
asbag57
(g78
g59
NtRp617
(dp618
g62
(dp619
g89
g90
ssg71
g609
sg64
(lp620
S':'
asbag57
(g78
g59
NtRp621
(dp622
g62
(dp623
sg71
g609
sg64
(lp624
g57
(g58
g59
NtRp625
(dp626
g62
(dp627
g70
I3
ssg71
g621
sg64
(lp628
S''
asbasbasbasbasbasbasbag57
(g73
g59
NtRp629
(dp630
g62
(dp631
sg71
g247
sg64
(lp632
g57
(g78
g59
NtRp633
(dp634
g62
(dp635
g82
g83
ssg71
g629
sg64
(lp636
S'session_id_welcome'
p637
asbag57
(g78
g59
NtRp638
(dp639
g62
(dp640
g89
g90
ssg71
g629
sg64
(lp641
S':'
asbag57
(g78
g59
NtRp642
(dp643
g62
(dp644
sg71
g629
sg64
(lp645
g57
(g58
g59
NtRp646
(dp647
g62
(dp648
g70
I4
ssg71
g642
sg64
(lp649
g57
(g66
g59
NtRp650
(dp651
g62
(dp652
g70
I3
ssg71
Nsg64
(lp653
g57
(g73
g59
NtRp654
(dp655
g62
(dp656
sg71
g650
sg64
(lp657
g57
(g78
g59
NtRp658
(dp659
g62
(dp660
g82
g83
ssg71
g654
sg64
(lp661
g284
asbag57
(g78
g59
NtRp662
(dp663
g62
(dp664
g89
g90
ssg71
g654
sg64
(lp665
S':'
asbag57
(g78
g59
NtRp666
(dp667
g62
(dp668
sg71
g654
sg64
(lp669
g57
(g58
g59
NtRp670
(dp671
g62
(dp672
g70
I3
ssg71
g666
sg64
(lp673
S''
asbasbasbag57
(g73
g59
NtRp674
(dp675
g62
(dp676
sg71
g650
sg64
(lp677
g57
(g78
g59
NtRp678
(dp679
g62
(dp680
g82
g83
ssg71
g674
sg64
(lp681
g305
asbag57
(g78
g59
NtRp682
(dp683
g62
(dp684
g89
g90
ssg71
g674
sg64
(lp685
S':'
asbag57
(g78
g59
NtRp686
(dp687
g62
(dp688
sg71
g674
sg64
(lp689
g57
(g58
g59
NtRp690
(dp691
g62
(dp692
g70
I3
ssg71
g686
sg64
(lp693
S''
asbasbasbag57
(g73
g59
NtRp694
(dp695
g62
(dp696
sg71
g650
sg64
(lp697
g57
(g78
g59
NtRp698
(dp699
g62
(dp700
g82
g83
ssg71
g694
sg64
(lp701
g326
asbag57
(g78
g59
NtRp702
(dp703
g62
(dp704
g89
g90
ssg71
g694
sg64
(lp705
S':'
asbag57
(g78
g59
NtRp706
(dp707
g62
(dp708
sg71
g694
sg64
(lp709
g57
(g58
g59
NtRp710
(dp711
g62
(dp712
g70
I3
ssg71
g706
sg64
(lp713
S''
asbasbasbag57
(g73
g59
NtRp714
(dp715
g62
(dp716
sg71
g650
sg64
(lp717
g57
(g78
g59
NtRp718
(dp719
g62
(dp720
g82
g83
ssg71
g714
sg64
(lp721
g347
asbag57
(g78
g59
NtRp722
(dp723
g62
(dp724
g89
g90
ssg71
g714
sg64
(lp725
S':'
asbag57
(g78
g59
NtRp726
(dp727
g62
(dp728
sg71
g714
sg64
(lp729
g57
(g58
g59
NtRp730
(dp731
g62
(dp732
g70
I3
ssg71
g726
sg64
(lp733
S''
asbasbasbag57
(g73
g59
NtRp734
(dp735
g62
(dp736
sg71
g650
sg64
(lp737
g57
(g78
g59
NtRp738
(dp739
g62
(dp740
g82
g83
ssg71
g734
sg64
(lp741
g368
asbag57
(g78
g59
NtRp742
(dp743
g62
(dp744
g89
g90
ssg71
g734
sg64
(lp745
S':'
asbag57
(g78
g59
NtRp746
(dp747
g62
(dp748
sg71
g734
sg64
(lp749
g57
(g58
g59
NtRp750
(dp751
g62
(dp752
g70
I3
ssg71
g746
sg64
(lp753
S''
asbasbasbag57
(g73
g59
NtRp754
(dp755
g62
(dp756
sg71
g650
sg64
(lp757
g57
(g78
g59
NtRp758
(dp759
g62
(dp760
g82
g83
ssg71
g754
sg64
(lp761
g389
asbag57
(g78
g59
NtRp762
(dp763
g62
(dp764
g89
g90
ssg71
g754
sg64
(lp765
S':'
asbag57
(g78
g59
NtRp766
(dp767
g62
(dp768
sg71
g754
sg64
(lp769
g57
(g58
g59
NtRp770
(dp771
g62
(dp772
g70
I3
ssg71
g766
sg64
(lp773
S''
asbasbasbag57
(g73
g59
NtRp774
(dp775
g62
(dp776
sg71
g650
sg64
(lp777
g57
(g78
g59
NtRp778
(dp779
g62
(dp780
g82
g83
ssg71
g774
sg64
(lp781
g410
asbag57
(g78
g59
NtRp782
(dp783
g62
(dp784
g89
g90
ssg71
g774
sg64
(lp785
S':'
asbag57
(g78
g59
NtRp786
(dp787
g62
(dp788
sg71
g774
sg64
(lp789
g57
(g58
g59
NtRp790
(dp791
g62
(dp792
g70
I3
ssg71
g786
sg64
(lp793
S''
asbasbasbag57
(g73
g59
NtRp794
(dp795
g62
(dp796
sg71
g650
sg64
(lp797
g57
(g78
g59
NtRp798
(dp799
g62
(dp800
g82
g83
ssg71
g794
sg64
(lp801
g431
asbag57
(g78
g59
NtRp802
(dp803
g62
(dp804
g89
g90
ssg71
g794
sg64
(lp805
S':'
asbag57
(g78
g59
NtRp806
(dp807
g62
(dp808
sg71
g794
sg64
(lp809
g57
(g58
g59
NtRp810
(dp811
g62
(dp812
g70
I3
ssg71
g806
sg64
(lp813
S''
asbasbasbasbasbasbasbasbasbasbasbag57
(g73
g59
NtRp814
(dp815
g62
(dp816
sg71
g67
sg64
(lp817
g57
(g78
g59
NtRp818
(dp819
g62
(dp820
g82
g83
ssg71
g814
sg64
(lp821
S'env'
p822
asbag57
(g78
g59
NtRp823
(dp824
g62
(dp825
g89
g90
ssg71
g814
sg64
(lp826
S':'
asbag57
(g78
g59
NtRp827
(dp828
g62
(dp829
sg71
g814
sg64
(lp830
g57
(g58
g59
NtRp831
(dp832
g62
(dp833
g70
I5
ssg71
g827
sg64
(lp834
g57
(g66
g59
NtRp835
(dp836
g62
(dp837
g70
I4
ssg71
Nsg64
(lp838
g57
(g73
g59
NtRp839
(dp840
g62
(dp841
sg71
g835
sg64
(lp842
g57
(g78
g59
NtRp843
(dp844
g62
(dp845
g82
g83
ssg71
g839
sg64
(lp846
S'app_folders'
p847
asbag57
(g78
g59
NtRp848
(dp849
g62
(dp850
g89
g90
ssg71
g839
sg64
(lp851
S':'
asbag57
(g78
g59
NtRp852
(dp853
g62
(dp854
sg71
g839
sg64
(lp855
g57
(g58
g59
NtRp856
(dp857
g62
(dp858
g70
I4
ssg71
g852
sg64
(lp859
S"set(['/home/unic/web2py/applications/admin/', '/home/unic/web2py/applications/Award_Manager/', '/home/unic/web2py/applications/welcome/'])"
p860
asbasbasbag57
(g73
g59
NtRp861
(dp862
g62
(dp863
sg71
g835
sg64
(lp864
g57
(g78
g59
NtRp865
(dp866
g62
(dp867
g82
g83
ssg71
g861
sg64
(lp868
S'applications_parent'
p869
asbag57
(g78
g59
NtRp870
(dp871
g62
(dp872
g89
g90
ssg71
g861
sg64
(lp873
S':'
asbag57
(g78
g59
NtRp874
(dp875
g62
(dp876
sg71
g861
sg64
(lp877
g57
(g58
g59
NtRp878
(dp879
g62
(dp880
g70
I4
ssg71
g874
sg64
(lp881
S'/home/unic/web2py'
p882
asbasbasbag57
(g73
g59
NtRp883
(dp884
g62
(dp885
sg71
g835
sg64
(lp886
g57
(g78
g59
NtRp887
(dp888
g62
(dp889
g82
g83
ssg71
g883
sg64
(lp890
S'cmd_args'
p891
asbag57
(g78
g59
NtRp892
(dp893
g62
(dp894
g89
g90
ssg71
g883
sg64
(lp895
S':'
asbag57
(g78
g59
NtRp896
(dp897
g62
(dp898
sg71
g883
sg64
(lp899
g57
(g58
g59
NtRp900
(dp901
g62
(dp902
g70
I4
ssg71
g896
sg64
(lp903
g57
(g66
g59
NtRp904
(dp905
g62
(dp906
g70
I3
ssg71
Nsg64
(lp907
sbasbasbasbag57
(g73
g59
NtRp908
(dp909
g62
(dp910
sg71
g835
sg64
(lp911
g57
(g78
g59
NtRp912
(dp913
g62
(dp914
g82
g83
ssg71
g908
sg64
(lp915
S'cmd_options'
p916
asbag57
(g78
g59
NtRp917
(dp918
g62
(dp919
g89
g90
ssg71
g908
sg64
(lp920
S':'
asbag57
(g78
g59
NtRp921
(dp922
g62
(dp923
sg71
g908
sg64
(lp924
g57
(g58
g59
NtRp925
(dp926
g62
(dp927
g70
I4
ssg71
g921
sg64
(lp928
S"<Values at 0xa70080c: {'verbose': False, 'ip': '127.0.0.1', 'shutdown_timeout': 5, 'taskbar': False, 'port': 8000, 'maxthreads': None, 'softcron': False, 'server_name': 'unic-Inspiron-N5050', 'bpython': False, 'nogui': False, 'nocron': False, 'extcron': False, 'debuglevel': 30, 'test': None, 'folder': '/home/unic/web2py', 'config': '', 'import_models': False, 'winservice': '', 'shell': None, 'run': '', 'log_filename': 'httpserver.log', 'args': [''], 'socket_timeout': 1, 'profiler_filename': None, 'ssl_private_key': '', 'password': '<ask>', 'request_queue_size': 5, 'ssl_certificate': '', 'cronjob': False, 'plain': False, 'quiet': False, 'interfaces': None, 'minthreads': None, 'timeout': 10, 'numthreads': None, 'nobanner': False, 'pid_filename': 'httpserver.pid'}>"
p929
asbasbasbag57
(g73
g59
NtRp930
(dp931
g62
(dp932
sg71
g835
sg64
(lp933
g57
(g78
g59
NtRp934
(dp935
g62
(dp936
g82
g83
ssg71
g930
sg64
(lp937
S'db_sessions'
p938
asbag57
(g78
g59
NtRp939
(dp940
g62
(dp941
g89
g90
ssg71
g930
sg64
(lp942
S':'
asbag57
(g78
g59
NtRp943
(dp944
g62
(dp945
sg71
g930
sg64
(lp946
g57
(g58
g59
NtRp947
(dp948
g62
(dp949
g70
I4
ssg71
g943
sg64
(lp950
S'set([])'
p951
asbasbasbag57
(g73
g59
NtRp952
(dp953
g62
(dp954
sg71
g835
sg64
(lp955
g57
(g78
g59
NtRp956
(dp957
g62
(dp958
g82
g83
ssg71
g952
sg64
(lp959
S'debugging'
p960
asbag57
(g78
g59
NtRp961
(dp962
g62
(dp963
g89
g90
ssg71
g952
sg64
(lp964
S':'
asbag57
(g78
g59
NtRp965
(dp966
g62
(dp967
sg71
g952
sg64
(lp968
g57
(g58
g59
NtRp969
(dp970
g62
(dp971
g70
I4
ssg71
g965
sg64
(lp972
g100
asbasbasbag57
(g73
g59
NtRp973
(dp974
g62
(dp975
sg71
g835
sg64
(lp976
g57
(g78
g59
NtRp977
(dp978
g62
(dp979
g82
g83
ssg71
g973
sg64
(lp980
S'gluon_parent'
p981
asbag57
(g78
g59
NtRp982
(dp983
g62
(dp984
g89
g90
ssg71
g973
sg64
(lp985
S':'
asbag57
(g78
g59
NtRp986
(dp987
g62
(dp988
sg71
g973
sg64
(lp989
g57
(g58
g59
NtRp990
(dp991
g62
(dp992
g70
I4
ssg71
g986
sg64
(lp993
S'/usr/share/web2py'
p994
asbasbasbag57
(g73
g59
NtRp995
(dp996
g62
(dp997
sg71
g835
sg64
(lp998
g57
(g78
g59
NtRp999
(dp1000
g62
(dp1001
g82
g83
ssg71
g995
sg64
(lp1002
S'http_accept'
p1003
asbag57
(g78
g59
NtRp1004
(dp1005
g62
(dp1006
g89
g90
ssg71
g995
sg64
(lp1007
S':'
asbag57
(g78
g59
NtRp1008
(dp1009
g62
(dp1010
sg71
g995
sg64
(lp1011
g57
(g58
g59
NtRp1012
(dp1013
g62
(dp1014
g70
I4
ssg71
g1008
sg64
(lp1015
S'text/html,application/xhtml+xml,application/xml;q=0.9,*/*;q=0.8'
p1016
asbasbasbag57
(g73
g59
NtRp1017
(dp1018
g62
(dp1019
sg71
g835
sg64
(lp1020
g57
(g78
g59
NtRp1021
(dp1022
g62
(dp1023
g82
g83
ssg71
g1017
sg64
(lp1024
S'http_accept_encoding'
p1025
asbag57
(g78
g59
NtRp1026
(dp1027
g62
(dp1028
g89
g90
ssg71
g1017
sg64
(lp1029
S':'
asbag57
(g78
g59
NtRp1030
(dp1031
g62
(dp1032
sg71
g1017
sg64
(lp1033
g57
(g58
g59
NtRp1034
(dp1035
g62
(dp1036
g70
I4
ssg71
g1030
sg64
(lp1037
S'gzip, deflate'
p1038
asbasbasbag57
(g73
g59
NtRp1039
(dp1040
g62
(dp1041
sg71
g835
sg64
(lp1042
g57
(g78
g59
NtRp1043
(dp1044
g62
(dp1045
g82
g83
ssg71
g1039
sg64
(lp1046
S'http_accept_language'
p1047
asbag57
(g78
g59
NtRp1048
(dp1049
g62
(dp1050
g89
g90
ssg71
g1039
sg64
(lp1051
S':'
asbag57
(g78
g59
NtRp1052
(dp1053
g62
(dp1054
sg71
g1039
sg64
(lp1055
g57
(g58
g59
NtRp1056
(dp1057
g62
(dp1058
g70
I4
ssg71
g1052
sg64
(lp1059
S'en-us,en;q=0.5'
p1060
asbasbasbag57
(g73
g59
NtRp1061
(dp1062
g62
(dp1063
sg71
g835
sg64
(lp1064
g57
(g78
g59
NtRp1065
(dp1066
g62
(dp1067
g82
g83
ssg71
g1061
sg64
(lp1068
S'http_connection'
p1069
asbag57
(g78
g59
NtRp1070
(dp1071
g62
(dp1072
g89
g90
ssg71
g1061
sg64
(lp1073
S':'
asbag57
(g78
g59
NtRp1074
(dp1075
g62
(dp1076
sg71
g1061
sg64
(lp1077
g57
(g58
g59
NtRp1078
(dp1079
g62
(dp1080
g70
I4
ssg71
g1074
sg64
(lp1081
S'keep-alive'
p1082
asbasbasbag57
(g73
g59
NtRp1083
(dp1084
g62
(dp1085
sg71
g835
sg64
(lp1086
g57
(g78
g59
NtRp1087
(dp1088
g62
(dp1089
g82
g83
ssg71
g1083
sg64
(lp1090
S'http_cookie'
p1091
asbag57
(g78
g59
NtRp1092
(dp1093
g62
(dp1094
g89
g90
ssg71
g1083
sg64
(lp1095
S':'
asbag57
(g78
g59
NtRp1096
(dp1097
g62
(dp1098
sg71
g1083
sg64
(lp1099
g57
(g58
g59
NtRp1100
(dp1101
g62
(dp1102
g70
I4
ssg71
g1096
sg64
(lp1103
S'session_id_welcome=127.0.0.1-05cd676d-118d-4aba-b9ff-3d071fb55def; session_id_admin=127.0.0.1-b0e31cc9-1523-4a05-842d-6e095bc20ee9; session_id_award_manager=127.0.0.1-984d5df8-6c88-4a3d-bb1e-94e614db37f2'
p1104
asbasbasbag57
(g73
g59
NtRp1105
(dp1106
g62
(dp1107
sg71
g835
sg64
(lp1108
g57
(g78
g59
NtRp1109
(dp1110
g62
(dp1111
g82
g83
ssg71
g1105
sg64
(lp1112
S'http_host'
p1113
asbag57
(g78
g59
NtRp1114
(dp1115
g62
(dp1116
g89
g90
ssg71
g1105
sg64
(lp1117
S':'
asbag57
(g78
g59
NtRp1118
(dp1119
g62
(dp1120
sg71
g1105
sg64
(lp1121
g57
(g58
g59
NtRp1122
(dp1123
g62
(dp1124
g70
I4
ssg71
g1118
sg64
(lp1125
S'127.0.0.1:8000'
p1126
asbasbasbag57
(g73
g59
NtRp1127
(dp1128
g62
(dp1129
sg71
g835
sg64
(lp1130
g57
(g78
g59
NtRp1131
(dp1132
g62
(dp1133
g82
g83
ssg71
g1127
sg64
(lp1134
S'http_referer'
p1135
asbag57
(g78
g59
NtRp1136
(dp1137
g62
(dp1138
g89
g90
ssg71
g1127
sg64
(lp1139
S':'
asbag57
(g78
g59
NtRp1140
(dp1141
g62
(dp1142
sg71
g1127
sg64
(lp1143
g57
(g58
g59
NtRp1144
(dp1145
g62
(dp1146
g70
I4
ssg71
g1140
sg64
(lp1147
S'http://127.0.0.1:8000/Award_Manager/default/admin'
p1148
asbasbasbag57
(g73
g59
NtRp1149
(dp1150
g62
(dp1151
sg71
g835
sg64
(lp1152
g57
(g78
g59
NtRp1153
(dp1154
g62
(dp1155
g82
g83
ssg71
g1149
sg64
(lp1156
S'http_user_agent'
p1157
asbag57
(g78
g59
NtRp1158
(dp1159
g62
(dp1160
g89
g90
ssg71
g1149
sg64
(lp1161
S':'
asbag57
(g78
g59
NtRp1162
(dp1163
g62
(dp1164
sg71
g1149
sg64
(lp1165
g57
(g58
g59
NtRp1166
(dp1167
g62
(dp1168
g70
I4
ssg71
g1162
sg64
(lp1169
S'Mozilla/5.0 (X11; Ubuntu; Linux i686; rv:14.0) Gecko/20100101 Firefox/14.0.1'
p1170
asbasbasbag57
(g73
g59
NtRp1171
(dp1172
g62
(dp1173
sg71
g835
sg64
(lp1174
g57
(g78
g59
NtRp1175
(dp1176
g62
(dp1177
g82
g83
ssg71
g1171
sg64
(lp1178
S'is_jython'
p1179
asbag57
(g78
g59
NtRp1180
(dp1181
g62
(dp1182
g89
g90
ssg71
g1171
sg64
(lp1183
S':'
asbag57
(g78
g59
NtRp1184
(dp1185
g62
(dp1186
sg71
g1171
sg64
(lp1187
g57
(g58
g59
NtRp1188
(dp1189
g62
(dp1190
g70
I4
ssg71
g1184
sg64
(lp1191
g100
asbasbasbag57
(g73
g59
NtRp1192
(dp1193
g62
(dp1194
sg71
g835
sg64
(lp1195
g57
(g78
g59
NtRp1196
(dp1197
g62
(dp1198
g82
g83
ssg71
g1192
sg64
(lp1199
S'is_pypy'
p1200
asbag57
(g78
g59
NtRp1201
(dp1202
g62
(dp1203
g89
g90
ssg71
g1192
sg64
(lp1204
S':'
asbag57
(g78
g59
NtRp1205
(dp1206
g62
(dp1207
sg71
g1192
sg64
(lp1208
g57
(g58
g59
NtRp1209
(dp1210
g62
(dp1211
g70
I4
ssg71
g1205
sg64
(lp1212
g100
asbasbasbag57
(g73
g59
NtRp1213
(dp1214
g62
(dp1215
sg71
g835
sg64
(lp1216
g57
(g78
g59
NtRp1217
(dp1218
g62
(dp1219
g82
g83
ssg71
g1213
sg64
(lp1220
S'path_info'
p1221
asbag57
(g78
g59
NtRp1222
(dp1223
g62
(dp1224
g89
g90
ssg71
g1213
sg64
(lp1225
S':'
asbag57
(g78
g59
NtRp1226
(dp1227
g62
(dp1228
sg71
g1213
sg64
(lp1229
g57
(g58
g59
NtRp1230
(dp1231
g62
(dp1232
g70
I4
ssg71
g1226
sg64
(lp1233
S'/Award_Manager/default/total/Output.Total'
p1234
asbasbasbag57
(g73
g59
NtRp1235
(dp1236
g62
(dp1237
sg71
g835
sg64
(lp1238
g57
(g78
g59
NtRp1239
(dp1240
g62
(dp1241
g82
g83
ssg71
g1235
sg64
(lp1242
S'query_string'
p1243
asbag57
(g78
g59
NtRp1244
(dp1245
g62
(dp1246
g89
g90
ssg71
g1235
sg64
(lp1247
S':'
asbag57
(g78
g59
NtRp1248
(dp1249
g62
(dp1250
sg71
g1235
sg64
(lp1251
g57
(g58
g59
NtRp1252
(dp1253
g62
(dp1254
g70
I4
ssg71
g1248
sg64
(lp1255
S''
asbasbasbag57
(g73
g59
NtRp1256
(dp1257
g62
(dp1258
sg71
g835
sg64
(lp1259
g57
(g78
g59
NtRp1260
(dp1261
g62
(dp1262
g82
g83
ssg71
g1256
sg64
(lp1263
S'remote_addr'
p1264
asbag57
(g78
g59
NtRp1265
(dp1266
g62
(dp1267
g89
g90
ssg71
g1256
sg64
(lp1268
S':'
asbag57
(g78
g59
NtRp1269
(dp1270
g62
(dp1271
sg71
g1256
sg64
(lp1272
g57
(g58
g59
NtRp1273
(dp1274
g62
(dp1275
g70
I4
ssg71
g1269
sg64
(lp1276
g203
asbasbasbag57
(g73
g59
NtRp1277
(dp1278
g62
(dp1279
sg71
g835
sg64
(lp1280
g57
(g78
g59
NtRp1281
(dp1282
g62
(dp1283
g82
g83
ssg71
g1277
sg64
(lp1284
S'remote_port'
p1285
asbag57
(g78
g59
NtRp1286
(dp1287
g62
(dp1288
g89
g90
ssg71
g1277
sg64
(lp1289
S':'
asbag57
(g78
g59
NtRp1290
(dp1291
g62
(dp1292
sg71
g1277
sg64
(lp1293
g57
(g58
g59
NtRp1294
(dp1295
g62
(dp1296
g70
I4
ssg71
g1290
sg64
(lp1297
S'33100'
p1298
asbasbasbag57
(g73
g59
NtRp1299
(dp1300
g62
(dp1301
sg71
g835
sg64
(lp1302
g57
(g78
g59
NtRp1303
(dp1304
g62
(dp1305
g82
g83
ssg71
g1299
sg64
(lp1306
S'request_method'
p1307
asbag57
(g78
g59
NtRp1308
(dp1309
g62
(dp1310
g89
g90
ssg71
g1299
sg64
(lp1311
S':'
asbag57
(g78
g59
NtRp1312
(dp1313
g62
(dp1314
sg71
g1299
sg64
(lp1315
g57
(g58
g59
NtRp1316
(dp1317
g62
(dp1318
g70
I4
ssg71
g1312
sg64
(lp1319
S'GET'
p1320
asbasbasbag57
(g73
g59
NtRp1321
(dp1322
g62
(dp1323
sg71
g835
sg64
(lp1324
g57
(g78
g59
NtRp1325
(dp1326
g62
(dp1327
g82
g83
ssg71
g1321
sg64
(lp1328
S'script_name'
p1329
asbag57
(g78
g59
NtRp1330
(dp1331
g62
(dp1332
g89
g90
ssg71
g1321
sg64
(lp1333
S':'
asbag57
(g78
g59
NtRp1334
(dp1335
g62
(dp1336
sg71
g1321
sg64
(lp1337
g57
(g58
g59
NtRp1338
(dp1339
g62
(dp1340
g70
I4
ssg71
g1334
sg64
(lp1341
S''
asbasbasbag57
(g73
g59
NtRp1342
(dp1343
g62
(dp1344
sg71
g835
sg64
(lp1345
g57
(g78
g59
NtRp1346
(dp1347
g62
(dp1348
g82
g83
ssg71
g1342
sg64
(lp1349
S'server_name'
p1350
asbag57
(g78
g59
NtRp1351
(dp1352
g62
(dp1353
g89
g90
ssg71
g1342
sg64
(lp1354
S':'
asbag57
(g78
g59
NtRp1355
(dp1356
g62
(dp1357
sg71
g1342
sg64
(lp1358
g57
(g58
g59
NtRp1359
(dp1360
g62
(dp1361
g70
I4
ssg71
g1355
sg64
(lp1362
S'unic-Inspiron-N5050'
p1363
asbasbasbag57
(g73
g59
NtRp1364
(dp1365
g62
(dp1366
sg71
g835
sg64
(lp1367
g57
(g78
g59
NtRp1368
(dp1369
g62
(dp1370
g82
g83
ssg71
g1364
sg64
(lp1371
S'server_port'
p1372
asbag57
(g78
g59
NtRp1373
(dp1374
g62
(dp1375
g89
g90
ssg71
g1364
sg64
(lp1376
S':'
asbag57
(g78
g59
NtRp1377
(dp1378
g62
(dp1379
sg71
g1364
sg64
(lp1380
g57
(g58
g59
NtRp1381
(dp1382
g62
(dp1383
g70
I4
ssg71
g1377
sg64
(lp1384
S'8000'
p1385
asbasbasbag57
(g73
g59
NtRp1386
(dp1387
g62
(dp1388
sg71
g835
sg64
(lp1389
g57
(g78
g59
NtRp1390
(dp1391
g62
(dp1392
g82
g83
ssg71
g1386
sg64
(lp1393
S'server_protocol'
p1394
asbag57
(g78
g59
NtRp1395
(dp1396
g62
(dp1397
g89
g90
ssg71
g1386
sg64
(lp1398
S':'
asbag57
(g78
g59
NtRp1399
(dp1400
g62
(dp1401
sg71
g1386
sg64
(lp1402
g57
(g58
g59
NtRp1403
(dp1404
g62
(dp1405
g70
I4
ssg71
g1399
sg64
(lp1406
S'HTTP/1.1'
p1407
asbasbasbag57
(g73
g59
NtRp1408
(dp1409
g62
(dp1410
sg71
g835
sg64
(lp1411
g57
(g78
g59
NtRp1412
(dp1413
g62
(dp1414
g82
g83
ssg71
g1408
sg64
(lp1415
S'server_software'
p1416
asbag57
(g78
g59
NtRp1417
(dp1418
g62
(dp1419
g89
g90
ssg71
g1408
sg64
(lp1420
S':'
asbag57
(g78
g59
NtRp1421
(dp1422
g62
(dp1423
sg71
g1408
sg64
(lp1424
g57
(g58
g59
NtRp1425
(dp1426
g62
(dp1427
g70
I4
ssg71
g1421
sg64
(lp1428
S'Rocket 1.2.4'
p1429
asbasbasbag57
(g73
g59
NtRp1430
(dp1431
g62
(dp1432
sg71
g835
sg64
(lp1433
g57
(g78
g59
NtRp1434
(dp1435
g62
(dp1436
g82
g83
ssg71
g1430
sg64
(lp1437
S'web2py_crontype'
p1438
asbag57
(g78
g59
NtRp1439
(dp1440
g62
(dp1441
g89
g90
ssg71
g1430
sg64
(lp1442
S':'
asbag57
(g78
g59
NtRp1443
(dp1444
g62
(dp1445
sg71
g1430
sg64
(lp1446
g57
(g58
g59
NtRp1447
(dp1448
g62
(dp1449
g70
I4
ssg71
g1443
sg64
(lp1450
S'hard'
p1451
asbasbasbag57
(g73
g59
NtRp1452
(dp1453
g62
(dp1454
sg71
g835
sg64
(lp1455
g57
(g78
g59
NtRp1456
(dp1457
g62
(dp1458
g82
g83
ssg71
g1452
sg64
(lp1459
S'web2py_path'
p1460
asbag57
(g78
g59
NtRp1461
(dp1462
g62
(dp1463
g89
g90
ssg71
g1452
sg64
(lp1464
S':'
asbag57
(g78
g59
NtRp1465
(dp1466
g62
(dp1467
sg71
g1452
sg64
(lp1468
g57
(g58
g59
NtRp1469
(dp1470
g62
(dp1471
g70
I4
ssg71
g1465
sg64
(lp1472
g882
asbasbasbag57
(g73
g59
NtRp1473
(dp1474
g62
(dp1475
sg71
g835
sg64
(lp1476
g57
(g78
g59
NtRp1477
(dp1478
g62
(dp1479
g82
g83
ssg71
g1473
sg64
(lp1480
S'web2py_version'
p1481
asbag57
(g78
g59
NtRp1482
(dp1483
g62
(dp1484
g89
g90
ssg71
g1473
sg64
(lp1485
S':'
asbag57
(g78
g59
NtRp1486
(dp1487
g62
(dp1488
sg71
g1473
sg64
(lp1489
g57
(g58
g59
NtRp1490
(dp1491
g62
(dp1492
g70
I4
ssg71
g1486
sg64
(lp1493
g57
(g66
g59
NtRp1494
(dp1495
g62
(dp1496
g70
I3
ssg71
Nsg64
(lp1497
g57
(g73
g59
NtRp1498
(dp1499
g62
(dp1500
sg71
g1494
sg64
(lp1501
g57
(g78
g59
NtRp1502
(dp1503
g62
(dp1504
sg71
g1498
sg64
(lp1505
g57
(g58
g59
NtRp1506
(dp1507
g62
(dp1508
g70
I3
ssg71
g1502
sg64
(lp1509
S'1'
asbasbasbag57
(g73
g59
NtRp1510
(dp1511
g62
(dp1512
sg71
g1494
sg64
(lp1513
g57
(g78
g59
NtRp1514
(dp1515
g62
(dp1516
sg71
g1510
sg64
(lp1517
g57
(g58
g59
NtRp1518
(dp1519
g62
(dp1520
g70
I3
ssg71
g1514
sg64
(lp1521
S'99'
p1522
asbasbasbag57
(g73
g59
NtRp1523
(dp1524
g62
(dp1525
sg71
g1494
sg64
(lp1526
g57
(g78
g59
NtRp1527
(dp1528
g62
(dp1529
sg71
g1523
sg64
(lp1530
g57
(g58
g59
NtRp1531
(dp1532
g62
(dp1533
g70
I3
ssg71
g1527
sg64
(lp1534
S'4'
asbasbasbag57
(g73
g59
NtRp1535
(dp1536
g62
(dp1537
sg71
g1494
sg64
(lp1538
g57
(g78
g59
NtRp1539
(dp1540
g62
(dp1541
sg71
g1535
sg64
(lp1542
g57
(g58
g59
NtRp1543
(dp1544
g62
(dp1545
g70
I3
ssg71
g1539
sg64
(lp1546
S'datetime.datetime(2011, 12, 14, 14, 46, 14)'
p1547
asbasbasbag57
(g73
g59
NtRp1548
(dp1549
g62
(dp1550
sg71
g1494
sg64
(lp1551
g57
(g78
g59
NtRp1552
(dp1553
g62
(dp1554
sg71
g1548
sg64
(lp1555
g57
(g58
g59
NtRp1556
(dp1557
g62
(dp1558
g70
I3
ssg71
g1552
sg64
(lp1559
S'stable'
p1560
asbasbasbasbasbasbasbag57
(g73
g59
NtRp1561
(dp1562
g62
(dp1563
sg71
g835
sg64
(lp1564
g57
(g78
g59
NtRp1565
(dp1566
g62
(dp1567
g82
g83
ssg71
g1561
sg64
(lp1568
S'wsgi_errors'
p1569
asbag57
(g78
g59
NtRp1570
(dp1571
g62
(dp1572
g89
g90
ssg71
g1561
sg64
(lp1573
S':'
asbag57
(g78
g59
NtRp1574
(dp1575
g62
(dp1576
sg71
g1561
sg64
(lp1577
g57
(g58
g59
NtRp1578
(dp1579
g62
(dp1580
g70
I4
ssg71
g1574
sg64
(lp1581
S"<open file '<stderr>', mode 'w' at 0xb72ce0d0>"
p1582
asbasbasbag57
(g73
g59
NtRp1583
(dp1584
g62
(dp1585
sg71
g835
sg64
(lp1586
g57
(g78
g59
NtRp1587
(dp1588
g62
(dp1589
g82
g83
ssg71
g1583
sg64
(lp1590
S'wsgi_file_wrapper'
p1591
asbag57
(g78
g59
NtRp1592
(dp1593
g62
(dp1594
g89
g90
ssg71
g1583
sg64
(lp1595
S':'
asbag57
(g78
g59
NtRp1596
(dp1597
g62
(dp1598
sg71
g1583
sg64
(lp1599
g57
(g58
g59
NtRp1600
(dp1601
g62
(dp1602
g70
I4
ssg71
g1596
sg64
(lp1603
S'<class wsgiref.util.FileWrapper at 0xa6ab4ac>'
p1604
asbasbasbag57
(g73
g59
NtRp1605
(dp1606
g62
(dp1607
sg71
g835
sg64
(lp1608
g57
(g78
g59
NtRp1609
(dp1610
g62
(dp1611
g82
g83
ssg71
g1605
sg64
(lp1612
S'wsgi_input'
p1613
asbag57
(g78
g59
NtRp1614
(dp1615
g62
(dp1616
g89
g90
ssg71
g1605
sg64
(lp1617
S':'
asbag57
(g78
g59
NtRp1618
(dp1619
g62
(dp1620
sg71
g1605
sg64
(lp1621
g57
(g58
g59
NtRp1622
(dp1623
g62
(dp1624
g70
I4
ssg71
g1618
sg64
(lp1625
S'<socket._fileobject object at 0xb358406c>'
p1626
asbasbasbag57
(g73
g59
NtRp1627
(dp1628
g62
(dp1629
sg71
g835
sg64
(lp1630
g57
(g78
g59
NtRp1631
(dp1632
g62
(dp1633
g82
g83
ssg71
g1627
sg64
(lp1634
S'wsgi_multiprocess'
p1635
asbag57
(g78
g59
NtRp1636
(dp1637
g62
(dp1638
g89
g90
ssg71
g1627
sg64
(lp1639
S':'
asbag57
(g78
g59
NtRp1640
(dp1641
g62
(dp1642
sg71
g1627
sg64
(lp1643
g57
(g58
g59
NtRp1644
(dp1645
g62
(dp1646
g70
I4
ssg71
g1640
sg64
(lp1647
g100
asbasbasbag57
(g73
g59
NtRp1648
(dp1649
g62
(dp1650
sg71
g835
sg64
(lp1651
g57
(g78
g59
NtRp1652
(dp1653
g62
(dp1654
g82
g83
ssg71
g1648
sg64
(lp1655
S'wsgi_multithread'
p1656
asbag57
(g78
g59
NtRp1657
(dp1658
g62
(dp1659
g89
g90
ssg71
g1648
sg64
(lp1660
S':'
asbag57
(g78
g59
NtRp1661
(dp1662
g62
(dp1663
sg71
g1648
sg64
(lp1664
g57
(g58
g59
NtRp1665
(dp1666
g62
(dp1667
g70
I4
ssg71
g1661
sg64
(lp1668
S'True'
p1669
asbasbasbag57
(g73
g59
NtRp1670
(dp1671
g62
(dp1672
sg71
g835
sg64
(lp1673
g57
(g78
g59
NtRp1674
(dp1675
g62
(dp1676
g82
g83
ssg71
g1670
sg64
(lp1677
S'wsgi_run_once'
p1678
asbag57
(g78
g59
NtRp1679
(dp1680
g62
(dp1681
g89
g90
ssg71
g1670
sg64
(lp1682
S':'
asbag57
(g78
g59
NtRp1683
(dp1684
g62
(dp1685
sg71
g1670
sg64
(lp1686
g57
(g58
g59
NtRp1687
(dp1688
g62
(dp1689
g70
I4
ssg71
g1683
sg64
(lp1690
g100
asbasbasbag57
(g73
g59
NtRp1691
(dp1692
g62
(dp1693
sg71
g835
sg64
(lp1694
g57
(g78
g59
NtRp1695
(dp1696
g62
(dp1697
g82
g83
ssg71
g1691
sg64
(lp1698
S'wsgi_url_scheme'
p1699
asbag57
(g78
g59
NtRp1700
(dp1701
g62
(dp1702
g89
g90
ssg71
g1691
sg64
(lp1703
S':'
asbag57
(g78
g59
NtRp1704
(dp1705
g62
(dp1706
sg71
g1691
sg64
(lp1707
g57
(g58
g59
NtRp1708
(dp1709
g62
(dp1710
g70
I4
ssg71
g1704
sg64
(lp1711
S'http'
p1712
asbasbasbag57
(g73
g59
NtRp1713
(dp1714
g62
(dp1715
sg71
g835
sg64
(lp1716
g57
(g78
g59
NtRp1717
(dp1718
g62
(dp1719
g82
g83
ssg71
g1713
sg64
(lp1720
S'wsgi_version'
p1721
asbag57
(g78
g59
NtRp1722
(dp1723
g62
(dp1724
g89
g90
ssg71
g1713
sg64
(lp1725
S':'
asbag57
(g78
g59
NtRp1726
(dp1727
g62
(dp1728
sg71
g1713
sg64
(lp1729
g57
(g58
g59
NtRp1730
(dp1731
g62
(dp1732
g70
I4
ssg71
g1726
sg64
(lp1733
g57
(g66
g59
NtRp1734
(dp1735
g62
(dp1736
g70
I3
ssg71
Nsg64
(lp1737
g57
(g73
g59
NtRp1738
(dp1739
g62
(dp1740
sg71
g1734
sg64
(lp1741
g57
(g78
g59
NtRp1742
(dp1743
g62
(dp1744
sg71
g1738
sg64
(lp1745
g57
(g58
g59
NtRp1746
(dp1747
g62
(dp1748
g70
I3
ssg71
g1742
sg64
(lp1749
S'1'
asbasbasbag57
(g73
g59
NtRp1750
(dp1751
g62
(dp1752
sg71
g1734
sg64
(lp1753
g57
(g78
g59
NtRp1754
(dp1755
g62
(dp1756
sg71
g1750
sg64
(lp1757
g57
(g58
g59
NtRp1758
(dp1759
g62
(dp1760
g70
I3
ssg71
g1754
sg64
(lp1761
S'0'
asbasbasbasbasbasbasbasbasbasbasbag57
(g73
g59
NtRp1762
(dp1763
g62
(dp1764
sg71
g67
sg64
(lp1765
g57
(g78
g59
NtRp1766
(dp1767
g62
(dp1768
g82
g83
ssg71
g1762
sg64
(lp1769
S'extension'
p1770
asbag57
(g78
g59
NtRp1771
(dp1772
g62
(dp1773
g89
g90
ssg71
g1762
sg64
(lp1774
S':'
asbag57
(g78
g59
NtRp1775
(dp1776
g62
(dp1777
sg71
g1762
sg64
(lp1778
g57
(g58
g59
NtRp1779
(dp1780
g62
(dp1781
g70
I5
ssg71
g1775
sg64
(lp1782
S'html'
p1783
asbasbasbag57
(g73
g59
NtRp1784
(dp1785
g62
(dp1786
sg71
g67
sg64
(lp1787
g57
(g78
g59
NtRp1788
(dp1789
g62
(dp1790
g82
g83
ssg71
g1784
sg64
(lp1791
S'folder'
p1792
asbag57
(g78
g59
NtRp1793
(dp1794
g62
(dp1795
g89
g90
ssg71
g1784
sg64
(lp1796
S':'
asbag57
(g78
g59
NtRp1797
(dp1798
g62
(dp1799
sg71
g1784
sg64
(lp1800
g57
(g58
g59
NtRp1801
(dp1802
g62
(dp1803
g70
I5
ssg71
g1797
sg64
(lp1804
S'/home/unic/web2py/applications/Award_Manager/'
p1805
asbasbasbag57
(g73
g59
NtRp1806
(dp1807
g62
(dp1808
sg71
g67
sg64
(lp1809
g57
(g78
g59
NtRp1810
(dp1811
g62
(dp1812
g82
g83
ssg71
g1806
sg64
(lp1813
S'function'
p1814
asbag57
(g78
g59
NtRp1815
(dp1816
g62
(dp1817
g89
g90
ssg71
g1806
sg64
(lp1818
S':'
asbag57
(g78
g59
NtRp1819
(dp1820
g62
(dp1821
sg71
g1806
sg64
(lp1822
g57
(g58
g59
NtRp1823
(dp1824
g62
(dp1825
g70
I5
ssg71
g1819
sg64
(lp1826
S'total'
p1827
asbasbasbag57
(g73
g59
NtRp1828
(dp1829
g62
(dp1830
sg71
g67
sg64
(lp1831
g57
(g78
g59
NtRp1832
(dp1833
g62
(dp1834
g82
g83
ssg71
g1828
sg64
(lp1835
S'get_vars'
p1836
asbag57
(g78
g59
NtRp1837
(dp1838
g62
(dp1839
g89
g90
ssg71
g1828
sg64
(lp1840
S':'
asbag57
(g78
g59
NtRp1841
(dp1842
g62
(dp1843
sg71
g1828
sg64
(lp1844
g57
(g58
g59
NtRp1845
(dp1846
g62
(dp1847
g70
I5
ssg71
g1841
sg64
(lp1848
g57
(g66
g59
NtRp1849
(dp1850
g62
(dp1851
g70
I4
ssg71
Nsg64
(lp1852
sbasbasbasbag57
(g73
g59
NtRp1853
(dp1854
g62
(dp1855
sg71
g67
sg64
(lp1856
g57
(g78
g59
NtRp1857
(dp1858
g62
(dp1859
g82
g83
ssg71
g1853
sg64
(lp1860
S'global_settings'
p1861
asbag57
(g78
g59
NtRp1862
(dp1863
g62
(dp1864
g89
g90
ssg71
g1853
sg64
(lp1865
S':'
asbag57
(g78
g59
NtRp1866
(dp1867
g62
(dp1868
sg71
g1853
sg64
(lp1869
g57
(g58
g59
NtRp1870
(dp1871
g62
(dp1872
g70
I5
ssg71
g1866
sg64
(lp1873
g57
(g66
g59
NtRp1874
(dp1875
g62
(dp1876
g70
I4
ssg71
Nsg64
(lp1877
g57
(g73
g59
NtRp1878
(dp1879
g62
(dp1880
sg71
g1874
sg64
(lp1881
g57
(g78
g59
NtRp1882
(dp1883
g62
(dp1884
g82
g83
ssg71
g1878
sg64
(lp1885
g847
asbag57
(g78
g59
NtRp1886
(dp1887
g62
(dp1888
g89
g90
ssg71
g1878
sg64
(lp1889
S':'
asbag57
(g78
g59
NtRp1890
(dp1891
g62
(dp1892
sg71
g1878
sg64
(lp1893
g57
(g58
g59
NtRp1894
(dp1895
g62
(dp1896
g70
I4
ssg71
g1890
sg64
(lp1897
S"set(['/home/unic/web2py/applications/admin/', '/home/unic/web2py/applications/Award_Manager/', '/home/unic/web2py/applications/welcome/'])"
p1898
asbasbasbag57
(g73
g59
NtRp1899
(dp1900
g62
(dp1901
sg71
g1874
sg64
(lp1902
g57
(g78
g59
NtRp1903
(dp1904
g62
(dp1905
g82
g83
ssg71
g1899
sg64
(lp1906
g869
asbag57
(g78
g59
NtRp1907
(dp1908
g62
(dp1909
g89
g90
ssg71
g1899
sg64
(lp1910
S':'
asbag57
(g78
g59
NtRp1911
(dp1912
g62
(dp1913
sg71
g1899
sg64
(lp1914
g57
(g58
g59
NtRp1915
(dp1916
g62
(dp1917
g70
I4
ssg71
g1911
sg64
(lp1918
g882
asbasbasbag57
(g73
g59
NtRp1919
(dp1920
g62
(dp1921
sg71
g1874
sg64
(lp1922
g57
(g78
g59
NtRp1923
(dp1924
g62
(dp1925
g82
g83
ssg71
g1919
sg64
(lp1926
g891
asbag57
(g78
g59
NtRp1927
(dp1928
g62
(dp1929
g89
g90
ssg71
g1919
sg64
(lp1930
S':'
asbag57
(g78
g59
NtRp1931
(dp1932
g62
(dp1933
sg71
g1919
sg64
(lp1934
g57
(g58
g59
NtRp1935
(dp1936
g62
(dp1937
g70
I4
ssg71
g1931
sg64
(lp1938
g57
(g66
g59
NtRp1939
(dp1940
g62
(dp1941
g70
I3
ssg71
Nsg64
(lp1942
sbasbasbasbag57
(g73
g59
NtRp1943
(dp1944
g62
(dp1945
sg71
g1874
sg64
(lp1946
g57
(g78
g59
NtRp1947
(dp1948
g62
(dp1949
g82
g83
ssg71
g1943
sg64
(lp1950
g916
asbag57
(g78
g59
NtRp1951
(dp1952
g62
(dp1953
g89
g90
ssg71
g1943
sg64
(lp1954
S':'
asbag57
(g78
g59
NtRp1955
(dp1956
g62
(dp1957
sg71
g1943
sg64
(lp1958
g57
(g58
g59
NtRp1959
(dp1960
g62
(dp1961
g70
I4
ssg71
g1955
sg64
(lp1962
S"<Values at 0xa70080c: {'verbose': False, 'ip': '127.0.0.1', 'shutdown_timeout': 5, 'taskbar': False, 'port': 8000, 'maxthreads': None, 'softcron': False, 'server_name': 'unic-Inspiron-N5050', 'bpython': False, 'nogui': False, 'nocron': False, 'extcron': False, 'debuglevel': 30, 'test': None, 'folder': '/home/unic/web2py', 'config': '', 'import_models': False, 'winservice': '', 'shell': None, 'run': '', 'log_filename': 'httpserver.log', 'args': [''], 'socket_timeout': 1, 'profiler_filename': None, 'ssl_private_key': '', 'password': '<ask>', 'request_queue_size': 5, 'ssl_certificate': '', 'cronjob': False, 'plain': False, 'quiet': False, 'interfaces': None, 'minthreads': None, 'timeout': 10, 'numthreads': None, 'nobanner': False, 'pid_filename': 'httpserver.pid'}>"
p1963
asbasbasbag57
(g73
g59
NtRp1964
(dp1965
g62
(dp1966
sg71
g1874
sg64
(lp1967
g57
(g78
g59
NtRp1968
(dp1969
g62
(dp1970
g82
g83
ssg71
g1964
sg64
(lp1971
g938
asbag57
(g78
g59
NtRp1972
(dp1973
g62
(dp1974
g89
g90
ssg71
g1964
sg64
(lp1975
S':'
asbag57
(g78
g59
NtRp1976
(dp1977
g62
(dp1978
sg71
g1964
sg64
(lp1979
g57
(g58
g59
NtRp1980
(dp1981
g62
(dp1982
g70
I4
ssg71
g1976
sg64
(lp1983
S'set([])'
p1984
asbasbasbag57
(g73
g59
NtRp1985
(dp1986
g62
(dp1987
sg71
g1874
sg64
(lp1988
g57
(g78
g59
NtRp1989
(dp1990
g62
(dp1991
g82
g83
ssg71
g1985
sg64
(lp1992
g960
asbag57
(g78
g59
NtRp1993
(dp1994
g62
(dp1995
g89
g90
ssg71
g1985
sg64
(lp1996
S':'
asbag57
(g78
g59
NtRp1997
(dp1998
g62
(dp1999
sg71
g1985
sg64
(lp2000
g57
(g58
g59
NtRp2001
(dp2002
g62
(dp2003
g70
I4
ssg71
g1997
sg64
(lp2004
g100
asbasbasbag57
(g73
g59
NtRp2005
(dp2006
g62
(dp2007
sg71
g1874
sg64
(lp2008
g57
(g78
g59
NtRp2009
(dp2010
g62
(dp2011
g82
g83
ssg71
g2005
sg64
(lp2012
g981
asbag57
(g78
g59
NtRp2013
(dp2014
g62
(dp2015
g89
g90
ssg71
g2005
sg64
(lp2016
S':'
asbag57
(g78
g59
NtRp2017
(dp2018
g62
(dp2019
sg71
g2005
sg64
(lp2020
g57
(g58
g59
NtRp2021
(dp2022
g62
(dp2023
g70
I4
ssg71
g2017
sg64
(lp2024
g994
asbasbasbag57
(g73
g59
NtRp2025
(dp2026
g62
(dp2027
sg71
g1874
sg64
(lp2028
g57
(g78
g59
NtRp2029
(dp2030
g62
(dp2031
g82
g83
ssg71
g2025
sg64
(lp2032
g1179
asbag57
(g78
g59
NtRp2033
(dp2034
g62
(dp2035
g89
g90
ssg71
g2025
sg64
(lp2036
S':'
asbag57
(g78
g59
NtRp2037
(dp2038
g62
(dp2039
sg71
g2025
sg64
(lp2040
g57
(g58
g59
NtRp2041
(dp2042
g62
(dp2043
g70
I4
ssg71
g2037
sg64
(lp2044
g100
asbasbasbag57
(g73
g59
NtRp2045
(dp2046
g62
(dp2047
sg71
g1874
sg64
(lp2048
g57
(g78
g59
NtRp2049
(dp2050
g62
(dp2051
g82
g83
ssg71
g2045
sg64
(lp2052
g1200
asbag57
(g78
g59
NtRp2053
(dp2054
g62
(dp2055
g89
g90
ssg71
g2045
sg64
(lp2056
S':'
asbag57
(g78
g59
NtRp2057
(dp2058
g62
(dp2059
sg71
g2045
sg64
(lp2060
g57
(g58
g59
NtRp2061
(dp2062
g62
(dp2063
g70
I4
ssg71
g2057
sg64
(lp2064
g100
asbasbasbag57
(g73
g59
NtRp2065
(dp2066
g62
(dp2067
sg71
g1874
sg64
(lp2068
g57
(g78
g59
NtRp2069
(dp2070
g62
(dp2071
g82
g83
ssg71
g2065
sg64
(lp2072
g1438
asbag57
(g78
g59
NtRp2073
(dp2074
g62
(dp2075
g89
g90
ssg71
g2065
sg64
(lp2076
S':'
asbag57
(g78
g59
NtRp2077
(dp2078
g62
(dp2079
sg71
g2065
sg64
(lp2080
g57
(g58
g59
NtRp2081
(dp2082
g62
(dp2083
g70
I4
ssg71
g2077
sg64
(lp2084
g1451
asbasbasbag57
(g73
g59
NtRp2085
(dp2086
g62
(dp2087
sg71
g1874
sg64
(lp2088
g57
(g78
g59
NtRp2089
(dp2090
g62
(dp2091
g82
g83
ssg71
g2085
sg64
(lp2092
g1481
asbag57
(g78
g59
NtRp2093
(dp2094
g62
(dp2095
g89
g90
ssg71
g2085
sg64
(lp2096
S':'
asbag57
(g78
g59
NtRp2097
(dp2098
g62
(dp2099
sg71
g2085
sg64
(lp2100
g57
(g58
g59
NtRp2101
(dp2102
g62
(dp2103
g70
I4
ssg71
g2097
sg64
(lp2104
g57
(g66
g59
NtRp2105
(dp2106
g62
(dp2107
g70
I3
ssg71
Nsg64
(lp2108
g57
(g73
g59
NtRp2109
(dp2110
g62
(dp2111
sg71
g2105
sg64
(lp2112
g57
(g78
g59
NtRp2113
(dp2114
g62
(dp2115
sg71
g2109
sg64
(lp2116
g57
(g58
g59
NtRp2117
(dp2118
g62
(dp2119
g70
I3
ssg71
g2113
sg64
(lp2120
S'1'
asbasbasbag57
(g73
g59
NtRp2121
(dp2122
g62
(dp2123
sg71
g2105
sg64
(lp2124
g57
(g78
g59
NtRp2125
(dp2126
g62
(dp2127
sg71
g2121
sg64
(lp2128
g57
(g58
g59
NtRp2129
(dp2130
g62
(dp2131
g70
I3
ssg71
g2125
sg64
(lp2132
S'99'
p2133
asbasbasbag57
(g73
g59
NtRp2134
(dp2135
g62
(dp2136
sg71
g2105
sg64
(lp2137
g57
(g78
g59
NtRp2138
(dp2139
g62
(dp2140
sg71
g2134
sg64
(lp2141
g57
(g58
g59
NtRp2142
(dp2143
g62
(dp2144
g70
I3
ssg71
g2138
sg64
(lp2145
S'4'
asbasbasbag57
(g73
g59
NtRp2146
(dp2147
g62
(dp2148
sg71
g2105
sg64
(lp2149
g57
(g78
g59
NtRp2150
(dp2151
g62
(dp2152
sg71
g2146
sg64
(lp2153
g57
(g58
g59
NtRp2154
(dp2155
g62
(dp2156
g70
I3
ssg71
g2150
sg64
(lp2157
S'datetime.datetime(2011, 12, 14, 14, 46, 14)'
p2158
asbasbasbag57
(g73
g59
NtRp2159
(dp2160
g62
(dp2161
sg71
g2105
sg64
(lp2162
g57
(g78
g59
NtRp2163
(dp2164
g62
(dp2165
sg71
g2159
sg64
(lp2166
g57
(g58
g59
NtRp2167
(dp2168
g62
(dp2169
g70
I3
ssg71
g2163
sg64
(lp2170
g1560
asbasbasbasbasbasbasbasbasbasbasbag57
(g73
g59
NtRp2171
(dp2172
g62
(dp2173
sg71
g67
sg64
(lp2174
g57
(g78
g59
NtRp2175
(dp2176
g62
(dp2177
g82
g83
ssg71
g2171
sg64
(lp2178
S'is_https'
p2179
asbag57
(g78
g59
NtRp2180
(dp2181
g62
(dp2182
g89
g90
ssg71
g2171
sg64
(lp2183
S':'
asbag57
(g78
g59
NtRp2184
(dp2185
g62
(dp2186
sg71
g2171
sg64
(lp2187
g57
(g58
g59
NtRp2188
(dp2189
g62
(dp2190
g70
I5
ssg71
g2184
sg64
(lp2191
g100
asbasbasbag57
(g73
g59
NtRp2192
(dp2193
g62
(dp2194
sg71
g67
sg64
(lp2195
g57
(g78
g59
NtRp2196
(dp2197
g62
(dp2198
g82
g83
ssg71
g2192
sg64
(lp2199
S'is_local'
p2200
asbag57
(g78
g59
NtRp2201
(dp2202
g62
(dp2203
g89
g90
ssg71
g2192
sg64
(lp2204
S':'
asbag57
(g78
g59
NtRp2205
(dp2206
g62
(dp2207
sg71
g2192
sg64
(lp2208
g57
(g58
g59
NtRp2209
(dp2210
g62
(dp2211
g70
I5
ssg71
g2205
sg64
(lp2212
g1669
asbasbasbag57
(g73
g59
NtRp2213
(dp2214
g62
(dp2215
sg71
g67
sg64
(lp2216
g57
(g78
g59
NtRp2217
(dp2218
g62
(dp2219
g82
g83
ssg71
g2213
sg64
(lp2220
S'is_restful'
p2221
asbag57
(g78
g59
NtRp2222
(dp2223
g62
(dp2224
g89
g90
ssg71
g2213
sg64
(lp2225
S':'
asbag57
(g78
g59
NtRp2226
(dp2227
g62
(dp2228
sg71
g2213
sg64
(lp2229
g57
(g58
g59
NtRp2230
(dp2231
g62
(dp2232
g70
I5
ssg71
g2226
sg64
(lp2233
g100
asbasbasbag57
(g73
g59
NtRp2234
(dp2235
g62
(dp2236
sg71
g67
sg64
(lp2237
g57
(g78
g59
NtRp2238
(dp2239
g62
(dp2240
g82
g83
ssg71
g2234
sg64
(lp2241
S'now'
p2242
asbag57
(g78
g59
NtRp2243
(dp2244
g62
(dp2245
g89
g90
ssg71
g2234
sg64
(lp2246
S':'
asbag57
(g78
g59
NtRp2247
(dp2248
g62
(dp2249
sg71
g2234
sg64
(lp2250
g57
(g58
g59
NtRp2251
(dp2252
g62
(dp2253
g70
I5
ssg71
g2247
sg64
(lp2254
S'datetime.datetime(2012, 11, 4, 15, 18, 3, 540359)'
p2255
asbasbasbag57
(g73
g59
NtRp2256
(dp2257
g62
(dp2258
sg71
g67
sg64
(lp2259
g57
(g78
g59
NtRp2260
(dp2261
g62
(dp2262
g82
g83
ssg71
g2256
sg64
(lp2263
S'post_vars'
p2264
asbag57
(g78
g59
NtRp2265
(dp2266
g62
(dp2267
g89
g90
ssg71
g2256
sg64
(lp2268
S':'
asbag57
(g78
g59
NtRp2269
(dp2270
g62
(dp2271
sg71
g2256
sg64
(lp2272
g57
(g58
g59
NtRp2273
(dp2274
g62
(dp2275
g70
I5
ssg71
g2269
sg64
(lp2276
g57
(g66
g59
NtRp2277
(dp2278
g62
(dp2279
g70
I4
ssg71
Nsg64
(lp2280
sbasbasbasbag57
(g73
g59
NtRp2281
(dp2282
g62
(dp2283
sg71
g67
sg64
(lp2284
g57
(g78
g59
NtRp2285
(dp2286
g62
(dp2287
g82
g83
ssg71
g2281
sg64
(lp2288
S'raw_args'
p2289
asbag57
(g78
g59
NtRp2290
(dp2291
g62
(dp2292
g89
g90
ssg71
g2281
sg64
(lp2293
S':'
asbag57
(g78
g59
NtRp2294
(dp2295
g62
(dp2296
sg71
g2281
sg64
(lp2297
g57
(g58
g59
NtRp2298
(dp2299
g62
(dp2300
g70
I5
ssg71
g2294
sg64
(lp2301
g159
asbasbasbag57
(g73
g59
NtRp2302
(dp2303
g62
(dp2304
sg71
g67
sg64
(lp2305
g57
(g78
g59
NtRp2306
(dp2307
g62
(dp2308
g82
g83
ssg71
g2302
sg64
(lp2309
S'url'
p2310
asbag57
(g78
g59
NtRp2311
(dp2312
g62
(dp2313
g89
g90
ssg71
g2302
sg64
(lp2314
S':'
asbag57
(g78
g59
NtRp2315
(dp2316
g62
(dp2317
sg71
g2302
sg64
(lp2318
g57
(g58
g59
NtRp2319
(dp2320
g62
(dp2321
g70
I5
ssg71
g2315
sg64
(lp2322
S'/Award_Manager/default/total/Output.Total'
p2323
asbasbasbag57
(g73
g59
NtRp2324
(dp2325
g62
(dp2326
sg71
g67
sg64
(lp2327
g57
(g78
g59
NtRp2328
(dp2329
g62
(dp2330
g82
g83
ssg71
g2324
sg64
(lp2331
S'utcnow'
p2332
asbag57
(g78
g59
NtRp2333
(dp2334
g62
(dp2335
g89
g90
ssg71
g2324
sg64
(lp2336
S':'
asbag57
(g78
g59
NtRp2337
(dp2338
g62
(dp2339
sg71
g2324
sg64
(lp2340
g57
(g58
g59
NtRp2341
(dp2342
g62
(dp2343
g70
I5
ssg71
g2337
sg64
(lp2344
S'datetime.datetime(2012, 11, 4, 9, 48, 3, 540416)'
p2345
asbasbasbag57
(g73
g59
NtRp2346
(dp2347
g62
(dp2348
sg71
g67
sg64
(lp2349
g57
(g78
g59
NtRp2350
(dp2351
g62
(dp2352
g82
g83
ssg71
g2346
sg64
(lp2353
S'uuid'
p2354
asbag57
(g78
g59
NtRp2355
(dp2356
g62
(dp2357
g89
g90
ssg71
g2346
sg64
(lp2358
S':'
asbag57
(g78
g59
NtRp2359
(dp2360
g62
(dp2361
sg71
g2346
sg64
(lp2362
g57
(g58
g59
NtRp2363
(dp2364
g62
(dp2365
g70
I5
ssg71
g2359
sg64
(lp2366
S'Award_Manager/127.0.0.1.2012-11-04.15-18-03.c3e3f386-bfdc-410b-9b50-cc840d4a9561'
p2367
asbasbasbag57
(g73
g59
NtRp2368
(dp2369
g62
(dp2370
sg71
g67
sg64
(lp2371
g57
(g78
g59
NtRp2372
(dp2373
g62
(dp2374
g82
g83
ssg71
g2368
sg64
(lp2375
S'vars'
p2376
asbag57
(g78
g59
NtRp2377
(dp2378
g62
(dp2379
g89
g90
ssg71
g2368
sg64
(lp2380
S':'
asbag57
(g78
g59
NtRp2381
(dp2382
g62
(dp2383
sg71
g2368
sg64
(lp2384
g57
(g58
g59
NtRp2385
(dp2386
g62
(dp2387
g70
I5
ssg71
g2381
sg64
(lp2388
g57
(g66
g59
NtRp2389
(dp2390
g62
(dp2391
g70
I4
ssg71
Nsg64
(lp2392
sbasbasbasbag57
(g73
g59
NtRp2393
(dp2394
g62
(dp2395
sg71
g67
sg64
(lp2396
g57
(g78
g59
NtRp2397
(dp2398
g62
(dp2399
g82
g83
ssg71
g2393
sg64
(lp2400
S'wsgi'
p2401
asbag57
(g78
g59
NtRp2402
(dp2403
g62
(dp2404
g89
g90
ssg71
g2393
sg64
(lp2405
S':'
asbag57
(g78
g59
NtRp2406
(dp2407
g62
(dp2408
sg71
g2393
sg64
(lp2409
g57
(g58
g59
NtRp2410
(dp2411
g62
(dp2412
g70
I5
ssg71
g2406
sg64
(lp2413
g57
(g66
g59
NtRp2414
(dp2415
g62
(dp2416
g70
I4
ssg71
Nsg64
(lp2417
g57
(g73
g59
NtRp2418
(dp2419
g62
(dp2420
sg71
g2414
sg64
(lp2421
g57
(g78
g59
NtRp2422
(dp2423
g62
(dp2424
g82
g83
ssg71
g2418
sg64
(lp2425
S'environ'
p2426
asbag57
(g78
g59
NtRp2427
(dp2428
g62
(dp2429
g89
g90
ssg71
g2418
sg64
(lp2430
S':'
asbag57
(g78
g59
NtRp2431
(dp2432
g62
(dp2433
sg71
g2418
sg64
(lp2434
g57
(g58
g59
NtRp2435
(dp2436
g62
(dp2437
g70
I4
ssg71
g2431
sg64
(lp2438
g57
(g66
g59
NtRp2439
(dp2440
g62
(dp2441
g70
I3
ssg71
Nsg64
(lp2442
g57
(g73
g59
NtRp2443
(dp2444
g62
(dp2445
sg71
g2439
sg64
(lp2446
g57
(g78
g59
NtRp2447
(dp2448
g62
(dp2449
g82
g83
ssg71
g2443
sg64
(lp2450
S'HTTP_ACCEPT'
p2451
asbag57
(g78
g59
NtRp2452
(dp2453
g62
(dp2454
g89
g90
ssg71
g2443
sg64
(lp2455
S':'
asbag57
(g78
g59
NtRp2456
(dp2457
g62
(dp2458
sg71
g2443
sg64
(lp2459
g57
(g58
g59
NtRp2460
(dp2461
g62
(dp2462
g70
I3
ssg71
g2456
sg64
(lp2463
g1016
asbasbasbag57
(g73
g59
NtRp2464
(dp2465
g62
(dp2466
sg71
g2439
sg64
(lp2467
g57
(g78
g59
NtRp2468
(dp2469
g62
(dp2470
g82
g83
ssg71
g2464
sg64
(lp2471
S'HTTP_ACCEPT_ENCODING'
p2472
asbag57
(g78
g59
NtRp2473
(dp2474
g62
(dp2475
g89
g90
ssg71
g2464
sg64
(lp2476
S':'
asbag57
(g78
g59
NtRp2477
(dp2478
g62
(dp2479
sg71
g2464
sg64
(lp2480
g57
(g58
g59
NtRp2481
(dp2482
g62
(dp2483
g70
I3
ssg71
g2477
sg64
(lp2484
g1038
asbasbasbag57
(g73
g59
NtRp2485
(dp2486
g62
(dp2487
sg71
g2439
sg64
(lp2488
g57
(g78
g59
NtRp2489
(dp2490
g62
(dp2491
g82
g83
ssg71
g2485
sg64
(lp2492
S'HTTP_ACCEPT_LANGUAGE'
p2493
asbag57
(g78
g59
NtRp2494
(dp2495
g62
(dp2496
g89
g90
ssg71
g2485
sg64
(lp2497
S':'
asbag57
(g78
g59
NtRp2498
(dp2499
g62
(dp2500
sg71
g2485
sg64
(lp2501
g57
(g58
g59
NtRp2502
(dp2503
g62
(dp2504
g70
I3
ssg71
g2498
sg64
(lp2505
g1060
asbasbasbag57
(g73
g59
NtRp2506
(dp2507
g62
(dp2508
sg71
g2439
sg64
(lp2509
g57
(g78
g59
NtRp2510
(dp2511
g62
(dp2512
g82
g83
ssg71
g2506
sg64
(lp2513
S'HTTP_CONNECTION'
p2514
asbag57
(g78
g59
NtRp2515
(dp2516
g62
(dp2517
g89
g90
ssg71
g2506
sg64
(lp2518
S':'
asbag57
(g78
g59
NtRp2519
(dp2520
g62
(dp2521
sg71
g2506
sg64
(lp2522
g57
(g58
g59
NtRp2523
(dp2524
g62
(dp2525
g70
I3
ssg71
g2519
sg64
(lp2526
g1082
asbasbasbag57
(g73
g59
NtRp2527
(dp2528
g62
(dp2529
sg71
g2439
sg64
(lp2530
g57
(g78
g59
NtRp2531
(dp2532
g62
(dp2533
g82
g83
ssg71
g2527
sg64
(lp2534
S'HTTP_COOKIE'
p2535
asbag57
(g78
g59
NtRp2536
(dp2537
g62
(dp2538
g89
g90
ssg71
g2527
sg64
(lp2539
S':'
asbag57
(g78
g59
NtRp2540
(dp2541
g62
(dp2542
sg71
g2527
sg64
(lp2543
g57
(g58
g59
NtRp2544
(dp2545
g62
(dp2546
g70
I3
ssg71
g2540
sg64
(lp2547
g1104
asbasbasbag57
(g73
g59
NtRp2548
(dp2549
g62
(dp2550
sg71
g2439
sg64
(lp2551
g57
(g78
g59
NtRp2552
(dp2553
g62
(dp2554
g82
g83
ssg71
g2548
sg64
(lp2555
S'HTTP_HOST'
p2556
asbag57
(g78
g59
NtRp2557
(dp2558
g62
(dp2559
g89
g90
ssg71
g2548
sg64
(lp2560
S':'
asbag57
(g78
g59
NtRp2561
(dp2562
g62
(dp2563
sg71
g2548
sg64
(lp2564
g57
(g58
g59
NtRp2565
(dp2566
g62
(dp2567
g70
I3
ssg71
g2561
sg64
(lp2568
g1126
asbasbasbag57
(g73
g59
NtRp2569
(dp2570
g62
(dp2571
sg71
g2439
sg64
(lp2572
g57
(g78
g59
NtRp2573
(dp2574
g62
(dp2575
g82
g83
ssg71
g2569
sg64
(lp2576
S'HTTP_REFERER'
p2577
asbag57
(g78
g59
NtRp2578
(dp2579
g62
(dp2580
g89
g90
ssg71
g2569
sg64
(lp2581
S':'
asbag57
(g78
g59
NtRp2582
(dp2583
g62
(dp2584
sg71
g2569
sg64
(lp2585
g57
(g58
g59
NtRp2586
(dp2587
g62
(dp2588
g70
I3
ssg71
g2582
sg64
(lp2589
g1148
asbasbasbag57
(g73
g59
NtRp2590
(dp2591
g62
(dp2592
sg71
g2439
sg64
(lp2593
g57
(g78
g59
NtRp2594
(dp2595
g62
(dp2596
g82
g83
ssg71
g2590
sg64
(lp2597
S'HTTP_USER_AGENT'
p2598
asbag57
(g78
g59
NtRp2599
(dp2600
g62
(dp2601
g89
g90
ssg71
g2590
sg64
(lp2602
S':'
asbag57
(g78
g59
NtRp2603
(dp2604
g62
(dp2605
sg71
g2590
sg64
(lp2606
g57
(g58
g59
NtRp2607
(dp2608
g62
(dp2609
g70
I3
ssg71
g2603
sg64
(lp2610
g1170
asbasbasbag57
(g73
g59
NtRp2611
(dp2612
g62
(dp2613
sg71
g2439
sg64
(lp2614
g57
(g78
g59
NtRp2615
(dp2616
g62
(dp2617
g82
g83
ssg71
g2611
sg64
(lp2618
S'PATH_INFO'
p2619
asbag57
(g78
g59
NtRp2620
(dp2621
g62
(dp2622
g89
g90
ssg71
g2611
sg64
(lp2623
S':'
asbag57
(g78
g59
NtRp2624
(dp2625
g62
(dp2626
sg71
g2611
sg64
(lp2627
g57
(g58
g59
NtRp2628
(dp2629
g62
(dp2630
g70
I3
ssg71
g2624
sg64
(lp2631
g1234
asbasbasbag57
(g73
g59
NtRp2632
(dp2633
g62
(dp2634
sg71
g2439
sg64
(lp2635
g57
(g78
g59
NtRp2636
(dp2637
g62
(dp2638
g82
g83
ssg71
g2632
sg64
(lp2639
S'QUERY_STRING'
p2640
asbag57
(g78
g59
NtRp2641
(dp2642
g62
(dp2643
g89
g90
ssg71
g2632
sg64
(lp2644
S':'
asbag57
(g78
g59
NtRp2645
(dp2646
g62
(dp2647
sg71
g2632
sg64
(lp2648
g57
(g58
g59
NtRp2649
(dp2650
g62
(dp2651
g70
I3
ssg71
g2645
sg64
(lp2652
S''
asbasbasbag57
(g73
g59
NtRp2653
(dp2654
g62
(dp2655
sg71
g2439
sg64
(lp2656
g57
(g78
g59
NtRp2657
(dp2658
g62
(dp2659
g82
g83
ssg71
g2653
sg64
(lp2660
S'REMOTE_ADDR'
p2661
asbag57
(g78
g59
NtRp2662
(dp2663
g62
(dp2664
g89
g90
ssg71
g2653
sg64
(lp2665
S':'
asbag57
(g78
g59
NtRp2666
(dp2667
g62
(dp2668
sg71
g2653
sg64
(lp2669
g57
(g58
g59
NtRp2670
(dp2671
g62
(dp2672
g70
I3
ssg71
g2666
sg64
(lp2673
g203
asbasbasbag57
(g73
g59
NtRp2674
(dp2675
g62
(dp2676
sg71
g2439
sg64
(lp2677
g57
(g78
g59
NtRp2678
(dp2679
g62
(dp2680
g82
g83
ssg71
g2674
sg64
(lp2681
S'REMOTE_PORT'
p2682
asbag57
(g78
g59
NtRp2683
(dp2684
g62
(dp2685
g89
g90
ssg71
g2674
sg64
(lp2686
S':'
asbag57
(g78
g59
NtRp2687
(dp2688
g62
(dp2689
sg71
g2674
sg64
(lp2690
g57
(g58
g59
NtRp2691
(dp2692
g62
(dp2693
g70
I3
ssg71
g2687
sg64
(lp2694
g1298
asbasbasbag57
(g73
g59
NtRp2695
(dp2696
g62
(dp2697
sg71
g2439
sg64
(lp2698
g57
(g78
g59
NtRp2699
(dp2700
g62
(dp2701
g82
g83
ssg71
g2695
sg64
(lp2702
S'REQUEST_METHOD'
p2703
asbag57
(g78
g59
NtRp2704
(dp2705
g62
(dp2706
g89
g90
ssg71
g2695
sg64
(lp2707
S':'
asbag57
(g78
g59
NtRp2708
(dp2709
g62
(dp2710
sg71
g2695
sg64
(lp2711
g57
(g58
g59
NtRp2712
(dp2713
g62
(dp2714
g70
I3
ssg71
g2708
sg64
(lp2715
g1320
asbasbasbag57
(g73
g59
NtRp2716
(dp2717
g62
(dp2718
sg71
g2439
sg64
(lp2719
g57
(g78
g59
NtRp2720
(dp2721
g62
(dp2722
g82
g83
ssg71
g2716
sg64
(lp2723
S'SCRIPT_NAME'
p2724
asbag57
(g78
g59
NtRp2725
(dp2726
g62
(dp2727
g89
g90
ssg71
g2716
sg64
(lp2728
S':'
asbag57
(g78
g59
NtRp2729
(dp2730
g62
(dp2731
sg71
g2716
sg64
(lp2732
g57
(g58
g59
NtRp2733
(dp2734
g62
(dp2735
g70
I3
ssg71
g2729
sg64
(lp2736
S''
asbasbasbag57
(g73
g59
NtRp2737
(dp2738
g62
(dp2739
sg71
g2439
sg64
(lp2740
g57
(g78
g59
NtRp2741
(dp2742
g62
(dp2743
g82
g83
ssg71
g2737
sg64
(lp2744
S'SERVER_NAME'
p2745
asbag57
(g78
g59
NtRp2746
(dp2747
g62
(dp2748
g89
g90
ssg71
g2737
sg64
(lp2749
S':'
asbag57
(g78
g59
NtRp2750
(dp2751
g62
(dp2752
sg71
g2737
sg64
(lp2753
g57
(g58
g59
NtRp2754
(dp2755
g62
(dp2756
g70
I3
ssg71
g2750
sg64
(lp2757
g1363
asbasbasbag57
(g73
g59
NtRp2758
(dp2759
g62
(dp2760
sg71
g2439
sg64
(lp2761
g57
(g78
g59
NtRp2762
(dp2763
g62
(dp2764
g82
g83
ssg71
g2758
sg64
(lp2765
S'SERVER_PORT'
p2766
asbag57
(g78
g59
NtRp2767
(dp2768
g62
(dp2769
g89
g90
ssg71
g2758
sg64
(lp2770
S':'
asbag57
(g78
g59
NtRp2771
(dp2772
g62
(dp2773
sg71
g2758
sg64
(lp2774
g57
(g58
g59
NtRp2775
(dp2776
g62
(dp2777
g70
I3
ssg71
g2771
sg64
(lp2778
g1385
asbasbasbag57
(g73
g59
NtRp2779
(dp2780
g62
(dp2781
sg71
g2439
sg64
(lp2782
g57
(g78
g59
NtRp2783
(dp2784
g62
(dp2785
g82
g83
ssg71
g2779
sg64
(lp2786
S'SERVER_PROTOCOL'
p2787
asbag57
(g78
g59
NtRp2788
(dp2789
g62
(dp2790
g89
g90
ssg71
g2779
sg64
(lp2791
S':'
asbag57
(g78
g59
NtRp2792
(dp2793
g62
(dp2794
sg71
g2779
sg64
(lp2795
g57
(g58
g59
NtRp2796
(dp2797
g62
(dp2798
g70
I3
ssg71
g2792
sg64
(lp2799
g1407
asbasbasbag57
(g73
g59
NtRp2800
(dp2801
g62
(dp2802
sg71
g2439
sg64
(lp2803
g57
(g78
g59
NtRp2804
(dp2805
g62
(dp2806
g82
g83
ssg71
g2800
sg64
(lp2807
S'SERVER_SOFTWARE'
p2808
asbag57
(g78
g59
NtRp2809
(dp2810
g62
(dp2811
g89
g90
ssg71
g2800
sg64
(lp2812
S':'
asbag57
(g78
g59
NtRp2813
(dp2814
g62
(dp2815
sg71
g2800
sg64
(lp2816
g57
(g58
g59
NtRp2817
(dp2818
g62
(dp2819
g70
I3
ssg71
g2813
sg64
(lp2820
g1429
asbasbasbag57
(g73
g59
NtRp2821
(dp2822
g62
(dp2823
sg71
g2439
sg64
(lp2824
g57
(g78
g59
NtRp2825
(dp2826
g62
(dp2827
g82
g83
ssg71
g2821
sg64
(lp2828
S'wsgi.errors'
p2829
asbag57
(g78
g59
NtRp2830
(dp2831
g62
(dp2832
g89
g90
ssg71
g2821
sg64
(lp2833
S':'
asbag57
(g78
g59
NtRp2834
(dp2835
g62
(dp2836
sg71
g2821
sg64
(lp2837
g57
(g58
g59
NtRp2838
(dp2839
g62
(dp2840
g70
I3
ssg71
g2834
sg64
(lp2841
S"<open file '<stderr>', mode 'w' at 0xb72ce0d0>"
p2842
asbasbasbag57
(g73
g59
NtRp2843
(dp2844
g62
(dp2845
sg71
g2439
sg64
(lp2846
g57
(g78
g59
NtRp2847
(dp2848
g62
(dp2849
g82
g83
ssg71
g2843
sg64
(lp2850
S'wsgi.file_wrapper'
p2851
asbag57
(g78
g59
NtRp2852
(dp2853
g62
(dp2854
g89
g90
ssg71
g2843
sg64
(lp2855
S':'
asbag57
(g78
g59
NtRp2856
(dp2857
g62
(dp2858
sg71
g2843
sg64
(lp2859
g57
(g58
g59
NtRp2860
(dp2861
g62
(dp2862
g70
I3
ssg71
g2856
sg64
(lp2863
S'<class wsgiref.util.FileWrapper at 0xa6ab4ac>'
p2864
asbasbasbag57
(g73
g59
NtRp2865
(dp2866
g62
(dp2867
sg71
g2439
sg64
(lp2868
g57
(g78
g59
NtRp2869
(dp2870
g62
(dp2871
g82
g83
ssg71
g2865
sg64
(lp2872
S'wsgi.input'
p2873
asbag57
(g78
g59
NtRp2874
(dp2875
g62
(dp2876
g89
g90
ssg71
g2865
sg64
(lp2877
S':'
asbag57
(g78
g59
NtRp2878
(dp2879
g62
(dp2880
sg71
g2865
sg64
(lp2881
g57
(g58
g59
NtRp2882
(dp2883
g62
(dp2884
g70
I3
ssg71
g2878
sg64
(lp2885
S'<cStringIO.StringO object at 0xac850c0>'
p2886
asbasbasbag57
(g73
g59
NtRp2887
(dp2888
g62
(dp2889
sg71
g2439
sg64
(lp2890
g57
(g78
g59
NtRp2891
(dp2892
g62
(dp2893
g82
g83
ssg71
g2887
sg64
(lp2894
S'wsgi.multiprocess'
p2895
asbag57
(g78
g59
NtRp2896
(dp2897
g62
(dp2898
g89
g90
ssg71
g2887
sg64
(lp2899
S':'
asbag57
(g78
g59
NtRp2900
(dp2901
g62
(dp2902
sg71
g2887
sg64
(lp2903
g57
(g58
g59
NtRp2904
(dp2905
g62
(dp2906
g70
I3
ssg71
g2900
sg64
(lp2907
g100
asbasbasbag57
(g73
g59
NtRp2908
(dp2909
g62
(dp2910
sg71
g2439
sg64
(lp2911
g57
(g78
g59
NtRp2912
(dp2913
g62
(dp2914
g82
g83
ssg71
g2908
sg64
(lp2915
S'wsgi.multithread'
p2916
asbag57
(g78
g59
NtRp2917
(dp2918
g62
(dp2919
g89
g90
ssg71
g2908
sg64
(lp2920
S':'
asbag57
(g78
g59
NtRp2921
(dp2922
g62
(dp2923
sg71
g2908
sg64
(lp2924
g57
(g58
g59
NtRp2925
(dp2926
g62
(dp2927
g70
I3
ssg71
g2921
sg64
(lp2928
g1669
asbasbasbag57
(g73
g59
NtRp2929
(dp2930
g62
(dp2931
sg71
g2439
sg64
(lp2932
g57
(g78
g59
NtRp2933
(dp2934
g62
(dp2935
g82
g83
ssg71
g2929
sg64
(lp2936
S'wsgi.run_once'
p2937
asbag57
(g78
g59
NtRp2938
(dp2939
g62
(dp2940
g89
g90
ssg71
g2929
sg64
(lp2941
S':'
asbag57
(g78
g59
NtRp2942
(dp2943
g62
(dp2944
sg71
g2929
sg64
(lp2945
g57
(g58
g59
NtRp2946
(dp2947
g62
(dp2948
g70
I3
ssg71
g2942
sg64
(lp2949
g100
asbasbasbag57
(g73
g59
NtRp2950
(dp2951
g62
(dp2952
sg71
g2439
sg64
(lp2953
g57
(g78
g59
NtRp2954
(dp2955
g62
(dp2956
g82
g83
ssg71
g2950
sg64
(lp2957
S'wsgi.url_scheme'
p2958
asbag57
(g78
g59
NtRp2959
(dp2960
g62
(dp2961
g89
g90
ssg71
g2950
sg64
(lp2962
S':'
asbag57
(g78
g59
NtRp2963
(dp2964
g62
(dp2965
sg71
g2950
sg64
(lp2966
g57
(g58
g59
NtRp2967
(dp2968
g62
(dp2969
g70
I3
ssg71
g2963
sg64
(lp2970
g1712
asbasbasbag57
(g73
g59
NtRp2971
(dp2972
g62
(dp2973
sg71
g2439
sg64
(lp2974
g57
(g78
g59
NtRp2975
(dp2976
g62
(dp2977
g82
g83
ssg71
g2971
sg64
(lp2978
S'wsgi.version'
p2979
asbag57
(g78
g59
NtRp2980
(dp2981
g62
(dp2982
g89
g90
ssg71
g2971
sg64
(lp2983
S':'
asbag57
(g78
g59
NtRp2984
(dp2985
g62
(dp2986
sg71
g2971
sg64
(lp2987
g57
(g58
g59
NtRp2988
(dp2989
g62
(dp2990
g70
I3
ssg71
g2984
sg64
(lp2991
S'1'
asbasbasbasbasbasbasbasbasbasbasbasbasbsS'frames'
p2992
(lp2993
(dp2994
S'file'
p2995
S'/usr/lib/pymodules/python2.7/gluon/restricted.py'
p2996
sS'dump'
p2997
(dp2998
S'environment'
p2999
S"{'A': <class 'gluon.html.A'>, 'Auth': <class 'gluon.tools.Auth'>, 'B': <class 'gluon.html.B'>, 'BEAUTIFY': <class 'gluon.html.BEAUTIFY'>, 'BODY': <class 'gluon.html.BODY'>, 'BR': <class 'gluon.html.BR'>, 'BUTTON': <class 'gluon.html.BUTTON'>, 'CAT': <class 'gluon.html.CAT'>, 'CENTER': <class 'gluon.html.CENTER'>, 'CLEANUP': <class 'gluon.validators.CLEANUP'>, ...}"
p3000
sS'ccode'
p3001
S'<code object <module> at 0xacab5c0, file "/home/...s/Award_Manager/controllers/default.py", line 11>'
p3002
ssS'lnum'
p3003
I204
sS'lines'
p3004
(dp3005
I199
S'    try:'
p3006
sI200
S'        if type(code) == types.CodeType:'
p3007
sI201
S'            ccode = code'
p3008
sI202
S'        else:'
p3009
sI203
S'            ccode = compile2(code,layer)'
p3010
sI204
S'        exec ccode in environment'
p3011
sI205
S'    except HTTP:'
p3012
sI206
S'        raise'
p3013
sI207
S'    except RestrictedError:'
p3014
sI208
S'        # do not encapsulate (obfuscate) the original RestrictedError'
p3015
ssS'call'
p3016
S"(code='# -*- coding: utf-8 -*-\\n# this file is released ...id=grid)\\n\\nresponse._vars=response._caller(total)\\n', environment={'A': <class 'gluon.html.A'>, 'Auth': <class 'gluon.tools.Auth'>, 'B': <class 'gluon.html.B'>, 'BEAUTIFY': <class 'gluon.html.BEAUTIFY'>, 'BODY': <class 'gluon.html.BODY'>, 'BR': <class 'gluon.html.BR'>, 'BUTTON': <class 'gluon.html.BUTTON'>, 'CAT': <class 'gluon.html.CAT'>, 'CENTER': <class 'gluon.html.CENTER'>, 'CLEANUP': <class 'gluon.validators.CLEANUP'>, ...}, layer='/home/unic/web2py/applications/Award_Manager/controllers/default.py')"
p3017
sS'func'
p3018
S'restricted'
p3019
sa(dp3020
g2995
S'/home/unic/web2py/applications/Award_Manager/controllers/default.py'
p3021
sg2997
(dp3022
sg3003
I245
sg3004
(dp3023
I234
S'    http://..../[app]/default/data/search/[table]'
p3024
sI235
S'    but URLs must be signed, i.e. linked with'
p3025
sI236
S"      A('table',_href=URL('data/tables',user_signature=True))"
p3026
sI237
S'    or with the signed load operator'
p3027
sI238
S"      LOAD('default','data.load',args='tables',ajax=True,user_signature=True)"
p3028
sI239
S'    """'
p3029
sI240
S'    return dict(form=crud())'
p3030
sI241
S'def manage():'
p3031
sI242
S'    grid = SQLFORM.smartgrid(db.UPBook)'
p3032
sI243
S'    return dict(grid=grid)'
p3033
ssg3016
S'()'
p3034
sg3018
S'<module>'
p3035
sa(dp3036
g2995
S'/usr/lib/pymodules/python2.7/gluon/globals.py'
p3037
sg2997
(dp3038
S'self'
p3039
S'undefined'
p3040
sS'f'
S'<function total>'
p3041
ssg3003
I172
sg3004
(dp3042
I167
S'        self.meta = Storage()      # used by web2py_ajax.html'
p3043
sI168
S'        self.menu = []             # used by the default view layout'
p3044
sI169
S'        self.files = []            # used by web2py_ajax.html'
p3045
sI170
S'        self.generic_patterns = [] # patterns to allow generic views'
p3046
sI171
S'        self._vars = None'
p3047
sI172
S'        self._caller = lambda f: f()'
p3048
sI173
S'        self._view_environment = None'
p3049
sI174
S'        self._custom_commit = None'
p3050
sI175
S'        self._custom_rollback = None'
p3051
sI176
S''
ssg3016
S'(f=<function total>)'
p3052
sg3018
S'<lambda>'
p3053
sa(dp3054
g2995
S'/home/unic/web2py/applications/Award_Manager/controllers/default.py'
p3055
sg2997
(dp3056
S'global request'
p3057
S"<Storage {'body': <cStringIO.StringO object at 0..._vars': <Storage {}>, 'post_vars': <Storage {}>}>"
p3058
sS'request.args'
p3059
S"['Output.Total']"
p3060
sS'builtinint'
p3061
S"<type 'int'>"
p3062
sS'i'
S"<Row {'Name': '', 'RollNo': '', 'update_record':...lete_record': <function <lambda> at 0xb357fd14>}>"
p3063
sS'i.Total'
p3064
S'0'
ssg3003
I89
sg3004
(dp3065
I84
S'                  db(db.Lpref.id == j.id).delete()'
p3066
sI85
S'  return dict(form1=form1)'
p3067
sI86
S'def total():'
p3068
sI87
S'  users = db().select(db.User.ALL, orderby=db.User.Name)'
p3069
sI88
S'  for i in users:'
p3070
sI89
S'   request.args[0] = int(request.args[0] + i.Total)'
p3071
sI90
S'  return dict()'
p3072
sI91
S'def submit():'
p3073
sI92
S' db(request.args(0) == db.User.id).update(flag = 1)'
p3074
sI93
S' users = db().select(db.User.ALL, orderby=db.User.Name)'
p3075
ssg3016
S'()'
p3076
sg3018
S'total'
p3077
sasS'pyver'
p3078
S'Python 2.7.3: /usr/bin/python'
p3079
sS'session'
p3080
g57
(g58
g59
NtRp3081
(dp3082
g62
(dp3083
sg64
(lp3084
g57
(g66
g59
NtRp3085
(dp3086
g62
(dp3087
g70
I5
ssg71
Nsg64
(lp3088
g57
(g73
g59
NtRp3089
(dp3090
g62
(dp3091
sg71
g3085
sg64
(lp3092
g57
(g78
g59
NtRp3093
(dp3094
g62
(dp3095
g82
g83
ssg71
g3089
sg64
(lp3096
S'flash'
p3097
asbag57
(g78
g59
NtRp3098
(dp3099
g62
(dp3100
g89
g90
ssg71
g3089
sg64
(lp3101
S':'
asbag57
(g78
g59
NtRp3102
(dp3103
g62
(dp3104
sg71
g3089
sg64
(lp3105
g57
(g58
g59
NtRp3106
(dp3107
g62
(dp3108
g70
I5
ssg71
g3102
sg64
(lp3109
S''
asbasbasbasbasbsS'etype'
p3110
S"<type 'exceptions.TypeError'>"
p3111
sS'date'
p3112
S'Sun Nov  4 15:18:03 2012'
p3113
sS'response'
p3114
g57
(g58
g59
NtRp3115
(dp3116
g62
(dp3117
sg64
(lp3118
g57
(g66
g59
NtRp3119
(dp3120
g62
(dp3121
g70
I5
ssg71
Nsg64
(lp3122
g57
(g73
g59
NtRp3123
(dp3124
g62
(dp3125
sg71
g3119
sg64
(lp3126
g57
(g78
g59
NtRp3127
(dp3128
g62
(dp3129
g82
g83
ssg71
g3123
sg64
(lp3130
g168
asbag57
(g78
g59
NtRp3131
(dp3132
g62
(dp3133
g89
g90
ssg71
g3123
sg64
(lp3134
S':'
asbag57
(g78
g59
NtRp3135
(dp3136
g62
(dp3137
sg71
g3123
sg64
(lp3138
g57
(g58
g59
NtRp3139
(dp3140
g62
(dp3141
g70
I5
ssg71
g3135
sg64
(lp3142
S'<cStringIO.StringO object at 0xab430680>'
p3143
asbasbasbag57
(g73
g59
NtRp3144
(dp3145
g62
(dp3146
sg71
g3119
sg64
(lp3147
g57
(g78
g59
NtRp3148
(dp3149
g62
(dp3150
g82
g83
ssg71
g3144
sg64
(lp3151
g234
asbag57
(g78
g59
NtRp3152
(dp3153
g62
(dp3154
g89
g90
ssg71
g3144
sg64
(lp3155
S':'
asbag57
(g78
g59
NtRp3156
(dp3157
g62
(dp3158
sg71
g3144
sg64
(lp3159
g57
(g58
g59
NtRp3160
(dp3161
g62
(dp3162
g70
I5
ssg71
g3156
sg64
(lp3163
g57
(g66
g59
NtRp3164
(dp3165
g62
(dp3166
g70
I4
ssg71
Nsg64
(lp3167
g57
(g73
g59
NtRp3168
(dp3169
g62
(dp3170
sg71
g3164
sg64
(lp3171
g57
(g78
g59
NtRp3172
(dp3173
g62
(dp3174
g82
g83
ssg71
g3168
sg64
(lp3175
S'session_id_award_manager'
p3176
asbag57
(g78
g59
NtRp3177
(dp3178
g62
(dp3179
g89
g90
ssg71
g3168
sg64
(lp3180
S':'
asbag57
(g78
g59
NtRp3181
(dp3182
g62
(dp3183
sg71
g3168
sg64
(lp3184
g57
(g58
g59
NtRp3185
(dp3186
g62
(dp3187
g70
I4
ssg71
g3181
sg64
(lp3188
g57
(g66
g59
NtRp3189
(dp3190
g62
(dp3191
g70
I3
ssg71
Nsg64
(lp3192
g57
(g73
g59
NtRp3193
(dp3194
g62
(dp3195
sg71
g3189
sg64
(lp3196
g57
(g78
g59
NtRp3197
(dp3198
g62
(dp3199
g82
g83
ssg71
g3193
sg64
(lp3200
g284
asbag57
(g78
g59
NtRp3201
(dp3202
g62
(dp3203
g89
g90
ssg71
g3193
sg64
(lp3204
S':'
asbag57
(g78
g59
NtRp3205
(dp3206
g62
(dp3207
sg71
g3193
sg64
(lp3208
g57
(g58
g59
NtRp3209
(dp3210
g62
(dp3211
g70
I3
ssg71
g3205
sg64
(lp3212
S''
asbasbasbag57
(g73
g59
NtRp3213
(dp3214
g62
(dp3215
sg71
g3189
sg64
(lp3216
g57
(g78
g59
NtRp3217
(dp3218
g62
(dp3219
g82
g83
ssg71
g3213
sg64
(lp3220
g305
asbag57
(g78
g59
NtRp3221
(dp3222
g62
(dp3223
g89
g90
ssg71
g3213
sg64
(lp3224
S':'
asbag57
(g78
g59
NtRp3225
(dp3226
g62
(dp3227
sg71
g3213
sg64
(lp3228
g57
(g58
g59
NtRp3229
(dp3230
g62
(dp3231
g70
I3
ssg71
g3225
sg64
(lp3232
S''
asbasbasbag57
(g73
g59
NtRp3233
(dp3234
g62
(dp3235
sg71
g3189
sg64
(lp3236
g57
(g78
g59
NtRp3237
(dp3238
g62
(dp3239
g82
g83
ssg71
g3233
sg64
(lp3240
g326
asbag57
(g78
g59
NtRp3241
(dp3242
g62
(dp3243
g89
g90
ssg71
g3233
sg64
(lp3244
S':'
asbag57
(g78
g59
NtRp3245
(dp3246
g62
(dp3247
sg71
g3233
sg64
(lp3248
g57
(g58
g59
NtRp3249
(dp3250
g62
(dp3251
g70
I3
ssg71
g3245
sg64
(lp3252
S''
asbasbasbag57
(g73
g59
NtRp3253
(dp3254
g62
(dp3255
sg71
g3189
sg64
(lp3256
g57
(g78
g59
NtRp3257
(dp3258
g62
(dp3259
g82
g83
ssg71
g3253
sg64
(lp3260
g347
asbag57
(g78
g59
NtRp3261
(dp3262
g62
(dp3263
g89
g90
ssg71
g3253
sg64
(lp3264
S':'
asbag57
(g78
g59
NtRp3265
(dp3266
g62
(dp3267
sg71
g3253
sg64
(lp3268
g57
(g58
g59
NtRp3269
(dp3270
g62
(dp3271
g70
I3
ssg71
g3265
sg64
(lp3272
S''
asbasbasbag57
(g73
g59
NtRp3273
(dp3274
g62
(dp3275
sg71
g3189
sg64
(lp3276
g57
(g78
g59
NtRp3277
(dp3278
g62
(dp3279
g82
g83
ssg71
g3273
sg64
(lp3280
g368
asbag57
(g78
g59
NtRp3281
(dp3282
g62
(dp3283
g89
g90
ssg71
g3273
sg64
(lp3284
S':'
asbag57
(g78
g59
NtRp3285
(dp3286
g62
(dp3287
sg71
g3273
sg64
(lp3288
g57
(g58
g59
NtRp3289
(dp3290
g62
(dp3291
g70
I3
ssg71
g3285
sg64
(lp3292
S''
asbasbasbag57
(g73
g59
NtRp3293
(dp3294
g62
(dp3295
sg71
g3189
sg64
(lp3296
g57
(g78
g59
NtRp3297
(dp3298
g62
(dp3299
g82
g83
ssg71
g3293
sg64
(lp3300
g389
asbag57
(g78
g59
NtRp3301
(dp3302
g62
(dp3303
g89
g90
ssg71
g3293
sg64
(lp3304
S':'
asbag57
(g78
g59
NtRp3305
(dp3306
g62
(dp3307
sg71
g3293
sg64
(lp3308
g57
(g58
g59
NtRp3309
(dp3310
g62
(dp3311
g70
I3
ssg71
g3305
sg64
(lp3312
S'/'
asbasbasbag57
(g73
g59
NtRp3313
(dp3314
g62
(dp3315
sg71
g3189
sg64
(lp3316
g57
(g78
g59
NtRp3317
(dp3318
g62
(dp3319
g82
g83
ssg71
g3313
sg64
(lp3320
g410
asbag57
(g78
g59
NtRp3321
(dp3322
g62
(dp3323
g89
g90
ssg71
g3313
sg64
(lp3324
S':'
asbag57
(g78
g59
NtRp3325
(dp3326
g62
(dp3327
sg71
g3313
sg64
(lp3328
g57
(g58
g59
NtRp3329
(dp3330
g62
(dp3331
g70
I3
ssg71
g3325
sg64
(lp3332
S''
asbasbasbag57
(g73
g59
NtRp3333
(dp3334
g62
(dp3335
sg71
g3189
sg64
(lp3336
g57
(g78
g59
NtRp3337
(dp3338
g62
(dp3339
g82
g83
ssg71
g3333
sg64
(lp3340
g431
asbag57
(g78
g59
NtRp3341
(dp3342
g62
(dp3343
g89
g90
ssg71
g3333
sg64
(lp3344
S':'
asbag57
(g78
g59
NtRp3345
(dp3346
g62
(dp3347
sg71
g3333
sg64
(lp3348
g57
(g58
g59
NtRp3349
(dp3350
g62
(dp3351
g70
I3
ssg71
g3345
sg64
(lp3352
S''
asbasbasbasbasbasbasbasbasbasbasbag57
(g73
g59
NtRp3353
(dp3354
g62
(dp3355
sg71
g3119
sg64
(lp3356
g57
(g78
g59
NtRp3357
(dp3358
g62
(dp3359
g82
g83
ssg71
g3353
sg64
(lp3360
S'files'
p3361
asbag57
(g78
g59
NtRp3362
(dp3363
g62
(dp3364
g89
g90
ssg71
g3353
sg64
(lp3365
S':'
asbag57
(g78
g59
NtRp3366
(dp3367
g62
(dp3368
sg71
g3353
sg64
(lp3369
g57
(g58
g59
NtRp3370
(dp3371
g62
(dp3372
g70
I5
ssg71
g3366
sg64
(lp3373
g57
(g66
g59
NtRp3374
(dp3375
g62
(dp3376
g70
I4
ssg71
Nsg64
(lp3377
sbasbasbasbag57
(g73
g59
NtRp3378
(dp3379
g62
(dp3380
sg71
g3119
sg64
(lp3381
g57
(g78
g59
NtRp3382
(dp3383
g62
(dp3384
g82
g83
ssg71
g3378
sg64
(lp3385
S'flash'
p3386
asbag57
(g78
g59
NtRp3387
(dp3388
g62
(dp3389
g89
g90
ssg71
g3378
sg64
(lp3390
S':'
asbag57
(g78
g59
NtRp3391
(dp3392
g62
(dp3393
sg71
g3378
sg64
(lp3394
g57
(g58
g59
NtRp3395
(dp3396
g62
(dp3397
g70
I5
ssg71
g3391
sg64
(lp3398
S''
asbasbasbag57
(g73
g59
NtRp3399
(dp3400
g62
(dp3401
sg71
g3119
sg64
(lp3402
g57
(g78
g59
NtRp3403
(dp3404
g62
(dp3405
g82
g83
ssg71
g3399
sg64
(lp3406
S'generic_patterns'
p3407
asbag57
(g78
g59
NtRp3408
(dp3409
g62
(dp3410
g89
g90
ssg71
g3399
sg64
(lp3411
S':'
asbag57
(g78
g59
NtRp3412
(dp3413
g62
(dp3414
sg71
g3399
sg64
(lp3415
g57
(g58
g59
NtRp3416
(dp3417
g62
(dp3418
g70
I5
ssg71
g3412
sg64
(lp3419
g57
(g66
g59
NtRp3420
(dp3421
g62
(dp3422
g70
I4
ssg71
Nsg64
(lp3423
g57
(g73
g59
NtRp3424
(dp3425
g62
(dp3426
sg71
g3420
sg64
(lp3427
g57
(g78
g59
NtRp3428
(dp3429
g62
(dp3430
sg71
g3424
sg64
(lp3431
g57
(g58
g59
NtRp3432
(dp3433
g62
(dp3434
g70
I4
ssg71
g3428
sg64
(lp3435
S'*'
asbasbasbasbasbasbasbag57
(g73
g59
NtRp3436
(dp3437
g62
(dp3438
sg71
g3119
sg64
(lp3439
g57
(g78
g59
NtRp3440
(dp3441
g62
(dp3442
g82
g83
ssg71
g3436
sg64
(lp3443
S'headers'
p3444
asbag57
(g78
g59
NtRp3445
(dp3446
g62
(dp3447
g89
g90
ssg71
g3436
sg64
(lp3448
S':'
asbag57
(g78
g59
NtRp3449
(dp3450
g62
(dp3451
sg71
g3436
sg64
(lp3452
g57
(g58
g59
NtRp3453
(dp3454
g62
(dp3455
g70
I5
ssg71
g3449
sg64
(lp3456
g57
(g66
g59
NtRp3457
(dp3458
g62
(dp3459
g70
I4
ssg71
Nsg64
(lp3460
g57
(g73
g59
NtRp3461
(dp3462
g62
(dp3463
sg71
g3457
sg64
(lp3464
g57
(g78
g59
NtRp3465
(dp3466
g62
(dp3467
g82
g83
ssg71
g3461
sg64
(lp3468
S'Cache-Control'
p3469
asbag57
(g78
g59
NtRp3470
(dp3471
g62
(dp3472
g89
g90
ssg71
g3461
sg64
(lp3473
S':'
asbag57
(g78
g59
NtRp3474
(dp3475
g62
(dp3476
sg71
g3461
sg64
(lp3477
g57
(g58
g59
NtRp3478
(dp3479
g62
(dp3480
g70
I4
ssg71
g3474
sg64
(lp3481
S'no-store, no-cache, must-revalidate, post-check=0, pre-check=0'
p3482
asbasbasbag57
(g73
g59
NtRp3483
(dp3484
g62
(dp3485
sg71
g3457
sg64
(lp3486
g57
(g78
g59
NtRp3487
(dp3488
g62
(dp3489
g82
g83
ssg71
g3483
sg64
(lp3490
S'Content-Type'
p3491
asbag57
(g78
g59
NtRp3492
(dp3493
g62
(dp3494
g89
g90
ssg71
g3483
sg64
(lp3495
S':'
asbag57
(g78
g59
NtRp3496
(dp3497
g62
(dp3498
sg71
g3483
sg64
(lp3499
g57
(g58
g59
NtRp3500
(dp3501
g62
(dp3502
g70
I4
ssg71
g3496
sg64
(lp3503
S'text/html; charset=utf-8'
p3504
asbasbasbag57
(g73
g59
NtRp3505
(dp3506
g62
(dp3507
sg71
g3457
sg64
(lp3508
g57
(g78
g59
NtRp3509
(dp3510
g62
(dp3511
g82
g83
ssg71
g3505
sg64
(lp3512
S'Expires'
p3513
asbag57
(g78
g59
NtRp3514
(dp3515
g62
(dp3516
g89
g90
ssg71
g3505
sg64
(lp3517
S':'
asbag57
(g78
g59
NtRp3518
(dp3519
g62
(dp3520
sg71
g3505
sg64
(lp3521
g57
(g58
g59
NtRp3522
(dp3523
g62
(dp3524
g70
I4
ssg71
g3518
sg64
(lp3525
S'Sun, 04 Nov 2012 09:48:03 GMT'
p3526
asbasbasbag57
(g73
g59
NtRp3527
(dp3528
g62
(dp3529
sg71
g3457
sg64
(lp3530
g57
(g78
g59
NtRp3531
(dp3532
g62
(dp3533
g82
g83
ssg71
g3527
sg64
(lp3534
S'Pragma'
p3535
asbag57
(g78
g59
NtRp3536
(dp3537
g62
(dp3538
g89
g90
ssg71
g3527
sg64
(lp3539
S':'
asbag57
(g78
g59
NtRp3540
(dp3541
g62
(dp3542
sg71
g3527
sg64
(lp3543
g57
(g58
g59
NtRp3544
(dp3545
g62
(dp3546
g70
I4
ssg71
g3540
sg64
(lp3547
S'no-cache'
p3548
asbasbasbag57
(g73
g59
NtRp3549
(dp3550
g62
(dp3551
sg71
g3457
sg64
(lp3552
g57
(g78
g59
NtRp3553
(dp3554
g62
(dp3555
g82
g83
ssg71
g3549
sg64
(lp3556
S'X-Powered-By'
p3557
asbag57
(g78
g59
NtRp3558
(dp3559
g62
(dp3560
g89
g90
ssg71
g3549
sg64
(lp3561
S':'
asbag57
(g78
g59
NtRp3562
(dp3563
g62
(dp3564
sg71
g3549
sg64
(lp3565
g57
(g58
g59
NtRp3566
(dp3567
g62
(dp3568
g70
I4
ssg71
g3562
sg64
(lp3569
S'web2py'
p3570
asbasbasbasbasbasbasbag57
(g73
g59
NtRp3571
(dp3572
g62
(dp3573
sg71
g3119
sg64
(lp3574
g57
(g78
g59
NtRp3575
(dp3576
g62
(dp3577
g82
g83
ssg71
g3571
sg64
(lp3578
S'menu'
p3579
asbag57
(g78
g59
NtRp3580
(dp3581
g62
(dp3582
g89
g90
ssg71
g3571
sg64
(lp3583
S':'
asbag57
(g78
g59
NtRp3584
(dp3585
g62
(dp3586
sg71
g3571
sg64
(lp3587
g57
(g58
g59
NtRp3588
(dp3589
g62
(dp3590
g70
I5
ssg71
g3584
sg64
(lp3591
g57
(g66
g59
NtRp3592
(dp3593
g62
(dp3594
g70
I4
ssg71
Nsg64
(lp3595
g57
(g73
g59
NtRp3596
(dp3597
g62
(dp3598
sg71
g3592
sg64
(lp3599
g57
(g78
g59
NtRp3600
(dp3601
g62
(dp3602
sg71
g3596
sg64
(lp3603
g57
(g58
g59
NtRp3604
(dp3605
g62
(dp3606
g70
I4
ssg71
g3600
sg64
(lp3607
g57
(g66
g59
NtRp3608
(dp3609
g62
(dp3610
g70
I3
ssg71
Nsg64
(lp3611
g57
(g73
g59
NtRp3612
(dp3613
g62
(dp3614
sg71
g3608
sg64
(lp3615
g57
(g78
g59
NtRp3616
(dp3617
g62
(dp3618
sg71
g3612
sg64
(lp3619
g57
(g58
g59
NtRp3620
(dp3621
g62
(dp3622
g70
I3
ssg71
g3616
sg64
(lp3623
cgluon.languages
lazyT_unpickle
p3624
(S't\x04\x00\x00\x00Home'
tRp3625
asbasbasbag57
(g73
g59
NtRp3626
(dp3627
g62
(dp3628
sg71
g3608
sg64
(lp3629
g57
(g78
g59
NtRp3630
(dp3631
g62
(dp3632
sg71
g3626
sg64
(lp3633
g57
(g58
g59
NtRp3634
(dp3635
g62
(dp3636
g70
I3
ssg71
g3630
sg64
(lp3637
g100
asbasbasbag57
(g73
g59
NtRp3638
(dp3639
g62
(dp3640
sg71
g3608
sg64
(lp3641
g57
(g78
g59
NtRp3642
(dp3643
g62
(dp3644
sg71
g3638
sg64
(lp3645
g57
(g58
g59
NtRp3646
(dp3647
g62
(dp3648
g70
I3
ssg71
g3642
sg64
(lp3649
S'/Award_Manager/default/index'
p3650
asbasbasbasbasbasbasbag57
(g73
g59
NtRp3651
(dp3652
g62
(dp3653
sg71
g3592
sg64
(lp3654
g57
(g78
g59
NtRp3655
(dp3656
g62
(dp3657
sg71
g3651
sg64
(lp3658
g57
(g58
g59
NtRp3659
(dp3660
g62
(dp3661
g70
I4
ssg71
g3655
sg64
(lp3662
g57
(g66
g59
NtRp3663
(dp3664
g62
(dp3665
g70
I3
ssg71
Nsg64
(lp3666
g57
(g73
g59
NtRp3667
(dp3668
g62
(dp3669
sg71
g3663
sg64
(lp3670
g57
(g78
g59
NtRp3671
(dp3672
g62
(dp3673
sg71
g3667
sg64
(lp3674
g57
(g58
g59
NtRp3675
(dp3676
g62
(dp3677
g70
I3
ssg71
g3671
sg64
(lp3678
g3624
(S't\x05\x00\x00\x00About'
tRp3679
asbasbasbag57
(g73
g59
NtRp3680
(dp3681
g62
(dp3682
sg71
g3663
sg64
(lp3683
g57
(g78
g59
NtRp3684
(dp3685
g62
(dp3686
sg71
g3680
sg64
(lp3687
g57
(g58
g59
NtRp3688
(dp3689
g62
(dp3690
g70
I3
ssg71
g3684
sg64
(lp3691
g100
asbasbasbag57
(g73
g59
NtRp3692
(dp3693
g62
(dp3694
sg71
g3663
sg64
(lp3695
g57
(g78
g59
NtRp3696
(dp3697
g62
(dp3698
sg71
g3692
sg64
(lp3699
g57
(g58
g59
NtRp3700
(dp3701
g62
(dp3702
g70
I3
ssg71
g3696
sg64
(lp3703
S'/Award_Manager/default/what'
p3704
asbasbasbasbasbasbasbasbasbasbasbag57
(g73
g59
NtRp3705
(dp3706
g62
(dp3707
sg71
g3119
sg64
(lp3708
g57
(g78
g59
NtRp3709
(dp3710
g62
(dp3711
g82
g83
ssg71
g3705
sg64
(lp3712
S'meta'
p3713
asbag57
(g78
g59
NtRp3714
(dp3715
g62
(dp3716
g89
g90
ssg71
g3705
sg64
(lp3717
S':'
asbag57
(g78
g59
NtRp3718
(dp3719
g62
(dp3720
sg71
g3705
sg64
(lp3721
g57
(g58
g59
NtRp3722
(dp3723
g62
(dp3724
g70
I5
ssg71
g3718
sg64
(lp3725
g57
(g66
g59
NtRp3726
(dp3727
g62
(dp3728
g70
I4
ssg71
Nsg64
(lp3729
g57
(g73
g59
NtRp3730
(dp3731
g62
(dp3732
sg71
g3726
sg64
(lp3733
g57
(g78
g59
NtRp3734
(dp3735
g62
(dp3736
g82
g83
ssg71
g3730
sg64
(lp3737
S'author'
p3738
asbag57
(g78
g59
NtRp3739
(dp3740
g62
(dp3741
g89
g90
ssg71
g3730
sg64
(lp3742
S':'
asbag57
(g78
g59
NtRp3743
(dp3744
g62
(dp3745
sg71
g3730
sg64
(lp3746
g57
(g58
g59
NtRp3747
(dp3748
g62
(dp3749
g70
I4
ssg71
g3743
sg64
(lp3750
S'Your Name <you@example.com>'
p3751
asbasbasbag57
(g73
g59
NtRp3752
(dp3753
g62
(dp3754
sg71
g3726
sg64
(lp3755
g57
(g78
g59
NtRp3756
(dp3757
g62
(dp3758
g82
g83
ssg71
g3752
sg64
(lp3759
S'copyright'
p3760
asbag57
(g78
g59
NtRp3761
(dp3762
g62
(dp3763
g89
g90
ssg71
g3752
sg64
(lp3764
S':'
asbag57
(g78
g59
NtRp3765
(dp3766
g62
(dp3767
sg71
g3752
sg64
(lp3768
g57
(g58
g59
NtRp3769
(dp3770
g62
(dp3771
g70
I4
ssg71
g3765
sg64
(lp3772
S'Copyright 2011'
p3773
asbasbasbag57
(g73
g59
NtRp3774
(dp3775
g62
(dp3776
sg71
g3726
sg64
(lp3777
g57
(g78
g59
NtRp3778
(dp3779
g62
(dp3780
g82
g83
ssg71
g3774
sg64
(lp3781
S'description'
p3782
asbag57
(g78
g59
NtRp3783
(dp3784
g62
(dp3785
g89
g90
ssg71
g3774
sg64
(lp3786
S':'
asbag57
(g78
g59
NtRp3787
(dp3788
g62
(dp3789
sg71
g3774
sg64
(lp3790
g57
(g58
g59
NtRp3791
(dp3792
g62
(dp3793
g70
I4
ssg71
g3787
sg64
(lp3794
S'a cool new app'
p3795
asbasbasbag57
(g73
g59
NtRp3796
(dp3797
g62
(dp3798
sg71
g3726
sg64
(lp3799
g57
(g78
g59
NtRp3800
(dp3801
g62
(dp3802
g82
g83
ssg71
g3796
sg64
(lp3803
S'generator'
p3804
asbag57
(g78
g59
NtRp3805
(dp3806
g62
(dp3807
g89
g90
ssg71
g3796
sg64
(lp3808
S':'
asbag57
(g78
g59
NtRp3809
(dp3810
g62
(dp3811
sg71
g3796
sg64
(lp3812
g57
(g58
g59
NtRp3813
(dp3814
g62
(dp3815
g70
I4
ssg71
g3809
sg64
(lp3816
S'Web2py Web Framework'
p3817
asbasbasbag57
(g73
g59
NtRp3818
(dp3819
g62
(dp3820
sg71
g3726
sg64
(lp3821
g57
(g78
g59
NtRp3822
(dp3823
g62
(dp3824
g82
g83
ssg71
g3818
sg64
(lp3825
S'keywords'
p3826
asbag57
(g78
g59
NtRp3827
(dp3828
g62
(dp3829
g89
g90
ssg71
g3818
sg64
(lp3830
S':'
asbag57
(g78
g59
NtRp3831
(dp3832
g62
(dp3833
sg71
g3818
sg64
(lp3834
g57
(g58
g59
NtRp3835
(dp3836
g62
(dp3837
g70
I4
ssg71
g3831
sg64
(lp3838
S'web2py, python, framework'
p3839
asbasbasbasbasbasbasbag57
(g73
g59
NtRp3840
(dp3841
g62
(dp3842
sg71
g3119
sg64
(lp3843
g57
(g78
g59
NtRp3844
(dp3845
g62
(dp3846
g82
g83
ssg71
g3840
sg64
(lp3847
S'postprocessing'
p3848
asbag57
(g78
g59
NtRp3849
(dp3850
g62
(dp3851
g89
g90
ssg71
g3840
sg64
(lp3852
S':'
asbag57
(g78
g59
NtRp3853
(dp3854
g62
(dp3855
sg71
g3840
sg64
(lp3856
g57
(g58
g59
NtRp3857
(dp3858
g62
(dp3859
g70
I5
ssg71
g3853
sg64
(lp3860
g57
(g66
g59
NtRp3861
(dp3862
g62
(dp3863
g70
I4
ssg71
Nsg64
(lp3864
sbasbasbasbag57
(g73
g59
NtRp3865
(dp3866
g62
(dp3867
sg71
g3119
sg64
(lp3868
g57
(g78
g59
NtRp3869
(dp3870
g62
(dp3871
g82
g83
ssg71
g3865
sg64
(lp3872
S'session_file'
p3873
asbag57
(g78
g59
NtRp3874
(dp3875
g62
(dp3876
g89
g90
ssg71
g3865
sg64
(lp3877
S':'
asbag57
(g78
g59
NtRp3878
(dp3879
g62
(dp3880
sg71
g3865
sg64
(lp3881
g57
(g58
g59
NtRp3882
(dp3883
g62
(dp3884
g70
I5
ssg71
g3878
sg64
(lp3885
S"<open file '/home/unic/web2py/applications/Award_Manager/sessions/127.0.0.1-984d5df8-6c88-4a3d-bb1e-94e614db37f2', mode 'rb+' at 0xaab26c28>"
p3886
asbasbasbag57
(g73
g59
NtRp3887
(dp3888
g62
(dp3889
sg71
g3119
sg64
(lp3890
g57
(g78
g59
NtRp3891
(dp3892
g62
(dp3893
g82
g83
ssg71
g3887
sg64
(lp3894
S'session_filename'
p3895
asbag57
(g78
g59
NtRp3896
(dp3897
g62
(dp3898
g89
g90
ssg71
g3887
sg64
(lp3899
S':'
asbag57
(g78
g59
NtRp3900
(dp3901
g62
(dp3902
sg71
g3887
sg64
(lp3903
g57
(g58
g59
NtRp3904
(dp3905
g62
(dp3906
g70
I5
ssg71
g3900
sg64
(lp3907
S'/home/unic/web2py/applications/Award_Manager/sessions/127.0.0.1-984d5df8-6c88-4a3d-bb1e-94e614db37f2'
p3908
asbasbasbag57
(g73
g59
NtRp3909
(dp3910
g62
(dp3911
sg71
g3119
sg64
(lp3912
g57
(g78
g59
NtRp3913
(dp3914
g62
(dp3915
g82
g83
ssg71
g3909
sg64
(lp3916
S'session_id'
p3917
asbag57
(g78
g59
NtRp3918
(dp3919
g62
(dp3920
g89
g90
ssg71
g3909
sg64
(lp3921
S':'
asbag57
(g78
g59
NtRp3922
(dp3923
g62
(dp3924
sg71
g3909
sg64
(lp3925
g57
(g58
g59
NtRp3926
(dp3927
g62
(dp3928
g70
I5
ssg71
g3922
sg64
(lp3929
S'127.0.0.1-984d5df8-6c88-4a3d-bb1e-94e614db37f2'
p3930
asbasbasbag57
(g73
g59
NtRp3931
(dp3932
g62
(dp3933
sg71
g3119
sg64
(lp3934
g57
(g78
g59
NtRp3935
(dp3936
g62
(dp3937
g82
g83
ssg71
g3931
sg64
(lp3938
S'session_id_name'
p3939
asbag57
(g78
g59
NtRp3940
(dp3941
g62
(dp3942
g89
g90
ssg71
g3931
sg64
(lp3943
S':'
asbag57
(g78
g59
NtRp3944
(dp3945
g62
(dp3946
sg71
g3931
sg64
(lp3947
g57
(g58
g59
NtRp3948
(dp3949
g62
(dp3950
g70
I5
ssg71
g3944
sg64
(lp3951
g3176
asbasbasbag57
(g73
g59
NtRp3952
(dp3953
g62
(dp3954
sg71
g3119
sg64
(lp3955
g57
(g78
g59
NtRp3956
(dp3957
g62
(dp3958
g82
g83
ssg71
g3952
sg64
(lp3959
S'session_locked'
p3960
asbag57
(g78
g59
NtRp3961
(dp3962
g62
(dp3963
g89
g90
ssg71
g3952
sg64
(lp3964
S':'
asbag57
(g78
g59
NtRp3965
(dp3966
g62
(dp3967
sg71
g3952
sg64
(lp3968
g57
(g58
g59
NtRp3969
(dp3970
g62
(dp3971
g70
I5
ssg71
g3965
sg64
(lp3972
g1669
asbasbasbag57
(g73
g59
NtRp3973
(dp3974
g62
(dp3975
sg71
g3119
sg64
(lp3976
g57
(g78
g59
NtRp3977
(dp3978
g62
(dp3979
g82
g83
ssg71
g3973
sg64
(lp3980
S'session_new'
p3981
asbag57
(g78
g59
NtRp3982
(dp3983
g62
(dp3984
g89
g90
ssg71
g3973
sg64
(lp3985
S':'
asbag57
(g78
g59
NtRp3986
(dp3987
g62
(dp3988
sg71
g3973
sg64
(lp3989
g57
(g58
g59
NtRp3990
(dp3991
g62
(dp3992
g70
I5
ssg71
g3986
sg64
(lp3993
g100
asbasbasbag57
(g73
g59
NtRp3994
(dp3995
g62
(dp3996
sg71
g3119
sg64
(lp3997
g57
(g78
g59
NtRp3998
(dp3999
g62
(dp4000
g82
g83
ssg71
g3994
sg64
(lp4001
S'status'
p4002
asbag57
(g78
g59
NtRp4003
(dp4004
g62
(dp4005
g89
g90
ssg71
g3994
sg64
(lp4006
S':'
asbag57
(g78
g59
NtRp4007
(dp4008
g62
(dp4009
sg71
g3994
sg64
(lp4010
g57
(g58
g59
NtRp4011
(dp4012
g62
(dp4013
g70
I5
ssg71
g4007
sg64
(lp4014
S'200'
p4015
asbasbasbag57
(g73
g59
NtRp4016
(dp4017
g62
(dp4018
sg71
g3119
sg64
(lp4019
g57
(g78
g59
NtRp4020
(dp4021
g62
(dp4022
g82
g83
ssg71
g4016
sg64
(lp4023
S'subtitle'
p4024
asbag57
(g78
g59
NtRp4025
(dp4026
g62
(dp4027
g89
g90
ssg71
g4016
sg64
(lp4028
S':'
asbag57
(g78
g59
NtRp4029
(dp4030
g62
(dp4031
sg71
g4016
sg64
(lp4032
g57
(g58
g59
NtRp4033
(dp4034
g62
(dp4035
g70
I5
ssg71
g4029
sg64
(lp4036
g3624
(S's\r\x00\x00\x00customize me!'
tRp4037
asbasbasbag57
(g73
g59
NtRp4038
(dp4039
g62
(dp4040
sg71
g3119
sg64
(lp4041
g57
(g78
g59
NtRp4042
(dp4043
g62
(dp4044
g82
g83
ssg71
g4038
sg64
(lp4045
S'title'
p4046
asbag57
(g78
g59
NtRp4047
(dp4048
g62
(dp4049
g89
g90
ssg71
g4038
sg64
(lp4050
S':'
asbag57
(g78
g59
NtRp4051
(dp4052
g62
(dp4053
sg71
g4038
sg64
(lp4054
g57
(g58
g59
NtRp4055
(dp4056
g62
(dp4057
g70
I5
ssg71
g4051
sg64
(lp4058
S'Award Manager'
p4059
asbasbasbag57
(g73
g59
NtRp4060
(dp4061
g62
(dp4062
sg71
g3119
sg64
(lp4063
g57
(g78
g59
NtRp4064
(dp4065
g62
(dp4066
g82
g83
ssg71
g4060
sg64
(lp4067
g2354
asbag57
(g78
g59
NtRp4068
(dp4069
g62
(dp4070
g89
g90
ssg71
g4060
sg64
(lp4071
S':'
asbag57
(g78
g59
NtRp4072
(dp4073
g62
(dp4074
sg71
g4060
sg64
(lp4075
g57
(g58
g59
NtRp4076
(dp4077
g62
(dp4078
g70
I5
ssg71
g4072
sg64
(lp4079
g2367
asbasbasbag57
(g73
g59
NtRp4080
(dp4081
g62
(dp4082
sg71
g3119
sg64
(lp4083
g57
(g78
g59
NtRp4084
(dp4085
g62
(dp4086
g82
g83
ssg71
g4080
sg64
(lp4087
S'view'
p4088
asbag57
(g78
g59
NtRp4089
(dp4090
g62
(dp4091
g89
g90
ssg71
g4080
sg64
(lp4092
S':'
asbag57
(g78
g59
NtRp4093
(dp4094
g62
(dp4095
sg71
g4080
sg64
(lp4096
g57
(g58
g59
NtRp4097
(dp4098
g62
(dp4099
g70
I5
ssg71
g4093
sg64
(lp4100
S'default/total.html'
p4101
asbasbasbasbasbsS'locals'
p4102
(dp4103
S'i'
S"<Row {'Name': '', 'RollNo': '', 'update_record':...lete_record': <function <lambda> at 0xb357fd14>}>"
p4104
sS'users'
p4105
S'<gluon.dal.Rows object>'
p4106
sssS'traceback'
p4107
S'Traceback (most recent call last):\n  File "/usr/lib/pymodules/python2.7/gluon/restricted.py", line 204, in restricted\n    exec ccode in environment\n  File "/home/unic/web2py/applications/Award_Manager/controllers/default.py", line 245, in <module>\n  File "/usr/lib/pymodules/python2.7/gluon/globals.py", line 172, in <lambda>\n    self._caller = lambda f: f()\n  File "/home/unic/web2py/applications/Award_Manager/controllers/default.py", line 89, in total\n    request.args[0] = int(request.args[0] + i.Total)\nTypeError: cannot concatenate \'str\' and \'int\' objects\n'
p4108
s.