(dp1
S'output'
p2
S"<type 'exceptions.SyntaxError'> invalid syntax (login.html, line 56)"
p3
sS'layer'
p4
S'/home/madhuri/Downloads/web2py/applications/manager/views/default/login.html'
p5
sS'code'
p6
S'response.write(\'<!DOCTYPE html PUBLIC "-//W3C//DTD XHTML 1.0 Transitional//EN" "http://www.w3.org/TR/xhtml1/DTD/xhtml1-transitional.dtd">\\n<!--\\nAuthor: Reality Software\\nWebsite: http://www.realitysoftware.ca\\nNote: This is a free template released under the Creative Commons Attribution 3.0 license, \\nwhich means you can use it in any way you want provided you keep links to the author intact.\\n-->\\n<html xmlns="http://www.w3.org/1999/xhtml">\\n <head>\\n  <title>\\n   \', escape=False)\nresponse.write(response.title or request.application)\nresponse.write(\'\\n  </title>\\n  \', escape=False)\nresponse.files.append(URL(request.application,\'static\',\'plugin_layouts/layouts/Papira/style.css\'))\nresponse.write(\'\\n  \', escape=False)\nresponse.files.append(URL(\'static\',\'plugin_layouts/superfish.js\'))\nresponse.write(\'\\n  \', escape=False)\nresponse.write(\'<script type="text/javascript"><!--\\n    // These variables are used by the web2py_ajax_init function in web2py_ajax.js (which is loaded below).\\n    var w2p_ajax_confirm_message = "\', escape=False)\nresponse.write(T(\'Are you sure you want to delete this object?\'))\nresponse.write(\'";\\n    var w2p_ajax_date_format = "\', escape=False)\nresponse.write(T(\'%Y-%m-%d\'))\nresponse.write(\'";\\n    var w2p_ajax_datetime_format = "\', escape=False)\nresponse.write(T(\'%Y-%m-%d %H:%M:%S\'))\nresponse.write(\'";\\n    //--></script>\\n\', escape=False)\nresponse.files.insert(0,URL(\'static\',\'js/jquery.js\'))\nresponse.files.insert(3,URL(\'static\',\'js/web2py.js\'))\nresponse.include_meta()\nresponse.include_files()\nresponse.write(\'\\n\', escape=False)\nresponse.write(\'\\n  <style>\\nul.web2py-menu-vertical { width: 150px; position: relative; top:1em; left:1em;  z-index:30; border:0; margin:0; padding: 0; list-style: none; text-decoration: none;}\\nul.web2py-menu-vertical li { margin:0; padding:0; border:0; width: 150px; background: black; text-align:left;}\\nul.web2py-menu-vertical li a { margin:0; padding: 1px 3px 1px 3px; border:0; width: 144px; color: white; font-size:12px;}\\ndiv.flash { position: fixed; float: right; padding: 10px; top: 10px; right: 30px; opacity: 0.75; margin: 10px 10px 10px 10px; text-align: center; clear: both; color: #fff; font-size: 11pt; text-align: center; vertical-align: middle; cursor: pointer; background: black; border: 2px solid #fff; -moz-border-radius: 5px; -webkit-border-radius: 5px; z-index: 2; }\\ndiv.error { background-color: red; color: white; padding: 3px; }\\n.auth_navbar { text-align:right; z-index:20; position: absolute; top: 2px; right:30px; border:0; padding:0 }\\n  </style>\\n </head>\\n <body>\\n\\n\\n  <div id="all">\\n   <div id="container">\\n    <!-- header -->\\n    <div id="logo">\\n     <a href="#">\\n      <span class="brown">\\n       <strong>\\n        Award\\n       </strong>\\n      </span>\\n      Manager\\n     </a>\\n    </div>\\n    <div id="menu">\\n        <p>hello</p>\\n       </div>\\n    <div id="sidebar">\\n        <br/><br/><br/>\\n     <table>\\n     <h2>\\n     \', escape=False)\nif session.token=="neeharikak.v@students.iiit.ac.in" :\n    response.write(\'\\n         <tr><td><b>&nbsp;&nbsp;&nbsp;&nbsp;&nbsp;&nbsp;&nbsp;&nbsp;&nbsp;&nbsp;&nbsp;&nbsp;&nbsp;<a href="\', escape=False)\n    response.write(URL(r = request, f = \'index\'))\n    response.write(\'">Home</a> </b></td></tr>\\n        \\n        \\n     <tr><td><b>&nbsp;&nbsp;&nbsp;&nbsp;&nbsp;&nbsp;&nbsp;&nbsp;&nbsp;&nbsp;&nbsp;&nbsp;&nbsp;<a href="\', escape=False)\n    response.write(URL(r = request, f = \'Admin\'))\n    response.write(\'">Amount</a></b></td></tr>\\n     <tr><td><b>&nbsp;&nbsp;&nbsp;&nbsp;&nbsp;&nbsp;&nbsp;&nbsp;&nbsp;&nbsp;&nbsp;&nbsp;&nbsp;<a href="\', escape=False)\n    response.write(URL(r = request, f = \'upload\'))\n    response.write(\'">Students List</a></b></td></tr>\\n         <tr><td>&nbsp;&nbsp;&nbsp;&nbsp;&nbsp;&nbsp;&nbsp;&nbsp;&nbsp;&nbsp;&nbsp;&nbsp;&nbsp;<b><a href="\', escape=False)\n    response.write(URL(r = request, f = \'upload1\'))\n    response.write(\'">Book List</a></b></td></tr>\\n     <tr><td><b>&nbsp;&nbsp;&nbsp;&nbsp;&nbsp;&nbsp;&nbsp;&nbsp;&nbsp;&nbsp;&nbsp;&nbsp;&nbsp;<a href="\', escape=False)\n    response.write(URL(r = request, f = \'choose\'))\n    response.write(\'">Allot</a></b></td></tr>\\n     <tr><td><b>&nbsp;&nbsp;&nbsp;&nbsp;&nbsp;&nbsp;&nbsp;&nbsp;&nbsp;&nbsp;&nbsp;&nbsp;&nbsp;<a href="\', escape=False)\n    response.write(URL(r = request, f = \'total\'))\n    response.write(\'">Output</a></b></td></tr>\\n         <tr><td><b>&nbsp;&nbsp;&nbsp;&nbsp;&nbsp;&nbsp;&nbsp;&nbsp;&nbsp;&nbsp;&nbsp;&nbsp;&nbsp;<a href="\', escape=False)\n    response.write(URL(r = request, f = \'alloted\'))\n    response.write(\'">Alloted_students</a></b><td></tr>\\n     <tr><td><b>&nbsp;&nbsp;&nbsp;&nbsp;&nbsp;&nbsp;&nbsp;&nbsp;&nbsp;&nbsp;&nbsp;&nbsp;&nbsp;<a href="\', escape=False)\n    response.write(URL(r = request, f = \'label\'))\n    response.write(\'">Get_labels</a></b></td></tr>\\n     <tr><td><b>&nbsp;&nbsp;&nbsp;&nbsp;&nbsp;&nbsp;&nbsp;&nbsp;&nbsp;&nbsp;&nbsp;&nbsp;&nbsp;<a href="\', escape=False)\n    response.write(URL(r = request, f = \'drop1m\'))\n    response.write(\'">Done</a></b></td></tr>\\n      <tr><td><b>&nbsp;&nbsp;&nbsp;&nbsp;&nbsp;&nbsp;&nbsp;&nbsp;&nbsp;&nbsp;&nbsp;&nbsp;&nbsp;<a href="\', escape=False)\n    response.write(URL(r = request, f = \'logout\'))\n    response.write(\'">Logout</a></b></td></tr>\\n      \', escape=False)\n    pass\nresponse.write(\'\\n         </h2>\\n    </table>\\n      \\n     </ul>\\n       </div>\\n    <script>\\n      jQuery(document).ready(function(){jQuery(\\\'ul.web2py-menu\\\').superfish({delay:400});});\\n    </script>\\n    </div>\\n    <!--end header -->\\n    <!-- main -->\\n    <div id="main">\\n     <div class="flash">\', escape=False)\nresponse.write(response.flash or \'\')\nresponse.write(\'</div>\\n     \', escape=False)\nresponse.write(\'\\n\', escape=False)\nid1=[]\nresponse.write(\'\\n\\n\\n\', escape=False)\nfor rows in db(db.User.Email == session.token).select():\n    response.write(\'\\n\', escape=False)\n    id1 =rows\n    response.write(\'\\n\', escape=False)\n    pass\nresponse.write(\'\\n\', escape=False)\nid1 == NULL  and  session.token != "neeharikak.v@students.iiit.ac.in":\n    response.write(\'\\n\', escape=False)\n    redirect(URL(r=request,f=\'logout\'))\n    response.write(\'\\n\', escape=False)\n    pass\nresponse.write(\'\\n\', escape=False)\nif len(id1) !=0:\n    response.write(\'\\n\\n\\n\', escape=False)\n    redirect(URL(r=request,f=\'index\'))\n    response.write(\'\\n\', escape=False)\n    pass\nresponse.write(\'\\n\', escape=False)\nif  session.token == "neeharikak.v@students.iiit.ac.in":\n    response.write(\'\\n\\n\\n\', escape=False)\n    redirect(URL(r=request,f=\'index\'))\n    response.write(\'\\n\', escape=False)\n    pass\nresponse.write(\'\\n\', escape=False)\nresponse.write(\'\\n    </div>\\n    <!-- end main -->\\n    <!-- footer -->\\n    <div id="footer">\\n     <div id="left_footer">\\n      &copy; Copyright 2008 Your website\\n     </div>\\n     <div id="right_footer">\\n      <!-- Please do not change or delete this links. Read the license! Thanks. :-) -->\\n      <a href="http://www.realitysoftware.ca/website-design.html">\\n       Website design\\n      </a>\\n      by\\n      <a href="http://www.realitysoftware.ca">\\n       Reality Software\\n      </a>\\n     </div>\\n    </div>\\n    <!-- end footer -->\\n   </div>\\n  </div>\\n </body>\\n</html>\\n\', escape=False)'
p7
sS'snapshot'
p8
(dp9
S'exception'
p10
(dp11
S'__getslice__'
p12
S"<method-wrapper '__getslice__' of exceptions.SyntaxError object>"
p13
sS'text'
p14
S'\'id1 == NULL  and  session.token != "neeharikak.v@students.iiit.ac.in":\\n\''
p15
sS'__str__'
p16
S"<method-wrapper '__str__' of exceptions.SyntaxError object>"
p17
sS'__reduce__'
p18
S'<built-in method __reduce__ of exceptions.SyntaxError object>'
p19
sS'__dict__'
p20
S'{}'
p21
sS'__sizeof__'
p22
S'<built-in method __sizeof__ of exceptions.SyntaxError object>'
p23
sS'__init__'
p24
S"<method-wrapper '__init__' of exceptions.SyntaxError object>"
p25
sS'__setattr__'
p26
S"<method-wrapper '__setattr__' of exceptions.SyntaxError object>"
p27
sS'__reduce_ex__'
p28
S'<built-in method __reduce_ex__ of exceptions.SyntaxError object>'
p29
sS'__new__'
p30
S'<built-in method __new__ of type object>'
p31
sS'__format__'
p32
S'<built-in method __format__ of exceptions.SyntaxError object>'
p33
sS'__class__'
p34
S"<type 'exceptions.SyntaxError'>"
p35
sS'filename'
p36
S"'/home/madhuri/Downloads/web2py/applications/manager/views/default/login.html'"
p37
sS'lineno'
p38
S'56'
p39
sS'msg'
p40
S"'invalid syntax'"
p41
sS'__doc__'
p42
S"'Invalid syntax.'"
p43
sS'__getitem__'
p44
S"<method-wrapper '__getitem__' of exceptions.SyntaxError object>"
p45
sS'__setstate__'
p46
S'<built-in method __setstate__ of exceptions.SyntaxError object>'
p47
sS'__getattribute__'
p48
S"<method-wrapper '__getattribute__' of exceptions.SyntaxError object>"
p49
sS'print_file_and_line'
p50
S'None'
p51
sS'args'
p52
S'(\'invalid syntax\', (\'/home/madhuri/Downloads/web2py/applications/manager/views/default/login.html\', 56, 70, \'id1 == NULL  and  session.token != "neeharikak.v@students.iiit.ac.in":\\n\'))'
p53
sS'__subclasshook__'
p54
S'<built-in method __subclasshook__ of type object>'
p55
sS'offset'
p56
S'70'
p57
sS'__unicode__'
p58
S'<built-in method __unicode__ of exceptions.SyntaxError object>'
p59
sS'__delattr__'
p60
S"<method-wrapper '__delattr__' of exceptions.SyntaxError object>"
p61
sS'__repr__'
p62
S"<method-wrapper '__repr__' of exceptions.SyntaxError object>"
p63
sS'__hash__'
p64
S"<method-wrapper '__hash__' of exceptions.SyntaxError object>"
p65
ssS'evalue'
p66
S'invalid syntax (login.html, line 56)'
p67
sS'request'
p68
ccopy_reg
_reconstructor
p69
(cgluon.html
BEAUTIFY
p70
c__builtin__
object
p71
NtRp72
(dp73
S'attributes'
p74
(dp75
sS'components'
p76
(lp77
g69
(cgluon.html
TABLE
p78
g71
NtRp79
(dp80
g74
(dp81
S'level'
p82
I5
ssS'parent'
p83
Nsg76
(lp84
g69
(cgluon.html
TR
p85
g71
NtRp86
(dp87
g74
(dp88
sg83
g79
sg76
(lp89
g69
(cgluon.html
TD
p90
g71
NtRp91
(dp92
g74
(dp93
S'_style'
p94
S'font-weight:bold;vertical-align:top'
p95
ssg83
g86
sg76
(lp96
S'ajax'
p97
asbag69
(g90
g71
NtRp98
(dp99
g74
(dp100
S'_valign'
p101
S'top'
p102
ssg83
g86
sg76
(lp103
S':'
asbag69
(g90
g71
NtRp104
(dp105
g74
(dp106
sg83
g86
sg76
(lp107
g69
(g70
g71
NtRp108
(dp109
g74
(dp110
g82
I5
ssg83
g104
sg76
(lp111
S'False'
p112
asbasbasbag69
(g85
g71
NtRp113
(dp114
g74
(dp115
sg83
g79
sg76
(lp116
g69
(g90
g71
NtRp117
(dp118
g74
(dp119
g94
g95
ssg83
g113
sg76
(lp120
S'application'
p121
asbag69
(g90
g71
NtRp122
(dp123
g74
(dp124
g101
g102
ssg83
g113
sg76
(lp125
S':'
asbag69
(g90
g71
NtRp126
(dp127
g74
(dp128
sg83
g113
sg76
(lp129
g69
(g70
g71
NtRp130
(dp131
g74
(dp132
g82
I5
ssg83
g126
sg76
(lp133
S'manager'
p134
asbasbasbag69
(g85
g71
NtRp135
(dp136
g74
(dp137
sg83
g79
sg76
(lp138
g69
(g90
g71
NtRp139
(dp140
g74
(dp141
g94
g95
ssg83
g135
sg76
(lp142
g52
asbag69
(g90
g71
NtRp143
(dp144
g74
(dp145
g101
g102
ssg83
g135
sg76
(lp146
S':'
asbag69
(g90
g71
NtRp147
(dp148
g74
(dp149
sg83
g135
sg76
(lp150
g69
(g70
g71
NtRp151
(dp152
g74
(dp153
g82
I5
ssg83
g147
sg76
(lp154
g69
(g78
g71
NtRp155
(dp156
g74
(dp157
g82
I4
ssg83
Nsg76
(lp158
sbasbasbasbag69
(g85
g71
NtRp159
(dp160
g74
(dp161
sg83
g79
sg76
(lp162
g69
(g90
g71
NtRp163
(dp164
g74
(dp165
g94
g95
ssg83
g159
sg76
(lp166
S'body'
p167
asbag69
(g90
g71
NtRp168
(dp169
g74
(dp170
g101
g102
ssg83
g159
sg76
(lp171
S':'
asbag69
(g90
g71
NtRp172
(dp173
g74
(dp174
sg83
g159
sg76
(lp175
g69
(g70
g71
NtRp176
(dp177
g74
(dp178
g82
I5
ssg83
g172
sg76
(lp179
S'<cStringIO.StringO object at 0x7f202c4ce538>'
p180
asbasbasbag69
(g85
g71
NtRp181
(dp182
g74
(dp183
sg83
g79
sg76
(lp184
g69
(g90
g71
NtRp185
(dp186
g74
(dp187
g94
g95
ssg83
g181
sg76
(lp188
S'cid'
p189
asbag69
(g90
g71
NtRp190
(dp191
g74
(dp192
g101
g102
ssg83
g181
sg76
(lp193
S':'
asbag69
(g90
g71
NtRp194
(dp195
g74
(dp196
sg83
g181
sg76
(lp197
g69
(g70
g71
NtRp198
(dp199
g74
(dp200
g82
I5
ssg83
g194
sg76
(lp201
S'None'
p202
asbasbasbag69
(g85
g71
NtRp203
(dp204
g74
(dp205
sg83
g79
sg76
(lp206
g69
(g90
g71
NtRp207
(dp208
g74
(dp209
g94
g95
ssg83
g203
sg76
(lp210
S'client'
p211
asbag69
(g90
g71
NtRp212
(dp213
g74
(dp214
g101
g102
ssg83
g203
sg76
(lp215
S':'
asbag69
(g90
g71
NtRp216
(dp217
g74
(dp218
sg83
g203
sg76
(lp219
g69
(g70
g71
NtRp220
(dp221
g74
(dp222
g82
I5
ssg83
g216
sg76
(lp223
S'127.0.0.1'
p224
asbasbasbag69
(g85
g71
NtRp225
(dp226
g74
(dp227
sg83
g79
sg76
(lp228
g69
(g90
g71
NtRp229
(dp230
g74
(dp231
g94
g95
ssg83
g225
sg76
(lp232
S'controller'
p233
asbag69
(g90
g71
NtRp234
(dp235
g74
(dp236
g101
g102
ssg83
g225
sg76
(lp237
S':'
asbag69
(g90
g71
NtRp238
(dp239
g74
(dp240
sg83
g225
sg76
(lp241
g69
(g70
g71
NtRp242
(dp243
g74
(dp244
g82
I5
ssg83
g238
sg76
(lp245
S'default'
p246
asbasbasbag69
(g85
g71
NtRp247
(dp248
g74
(dp249
sg83
g79
sg76
(lp250
g69
(g90
g71
NtRp251
(dp252
g74
(dp253
g94
g95
ssg83
g247
sg76
(lp254
S'cookies'
p255
asbag69
(g90
g71
NtRp256
(dp257
g74
(dp258
g101
g102
ssg83
g247
sg76
(lp259
S':'
asbag69
(g90
g71
NtRp260
(dp261
g74
(dp262
sg83
g247
sg76
(lp263
g69
(g70
g71
NtRp264
(dp265
g74
(dp266
g82
I5
ssg83
g260
sg76
(lp267
g69
(g78
g71
NtRp268
(dp269
g74
(dp270
g82
I4
ssg83
Nsg76
(lp271
g69
(g85
g71
NtRp272
(dp273
g74
(dp274
sg83
g268
sg76
(lp275
g69
(g90
g71
NtRp276
(dp277
g74
(dp278
g94
g95
ssg83
g272
sg76
(lp279
S'session_id_admin'
p280
asbag69
(g90
g71
NtRp281
(dp282
g74
(dp283
g101
g102
ssg83
g272
sg76
(lp284
S':'
asbag69
(g90
g71
NtRp285
(dp286
g74
(dp287
sg83
g272
sg76
(lp288
g69
(g70
g71
NtRp289
(dp290
g74
(dp291
g82
I4
ssg83
g285
sg76
(lp292
S'127.0.0.1-5397ac8a-431d-4526-b620-53d2814c64d9'
p293
ag69
(g78
g71
NtRp294
(dp295
g74
(dp296
g82
I3
ssg83
Nsg76
(lp297
g69
(g85
g71
NtRp298
(dp299
g74
(dp300
sg83
g294
sg76
(lp301
g69
(g90
g71
NtRp302
(dp303
g74
(dp304
g94
g95
ssg83
g298
sg76
(lp305
S'comment'
p306
asbag69
(g90
g71
NtRp307
(dp308
g74
(dp309
g101
g102
ssg83
g298
sg76
(lp310
S':'
asbag69
(g90
g71
NtRp311
(dp312
g74
(dp313
sg83
g298
sg76
(lp314
g69
(g70
g71
NtRp315
(dp316
g74
(dp317
g82
I3
ssg83
g311
sg76
(lp318
S''
asbasbasbag69
(g85
g71
NtRp319
(dp320
g74
(dp321
sg83
g294
sg76
(lp322
g69
(g90
g71
NtRp323
(dp324
g74
(dp325
g94
g95
ssg83
g319
sg76
(lp326
S'domain'
p327
asbag69
(g90
g71
NtRp328
(dp329
g74
(dp330
g101
g102
ssg83
g319
sg76
(lp331
S':'
asbag69
(g90
g71
NtRp332
(dp333
g74
(dp334
sg83
g319
sg76
(lp335
g69
(g70
g71
NtRp336
(dp337
g74
(dp338
g82
I3
ssg83
g332
sg76
(lp339
S''
asbasbasbag69
(g85
g71
NtRp340
(dp341
g74
(dp342
sg83
g294
sg76
(lp343
g69
(g90
g71
NtRp344
(dp345
g74
(dp346
g94
g95
ssg83
g340
sg76
(lp347
S'expires'
p348
asbag69
(g90
g71
NtRp349
(dp350
g74
(dp351
g101
g102
ssg83
g340
sg76
(lp352
S':'
asbag69
(g90
g71
NtRp353
(dp354
g74
(dp355
sg83
g340
sg76
(lp356
g69
(g70
g71
NtRp357
(dp358
g74
(dp359
g82
I3
ssg83
g353
sg76
(lp360
S''
asbasbasbag69
(g85
g71
NtRp361
(dp362
g74
(dp363
sg83
g294
sg76
(lp364
g69
(g90
g71
NtRp365
(dp366
g74
(dp367
g94
g95
ssg83
g361
sg76
(lp368
S'httponly'
p369
asbag69
(g90
g71
NtRp370
(dp371
g74
(dp372
g101
g102
ssg83
g361
sg76
(lp373
S':'
asbag69
(g90
g71
NtRp374
(dp375
g74
(dp376
sg83
g361
sg76
(lp377
g69
(g70
g71
NtRp378
(dp379
g74
(dp380
g82
I3
ssg83
g374
sg76
(lp381
S''
asbasbasbag69
(g85
g71
NtRp382
(dp383
g74
(dp384
sg83
g294
sg76
(lp385
g69
(g90
g71
NtRp386
(dp387
g74
(dp388
g94
g95
ssg83
g382
sg76
(lp389
S'max-age'
p390
asbag69
(g90
g71
NtRp391
(dp392
g74
(dp393
g101
g102
ssg83
g382
sg76
(lp394
S':'
asbag69
(g90
g71
NtRp395
(dp396
g74
(dp397
sg83
g382
sg76
(lp398
g69
(g70
g71
NtRp399
(dp400
g74
(dp401
g82
I3
ssg83
g395
sg76
(lp402
S''
asbasbasbag69
(g85
g71
NtRp403
(dp404
g74
(dp405
sg83
g294
sg76
(lp406
g69
(g90
g71
NtRp407
(dp408
g74
(dp409
g94
g95
ssg83
g403
sg76
(lp410
S'path'
p411
asbag69
(g90
g71
NtRp412
(dp413
g74
(dp414
g101
g102
ssg83
g403
sg76
(lp415
S':'
asbag69
(g90
g71
NtRp416
(dp417
g74
(dp418
sg83
g403
sg76
(lp419
g69
(g70
g71
NtRp420
(dp421
g74
(dp422
g82
I3
ssg83
g416
sg76
(lp423
S''
asbasbasbag69
(g85
g71
NtRp424
(dp425
g74
(dp426
sg83
g294
sg76
(lp427
g69
(g90
g71
NtRp428
(dp429
g74
(dp430
g94
g95
ssg83
g424
sg76
(lp431
S'secure'
p432
asbag69
(g90
g71
NtRp433
(dp434
g74
(dp435
g101
g102
ssg83
g424
sg76
(lp436
S':'
asbag69
(g90
g71
NtRp437
(dp438
g74
(dp439
sg83
g424
sg76
(lp440
g69
(g70
g71
NtRp441
(dp442
g74
(dp443
g82
I3
ssg83
g437
sg76
(lp444
S''
asbasbasbag69
(g85
g71
NtRp445
(dp446
g74
(dp447
sg83
g294
sg76
(lp448
g69
(g90
g71
NtRp449
(dp450
g74
(dp451
g94
g95
ssg83
g445
sg76
(lp452
S'version'
p453
asbag69
(g90
g71
NtRp454
(dp455
g74
(dp456
g101
g102
ssg83
g445
sg76
(lp457
S':'
asbag69
(g90
g71
NtRp458
(dp459
g74
(dp460
sg83
g445
sg76
(lp461
g69
(g70
g71
NtRp462
(dp463
g74
(dp464
g82
I3
ssg83
g458
sg76
(lp465
S''
asbasbasbasbasbasbasbag69
(g85
g71
NtRp466
(dp467
g74
(dp468
sg83
g268
sg76
(lp469
g69
(g90
g71
NtRp470
(dp471
g74
(dp472
g94
g95
ssg83
g466
sg76
(lp473
S'session_id_manager'
p474
asbag69
(g90
g71
NtRp475
(dp476
g74
(dp477
g101
g102
ssg83
g466
sg76
(lp478
S':'
asbag69
(g90
g71
NtRp479
(dp480
g74
(dp481
sg83
g466
sg76
(lp482
g69
(g70
g71
NtRp483
(dp484
g74
(dp485
g82
I4
ssg83
g479
sg76
(lp486
S'127.0.0.1-6f272149-6c92-44cc-85ba-c8ea1e4f1e04'
p487
ag69
(g78
g71
NtRp488
(dp489
g74
(dp490
g82
I3
ssg83
Nsg76
(lp491
g69
(g85
g71
NtRp492
(dp493
g74
(dp494
sg83
g488
sg76
(lp495
g69
(g90
g71
NtRp496
(dp497
g74
(dp498
g94
g95
ssg83
g492
sg76
(lp499
g306
asbag69
(g90
g71
NtRp500
(dp501
g74
(dp502
g101
g102
ssg83
g492
sg76
(lp503
S':'
asbag69
(g90
g71
NtRp504
(dp505
g74
(dp506
sg83
g492
sg76
(lp507
g69
(g70
g71
NtRp508
(dp509
g74
(dp510
g82
I3
ssg83
g504
sg76
(lp511
S''
asbasbasbag69
(g85
g71
NtRp512
(dp513
g74
(dp514
sg83
g488
sg76
(lp515
g69
(g90
g71
NtRp516
(dp517
g74
(dp518
g94
g95
ssg83
g512
sg76
(lp519
g327
asbag69
(g90
g71
NtRp520
(dp521
g74
(dp522
g101
g102
ssg83
g512
sg76
(lp523
S':'
asbag69
(g90
g71
NtRp524
(dp525
g74
(dp526
sg83
g512
sg76
(lp527
g69
(g70
g71
NtRp528
(dp529
g74
(dp530
g82
I3
ssg83
g524
sg76
(lp531
S''
asbasbasbag69
(g85
g71
NtRp532
(dp533
g74
(dp534
sg83
g488
sg76
(lp535
g69
(g90
g71
NtRp536
(dp537
g74
(dp538
g94
g95
ssg83
g532
sg76
(lp539
g348
asbag69
(g90
g71
NtRp540
(dp541
g74
(dp542
g101
g102
ssg83
g532
sg76
(lp543
S':'
asbag69
(g90
g71
NtRp544
(dp545
g74
(dp546
sg83
g532
sg76
(lp547
g69
(g70
g71
NtRp548
(dp549
g74
(dp550
g82
I3
ssg83
g544
sg76
(lp551
S''
asbasbasbag69
(g85
g71
NtRp552
(dp553
g74
(dp554
sg83
g488
sg76
(lp555
g69
(g90
g71
NtRp556
(dp557
g74
(dp558
g94
g95
ssg83
g552
sg76
(lp559
g369
asbag69
(g90
g71
NtRp560
(dp561
g74
(dp562
g101
g102
ssg83
g552
sg76
(lp563
S':'
asbag69
(g90
g71
NtRp564
(dp565
g74
(dp566
sg83
g552
sg76
(lp567
g69
(g70
g71
NtRp568
(dp569
g74
(dp570
g82
I3
ssg83
g564
sg76
(lp571
S''
asbasbasbag69
(g85
g71
NtRp572
(dp573
g74
(dp574
sg83
g488
sg76
(lp575
g69
(g90
g71
NtRp576
(dp577
g74
(dp578
g94
g95
ssg83
g572
sg76
(lp579
g390
asbag69
(g90
g71
NtRp580
(dp581
g74
(dp582
g101
g102
ssg83
g572
sg76
(lp583
S':'
asbag69
(g90
g71
NtRp584
(dp585
g74
(dp586
sg83
g572
sg76
(lp587
g69
(g70
g71
NtRp588
(dp589
g74
(dp590
g82
I3
ssg83
g584
sg76
(lp591
S''
asbasbasbag69
(g85
g71
NtRp592
(dp593
g74
(dp594
sg83
g488
sg76
(lp595
g69
(g90
g71
NtRp596
(dp597
g74
(dp598
g94
g95
ssg83
g592
sg76
(lp599
g411
asbag69
(g90
g71
NtRp600
(dp601
g74
(dp602
g101
g102
ssg83
g592
sg76
(lp603
S':'
asbag69
(g90
g71
NtRp604
(dp605
g74
(dp606
sg83
g592
sg76
(lp607
g69
(g70
g71
NtRp608
(dp609
g74
(dp610
g82
I3
ssg83
g604
sg76
(lp611
S''
asbasbasbag69
(g85
g71
NtRp612
(dp613
g74
(dp614
sg83
g488
sg76
(lp615
g69
(g90
g71
NtRp616
(dp617
g74
(dp618
g94
g95
ssg83
g612
sg76
(lp619
g432
asbag69
(g90
g71
NtRp620
(dp621
g74
(dp622
g101
g102
ssg83
g612
sg76
(lp623
S':'
asbag69
(g90
g71
NtRp624
(dp625
g74
(dp626
sg83
g612
sg76
(lp627
g69
(g70
g71
NtRp628
(dp629
g74
(dp630
g82
I3
ssg83
g624
sg76
(lp631
S''
asbasbasbag69
(g85
g71
NtRp632
(dp633
g74
(dp634
sg83
g488
sg76
(lp635
g69
(g90
g71
NtRp636
(dp637
g74
(dp638
g94
g95
ssg83
g632
sg76
(lp639
g453
asbag69
(g90
g71
NtRp640
(dp641
g74
(dp642
g101
g102
ssg83
g632
sg76
(lp643
S':'
asbag69
(g90
g71
NtRp644
(dp645
g74
(dp646
sg83
g632
sg76
(lp647
g69
(g70
g71
NtRp648
(dp649
g74
(dp650
g82
I3
ssg83
g644
sg76
(lp651
S''
asbasbasbasbasbasbasbag69
(g85
g71
NtRp652
(dp653
g74
(dp654
sg83
g268
sg76
(lp655
g69
(g90
g71
NtRp656
(dp657
g74
(dp658
g94
g95
ssg83
g652
sg76
(lp659
S'session_id_welcome'
p660
asbag69
(g90
g71
NtRp661
(dp662
g74
(dp663
g101
g102
ssg83
g652
sg76
(lp664
S':'
asbag69
(g90
g71
NtRp665
(dp666
g74
(dp667
sg83
g652
sg76
(lp668
g69
(g70
g71
NtRp669
(dp670
g74
(dp671
g82
I4
ssg83
g665
sg76
(lp672
S'127.0.0.1-41848e09-37fe-4fe9-b4ff-4803b97c2ae3'
p673
ag69
(g78
g71
NtRp674
(dp675
g74
(dp676
g82
I3
ssg83
Nsg76
(lp677
g69
(g85
g71
NtRp678
(dp679
g74
(dp680
sg83
g674
sg76
(lp681
g69
(g90
g71
NtRp682
(dp683
g74
(dp684
g94
g95
ssg83
g678
sg76
(lp685
g306
asbag69
(g90
g71
NtRp686
(dp687
g74
(dp688
g101
g102
ssg83
g678
sg76
(lp689
S':'
asbag69
(g90
g71
NtRp690
(dp691
g74
(dp692
sg83
g678
sg76
(lp693
g69
(g70
g71
NtRp694
(dp695
g74
(dp696
g82
I3
ssg83
g690
sg76
(lp697
S''
asbasbasbag69
(g85
g71
NtRp698
(dp699
g74
(dp700
sg83
g674
sg76
(lp701
g69
(g90
g71
NtRp702
(dp703
g74
(dp704
g94
g95
ssg83
g698
sg76
(lp705
g327
asbag69
(g90
g71
NtRp706
(dp707
g74
(dp708
g101
g102
ssg83
g698
sg76
(lp709
S':'
asbag69
(g90
g71
NtRp710
(dp711
g74
(dp712
sg83
g698
sg76
(lp713
g69
(g70
g71
NtRp714
(dp715
g74
(dp716
g82
I3
ssg83
g710
sg76
(lp717
S''
asbasbasbag69
(g85
g71
NtRp718
(dp719
g74
(dp720
sg83
g674
sg76
(lp721
g69
(g90
g71
NtRp722
(dp723
g74
(dp724
g94
g95
ssg83
g718
sg76
(lp725
g348
asbag69
(g90
g71
NtRp726
(dp727
g74
(dp728
g101
g102
ssg83
g718
sg76
(lp729
S':'
asbag69
(g90
g71
NtRp730
(dp731
g74
(dp732
sg83
g718
sg76
(lp733
g69
(g70
g71
NtRp734
(dp735
g74
(dp736
g82
I3
ssg83
g730
sg76
(lp737
S''
asbasbasbag69
(g85
g71
NtRp738
(dp739
g74
(dp740
sg83
g674
sg76
(lp741
g69
(g90
g71
NtRp742
(dp743
g74
(dp744
g94
g95
ssg83
g738
sg76
(lp745
g369
asbag69
(g90
g71
NtRp746
(dp747
g74
(dp748
g101
g102
ssg83
g738
sg76
(lp749
S':'
asbag69
(g90
g71
NtRp750
(dp751
g74
(dp752
sg83
g738
sg76
(lp753
g69
(g70
g71
NtRp754
(dp755
g74
(dp756
g82
I3
ssg83
g750
sg76
(lp757
S''
asbasbasbag69
(g85
g71
NtRp758
(dp759
g74
(dp760
sg83
g674
sg76
(lp761
g69
(g90
g71
NtRp762
(dp763
g74
(dp764
g94
g95
ssg83
g758
sg76
(lp765
g390
asbag69
(g90
g71
NtRp766
(dp767
g74
(dp768
g101
g102
ssg83
g758
sg76
(lp769
S':'
asbag69
(g90
g71
NtRp770
(dp771
g74
(dp772
sg83
g758
sg76
(lp773
g69
(g70
g71
NtRp774
(dp775
g74
(dp776
g82
I3
ssg83
g770
sg76
(lp777
S''
asbasbasbag69
(g85
g71
NtRp778
(dp779
g74
(dp780
sg83
g674
sg76
(lp781
g69
(g90
g71
NtRp782
(dp783
g74
(dp784
g94
g95
ssg83
g778
sg76
(lp785
g411
asbag69
(g90
g71
NtRp786
(dp787
g74
(dp788
g101
g102
ssg83
g778
sg76
(lp789
S':'
asbag69
(g90
g71
NtRp790
(dp791
g74
(dp792
sg83
g778
sg76
(lp793
g69
(g70
g71
NtRp794
(dp795
g74
(dp796
g82
I3
ssg83
g790
sg76
(lp797
S''
asbasbasbag69
(g85
g71
NtRp798
(dp799
g74
(dp800
sg83
g674
sg76
(lp801
g69
(g90
g71
NtRp802
(dp803
g74
(dp804
g94
g95
ssg83
g798
sg76
(lp805
g432
asbag69
(g90
g71
NtRp806
(dp807
g74
(dp808
g101
g102
ssg83
g798
sg76
(lp809
S':'
asbag69
(g90
g71
NtRp810
(dp811
g74
(dp812
sg83
g798
sg76
(lp813
g69
(g70
g71
NtRp814
(dp815
g74
(dp816
g82
I3
ssg83
g810
sg76
(lp817
S''
asbasbasbag69
(g85
g71
NtRp818
(dp819
g74
(dp820
sg83
g674
sg76
(lp821
g69
(g90
g71
NtRp822
(dp823
g74
(dp824
g94
g95
ssg83
g818
sg76
(lp825
g453
asbag69
(g90
g71
NtRp826
(dp827
g74
(dp828
g101
g102
ssg83
g818
sg76
(lp829
S':'
asbag69
(g90
g71
NtRp830
(dp831
g74
(dp832
sg83
g818
sg76
(lp833
g69
(g70
g71
NtRp834
(dp835
g74
(dp836
g82
I3
ssg83
g830
sg76
(lp837
S''
asbasbasbasbasbasbasbasbasbasbasbag69
(g85
g71
NtRp838
(dp839
g74
(dp840
sg83
g79
sg76
(lp841
g69
(g90
g71
NtRp842
(dp843
g74
(dp844
g94
g95
ssg83
g838
sg76
(lp845
S'env'
p846
asbag69
(g90
g71
NtRp847
(dp848
g74
(dp849
g101
g102
ssg83
g838
sg76
(lp850
S':'
asbag69
(g90
g71
NtRp851
(dp852
g74
(dp853
sg83
g838
sg76
(lp854
g69
(g70
g71
NtRp855
(dp856
g74
(dp857
g82
I5
ssg83
g851
sg76
(lp858
g69
(g78
g71
NtRp859
(dp860
g74
(dp861
g82
I4
ssg83
Nsg76
(lp862
g69
(g85
g71
NtRp863
(dp864
g74
(dp865
sg83
g859
sg76
(lp866
g69
(g90
g71
NtRp867
(dp868
g74
(dp869
g94
g95
ssg83
g863
sg76
(lp870
S'app_folders'
p871
asbag69
(g90
g71
NtRp872
(dp873
g74
(dp874
g101
g102
ssg83
g863
sg76
(lp875
S':'
asbag69
(g90
g71
NtRp876
(dp877
g74
(dp878
sg83
g863
sg76
(lp879
g69
(g70
g71
NtRp880
(dp881
g74
(dp882
g82
I4
ssg83
g876
sg76
(lp883
S"set(['/home/madhuri/Downloads/web2py/applications/admin/', '/home/madhuri/Downloads/web2py/applications/manager/', '/home/madhuri/Downloads/web2py/applications/welcome/'])"
p884
asbasbasbag69
(g85
g71
NtRp885
(dp886
g74
(dp887
sg83
g859
sg76
(lp888
g69
(g90
g71
NtRp889
(dp890
g74
(dp891
g94
g95
ssg83
g885
sg76
(lp892
S'applications_parent'
p893
asbag69
(g90
g71
NtRp894
(dp895
g74
(dp896
g101
g102
ssg83
g885
sg76
(lp897
S':'
asbag69
(g90
g71
NtRp898
(dp899
g74
(dp900
sg83
g885
sg76
(lp901
g69
(g70
g71
NtRp902
(dp903
g74
(dp904
g82
I4
ssg83
g898
sg76
(lp905
S'/home/madhuri/Downloads/web2py'
p906
asbasbasbag69
(g85
g71
NtRp907
(dp908
g74
(dp909
sg83
g859
sg76
(lp910
g69
(g90
g71
NtRp911
(dp912
g74
(dp913
g94
g95
ssg83
g907
sg76
(lp914
S'cmd_args'
p915
asbag69
(g90
g71
NtRp916
(dp917
g74
(dp918
g101
g102
ssg83
g907
sg76
(lp919
S':'
asbag69
(g90
g71
NtRp920
(dp921
g74
(dp922
sg83
g907
sg76
(lp923
g69
(g70
g71
NtRp924
(dp925
g74
(dp926
g82
I4
ssg83
g920
sg76
(lp927
g69
(g78
g71
NtRp928
(dp929
g74
(dp930
g82
I3
ssg83
Nsg76
(lp931
sbasbasbasbag69
(g85
g71
NtRp932
(dp933
g74
(dp934
sg83
g859
sg76
(lp935
g69
(g90
g71
NtRp936
(dp937
g74
(dp938
g94
g95
ssg83
g932
sg76
(lp939
S'cmd_options'
p940
asbag69
(g90
g71
NtRp941
(dp942
g74
(dp943
g101
g102
ssg83
g932
sg76
(lp944
S':'
asbag69
(g90
g71
NtRp945
(dp946
g74
(dp947
sg83
g932
sg76
(lp948
g69
(g70
g71
NtRp949
(dp950
g74
(dp951
g82
I4
ssg83
g945
sg76
(lp952
S"<Values at 0x263f9e0: {'verbose': False, 'ip': '127.0.0.1', 'with_scheduler': False, 'ips': ['127.0.1.1'], 'shutdown_timeout': 5, 'taskbar': False, 'port': 8000, 'maxthreads': None, 'softcron': False, 'server_name': 'ubuntu', 'bpython': False, 'nogui': False, 'nocron': False, 'extcron': False, 'run_system_tests': False, 'test': None, 'folder': '/home/madhuri/Downloads/web2py', 'config': '', 'import_models': False, 'winservice': '', 'shell': None, 'run': '', 'log_filename': 'httpserver.log', 'debuglevel': 30, 'args': [''], 'socket_timeout': 5, 'ssl_ca_certificate': None, 'scheduler': None, 'profiler_filename': None, 'ssl_private_key': '', 'scheduler_groups': None, 'password': '1', 'request_queue_size': 5, 'ssl_certificate': '', 'cronjob': False, 'numthreads': None, 'quiet': False, 'interfaces': None, 'minthreads': None, 'timeout': 10, 'plain': False, 'nobanner': False, 'pid_filename': 'httpserver.pid'}>"
p953
asbasbasbag69
(g85
g71
NtRp954
(dp955
g74
(dp956
sg83
g859
sg76
(lp957
g69
(g90
g71
NtRp958
(dp959
g74
(dp960
g94
g95
ssg83
g954
sg76
(lp961
S'db_sessions'
p962
asbag69
(g90
g71
NtRp963
(dp964
g74
(dp965
g101
g102
ssg83
g954
sg76
(lp966
S':'
asbag69
(g90
g71
NtRp967
(dp968
g74
(dp969
sg83
g954
sg76
(lp970
g69
(g70
g71
NtRp971
(dp972
g74
(dp973
g82
I4
ssg83
g967
sg76
(lp974
S'set([])'
p975
asbasbasbag69
(g85
g71
NtRp976
(dp977
g74
(dp978
sg83
g859
sg76
(lp979
g69
(g90
g71
NtRp980
(dp981
g74
(dp982
g94
g95
ssg83
g976
sg76
(lp983
S'debugging'
p984
asbag69
(g90
g71
NtRp985
(dp986
g74
(dp987
g101
g102
ssg83
g976
sg76
(lp988
S':'
asbag69
(g90
g71
NtRp989
(dp990
g74
(dp991
sg83
g976
sg76
(lp992
g69
(g70
g71
NtRp993
(dp994
g74
(dp995
g82
I4
ssg83
g989
sg76
(lp996
g112
asbasbasbag69
(g85
g71
NtRp997
(dp998
g74
(dp999
sg83
g859
sg76
(lp1000
g69
(g90
g71
NtRp1001
(dp1002
g74
(dp1003
g94
g95
ssg83
g997
sg76
(lp1004
S'gluon_parent'
p1005
asbag69
(g90
g71
NtRp1006
(dp1007
g74
(dp1008
g101
g102
ssg83
g997
sg76
(lp1009
S':'
asbag69
(g90
g71
NtRp1010
(dp1011
g74
(dp1012
sg83
g997
sg76
(lp1013
g69
(g70
g71
NtRp1014
(dp1015
g74
(dp1016
g82
I4
ssg83
g1010
sg76
(lp1017
S'/home/madhuri/Downloads/web2py'
p1018
asbasbasbag69
(g85
g71
NtRp1019
(dp1020
g74
(dp1021
sg83
g859
sg76
(lp1022
g69
(g90
g71
NtRp1023
(dp1024
g74
(dp1025
g94
g95
ssg83
g1019
sg76
(lp1026
S'http_accept'
p1027
asbag69
(g90
g71
NtRp1028
(dp1029
g74
(dp1030
g101
g102
ssg83
g1019
sg76
(lp1031
S':'
asbag69
(g90
g71
NtRp1032
(dp1033
g74
(dp1034
sg83
g1019
sg76
(lp1035
g69
(g70
g71
NtRp1036
(dp1037
g74
(dp1038
g82
I4
ssg83
g1032
sg76
(lp1039
S'text/html,application/xhtml+xml,application/xml;q=0.9,*/*;q=0.8'
p1040
asbasbasbag69
(g85
g71
NtRp1041
(dp1042
g74
(dp1043
sg83
g859
sg76
(lp1044
g69
(g90
g71
NtRp1045
(dp1046
g74
(dp1047
g94
g95
ssg83
g1041
sg76
(lp1048
S'http_accept_encoding'
p1049
asbag69
(g90
g71
NtRp1050
(dp1051
g74
(dp1052
g101
g102
ssg83
g1041
sg76
(lp1053
S':'
asbag69
(g90
g71
NtRp1054
(dp1055
g74
(dp1056
sg83
g1041
sg76
(lp1057
g69
(g70
g71
NtRp1058
(dp1059
g74
(dp1060
g82
I4
ssg83
g1054
sg76
(lp1061
S'gzip, deflate'
p1062
asbasbasbag69
(g85
g71
NtRp1063
(dp1064
g74
(dp1065
sg83
g859
sg76
(lp1066
g69
(g90
g71
NtRp1067
(dp1068
g74
(dp1069
g94
g95
ssg83
g1063
sg76
(lp1070
S'http_accept_language'
p1071
asbag69
(g90
g71
NtRp1072
(dp1073
g74
(dp1074
g101
g102
ssg83
g1063
sg76
(lp1075
S':'
asbag69
(g90
g71
NtRp1076
(dp1077
g74
(dp1078
sg83
g1063
sg76
(lp1079
g69
(g70
g71
NtRp1080
(dp1081
g74
(dp1082
g82
I4
ssg83
g1076
sg76
(lp1083
S'en-us,en;q=0.5'
p1084
asbasbasbag69
(g85
g71
NtRp1085
(dp1086
g74
(dp1087
sg83
g859
sg76
(lp1088
g69
(g90
g71
NtRp1089
(dp1090
g74
(dp1091
g94
g95
ssg83
g1085
sg76
(lp1092
S'http_connection'
p1093
asbag69
(g90
g71
NtRp1094
(dp1095
g74
(dp1096
g101
g102
ssg83
g1085
sg76
(lp1097
S':'
asbag69
(g90
g71
NtRp1098
(dp1099
g74
(dp1100
sg83
g1085
sg76
(lp1101
g69
(g70
g71
NtRp1102
(dp1103
g74
(dp1104
g82
I4
ssg83
g1098
sg76
(lp1105
S'keep-alive'
p1106
asbasbasbag69
(g85
g71
NtRp1107
(dp1108
g74
(dp1109
sg83
g859
sg76
(lp1110
g69
(g90
g71
NtRp1111
(dp1112
g74
(dp1113
g94
g95
ssg83
g1107
sg76
(lp1114
S'http_cookie'
p1115
asbag69
(g90
g71
NtRp1116
(dp1117
g74
(dp1118
g101
g102
ssg83
g1107
sg76
(lp1119
S':'
asbag69
(g90
g71
NtRp1120
(dp1121
g74
(dp1122
sg83
g1107
sg76
(lp1123
g69
(g70
g71
NtRp1124
(dp1125
g74
(dp1126
g82
I4
ssg83
g1120
sg76
(lp1127
S'session_id_welcome=127.0.0.1-41848e09-37fe-4fe9-b4ff-4803b97c2ae3; session_id_admin=127.0.0.1-5397ac8a-431d-4526-b620-53d2814c64d9; session_id_manager=127.0.0.1-6f272149-6c92-44cc-85ba-c8ea1e4f1e04'
p1128
asbasbasbag69
(g85
g71
NtRp1129
(dp1130
g74
(dp1131
sg83
g859
sg76
(lp1132
g69
(g90
g71
NtRp1133
(dp1134
g74
(dp1135
g94
g95
ssg83
g1129
sg76
(lp1136
S'http_host'
p1137
asbag69
(g90
g71
NtRp1138
(dp1139
g74
(dp1140
g101
g102
ssg83
g1129
sg76
(lp1141
S':'
asbag69
(g90
g71
NtRp1142
(dp1143
g74
(dp1144
sg83
g1129
sg76
(lp1145
g69
(g70
g71
NtRp1146
(dp1147
g74
(dp1148
g82
I4
ssg83
g1142
sg76
(lp1149
S'127.0.0.1:8000'
p1150
asbasbasbag69
(g85
g71
NtRp1151
(dp1152
g74
(dp1153
sg83
g859
sg76
(lp1154
g69
(g90
g71
NtRp1155
(dp1156
g74
(dp1157
g94
g95
ssg83
g1151
sg76
(lp1158
S'http_referer'
p1159
asbag69
(g90
g71
NtRp1160
(dp1161
g74
(dp1162
g101
g102
ssg83
g1151
sg76
(lp1163
S':'
asbag69
(g90
g71
NtRp1164
(dp1165
g74
(dp1166
sg83
g1151
sg76
(lp1167
g69
(g70
g71
NtRp1168
(dp1169
g74
(dp1170
g82
I4
ssg83
g1164
sg76
(lp1171
S'http://127.0.0.1:8000/admin/default/design/manager'
p1172
asbasbasbag69
(g85
g71
NtRp1173
(dp1174
g74
(dp1175
sg83
g859
sg76
(lp1176
g69
(g90
g71
NtRp1177
(dp1178
g74
(dp1179
g94
g95
ssg83
g1173
sg76
(lp1180
S'http_user_agent'
p1181
asbag69
(g90
g71
NtRp1182
(dp1183
g74
(dp1184
g101
g102
ssg83
g1173
sg76
(lp1185
S':'
asbag69
(g90
g71
NtRp1186
(dp1187
g74
(dp1188
sg83
g1173
sg76
(lp1189
g69
(g70
g71
NtRp1190
(dp1191
g74
(dp1192
g82
I4
ssg83
g1186
sg76
(lp1193
S'Mozilla/5.0 (X11; Ubuntu; Linux x86_64; rv:14.0) Gecko/20100101 Firefox/14.0.1'
p1194
asbasbasbag69
(g85
g71
NtRp1195
(dp1196
g74
(dp1197
sg83
g859
sg76
(lp1198
g69
(g90
g71
NtRp1199
(dp1200
g74
(dp1201
g94
g95
ssg83
g1195
sg76
(lp1202
S'is_jython'
p1203
asbag69
(g90
g71
NtRp1204
(dp1205
g74
(dp1206
g101
g102
ssg83
g1195
sg76
(lp1207
S':'
asbag69
(g90
g71
NtRp1208
(dp1209
g74
(dp1210
sg83
g1195
sg76
(lp1211
g69
(g70
g71
NtRp1212
(dp1213
g74
(dp1214
g82
I4
ssg83
g1208
sg76
(lp1215
g112
asbasbasbag69
(g85
g71
NtRp1216
(dp1217
g74
(dp1218
sg83
g859
sg76
(lp1219
g69
(g90
g71
NtRp1220
(dp1221
g74
(dp1222
g94
g95
ssg83
g1216
sg76
(lp1223
S'is_pypy'
p1224
asbag69
(g90
g71
NtRp1225
(dp1226
g74
(dp1227
g101
g102
ssg83
g1216
sg76
(lp1228
S':'
asbag69
(g90
g71
NtRp1229
(dp1230
g74
(dp1231
sg83
g1216
sg76
(lp1232
g69
(g70
g71
NtRp1233
(dp1234
g74
(dp1235
g82
I4
ssg83
g1229
sg76
(lp1236
g112
asbasbasbag69
(g85
g71
NtRp1237
(dp1238
g74
(dp1239
sg83
g859
sg76
(lp1240
g69
(g90
g71
NtRp1241
(dp1242
g74
(dp1243
g94
g95
ssg83
g1237
sg76
(lp1244
S'path_info'
p1245
asbag69
(g90
g71
NtRp1246
(dp1247
g74
(dp1248
g101
g102
ssg83
g1237
sg76
(lp1249
S':'
asbag69
(g90
g71
NtRp1250
(dp1251
g74
(dp1252
sg83
g1237
sg76
(lp1253
g69
(g70
g71
NtRp1254
(dp1255
g74
(dp1256
g82
I4
ssg83
g1250
sg76
(lp1257
S'/manager/default/login'
p1258
asbasbasbag69
(g85
g71
NtRp1259
(dp1260
g74
(dp1261
sg83
g859
sg76
(lp1262
g69
(g90
g71
NtRp1263
(dp1264
g74
(dp1265
g94
g95
ssg83
g1259
sg76
(lp1266
S'query_string'
p1267
asbag69
(g90
g71
NtRp1268
(dp1269
g74
(dp1270
g101
g102
ssg83
g1259
sg76
(lp1271
S':'
asbag69
(g90
g71
NtRp1272
(dp1273
g74
(dp1274
sg83
g1259
sg76
(lp1275
g69
(g70
g71
NtRp1276
(dp1277
g74
(dp1278
g82
I4
ssg83
g1272
sg76
(lp1279
S'ticket=ST-75623-habFLi6EmWxCvMbnlCBg-cas'
p1280
asbasbasbag69
(g85
g71
NtRp1281
(dp1282
g74
(dp1283
sg83
g859
sg76
(lp1284
g69
(g90
g71
NtRp1285
(dp1286
g74
(dp1287
g94
g95
ssg83
g1281
sg76
(lp1288
S'remote_addr'
p1289
asbag69
(g90
g71
NtRp1290
(dp1291
g74
(dp1292
g101
g102
ssg83
g1281
sg76
(lp1293
S':'
asbag69
(g90
g71
NtRp1294
(dp1295
g74
(dp1296
sg83
g1281
sg76
(lp1297
g69
(g70
g71
NtRp1298
(dp1299
g74
(dp1300
g82
I4
ssg83
g1294
sg76
(lp1301
g224
asbasbasbag69
(g85
g71
NtRp1302
(dp1303
g74
(dp1304
sg83
g859
sg76
(lp1305
g69
(g90
g71
NtRp1306
(dp1307
g74
(dp1308
g94
g95
ssg83
g1302
sg76
(lp1309
S'remote_port'
p1310
asbag69
(g90
g71
NtRp1311
(dp1312
g74
(dp1313
g101
g102
ssg83
g1302
sg76
(lp1314
S':'
asbag69
(g90
g71
NtRp1315
(dp1316
g74
(dp1317
sg83
g1302
sg76
(lp1318
g69
(g70
g71
NtRp1319
(dp1320
g74
(dp1321
g82
I4
ssg83
g1315
sg76
(lp1322
S'53170'
p1323
asbasbasbag69
(g85
g71
NtRp1324
(dp1325
g74
(dp1326
sg83
g859
sg76
(lp1327
g69
(g90
g71
NtRp1328
(dp1329
g74
(dp1330
g94
g95
ssg83
g1324
sg76
(lp1331
S'request_method'
p1332
asbag69
(g90
g71
NtRp1333
(dp1334
g74
(dp1335
g101
g102
ssg83
g1324
sg76
(lp1336
S':'
asbag69
(g90
g71
NtRp1337
(dp1338
g74
(dp1339
sg83
g1324
sg76
(lp1340
g69
(g70
g71
NtRp1341
(dp1342
g74
(dp1343
g82
I4
ssg83
g1337
sg76
(lp1344
S'GET'
p1345
asbasbasbag69
(g85
g71
NtRp1346
(dp1347
g74
(dp1348
sg83
g859
sg76
(lp1349
g69
(g90
g71
NtRp1350
(dp1351
g74
(dp1352
g94
g95
ssg83
g1346
sg76
(lp1353
S'request_uri'
p1354
asbag69
(g90
g71
NtRp1355
(dp1356
g74
(dp1357
g101
g102
ssg83
g1346
sg76
(lp1358
S':'
asbag69
(g90
g71
NtRp1359
(dp1360
g74
(dp1361
sg83
g1346
sg76
(lp1362
g69
(g70
g71
NtRp1363
(dp1364
g74
(dp1365
g82
I4
ssg83
g1359
sg76
(lp1366
S'/manager/default/login?ticket=ST-75623-habFLi6EmWxCvMbnlCBg-cas'
p1367
asbasbasbag69
(g85
g71
NtRp1368
(dp1369
g74
(dp1370
sg83
g859
sg76
(lp1371
g69
(g90
g71
NtRp1372
(dp1373
g74
(dp1374
g94
g95
ssg83
g1368
sg76
(lp1375
S'script_name'
p1376
asbag69
(g90
g71
NtRp1377
(dp1378
g74
(dp1379
g101
g102
ssg83
g1368
sg76
(lp1380
S':'
asbag69
(g90
g71
NtRp1381
(dp1382
g74
(dp1383
sg83
g1368
sg76
(lp1384
g69
(g70
g71
NtRp1385
(dp1386
g74
(dp1387
g82
I4
ssg83
g1381
sg76
(lp1388
S''
asbasbasbag69
(g85
g71
NtRp1389
(dp1390
g74
(dp1391
sg83
g859
sg76
(lp1392
g69
(g90
g71
NtRp1393
(dp1394
g74
(dp1395
g94
g95
ssg83
g1389
sg76
(lp1396
S'server_name'
p1397
asbag69
(g90
g71
NtRp1398
(dp1399
g74
(dp1400
g101
g102
ssg83
g1389
sg76
(lp1401
S':'
asbag69
(g90
g71
NtRp1402
(dp1403
g74
(dp1404
sg83
g1389
sg76
(lp1405
g69
(g70
g71
NtRp1406
(dp1407
g74
(dp1408
g82
I4
ssg83
g1402
sg76
(lp1409
S'ubuntu'
p1410
asbasbasbag69
(g85
g71
NtRp1411
(dp1412
g74
(dp1413
sg83
g859
sg76
(lp1414
g69
(g90
g71
NtRp1415
(dp1416
g74
(dp1417
g94
g95
ssg83
g1411
sg76
(lp1418
S'server_port'
p1419
asbag69
(g90
g71
NtRp1420
(dp1421
g74
(dp1422
g101
g102
ssg83
g1411
sg76
(lp1423
S':'
asbag69
(g90
g71
NtRp1424
(dp1425
g74
(dp1426
sg83
g1411
sg76
(lp1427
g69
(g70
g71
NtRp1428
(dp1429
g74
(dp1430
g82
I4
ssg83
g1424
sg76
(lp1431
S'8000'
p1432
asbasbasbag69
(g85
g71
NtRp1433
(dp1434
g74
(dp1435
sg83
g859
sg76
(lp1436
g69
(g90
g71
NtRp1437
(dp1438
g74
(dp1439
g94
g95
ssg83
g1433
sg76
(lp1440
S'server_protocol'
p1441
asbag69
(g90
g71
NtRp1442
(dp1443
g74
(dp1444
g101
g102
ssg83
g1433
sg76
(lp1445
S':'
asbag69
(g90
g71
NtRp1446
(dp1447
g74
(dp1448
sg83
g1433
sg76
(lp1449
g69
(g70
g71
NtRp1450
(dp1451
g74
(dp1452
g82
I4
ssg83
g1446
sg76
(lp1453
S'HTTP/1.1'
p1454
asbasbasbag69
(g85
g71
NtRp1455
(dp1456
g74
(dp1457
sg83
g859
sg76
(lp1458
g69
(g90
g71
NtRp1459
(dp1460
g74
(dp1461
g94
g95
ssg83
g1455
sg76
(lp1462
S'server_software'
p1463
asbag69
(g90
g71
NtRp1464
(dp1465
g74
(dp1466
g101
g102
ssg83
g1455
sg76
(lp1467
S':'
asbag69
(g90
g71
NtRp1468
(dp1469
g74
(dp1470
sg83
g1455
sg76
(lp1471
g69
(g70
g71
NtRp1472
(dp1473
g74
(dp1474
g82
I4
ssg83
g1468
sg76
(lp1475
S'Rocket 1.2.4'
p1476
asbasbasbag69
(g85
g71
NtRp1477
(dp1478
g74
(dp1479
sg83
g859
sg76
(lp1480
g69
(g90
g71
NtRp1481
(dp1482
g74
(dp1483
g94
g95
ssg83
g1477
sg76
(lp1484
S'web2py_crontype'
p1485
asbag69
(g90
g71
NtRp1486
(dp1487
g74
(dp1488
g101
g102
ssg83
g1477
sg76
(lp1489
S':'
asbag69
(g90
g71
NtRp1490
(dp1491
g74
(dp1492
sg83
g1477
sg76
(lp1493
g69
(g70
g71
NtRp1494
(dp1495
g74
(dp1496
g82
I4
ssg83
g1490
sg76
(lp1497
S'hard'
p1498
asbasbasbag69
(g85
g71
NtRp1499
(dp1500
g74
(dp1501
sg83
g859
sg76
(lp1502
g69
(g90
g71
NtRp1503
(dp1504
g74
(dp1505
g94
g95
ssg83
g1499
sg76
(lp1506
S'web2py_path'
p1507
asbag69
(g90
g71
NtRp1508
(dp1509
g74
(dp1510
g101
g102
ssg83
g1499
sg76
(lp1511
S':'
asbag69
(g90
g71
NtRp1512
(dp1513
g74
(dp1514
sg83
g1499
sg76
(lp1515
g69
(g70
g71
NtRp1516
(dp1517
g74
(dp1518
g82
I4
ssg83
g1512
sg76
(lp1519
g906
asbasbasbag69
(g85
g71
NtRp1520
(dp1521
g74
(dp1522
sg83
g859
sg76
(lp1523
g69
(g90
g71
NtRp1524
(dp1525
g74
(dp1526
g94
g95
ssg83
g1520
sg76
(lp1527
S'web2py_version'
p1528
asbag69
(g90
g71
NtRp1529
(dp1530
g74
(dp1531
g101
g102
ssg83
g1520
sg76
(lp1532
S':'
asbag69
(g90
g71
NtRp1533
(dp1534
g74
(dp1535
sg83
g1520
sg76
(lp1536
g69
(g70
g71
NtRp1537
(dp1538
g74
(dp1539
g82
I4
ssg83
g1533
sg76
(lp1540
g69
(g78
g71
NtRp1541
(dp1542
g74
(dp1543
g82
I3
ssg83
Nsg76
(lp1544
g69
(g85
g71
NtRp1545
(dp1546
g74
(dp1547
sg83
g1541
sg76
(lp1548
g69
(g90
g71
NtRp1549
(dp1550
g74
(dp1551
sg83
g1545
sg76
(lp1552
g69
(g70
g71
NtRp1553
(dp1554
g74
(dp1555
g82
I3
ssg83
g1549
sg76
(lp1556
S'2'
asbasbasbag69
(g85
g71
NtRp1557
(dp1558
g74
(dp1559
sg83
g1541
sg76
(lp1560
g69
(g90
g71
NtRp1561
(dp1562
g74
(dp1563
sg83
g1557
sg76
(lp1564
g69
(g70
g71
NtRp1565
(dp1566
g74
(dp1567
g82
I3
ssg83
g1561
sg76
(lp1568
S'0'
asbasbasbag69
(g85
g71
NtRp1569
(dp1570
g74
(dp1571
sg83
g1541
sg76
(lp1572
g69
(g90
g71
NtRp1573
(dp1574
g74
(dp1575
sg83
g1569
sg76
(lp1576
g69
(g70
g71
NtRp1577
(dp1578
g74
(dp1579
g82
I3
ssg83
g1573
sg76
(lp1580
S'9'
asbasbasbag69
(g85
g71
NtRp1581
(dp1582
g74
(dp1583
sg83
g1541
sg76
(lp1584
g69
(g90
g71
NtRp1585
(dp1586
g74
(dp1587
sg83
g1581
sg76
(lp1588
g69
(g70
g71
NtRp1589
(dp1590
g74
(dp1591
g82
I3
ssg83
g1585
sg76
(lp1592
S'datetime.datetime(2012, 9, 13, 23, 51, 30)'
p1593
asbasbasbag69
(g85
g71
NtRp1594
(dp1595
g74
(dp1596
sg83
g1541
sg76
(lp1597
g69
(g90
g71
NtRp1598
(dp1599
g74
(dp1600
sg83
g1594
sg76
(lp1601
g69
(g70
g71
NtRp1602
(dp1603
g74
(dp1604
g82
I3
ssg83
g1598
sg76
(lp1605
S'stable'
p1606
asbasbasbasbasbasbasbag69
(g85
g71
NtRp1607
(dp1608
g74
(dp1609
sg83
g859
sg76
(lp1610
g69
(g90
g71
NtRp1611
(dp1612
g74
(dp1613
g94
g95
ssg83
g1607
sg76
(lp1614
S'wsgi_errors'
p1615
asbag69
(g90
g71
NtRp1616
(dp1617
g74
(dp1618
g101
g102
ssg83
g1607
sg76
(lp1619
S':'
asbag69
(g90
g71
NtRp1620
(dp1621
g74
(dp1622
sg83
g1607
sg76
(lp1623
g69
(g70
g71
NtRp1624
(dp1625
g74
(dp1626
g82
I4
ssg83
g1620
sg76
(lp1627
S"<open file '<stderr>', mode 'w' at 0x7f203e563270>"
p1628
asbasbasbag69
(g85
g71
NtRp1629
(dp1630
g74
(dp1631
sg83
g859
sg76
(lp1632
g69
(g90
g71
NtRp1633
(dp1634
g74
(dp1635
g94
g95
ssg83
g1629
sg76
(lp1636
S'wsgi_file_wrapper'
p1637
asbag69
(g90
g71
NtRp1638
(dp1639
g74
(dp1640
g101
g102
ssg83
g1629
sg76
(lp1641
S':'
asbag69
(g90
g71
NtRp1642
(dp1643
g74
(dp1644
sg83
g1629
sg76
(lp1645
g69
(g70
g71
NtRp1646
(dp1647
g74
(dp1648
g82
I4
ssg83
g1642
sg76
(lp1649
S'<class wsgiref.util.FileWrapper at 0x2880a78>'
p1650
asbasbasbag69
(g85
g71
NtRp1651
(dp1652
g74
(dp1653
sg83
g859
sg76
(lp1654
g69
(g90
g71
NtRp1655
(dp1656
g74
(dp1657
g94
g95
ssg83
g1651
sg76
(lp1658
S'wsgi_input'
p1659
asbag69
(g90
g71
NtRp1660
(dp1661
g74
(dp1662
g101
g102
ssg83
g1651
sg76
(lp1663
S':'
asbag69
(g90
g71
NtRp1664
(dp1665
g74
(dp1666
sg83
g1651
sg76
(lp1667
g69
(g70
g71
NtRp1668
(dp1669
g74
(dp1670
g82
I4
ssg83
g1664
sg76
(lp1671
S'<socket._fileobject object at 0x7f202c4fa5d0>'
p1672
asbasbasbag69
(g85
g71
NtRp1673
(dp1674
g74
(dp1675
sg83
g859
sg76
(lp1676
g69
(g90
g71
NtRp1677
(dp1678
g74
(dp1679
g94
g95
ssg83
g1673
sg76
(lp1680
S'wsgi_multiprocess'
p1681
asbag69
(g90
g71
NtRp1682
(dp1683
g74
(dp1684
g101
g102
ssg83
g1673
sg76
(lp1685
S':'
asbag69
(g90
g71
NtRp1686
(dp1687
g74
(dp1688
sg83
g1673
sg76
(lp1689
g69
(g70
g71
NtRp1690
(dp1691
g74
(dp1692
g82
I4
ssg83
g1686
sg76
(lp1693
g112
asbasbasbag69
(g85
g71
NtRp1694
(dp1695
g74
(dp1696
sg83
g859
sg76
(lp1697
g69
(g90
g71
NtRp1698
(dp1699
g74
(dp1700
g94
g95
ssg83
g1694
sg76
(lp1701
S'wsgi_multithread'
p1702
asbag69
(g90
g71
NtRp1703
(dp1704
g74
(dp1705
g101
g102
ssg83
g1694
sg76
(lp1706
S':'
asbag69
(g90
g71
NtRp1707
(dp1708
g74
(dp1709
sg83
g1694
sg76
(lp1710
g69
(g70
g71
NtRp1711
(dp1712
g74
(dp1713
g82
I4
ssg83
g1707
sg76
(lp1714
S'True'
p1715
asbasbasbag69
(g85
g71
NtRp1716
(dp1717
g74
(dp1718
sg83
g859
sg76
(lp1719
g69
(g90
g71
NtRp1720
(dp1721
g74
(dp1722
g94
g95
ssg83
g1716
sg76
(lp1723
S'wsgi_run_once'
p1724
asbag69
(g90
g71
NtRp1725
(dp1726
g74
(dp1727
g101
g102
ssg83
g1716
sg76
(lp1728
S':'
asbag69
(g90
g71
NtRp1729
(dp1730
g74
(dp1731
sg83
g1716
sg76
(lp1732
g69
(g70
g71
NtRp1733
(dp1734
g74
(dp1735
g82
I4
ssg83
g1729
sg76
(lp1736
g112
asbasbasbag69
(g85
g71
NtRp1737
(dp1738
g74
(dp1739
sg83
g859
sg76
(lp1740
g69
(g90
g71
NtRp1741
(dp1742
g74
(dp1743
g94
g95
ssg83
g1737
sg76
(lp1744
S'wsgi_url_scheme'
p1745
asbag69
(g90
g71
NtRp1746
(dp1747
g74
(dp1748
g101
g102
ssg83
g1737
sg76
(lp1749
S':'
asbag69
(g90
g71
NtRp1750
(dp1751
g74
(dp1752
sg83
g1737
sg76
(lp1753
g69
(g70
g71
NtRp1754
(dp1755
g74
(dp1756
g82
I4
ssg83
g1750
sg76
(lp1757
S'http'
p1758
asbasbasbag69
(g85
g71
NtRp1759
(dp1760
g74
(dp1761
sg83
g859
sg76
(lp1762
g69
(g90
g71
NtRp1763
(dp1764
g74
(dp1765
g94
g95
ssg83
g1759
sg76
(lp1766
S'wsgi_version'
p1767
asbag69
(g90
g71
NtRp1768
(dp1769
g74
(dp1770
g101
g102
ssg83
g1759
sg76
(lp1771
S':'
asbag69
(g90
g71
NtRp1772
(dp1773
g74
(dp1774
sg83
g1759
sg76
(lp1775
g69
(g70
g71
NtRp1776
(dp1777
g74
(dp1778
g82
I4
ssg83
g1772
sg76
(lp1779
g69
(g78
g71
NtRp1780
(dp1781
g74
(dp1782
g82
I3
ssg83
Nsg76
(lp1783
g69
(g85
g71
NtRp1784
(dp1785
g74
(dp1786
sg83
g1780
sg76
(lp1787
g69
(g90
g71
NtRp1788
(dp1789
g74
(dp1790
sg83
g1784
sg76
(lp1791
g69
(g70
g71
NtRp1792
(dp1793
g74
(dp1794
g82
I3
ssg83
g1788
sg76
(lp1795
S'1'
asbasbasbag69
(g85
g71
NtRp1796
(dp1797
g74
(dp1798
sg83
g1780
sg76
(lp1799
g69
(g90
g71
NtRp1800
(dp1801
g74
(dp1802
sg83
g1796
sg76
(lp1803
g69
(g70
g71
NtRp1804
(dp1805
g74
(dp1806
g82
I3
ssg83
g1800
sg76
(lp1807
S'0'
asbasbasbasbasbasbasbasbasbasbasbag69
(g85
g71
NtRp1808
(dp1809
g74
(dp1810
sg83
g79
sg76
(lp1811
g69
(g90
g71
NtRp1812
(dp1813
g74
(dp1814
g94
g95
ssg83
g1808
sg76
(lp1815
S'extension'
p1816
asbag69
(g90
g71
NtRp1817
(dp1818
g74
(dp1819
g101
g102
ssg83
g1808
sg76
(lp1820
S':'
asbag69
(g90
g71
NtRp1821
(dp1822
g74
(dp1823
sg83
g1808
sg76
(lp1824
g69
(g70
g71
NtRp1825
(dp1826
g74
(dp1827
g82
I5
ssg83
g1821
sg76
(lp1828
S'html'
p1829
asbasbasbag69
(g85
g71
NtRp1830
(dp1831
g74
(dp1832
sg83
g79
sg76
(lp1833
g69
(g90
g71
NtRp1834
(dp1835
g74
(dp1836
g94
g95
ssg83
g1830
sg76
(lp1837
S'folder'
p1838
asbag69
(g90
g71
NtRp1839
(dp1840
g74
(dp1841
g101
g102
ssg83
g1830
sg76
(lp1842
S':'
asbag69
(g90
g71
NtRp1843
(dp1844
g74
(dp1845
sg83
g1830
sg76
(lp1846
g69
(g70
g71
NtRp1847
(dp1848
g74
(dp1849
g82
I5
ssg83
g1843
sg76
(lp1850
S'/home/madhuri/Downloads/web2py/applications/manager/'
p1851
asbasbasbag69
(g85
g71
NtRp1852
(dp1853
g74
(dp1854
sg83
g79
sg76
(lp1855
g69
(g90
g71
NtRp1856
(dp1857
g74
(dp1858
g94
g95
ssg83
g1852
sg76
(lp1859
S'function'
p1860
asbag69
(g90
g71
NtRp1861
(dp1862
g74
(dp1863
g101
g102
ssg83
g1852
sg76
(lp1864
S':'
asbag69
(g90
g71
NtRp1865
(dp1866
g74
(dp1867
sg83
g1852
sg76
(lp1868
g69
(g70
g71
NtRp1869
(dp1870
g74
(dp1871
g82
I5
ssg83
g1865
sg76
(lp1872
S'login'
p1873
asbasbasbag69
(g85
g71
NtRp1874
(dp1875
g74
(dp1876
sg83
g79
sg76
(lp1877
g69
(g90
g71
NtRp1878
(dp1879
g74
(dp1880
g94
g95
ssg83
g1874
sg76
(lp1881
S'get_vars'
p1882
asbag69
(g90
g71
NtRp1883
(dp1884
g74
(dp1885
g101
g102
ssg83
g1874
sg76
(lp1886
S':'
asbag69
(g90
g71
NtRp1887
(dp1888
g74
(dp1889
sg83
g1874
sg76
(lp1890
g69
(g70
g71
NtRp1891
(dp1892
g74
(dp1893
g82
I5
ssg83
g1887
sg76
(lp1894
g69
(g78
g71
NtRp1895
(dp1896
g74
(dp1897
g82
I4
ssg83
Nsg76
(lp1898
g69
(g85
g71
NtRp1899
(dp1900
g74
(dp1901
sg83
g1895
sg76
(lp1902
g69
(g90
g71
NtRp1903
(dp1904
g74
(dp1905
g94
g95
ssg83
g1899
sg76
(lp1906
S'ticket'
p1907
asbag69
(g90
g71
NtRp1908
(dp1909
g74
(dp1910
g101
g102
ssg83
g1899
sg76
(lp1911
S':'
asbag69
(g90
g71
NtRp1912
(dp1913
g74
(dp1914
sg83
g1899
sg76
(lp1915
g69
(g70
g71
NtRp1916
(dp1917
g74
(dp1918
g82
I4
ssg83
g1912
sg76
(lp1919
S'ST-75623-habFLi6EmWxCvMbnlCBg-cas'
p1920
asbasbasbasbasbasbasbag69
(g85
g71
NtRp1921
(dp1922
g74
(dp1923
sg83
g79
sg76
(lp1924
g69
(g90
g71
NtRp1925
(dp1926
g74
(dp1927
g94
g95
ssg83
g1921
sg76
(lp1928
S'global_settings'
p1929
asbag69
(g90
g71
NtRp1930
(dp1931
g74
(dp1932
g101
g102
ssg83
g1921
sg76
(lp1933
S':'
asbag69
(g90
g71
NtRp1934
(dp1935
g74
(dp1936
sg83
g1921
sg76
(lp1937
g69
(g70
g71
NtRp1938
(dp1939
g74
(dp1940
g82
I5
ssg83
g1934
sg76
(lp1941
g69
(g78
g71
NtRp1942
(dp1943
g74
(dp1944
g82
I4
ssg83
Nsg76
(lp1945
g69
(g85
g71
NtRp1946
(dp1947
g74
(dp1948
sg83
g1942
sg76
(lp1949
g69
(g90
g71
NtRp1950
(dp1951
g74
(dp1952
g94
g95
ssg83
g1946
sg76
(lp1953
g871
asbag69
(g90
g71
NtRp1954
(dp1955
g74
(dp1956
g101
g102
ssg83
g1946
sg76
(lp1957
S':'
asbag69
(g90
g71
NtRp1958
(dp1959
g74
(dp1960
sg83
g1946
sg76
(lp1961
g69
(g70
g71
NtRp1962
(dp1963
g74
(dp1964
g82
I4
ssg83
g1958
sg76
(lp1965
S"set(['/home/madhuri/Downloads/web2py/applications/admin/', '/home/madhuri/Downloads/web2py/applications/manager/', '/home/madhuri/Downloads/web2py/applications/welcome/'])"
p1966
asbasbasbag69
(g85
g71
NtRp1967
(dp1968
g74
(dp1969
sg83
g1942
sg76
(lp1970
g69
(g90
g71
NtRp1971
(dp1972
g74
(dp1973
g94
g95
ssg83
g1967
sg76
(lp1974
g893
asbag69
(g90
g71
NtRp1975
(dp1976
g74
(dp1977
g101
g102
ssg83
g1967
sg76
(lp1978
S':'
asbag69
(g90
g71
NtRp1979
(dp1980
g74
(dp1981
sg83
g1967
sg76
(lp1982
g69
(g70
g71
NtRp1983
(dp1984
g74
(dp1985
g82
I4
ssg83
g1979
sg76
(lp1986
g906
asbasbasbag69
(g85
g71
NtRp1987
(dp1988
g74
(dp1989
sg83
g1942
sg76
(lp1990
g69
(g90
g71
NtRp1991
(dp1992
g74
(dp1993
g94
g95
ssg83
g1987
sg76
(lp1994
g915
asbag69
(g90
g71
NtRp1995
(dp1996
g74
(dp1997
g101
g102
ssg83
g1987
sg76
(lp1998
S':'
asbag69
(g90
g71
NtRp1999
(dp2000
g74
(dp2001
sg83
g1987
sg76
(lp2002
g69
(g70
g71
NtRp2003
(dp2004
g74
(dp2005
g82
I4
ssg83
g1999
sg76
(lp2006
g69
(g78
g71
NtRp2007
(dp2008
g74
(dp2009
g82
I3
ssg83
Nsg76
(lp2010
sbasbasbasbag69
(g85
g71
NtRp2011
(dp2012
g74
(dp2013
sg83
g1942
sg76
(lp2014
g69
(g90
g71
NtRp2015
(dp2016
g74
(dp2017
g94
g95
ssg83
g2011
sg76
(lp2018
g940
asbag69
(g90
g71
NtRp2019
(dp2020
g74
(dp2021
g101
g102
ssg83
g2011
sg76
(lp2022
S':'
asbag69
(g90
g71
NtRp2023
(dp2024
g74
(dp2025
sg83
g2011
sg76
(lp2026
g69
(g70
g71
NtRp2027
(dp2028
g74
(dp2029
g82
I4
ssg83
g2023
sg76
(lp2030
S"<Values at 0x263f9e0: {'verbose': False, 'ip': '127.0.0.1', 'with_scheduler': False, 'ips': ['127.0.1.1'], 'shutdown_timeout': 5, 'taskbar': False, 'port': 8000, 'maxthreads': None, 'softcron': False, 'server_name': 'ubuntu', 'bpython': False, 'nogui': False, 'nocron': False, 'extcron': False, 'run_system_tests': False, 'test': None, 'folder': '/home/madhuri/Downloads/web2py', 'config': '', 'import_models': False, 'winservice': '', 'shell': None, 'run': '', 'log_filename': 'httpserver.log', 'debuglevel': 30, 'args': [''], 'socket_timeout': 5, 'ssl_ca_certificate': None, 'scheduler': None, 'profiler_filename': None, 'ssl_private_key': '', 'scheduler_groups': None, 'password': '1', 'request_queue_size': 5, 'ssl_certificate': '', 'cronjob': False, 'numthreads': None, 'quiet': False, 'interfaces': None, 'minthreads': None, 'timeout': 10, 'plain': False, 'nobanner': False, 'pid_filename': 'httpserver.pid'}>"
p2031
asbasbasbag69
(g85
g71
NtRp2032
(dp2033
g74
(dp2034
sg83
g1942
sg76
(lp2035
g69
(g90
g71
NtRp2036
(dp2037
g74
(dp2038
g94
g95
ssg83
g2032
sg76
(lp2039
g962
asbag69
(g90
g71
NtRp2040
(dp2041
g74
(dp2042
g101
g102
ssg83
g2032
sg76
(lp2043
S':'
asbag69
(g90
g71
NtRp2044
(dp2045
g74
(dp2046
sg83
g2032
sg76
(lp2047
g69
(g70
g71
NtRp2048
(dp2049
g74
(dp2050
g82
I4
ssg83
g2044
sg76
(lp2051
S'set([])'
p2052
asbasbasbag69
(g85
g71
NtRp2053
(dp2054
g74
(dp2055
sg83
g1942
sg76
(lp2056
g69
(g90
g71
NtRp2057
(dp2058
g74
(dp2059
g94
g95
ssg83
g2053
sg76
(lp2060
g984
asbag69
(g90
g71
NtRp2061
(dp2062
g74
(dp2063
g101
g102
ssg83
g2053
sg76
(lp2064
S':'
asbag69
(g90
g71
NtRp2065
(dp2066
g74
(dp2067
sg83
g2053
sg76
(lp2068
g69
(g70
g71
NtRp2069
(dp2070
g74
(dp2071
g82
I4
ssg83
g2065
sg76
(lp2072
g112
asbasbasbag69
(g85
g71
NtRp2073
(dp2074
g74
(dp2075
sg83
g1942
sg76
(lp2076
g69
(g90
g71
NtRp2077
(dp2078
g74
(dp2079
g94
g95
ssg83
g2073
sg76
(lp2080
g1005
asbag69
(g90
g71
NtRp2081
(dp2082
g74
(dp2083
g101
g102
ssg83
g2073
sg76
(lp2084
S':'
asbag69
(g90
g71
NtRp2085
(dp2086
g74
(dp2087
sg83
g2073
sg76
(lp2088
g69
(g70
g71
NtRp2089
(dp2090
g74
(dp2091
g82
I4
ssg83
g2085
sg76
(lp2092
g1018
asbasbasbag69
(g85
g71
NtRp2093
(dp2094
g74
(dp2095
sg83
g1942
sg76
(lp2096
g69
(g90
g71
NtRp2097
(dp2098
g74
(dp2099
g94
g95
ssg83
g2093
sg76
(lp2100
g1203
asbag69
(g90
g71
NtRp2101
(dp2102
g74
(dp2103
g101
g102
ssg83
g2093
sg76
(lp2104
S':'
asbag69
(g90
g71
NtRp2105
(dp2106
g74
(dp2107
sg83
g2093
sg76
(lp2108
g69
(g70
g71
NtRp2109
(dp2110
g74
(dp2111
g82
I4
ssg83
g2105
sg76
(lp2112
g112
asbasbasbag69
(g85
g71
NtRp2113
(dp2114
g74
(dp2115
sg83
g1942
sg76
(lp2116
g69
(g90
g71
NtRp2117
(dp2118
g74
(dp2119
g94
g95
ssg83
g2113
sg76
(lp2120
g1224
asbag69
(g90
g71
NtRp2121
(dp2122
g74
(dp2123
g101
g102
ssg83
g2113
sg76
(lp2124
S':'
asbag69
(g90
g71
NtRp2125
(dp2126
g74
(dp2127
sg83
g2113
sg76
(lp2128
g69
(g70
g71
NtRp2129
(dp2130
g74
(dp2131
g82
I4
ssg83
g2125
sg76
(lp2132
g112
asbasbasbag69
(g85
g71
NtRp2133
(dp2134
g74
(dp2135
sg83
g1942
sg76
(lp2136
g69
(g90
g71
NtRp2137
(dp2138
g74
(dp2139
g94
g95
ssg83
g2133
sg76
(lp2140
g1485
asbag69
(g90
g71
NtRp2141
(dp2142
g74
(dp2143
g101
g102
ssg83
g2133
sg76
(lp2144
S':'
asbag69
(g90
g71
NtRp2145
(dp2146
g74
(dp2147
sg83
g2133
sg76
(lp2148
g69
(g70
g71
NtRp2149
(dp2150
g74
(dp2151
g82
I4
ssg83
g2145
sg76
(lp2152
g1498
asbasbasbag69
(g85
g71
NtRp2153
(dp2154
g74
(dp2155
sg83
g1942
sg76
(lp2156
g69
(g90
g71
NtRp2157
(dp2158
g74
(dp2159
g94
g95
ssg83
g2153
sg76
(lp2160
g1528
asbag69
(g90
g71
NtRp2161
(dp2162
g74
(dp2163
g101
g102
ssg83
g2153
sg76
(lp2164
S':'
asbag69
(g90
g71
NtRp2165
(dp2166
g74
(dp2167
sg83
g2153
sg76
(lp2168
g69
(g70
g71
NtRp2169
(dp2170
g74
(dp2171
g82
I4
ssg83
g2165
sg76
(lp2172
g69
(g78
g71
NtRp2173
(dp2174
g74
(dp2175
g82
I3
ssg83
Nsg76
(lp2176
g69
(g85
g71
NtRp2177
(dp2178
g74
(dp2179
sg83
g2173
sg76
(lp2180
g69
(g90
g71
NtRp2181
(dp2182
g74
(dp2183
sg83
g2177
sg76
(lp2184
g69
(g70
g71
NtRp2185
(dp2186
g74
(dp2187
g82
I3
ssg83
g2181
sg76
(lp2188
S'2'
asbasbasbag69
(g85
g71
NtRp2189
(dp2190
g74
(dp2191
sg83
g2173
sg76
(lp2192
g69
(g90
g71
NtRp2193
(dp2194
g74
(dp2195
sg83
g2189
sg76
(lp2196
g69
(g70
g71
NtRp2197
(dp2198
g74
(dp2199
g82
I3
ssg83
g2193
sg76
(lp2200
S'0'
asbasbasbag69
(g85
g71
NtRp2201
(dp2202
g74
(dp2203
sg83
g2173
sg76
(lp2204
g69
(g90
g71
NtRp2205
(dp2206
g74
(dp2207
sg83
g2201
sg76
(lp2208
g69
(g70
g71
NtRp2209
(dp2210
g74
(dp2211
g82
I3
ssg83
g2205
sg76
(lp2212
S'9'
asbasbasbag69
(g85
g71
NtRp2213
(dp2214
g74
(dp2215
sg83
g2173
sg76
(lp2216
g69
(g90
g71
NtRp2217
(dp2218
g74
(dp2219
sg83
g2213
sg76
(lp2220
g69
(g70
g71
NtRp2221
(dp2222
g74
(dp2223
g82
I3
ssg83
g2217
sg76
(lp2224
S'datetime.datetime(2012, 9, 13, 23, 51, 30)'
p2225
asbasbasbag69
(g85
g71
NtRp2226
(dp2227
g74
(dp2228
sg83
g2173
sg76
(lp2229
g69
(g90
g71
NtRp2230
(dp2231
g74
(dp2232
sg83
g2226
sg76
(lp2233
g69
(g70
g71
NtRp2234
(dp2235
g74
(dp2236
g82
I3
ssg83
g2230
sg76
(lp2237
g1606
asbasbasbasbasbasbasbasbasbasbasbag69
(g85
g71
NtRp2238
(dp2239
g74
(dp2240
sg83
g79
sg76
(lp2241
g69
(g90
g71
NtRp2242
(dp2243
g74
(dp2244
g94
g95
ssg83
g2238
sg76
(lp2245
S'is_https'
p2246
asbag69
(g90
g71
NtRp2247
(dp2248
g74
(dp2249
g101
g102
ssg83
g2238
sg76
(lp2250
S':'
asbag69
(g90
g71
NtRp2251
(dp2252
g74
(dp2253
sg83
g2238
sg76
(lp2254
g69
(g70
g71
NtRp2255
(dp2256
g74
(dp2257
g82
I5
ssg83
g2251
sg76
(lp2258
g112
asbasbasbag69
(g85
g71
NtRp2259
(dp2260
g74
(dp2261
sg83
g79
sg76
(lp2262
g69
(g90
g71
NtRp2263
(dp2264
g74
(dp2265
g94
g95
ssg83
g2259
sg76
(lp2266
S'is_local'
p2267
asbag69
(g90
g71
NtRp2268
(dp2269
g74
(dp2270
g101
g102
ssg83
g2259
sg76
(lp2271
S':'
asbag69
(g90
g71
NtRp2272
(dp2273
g74
(dp2274
sg83
g2259
sg76
(lp2275
g69
(g70
g71
NtRp2276
(dp2277
g74
(dp2278
g82
I5
ssg83
g2272
sg76
(lp2279
g1715
asbasbasbag69
(g85
g71
NtRp2280
(dp2281
g74
(dp2282
sg83
g79
sg76
(lp2283
g69
(g90
g71
NtRp2284
(dp2285
g74
(dp2286
g94
g95
ssg83
g2280
sg76
(lp2287
S'is_restful'
p2288
asbag69
(g90
g71
NtRp2289
(dp2290
g74
(dp2291
g101
g102
ssg83
g2280
sg76
(lp2292
S':'
asbag69
(g90
g71
NtRp2293
(dp2294
g74
(dp2295
sg83
g2280
sg76
(lp2296
g69
(g70
g71
NtRp2297
(dp2298
g74
(dp2299
g82
I5
ssg83
g2293
sg76
(lp2300
g112
asbasbasbag69
(g85
g71
NtRp2301
(dp2302
g74
(dp2303
sg83
g79
sg76
(lp2304
g69
(g90
g71
NtRp2305
(dp2306
g74
(dp2307
g94
g95
ssg83
g2301
sg76
(lp2308
S'now'
p2309
asbag69
(g90
g71
NtRp2310
(dp2311
g74
(dp2312
g101
g102
ssg83
g2301
sg76
(lp2313
S':'
asbag69
(g90
g71
NtRp2314
(dp2315
g74
(dp2316
sg83
g2301
sg76
(lp2317
g69
(g70
g71
NtRp2318
(dp2319
g74
(dp2320
g82
I5
ssg83
g2314
sg76
(lp2321
S'datetime.datetime(2012, 11, 11, 20, 56, 10, 406244)'
p2322
asbasbasbag69
(g85
g71
NtRp2323
(dp2324
g74
(dp2325
sg83
g79
sg76
(lp2326
g69
(g90
g71
NtRp2327
(dp2328
g74
(dp2329
g94
g95
ssg83
g2323
sg76
(lp2330
S'post_vars'
p2331
asbag69
(g90
g71
NtRp2332
(dp2333
g74
(dp2334
g101
g102
ssg83
g2323
sg76
(lp2335
S':'
asbag69
(g90
g71
NtRp2336
(dp2337
g74
(dp2338
sg83
g2323
sg76
(lp2339
g69
(g70
g71
NtRp2340
(dp2341
g74
(dp2342
g82
I5
ssg83
g2336
sg76
(lp2343
g69
(g78
g71
NtRp2344
(dp2345
g74
(dp2346
g82
I4
ssg83
Nsg76
(lp2347
sbasbasbasbag69
(g85
g71
NtRp2348
(dp2349
g74
(dp2350
sg83
g79
sg76
(lp2351
g69
(g90
g71
NtRp2352
(dp2353
g74
(dp2354
g94
g95
ssg83
g2348
sg76
(lp2355
S'raw_args'
p2356
asbag69
(g90
g71
NtRp2357
(dp2358
g74
(dp2359
g101
g102
ssg83
g2348
sg76
(lp2360
S':'
asbag69
(g90
g71
NtRp2361
(dp2362
g74
(dp2363
sg83
g2348
sg76
(lp2364
g69
(g70
g71
NtRp2365
(dp2366
g74
(dp2367
g82
I5
ssg83
g2361
sg76
(lp2368
S'None'
p2369
asbasbasbag69
(g85
g71
NtRp2370
(dp2371
g74
(dp2372
sg83
g79
sg76
(lp2373
g69
(g90
g71
NtRp2374
(dp2375
g74
(dp2376
g94
g95
ssg83
g2370
sg76
(lp2377
S'raw_extension'
p2378
asbag69
(g90
g71
NtRp2379
(dp2380
g74
(dp2381
g101
g102
ssg83
g2370
sg76
(lp2382
S':'
asbag69
(g90
g71
NtRp2383
(dp2384
g74
(dp2385
sg83
g2370
sg76
(lp2386
g69
(g70
g71
NtRp2387
(dp2388
g74
(dp2389
g82
I5
ssg83
g2383
sg76
(lp2390
S'None'
p2391
asbasbasbag69
(g85
g71
NtRp2392
(dp2393
g74
(dp2394
sg83
g79
sg76
(lp2395
g69
(g90
g71
NtRp2396
(dp2397
g74
(dp2398
g94
g95
ssg83
g2392
sg76
(lp2399
S'url'
p2400
asbag69
(g90
g71
NtRp2401
(dp2402
g74
(dp2403
g101
g102
ssg83
g2392
sg76
(lp2404
S':'
asbag69
(g90
g71
NtRp2405
(dp2406
g74
(dp2407
sg83
g2392
sg76
(lp2408
g69
(g70
g71
NtRp2409
(dp2410
g74
(dp2411
g82
I5
ssg83
g2405
sg76
(lp2412
g1258
asbasbasbag69
(g85
g71
NtRp2413
(dp2414
g74
(dp2415
sg83
g79
sg76
(lp2416
g69
(g90
g71
NtRp2417
(dp2418
g74
(dp2419
g94
g95
ssg83
g2413
sg76
(lp2420
S'utcnow'
p2421
asbag69
(g90
g71
NtRp2422
(dp2423
g74
(dp2424
g101
g102
ssg83
g2413
sg76
(lp2425
S':'
asbag69
(g90
g71
NtRp2426
(dp2427
g74
(dp2428
sg83
g2413
sg76
(lp2429
g69
(g70
g71
NtRp2430
(dp2431
g74
(dp2432
g82
I5
ssg83
g2426
sg76
(lp2433
S'datetime.datetime(2012, 11, 11, 15, 26, 10, 406267)'
p2434
asbasbasbag69
(g85
g71
NtRp2435
(dp2436
g74
(dp2437
sg83
g79
sg76
(lp2438
g69
(g90
g71
NtRp2439
(dp2440
g74
(dp2441
g94
g95
ssg83
g2435
sg76
(lp2442
S'uuid'
p2443
asbag69
(g90
g71
NtRp2444
(dp2445
g74
(dp2446
g101
g102
ssg83
g2435
sg76
(lp2447
S':'
asbag69
(g90
g71
NtRp2448
(dp2449
g74
(dp2450
sg83
g2435
sg76
(lp2451
g69
(g70
g71
NtRp2452
(dp2453
g74
(dp2454
g82
I5
ssg83
g2448
sg76
(lp2455
S'manager/127.0.0.1.2012-11-11.20-56-10.6f3467b5-1fb6-4151-875a-ba5c81cb305c'
p2456
asbasbasbag69
(g85
g71
NtRp2457
(dp2458
g74
(dp2459
sg83
g79
sg76
(lp2460
g69
(g90
g71
NtRp2461
(dp2462
g74
(dp2463
g94
g95
ssg83
g2457
sg76
(lp2464
S'vars'
p2465
asbag69
(g90
g71
NtRp2466
(dp2467
g74
(dp2468
g101
g102
ssg83
g2457
sg76
(lp2469
S':'
asbag69
(g90
g71
NtRp2470
(dp2471
g74
(dp2472
sg83
g2457
sg76
(lp2473
g69
(g70
g71
NtRp2474
(dp2475
g74
(dp2476
g82
I5
ssg83
g2470
sg76
(lp2477
g69
(g78
g71
NtRp2478
(dp2479
g74
(dp2480
g82
I4
ssg83
Nsg76
(lp2481
g69
(g85
g71
NtRp2482
(dp2483
g74
(dp2484
sg83
g2478
sg76
(lp2485
g69
(g90
g71
NtRp2486
(dp2487
g74
(dp2488
g94
g95
ssg83
g2482
sg76
(lp2489
g1907
asbag69
(g90
g71
NtRp2490
(dp2491
g74
(dp2492
g101
g102
ssg83
g2482
sg76
(lp2493
S':'
asbag69
(g90
g71
NtRp2494
(dp2495
g74
(dp2496
sg83
g2482
sg76
(lp2497
g69
(g70
g71
NtRp2498
(dp2499
g74
(dp2500
g82
I4
ssg83
g2494
sg76
(lp2501
g1920
asbasbasbasbasbasbasbag69
(g85
g71
NtRp2502
(dp2503
g74
(dp2504
sg83
g79
sg76
(lp2505
g69
(g90
g71
NtRp2506
(dp2507
g74
(dp2508
g94
g95
ssg83
g2502
sg76
(lp2509
S'wsgi'
p2510
asbag69
(g90
g71
NtRp2511
(dp2512
g74
(dp2513
g101
g102
ssg83
g2502
sg76
(lp2514
S':'
asbag69
(g90
g71
NtRp2515
(dp2516
g74
(dp2517
sg83
g2502
sg76
(lp2518
g69
(g70
g71
NtRp2519
(dp2520
g74
(dp2521
g82
I5
ssg83
g2515
sg76
(lp2522
g69
(g78
g71
NtRp2523
(dp2524
g74
(dp2525
g82
I4
ssg83
Nsg76
(lp2526
g69
(g85
g71
NtRp2527
(dp2528
g74
(dp2529
sg83
g2523
sg76
(lp2530
g69
(g90
g71
NtRp2531
(dp2532
g74
(dp2533
g94
g95
ssg83
g2527
sg76
(lp2534
S'environ'
p2535
asbag69
(g90
g71
NtRp2536
(dp2537
g74
(dp2538
g101
g102
ssg83
g2527
sg76
(lp2539
S':'
asbag69
(g90
g71
NtRp2540
(dp2541
g74
(dp2542
sg83
g2527
sg76
(lp2543
g69
(g70
g71
NtRp2544
(dp2545
g74
(dp2546
g82
I4
ssg83
g2540
sg76
(lp2547
g69
(g78
g71
NtRp2548
(dp2549
g74
(dp2550
g82
I3
ssg83
Nsg76
(lp2551
g69
(g85
g71
NtRp2552
(dp2553
g74
(dp2554
sg83
g2548
sg76
(lp2555
g69
(g90
g71
NtRp2556
(dp2557
g74
(dp2558
g94
g95
ssg83
g2552
sg76
(lp2559
S'HTTP_ACCEPT'
p2560
asbag69
(g90
g71
NtRp2561
(dp2562
g74
(dp2563
g101
g102
ssg83
g2552
sg76
(lp2564
S':'
asbag69
(g90
g71
NtRp2565
(dp2566
g74
(dp2567
sg83
g2552
sg76
(lp2568
g69
(g70
g71
NtRp2569
(dp2570
g74
(dp2571
g82
I3
ssg83
g2565
sg76
(lp2572
g1040
asbasbasbag69
(g85
g71
NtRp2573
(dp2574
g74
(dp2575
sg83
g2548
sg76
(lp2576
g69
(g90
g71
NtRp2577
(dp2578
g74
(dp2579
g94
g95
ssg83
g2573
sg76
(lp2580
S'HTTP_ACCEPT_ENCODING'
p2581
asbag69
(g90
g71
NtRp2582
(dp2583
g74
(dp2584
g101
g102
ssg83
g2573
sg76
(lp2585
S':'
asbag69
(g90
g71
NtRp2586
(dp2587
g74
(dp2588
sg83
g2573
sg76
(lp2589
g69
(g70
g71
NtRp2590
(dp2591
g74
(dp2592
g82
I3
ssg83
g2586
sg76
(lp2593
g1062
asbasbasbag69
(g85
g71
NtRp2594
(dp2595
g74
(dp2596
sg83
g2548
sg76
(lp2597
g69
(g90
g71
NtRp2598
(dp2599
g74
(dp2600
g94
g95
ssg83
g2594
sg76
(lp2601
S'HTTP_ACCEPT_LANGUAGE'
p2602
asbag69
(g90
g71
NtRp2603
(dp2604
g74
(dp2605
g101
g102
ssg83
g2594
sg76
(lp2606
S':'
asbag69
(g90
g71
NtRp2607
(dp2608
g74
(dp2609
sg83
g2594
sg76
(lp2610
g69
(g70
g71
NtRp2611
(dp2612
g74
(dp2613
g82
I3
ssg83
g2607
sg76
(lp2614
g1084
asbasbasbag69
(g85
g71
NtRp2615
(dp2616
g74
(dp2617
sg83
g2548
sg76
(lp2618
g69
(g90
g71
NtRp2619
(dp2620
g74
(dp2621
g94
g95
ssg83
g2615
sg76
(lp2622
S'HTTP_CONNECTION'
p2623
asbag69
(g90
g71
NtRp2624
(dp2625
g74
(dp2626
g101
g102
ssg83
g2615
sg76
(lp2627
S':'
asbag69
(g90
g71
NtRp2628
(dp2629
g74
(dp2630
sg83
g2615
sg76
(lp2631
g69
(g70
g71
NtRp2632
(dp2633
g74
(dp2634
g82
I3
ssg83
g2628
sg76
(lp2635
g1106
asbasbasbag69
(g85
g71
NtRp2636
(dp2637
g74
(dp2638
sg83
g2548
sg76
(lp2639
g69
(g90
g71
NtRp2640
(dp2641
g74
(dp2642
g94
g95
ssg83
g2636
sg76
(lp2643
S'HTTP_COOKIE'
p2644
asbag69
(g90
g71
NtRp2645
(dp2646
g74
(dp2647
g101
g102
ssg83
g2636
sg76
(lp2648
S':'
asbag69
(g90
g71
NtRp2649
(dp2650
g74
(dp2651
sg83
g2636
sg76
(lp2652
g69
(g70
g71
NtRp2653
(dp2654
g74
(dp2655
g82
I3
ssg83
g2649
sg76
(lp2656
g1128
asbasbasbag69
(g85
g71
NtRp2657
(dp2658
g74
(dp2659
sg83
g2548
sg76
(lp2660
g69
(g90
g71
NtRp2661
(dp2662
g74
(dp2663
g94
g95
ssg83
g2657
sg76
(lp2664
S'HTTP_HOST'
p2665
asbag69
(g90
g71
NtRp2666
(dp2667
g74
(dp2668
g101
g102
ssg83
g2657
sg76
(lp2669
S':'
asbag69
(g90
g71
NtRp2670
(dp2671
g74
(dp2672
sg83
g2657
sg76
(lp2673
g69
(g70
g71
NtRp2674
(dp2675
g74
(dp2676
g82
I3
ssg83
g2670
sg76
(lp2677
g1150
asbasbasbag69
(g85
g71
NtRp2678
(dp2679
g74
(dp2680
sg83
g2548
sg76
(lp2681
g69
(g90
g71
NtRp2682
(dp2683
g74
(dp2684
g94
g95
ssg83
g2678
sg76
(lp2685
S'HTTP_REFERER'
p2686
asbag69
(g90
g71
NtRp2687
(dp2688
g74
(dp2689
g101
g102
ssg83
g2678
sg76
(lp2690
S':'
asbag69
(g90
g71
NtRp2691
(dp2692
g74
(dp2693
sg83
g2678
sg76
(lp2694
g69
(g70
g71
NtRp2695
(dp2696
g74
(dp2697
g82
I3
ssg83
g2691
sg76
(lp2698
g1172
asbasbasbag69
(g85
g71
NtRp2699
(dp2700
g74
(dp2701
sg83
g2548
sg76
(lp2702
g69
(g90
g71
NtRp2703
(dp2704
g74
(dp2705
g94
g95
ssg83
g2699
sg76
(lp2706
S'HTTP_USER_AGENT'
p2707
asbag69
(g90
g71
NtRp2708
(dp2709
g74
(dp2710
g101
g102
ssg83
g2699
sg76
(lp2711
S':'
asbag69
(g90
g71
NtRp2712
(dp2713
g74
(dp2714
sg83
g2699
sg76
(lp2715
g69
(g70
g71
NtRp2716
(dp2717
g74
(dp2718
g82
I3
ssg83
g2712
sg76
(lp2719
g1194
asbasbasbag69
(g85
g71
NtRp2720
(dp2721
g74
(dp2722
sg83
g2548
sg76
(lp2723
g69
(g90
g71
NtRp2724
(dp2725
g74
(dp2726
g94
g95
ssg83
g2720
sg76
(lp2727
S'PATH_INFO'
p2728
asbag69
(g90
g71
NtRp2729
(dp2730
g74
(dp2731
g101
g102
ssg83
g2720
sg76
(lp2732
S':'
asbag69
(g90
g71
NtRp2733
(dp2734
g74
(dp2735
sg83
g2720
sg76
(lp2736
g69
(g70
g71
NtRp2737
(dp2738
g74
(dp2739
g82
I3
ssg83
g2733
sg76
(lp2740
g1258
asbasbasbag69
(g85
g71
NtRp2741
(dp2742
g74
(dp2743
sg83
g2548
sg76
(lp2744
g69
(g90
g71
NtRp2745
(dp2746
g74
(dp2747
g94
g95
ssg83
g2741
sg76
(lp2748
S'QUERY_STRING'
p2749
asbag69
(g90
g71
NtRp2750
(dp2751
g74
(dp2752
g101
g102
ssg83
g2741
sg76
(lp2753
S':'
asbag69
(g90
g71
NtRp2754
(dp2755
g74
(dp2756
sg83
g2741
sg76
(lp2757
g69
(g70
g71
NtRp2758
(dp2759
g74
(dp2760
g82
I3
ssg83
g2754
sg76
(lp2761
g1280
asbasbasbag69
(g85
g71
NtRp2762
(dp2763
g74
(dp2764
sg83
g2548
sg76
(lp2765
g69
(g90
g71
NtRp2766
(dp2767
g74
(dp2768
g94
g95
ssg83
g2762
sg76
(lp2769
S'REMOTE_ADDR'
p2770
asbag69
(g90
g71
NtRp2771
(dp2772
g74
(dp2773
g101
g102
ssg83
g2762
sg76
(lp2774
S':'
asbag69
(g90
g71
NtRp2775
(dp2776
g74
(dp2777
sg83
g2762
sg76
(lp2778
g69
(g70
g71
NtRp2779
(dp2780
g74
(dp2781
g82
I3
ssg83
g2775
sg76
(lp2782
g224
asbasbasbag69
(g85
g71
NtRp2783
(dp2784
g74
(dp2785
sg83
g2548
sg76
(lp2786
g69
(g90
g71
NtRp2787
(dp2788
g74
(dp2789
g94
g95
ssg83
g2783
sg76
(lp2790
S'REMOTE_PORT'
p2791
asbag69
(g90
g71
NtRp2792
(dp2793
g74
(dp2794
g101
g102
ssg83
g2783
sg76
(lp2795
S':'
asbag69
(g90
g71
NtRp2796
(dp2797
g74
(dp2798
sg83
g2783
sg76
(lp2799
g69
(g70
g71
NtRp2800
(dp2801
g74
(dp2802
g82
I3
ssg83
g2796
sg76
(lp2803
g1323
asbasbasbag69
(g85
g71
NtRp2804
(dp2805
g74
(dp2806
sg83
g2548
sg76
(lp2807
g69
(g90
g71
NtRp2808
(dp2809
g74
(dp2810
g94
g95
ssg83
g2804
sg76
(lp2811
S'REQUEST_METHOD'
p2812
asbag69
(g90
g71
NtRp2813
(dp2814
g74
(dp2815
g101
g102
ssg83
g2804
sg76
(lp2816
S':'
asbag69
(g90
g71
NtRp2817
(dp2818
g74
(dp2819
sg83
g2804
sg76
(lp2820
g69
(g70
g71
NtRp2821
(dp2822
g74
(dp2823
g82
I3
ssg83
g2817
sg76
(lp2824
g1345
asbasbasbag69
(g85
g71
NtRp2825
(dp2826
g74
(dp2827
sg83
g2548
sg76
(lp2828
g69
(g90
g71
NtRp2829
(dp2830
g74
(dp2831
g94
g95
ssg83
g2825
sg76
(lp2832
S'REQUEST_URI'
p2833
asbag69
(g90
g71
NtRp2834
(dp2835
g74
(dp2836
g101
g102
ssg83
g2825
sg76
(lp2837
S':'
asbag69
(g90
g71
NtRp2838
(dp2839
g74
(dp2840
sg83
g2825
sg76
(lp2841
g69
(g70
g71
NtRp2842
(dp2843
g74
(dp2844
g82
I3
ssg83
g2838
sg76
(lp2845
g1367
asbasbasbag69
(g85
g71
NtRp2846
(dp2847
g74
(dp2848
sg83
g2548
sg76
(lp2849
g69
(g90
g71
NtRp2850
(dp2851
g74
(dp2852
g94
g95
ssg83
g2846
sg76
(lp2853
S'SCRIPT_NAME'
p2854
asbag69
(g90
g71
NtRp2855
(dp2856
g74
(dp2857
g101
g102
ssg83
g2846
sg76
(lp2858
S':'
asbag69
(g90
g71
NtRp2859
(dp2860
g74
(dp2861
sg83
g2846
sg76
(lp2862
g69
(g70
g71
NtRp2863
(dp2864
g74
(dp2865
g82
I3
ssg83
g2859
sg76
(lp2866
S''
asbasbasbag69
(g85
g71
NtRp2867
(dp2868
g74
(dp2869
sg83
g2548
sg76
(lp2870
g69
(g90
g71
NtRp2871
(dp2872
g74
(dp2873
g94
g95
ssg83
g2867
sg76
(lp2874
S'SERVER_NAME'
p2875
asbag69
(g90
g71
NtRp2876
(dp2877
g74
(dp2878
g101
g102
ssg83
g2867
sg76
(lp2879
S':'
asbag69
(g90
g71
NtRp2880
(dp2881
g74
(dp2882
sg83
g2867
sg76
(lp2883
g69
(g70
g71
NtRp2884
(dp2885
g74
(dp2886
g82
I3
ssg83
g2880
sg76
(lp2887
g1410
asbasbasbag69
(g85
g71
NtRp2888
(dp2889
g74
(dp2890
sg83
g2548
sg76
(lp2891
g69
(g90
g71
NtRp2892
(dp2893
g74
(dp2894
g94
g95
ssg83
g2888
sg76
(lp2895
S'SERVER_PORT'
p2896
asbag69
(g90
g71
NtRp2897
(dp2898
g74
(dp2899
g101
g102
ssg83
g2888
sg76
(lp2900
S':'
asbag69
(g90
g71
NtRp2901
(dp2902
g74
(dp2903
sg83
g2888
sg76
(lp2904
g69
(g70
g71
NtRp2905
(dp2906
g74
(dp2907
g82
I3
ssg83
g2901
sg76
(lp2908
g1432
asbasbasbag69
(g85
g71
NtRp2909
(dp2910
g74
(dp2911
sg83
g2548
sg76
(lp2912
g69
(g90
g71
NtRp2913
(dp2914
g74
(dp2915
g94
g95
ssg83
g2909
sg76
(lp2916
S'SERVER_PROTOCOL'
p2917
asbag69
(g90
g71
NtRp2918
(dp2919
g74
(dp2920
g101
g102
ssg83
g2909
sg76
(lp2921
S':'
asbag69
(g90
g71
NtRp2922
(dp2923
g74
(dp2924
sg83
g2909
sg76
(lp2925
g69
(g70
g71
NtRp2926
(dp2927
g74
(dp2928
g82
I3
ssg83
g2922
sg76
(lp2929
g1454
asbasbasbag69
(g85
g71
NtRp2930
(dp2931
g74
(dp2932
sg83
g2548
sg76
(lp2933
g69
(g90
g71
NtRp2934
(dp2935
g74
(dp2936
g94
g95
ssg83
g2930
sg76
(lp2937
S'SERVER_SOFTWARE'
p2938
asbag69
(g90
g71
NtRp2939
(dp2940
g74
(dp2941
g101
g102
ssg83
g2930
sg76
(lp2942
S':'
asbag69
(g90
g71
NtRp2943
(dp2944
g74
(dp2945
sg83
g2930
sg76
(lp2946
g69
(g70
g71
NtRp2947
(dp2948
g74
(dp2949
g82
I3
ssg83
g2943
sg76
(lp2950
g1476
asbasbasbag69
(g85
g71
NtRp2951
(dp2952
g74
(dp2953
sg83
g2548
sg76
(lp2954
g69
(g90
g71
NtRp2955
(dp2956
g74
(dp2957
g94
g95
ssg83
g2951
sg76
(lp2958
S'wsgi.errors'
p2959
asbag69
(g90
g71
NtRp2960
(dp2961
g74
(dp2962
g101
g102
ssg83
g2951
sg76
(lp2963
S':'
asbag69
(g90
g71
NtRp2964
(dp2965
g74
(dp2966
sg83
g2951
sg76
(lp2967
g69
(g70
g71
NtRp2968
(dp2969
g74
(dp2970
g82
I3
ssg83
g2964
sg76
(lp2971
S"<open file '<stderr>', mode 'w' at 0x7f203e563270>"
p2972
asbasbasbag69
(g85
g71
NtRp2973
(dp2974
g74
(dp2975
sg83
g2548
sg76
(lp2976
g69
(g90
g71
NtRp2977
(dp2978
g74
(dp2979
g94
g95
ssg83
g2973
sg76
(lp2980
S'wsgi.file_wrapper'
p2981
asbag69
(g90
g71
NtRp2982
(dp2983
g74
(dp2984
g101
g102
ssg83
g2973
sg76
(lp2985
S':'
asbag69
(g90
g71
NtRp2986
(dp2987
g74
(dp2988
sg83
g2973
sg76
(lp2989
g69
(g70
g71
NtRp2990
(dp2991
g74
(dp2992
g82
I3
ssg83
g2986
sg76
(lp2993
S'<class wsgiref.util.FileWrapper at 0x2880a78>'
p2994
asbasbasbag69
(g85
g71
NtRp2995
(dp2996
g74
(dp2997
sg83
g2548
sg76
(lp2998
g69
(g90
g71
NtRp2999
(dp3000
g74
(dp3001
g94
g95
ssg83
g2995
sg76
(lp3002
S'wsgi.input'
p3003
asbag69
(g90
g71
NtRp3004
(dp3005
g74
(dp3006
g101
g102
ssg83
g2995
sg76
(lp3007
S':'
asbag69
(g90
g71
NtRp3008
(dp3009
g74
(dp3010
sg83
g2995
sg76
(lp3011
g69
(g70
g71
NtRp3012
(dp3013
g74
(dp3014
g82
I3
ssg83
g3008
sg76
(lp3015
S'<cStringIO.StringO object at 0x7f202c4ce538>'
p3016
asbasbasbag69
(g85
g71
NtRp3017
(dp3018
g74
(dp3019
sg83
g2548
sg76
(lp3020
g69
(g90
g71
NtRp3021
(dp3022
g74
(dp3023
g94
g95
ssg83
g3017
sg76
(lp3024
S'wsgi.multiprocess'
p3025
asbag69
(g90
g71
NtRp3026
(dp3027
g74
(dp3028
g101
g102
ssg83
g3017
sg76
(lp3029
S':'
asbag69
(g90
g71
NtRp3030
(dp3031
g74
(dp3032
sg83
g3017
sg76
(lp3033
g69
(g70
g71
NtRp3034
(dp3035
g74
(dp3036
g82
I3
ssg83
g3030
sg76
(lp3037
g112
asbasbasbag69
(g85
g71
NtRp3038
(dp3039
g74
(dp3040
sg83
g2548
sg76
(lp3041
g69
(g90
g71
NtRp3042
(dp3043
g74
(dp3044
g94
g95
ssg83
g3038
sg76
(lp3045
S'wsgi.multithread'
p3046
asbag69
(g90
g71
NtRp3047
(dp3048
g74
(dp3049
g101
g102
ssg83
g3038
sg76
(lp3050
S':'
asbag69
(g90
g71
NtRp3051
(dp3052
g74
(dp3053
sg83
g3038
sg76
(lp3054
g69
(g70
g71
NtRp3055
(dp3056
g74
(dp3057
g82
I3
ssg83
g3051
sg76
(lp3058
g1715
asbasbasbag69
(g85
g71
NtRp3059
(dp3060
g74
(dp3061
sg83
g2548
sg76
(lp3062
g69
(g90
g71
NtRp3063
(dp3064
g74
(dp3065
g94
g95
ssg83
g3059
sg76
(lp3066
S'wsgi.run_once'
p3067
asbag69
(g90
g71
NtRp3068
(dp3069
g74
(dp3070
g101
g102
ssg83
g3059
sg76
(lp3071
S':'
asbag69
(g90
g71
NtRp3072
(dp3073
g74
(dp3074
sg83
g3059
sg76
(lp3075
g69
(g70
g71
NtRp3076
(dp3077
g74
(dp3078
g82
I3
ssg83
g3072
sg76
(lp3079
g112
asbasbasbag69
(g85
g71
NtRp3080
(dp3081
g74
(dp3082
sg83
g2548
sg76
(lp3083
g69
(g90
g71
NtRp3084
(dp3085
g74
(dp3086
g94
g95
ssg83
g3080
sg76
(lp3087
S'wsgi.url_scheme'
p3088
asbag69
(g90
g71
NtRp3089
(dp3090
g74
(dp3091
g101
g102
ssg83
g3080
sg76
(lp3092
S':'
asbag69
(g90
g71
NtRp3093
(dp3094
g74
(dp3095
sg83
g3080
sg76
(lp3096
g69
(g70
g71
NtRp3097
(dp3098
g74
(dp3099
g82
I3
ssg83
g3093
sg76
(lp3100
g1758
asbasbasbag69
(g85
g71
NtRp3101
(dp3102
g74
(dp3103
sg83
g2548
sg76
(lp3104
g69
(g90
g71
NtRp3105
(dp3106
g74
(dp3107
g94
g95
ssg83
g3101
sg76
(lp3108
S'wsgi.version'
p3109
asbag69
(g90
g71
NtRp3110
(dp3111
g74
(dp3112
g101
g102
ssg83
g3101
sg76
(lp3113
S':'
asbag69
(g90
g71
NtRp3114
(dp3115
g74
(dp3116
sg83
g3101
sg76
(lp3117
g69
(g70
g71
NtRp3118
(dp3119
g74
(dp3120
g82
I3
ssg83
g3114
sg76
(lp3121
S'1'
asbasbasbasbasbasbasbasbasbasbasbasbasbsS'frames'
p3122
(lp3123
(dp3124
S'file'
p3125
S'/home/madhuri/Downloads/web2py/gluon/restricted.py'
p3126
sS'dump'
p3127
(dp3128
S'code'
p3129
S'\'response.write(\\\'<!DOCTYPE html PUBLIC "-//W3C//D...v>\\\\n  </div>\\\\n </body>\\\\n</html>\\\\n\\\', escape=False)\''
p3130
sS'layer'
p3131
S"'/home/madhuri/Downloads/web2py/applications/manager/views/default/login.html'"
p3132
sS'global compile2'
p3133
S'<function compile2>'
p3134
sS'ccode'
p3135
S'undefined'
p3136
ssS'lnum'
p3137
I208
sS'lines'
p3138
(dp3139
I203
S"    environment['__name__'] = '__restricted__'"
p3140
sI204
S'    try:'
p3141
sI205
S'        if type(code) == types.CodeType:'
p3142
sI206
S'            ccode = code'
p3143
sI207
S'        else:'
p3144
sI208
S'            ccode = compile2(code,layer)'
p3145
sI209
S'        exec ccode in environment'
p3146
sI210
S'    except HTTP:'
p3147
sI211
S'        raise'
p3148
sI212
S'    except RestrictedError:'
p3149
ssS'call'
p3150
S'(code=\'response.write(\\\'<!DOCTYPE html PUBLIC "-//W3C//D...v>\\\\n  </div>\\\\n </body>\\\\n</html>\\\\n\\\', escape=False)\', environment={\'A\': <class \'gluon.html.A\'>, \'Auth\': <class \'gluon.tools.Auth\'>, \'B\': <class \'gluon.html.B\'>, \'BEAUTIFY\': <class \'gluon.html.BEAUTIFY\'>, \'BODY\': <class \'gluon.html.BODY\'>, \'BR\': <class \'gluon.html.BR\'>, \'BUTTON\': <class \'gluon.html.BUTTON\'>, \'CAS\': <Storage {\'check_url\': \'https://login.iiit.ac.in...: \'http://127.0.0.1:8000/manager/default/login\'}>, \'CAT\': <class \'gluon.html.CAT\'>, \'CENTER\': <class \'gluon.html.CENTER\'>, ...}, layer=\'/home/madhuri/Downloads/web2py/applications/manager/views/default/login.html\')'
p3151
sS'func'
p3152
S'restricted'
p3153
sa(dp3154
g3125
S'/home/madhuri/Downloads/web2py/gluon/restricted.py'
p3155
sg3127
(dp3156
S'builtincompile'
p3157
S'<built-in function compile>'
p3158
sS'code'
p3159
S'\'response.write(\\\'<!DOCTYPE html PUBLIC "-//W3C//D...v>\\\\n  </div>\\\\n </body>\\\\n</html>\\\\n\\\', escape=False)\''
p3160
sS'code.rstrip'
p3161
S'<built-in method rstrip of str object>'
p3162
sS').replace'
p3163
g3136
sS'layer'
p3164
S"'/home/madhuri/Downloads/web2py/applications/manager/views/default/login.html'"
p3165
ssg3137
I193
sg3138
(dp3166
I192
S'    """'
p3167
sI193
S"    return compile(code.rstrip().replace('\\r\\n','\\n')+'\\n', layer, 'exec')"
p3168
sI194
S''
sI195
S"def restricted(code, environment=None, layer='Unknown'):"
p3169
sI196
S'    """'
p3170
sI197
S'    runs code in environment and returns the output. if an exception occurs'
p3171
sI188
S''
sI189
S'def compile2(code,layer):'
p3172
sI190
S'    """'
p3173
sI191
S"    The +'\\n' is necessary else compile fails when code ends in a comment."
p3174
ssg3150
S'(code=\'response.write(\\\'<!DOCTYPE html PUBLIC "-//W3C//D...v>\\\\n  </div>\\\\n </body>\\\\n</html>\\\\n\\\', escape=False)\', layer=\'/home/madhuri/Downloads/web2py/applications/manager/views/default/login.html\')'
p3175
sg3152
S'compile2'
p3176
sasS'pyver'
p3177
S'Python 2.7.3: /usr/bin/python'
p3178
sS'session'
p3179
g69
(g70
g71
NtRp3180
(dp3181
g74
(dp3182
sg76
(lp3183
g69
(g78
g71
NtRp3184
(dp3185
g74
(dp3186
g82
I5
ssg83
Nsg76
(lp3187
g69
(g85
g71
NtRp3188
(dp3189
g74
(dp3190
sg83
g3184
sg76
(lp3191
g69
(g90
g71
NtRp3192
(dp3193
g74
(dp3194
g94
g95
ssg83
g3188
sg76
(lp3195
S'LOGGEDIN'
p3196
asbag69
(g90
g71
NtRp3197
(dp3198
g74
(dp3199
g101
g102
ssg83
g3188
sg76
(lp3200
S':'
asbag69
(g90
g71
NtRp3201
(dp3202
g74
(dp3203
sg83
g3188
sg76
(lp3204
g69
(g70
g71
NtRp3205
(dp3206
g74
(dp3207
g82
I5
ssg83
g3201
sg76
(lp3208
S'0'
asbasbasbag69
(g85
g71
NtRp3209
(dp3210
g74
(dp3211
sg83
g3184
sg76
(lp3212
g69
(g90
g71
NtRp3213
(dp3214
g74
(dp3215
g94
g95
ssg83
g3209
sg76
(lp3216
S'auth'
p3217
asbag69
(g90
g71
NtRp3218
(dp3219
g74
(dp3220
g101
g102
ssg83
g3209
sg76
(lp3221
S':'
asbag69
(g90
g71
NtRp3222
(dp3223
g74
(dp3224
sg83
g3209
sg76
(lp3225
g69
(g70
g71
NtRp3226
(dp3227
g74
(dp3228
g82
I5
ssg83
g3222
sg76
(lp3229
S'None'
p3230
asbasbasbag69
(g85
g71
NtRp3231
(dp3232
g74
(dp3233
sg83
g3184
sg76
(lp3234
g69
(g90
g71
NtRp3235
(dp3236
g74
(dp3237
g94
g95
ssg83
g3231
sg76
(lp3238
S'flash'
p3239
asbag69
(g90
g71
NtRp3240
(dp3241
g74
(dp3242
g101
g102
ssg83
g3231
sg76
(lp3243
S':'
asbag69
(g90
g71
NtRp3244
(dp3245
g74
(dp3246
sg83
g3231
sg76
(lp3247
g69
(g70
g71
NtRp3248
(dp3249
g74
(dp3250
g82
I5
ssg83
g3244
sg76
(lp3251
S'None'
p3252
asbasbasbag69
(g85
g71
NtRp3253
(dp3254
g74
(dp3255
sg83
g3184
sg76
(lp3256
g69
(g90
g71
NtRp3257
(dp3258
g74
(dp3259
g94
g95
ssg83
g3253
sg76
(lp3260
S'last_orderby'
p3261
asbag69
(g90
g71
NtRp3262
(dp3263
g74
(dp3264
g101
g102
ssg83
g3253
sg76
(lp3265
S':'
asbag69
(g90
g71
NtRp3266
(dp3267
g74
(dp3268
sg83
g3253
sg76
(lp3269
g69
(g70
g71
NtRp3270
(dp3271
g74
(dp3272
g82
I5
ssg83
g3266
sg76
(lp3273
S'None'
p3274
asbasbasbag69
(g85
g71
NtRp3275
(dp3276
g74
(dp3277
sg83
g3184
sg76
(lp3278
g69
(g90
g71
NtRp3279
(dp3280
g74
(dp3281
g94
g95
ssg83
g3275
sg76
(lp3282
S'last_query'
p3283
asbag69
(g90
g71
NtRp3284
(dp3285
g74
(dp3286
g101
g102
ssg83
g3275
sg76
(lp3287
S':'
asbag69
(g90
g71
NtRp3288
(dp3289
g74
(dp3290
sg83
g3275
sg76
(lp3291
g69
(g70
g71
NtRp3292
(dp3293
g74
(dp3294
g82
I5
ssg83
g3288
sg76
(lp3295
S'db.Lpref.id>0'
p3296
asbasbasbag69
(g85
g71
NtRp3297
(dp3298
g74
(dp3299
sg83
g3184
sg76
(lp3300
g69
(g90
g71
NtRp3301
(dp3302
g74
(dp3303
g94
g95
ssg83
g3297
sg76
(lp3304
S'login'
p3305
asbag69
(g90
g71
NtRp3306
(dp3307
g74
(dp3308
g101
g102
ssg83
g3297
sg76
(lp3309
S':'
asbag69
(g90
g71
NtRp3310
(dp3311
g74
(dp3312
sg83
g3297
sg76
(lp3313
g69
(g70
g71
NtRp3314
(dp3315
g74
(dp3316
g82
I5
ssg83
g3310
sg76
(lp3317
S'0'
asbasbasbag69
(g85
g71
NtRp3318
(dp3319
g74
(dp3320
sg83
g3184
sg76
(lp3321
g69
(g90
g71
NtRp3322
(dp3323
g74
(dp3324
g94
g95
ssg83
g3318
sg76
(lp3325
S'token'
p3326
asbag69
(g90
g71
NtRp3327
(dp3328
g74
(dp3329
g101
g102
ssg83
g3318
sg76
(lp3330
S':'
asbag69
(g90
g71
NtRp3331
(dp3332
g74
(dp3333
sg83
g3318
sg76
(lp3334
g69
(g70
g71
NtRp3335
(dp3336
g74
(dp3337
g82
I5
ssg83
g3331
sg76
(lp3338
S'madhuri.gaddam@students.iiit.ac.in'
p3339
asbasbasbasbasbsS'etype'
p3340
S"<type 'exceptions.SyntaxError'>"
p3341
sS'date'
p3342
S'Sun Nov 11 20:56:10 2012'
p3343
sS'response'
p3344
g69
(g70
g71
NtRp3345
(dp3346
g74
(dp3347
sg76
(lp3348
g69
(g78
g71
NtRp3349
(dp3350
g74
(dp3351
g82
I5
ssg83
Nsg76
(lp3352
g69
(g85
g71
NtRp3353
(dp3354
g74
(dp3355
sg83
g3349
sg76
(lp3356
g69
(g90
g71
NtRp3357
(dp3358
g74
(dp3359
g94
g95
ssg83
g3353
sg76
(lp3360
g167
asbag69
(g90
g71
NtRp3361
(dp3362
g74
(dp3363
g101
g102
ssg83
g3353
sg76
(lp3364
S':'
asbag69
(g90
g71
NtRp3365
(dp3366
g74
(dp3367
sg83
g3353
sg76
(lp3368
g69
(g70
g71
NtRp3369
(dp3370
g74
(dp3371
g82
I5
ssg83
g3365
sg76
(lp3372
S'<cStringIO.StringO object at 0x7f202c4ce378>'
p3373
asbasbasbag69
(g85
g71
NtRp3374
(dp3375
g74
(dp3376
sg83
g3349
sg76
(lp3377
g69
(g90
g71
NtRp3378
(dp3379
g74
(dp3380
g94
g95
ssg83
g3374
sg76
(lp3381
g255
asbag69
(g90
g71
NtRp3382
(dp3383
g74
(dp3384
g101
g102
ssg83
g3374
sg76
(lp3385
S':'
asbag69
(g90
g71
NtRp3386
(dp3387
g74
(dp3388
sg83
g3374
sg76
(lp3389
g69
(g70
g71
NtRp3390
(dp3391
g74
(dp3392
g82
I5
ssg83
g3386
sg76
(lp3393
g69
(g78
g71
NtRp3394
(dp3395
g74
(dp3396
g82
I4
ssg83
Nsg76
(lp3397
g69
(g85
g71
NtRp3398
(dp3399
g74
(dp3400
sg83
g3394
sg76
(lp3401
g69
(g90
g71
NtRp3402
(dp3403
g74
(dp3404
g94
g95
ssg83
g3398
sg76
(lp3405
S'session_id_manager'
p3406
asbag69
(g90
g71
NtRp3407
(dp3408
g74
(dp3409
g101
g102
ssg83
g3398
sg76
(lp3410
S':'
asbag69
(g90
g71
NtRp3411
(dp3412
g74
(dp3413
sg83
g3398
sg76
(lp3414
g69
(g70
g71
NtRp3415
(dp3416
g74
(dp3417
g82
I4
ssg83
g3411
sg76
(lp3418
g487
ag69
(g78
g71
NtRp3419
(dp3420
g74
(dp3421
g82
I3
ssg83
Nsg76
(lp3422
g69
(g85
g71
NtRp3423
(dp3424
g74
(dp3425
sg83
g3419
sg76
(lp3426
g69
(g90
g71
NtRp3427
(dp3428
g74
(dp3429
g94
g95
ssg83
g3423
sg76
(lp3430
g306
asbag69
(g90
g71
NtRp3431
(dp3432
g74
(dp3433
g101
g102
ssg83
g3423
sg76
(lp3434
S':'
asbag69
(g90
g71
NtRp3435
(dp3436
g74
(dp3437
sg83
g3423
sg76
(lp3438
g69
(g70
g71
NtRp3439
(dp3440
g74
(dp3441
g82
I3
ssg83
g3435
sg76
(lp3442
S''
asbasbasbag69
(g85
g71
NtRp3443
(dp3444
g74
(dp3445
sg83
g3419
sg76
(lp3446
g69
(g90
g71
NtRp3447
(dp3448
g74
(dp3449
g94
g95
ssg83
g3443
sg76
(lp3450
g327
asbag69
(g90
g71
NtRp3451
(dp3452
g74
(dp3453
g101
g102
ssg83
g3443
sg76
(lp3454
S':'
asbag69
(g90
g71
NtRp3455
(dp3456
g74
(dp3457
sg83
g3443
sg76
(lp3458
g69
(g70
g71
NtRp3459
(dp3460
g74
(dp3461
g82
I3
ssg83
g3455
sg76
(lp3462
S''
asbasbasbag69
(g85
g71
NtRp3463
(dp3464
g74
(dp3465
sg83
g3419
sg76
(lp3466
g69
(g90
g71
NtRp3467
(dp3468
g74
(dp3469
g94
g95
ssg83
g3463
sg76
(lp3470
g348
asbag69
(g90
g71
NtRp3471
(dp3472
g74
(dp3473
g101
g102
ssg83
g3463
sg76
(lp3474
S':'
asbag69
(g90
g71
NtRp3475
(dp3476
g74
(dp3477
sg83
g3463
sg76
(lp3478
g69
(g70
g71
NtRp3479
(dp3480
g74
(dp3481
g82
I3
ssg83
g3475
sg76
(lp3482
S''
asbasbasbag69
(g85
g71
NtRp3483
(dp3484
g74
(dp3485
sg83
g3419
sg76
(lp3486
g69
(g90
g71
NtRp3487
(dp3488
g74
(dp3489
g94
g95
ssg83
g3483
sg76
(lp3490
g369
asbag69
(g90
g71
NtRp3491
(dp3492
g74
(dp3493
g101
g102
ssg83
g3483
sg76
(lp3494
S':'
asbag69
(g90
g71
NtRp3495
(dp3496
g74
(dp3497
sg83
g3483
sg76
(lp3498
g69
(g70
g71
NtRp3499
(dp3500
g74
(dp3501
g82
I3
ssg83
g3495
sg76
(lp3502
S''
asbasbasbag69
(g85
g71
NtRp3503
(dp3504
g74
(dp3505
sg83
g3419
sg76
(lp3506
g69
(g90
g71
NtRp3507
(dp3508
g74
(dp3509
g94
g95
ssg83
g3503
sg76
(lp3510
g390
asbag69
(g90
g71
NtRp3511
(dp3512
g74
(dp3513
g101
g102
ssg83
g3503
sg76
(lp3514
S':'
asbag69
(g90
g71
NtRp3515
(dp3516
g74
(dp3517
sg83
g3503
sg76
(lp3518
g69
(g70
g71
NtRp3519
(dp3520
g74
(dp3521
g82
I3
ssg83
g3515
sg76
(lp3522
S''
asbasbasbag69
(g85
g71
NtRp3523
(dp3524
g74
(dp3525
sg83
g3419
sg76
(lp3526
g69
(g90
g71
NtRp3527
(dp3528
g74
(dp3529
g94
g95
ssg83
g3523
sg76
(lp3530
g411
asbag69
(g90
g71
NtRp3531
(dp3532
g74
(dp3533
g101
g102
ssg83
g3523
sg76
(lp3534
S':'
asbag69
(g90
g71
NtRp3535
(dp3536
g74
(dp3537
sg83
g3523
sg76
(lp3538
g69
(g70
g71
NtRp3539
(dp3540
g74
(dp3541
g82
I3
ssg83
g3535
sg76
(lp3542
S'/'
asbasbasbag69
(g85
g71
NtRp3543
(dp3544
g74
(dp3545
sg83
g3419
sg76
(lp3546
g69
(g90
g71
NtRp3547
(dp3548
g74
(dp3549
g94
g95
ssg83
g3543
sg76
(lp3550
g432
asbag69
(g90
g71
NtRp3551
(dp3552
g74
(dp3553
g101
g102
ssg83
g3543
sg76
(lp3554
S':'
asbag69
(g90
g71
NtRp3555
(dp3556
g74
(dp3557
sg83
g3543
sg76
(lp3558
g69
(g70
g71
NtRp3559
(dp3560
g74
(dp3561
g82
I3
ssg83
g3555
sg76
(lp3562
S''
asbasbasbag69
(g85
g71
NtRp3563
(dp3564
g74
(dp3565
sg83
g3419
sg76
(lp3566
g69
(g90
g71
NtRp3567
(dp3568
g74
(dp3569
g94
g95
ssg83
g3563
sg76
(lp3570
g453
asbag69
(g90
g71
NtRp3571
(dp3572
g74
(dp3573
g101
g102
ssg83
g3563
sg76
(lp3574
S':'
asbag69
(g90
g71
NtRp3575
(dp3576
g74
(dp3577
sg83
g3563
sg76
(lp3578
g69
(g70
g71
NtRp3579
(dp3580
g74
(dp3581
g82
I3
ssg83
g3575
sg76
(lp3582
S''
asbasbasbasbasbasbasbasbasbasbasbag69
(g85
g71
NtRp3583
(dp3584
g74
(dp3585
sg83
g3349
sg76
(lp3586
g69
(g90
g71
NtRp3587
(dp3588
g74
(dp3589
g94
g95
ssg83
g3583
sg76
(lp3590
S'delimiters'
p3591
asbag69
(g90
g71
NtRp3592
(dp3593
g74
(dp3594
g101
g102
ssg83
g3583
sg76
(lp3595
S':'
asbag69
(g90
g71
NtRp3596
(dp3597
g74
(dp3598
sg83
g3583
sg76
(lp3599
g69
(g70
g71
NtRp3600
(dp3601
g74
(dp3602
g82
I5
ssg83
g3596
sg76
(lp3603
g69
(g78
g71
NtRp3604
(dp3605
g74
(dp3606
g82
I4
ssg83
Nsg76
(lp3607
g69
(g85
g71
NtRp3608
(dp3609
g74
(dp3610
sg83
g3604
sg76
(lp3611
g69
(g90
g71
NtRp3612
(dp3613
g74
(dp3614
sg83
g3608
sg76
(lp3615
g69
(g70
g71
NtRp3616
(dp3617
g74
(dp3618
g82
I4
ssg83
g3612
sg76
(lp3619
S'{{'
p3620
asbasbasbag69
(g85
g71
NtRp3621
(dp3622
g74
(dp3623
sg83
g3604
sg76
(lp3624
g69
(g90
g71
NtRp3625
(dp3626
g74
(dp3627
sg83
g3621
sg76
(lp3628
g69
(g70
g71
NtRp3629
(dp3630
g74
(dp3631
g82
I4
ssg83
g3625
sg76
(lp3632
S'}}'
p3633
asbasbasbasbasbasbasbag69
(g85
g71
NtRp3634
(dp3635
g74
(dp3636
sg83
g3349
sg76
(lp3637
g69
(g90
g71
NtRp3638
(dp3639
g74
(dp3640
g94
g95
ssg83
g3634
sg76
(lp3641
S'files'
p3642
asbag69
(g90
g71
NtRp3643
(dp3644
g74
(dp3645
g101
g102
ssg83
g3634
sg76
(lp3646
S':'
asbag69
(g90
g71
NtRp3647
(dp3648
g74
(dp3649
sg83
g3634
sg76
(lp3650
g69
(g70
g71
NtRp3651
(dp3652
g74
(dp3653
g82
I5
ssg83
g3647
sg76
(lp3654
g69
(g78
g71
NtRp3655
(dp3656
g74
(dp3657
g82
I4
ssg83
Nsg76
(lp3658
sbasbasbasbag69
(g85
g71
NtRp3659
(dp3660
g74
(dp3661
sg83
g3349
sg76
(lp3662
g69
(g90
g71
NtRp3663
(dp3664
g74
(dp3665
g94
g95
ssg83
g3659
sg76
(lp3666
S'flash'
p3667
asbag69
(g90
g71
NtRp3668
(dp3669
g74
(dp3670
g101
g102
ssg83
g3659
sg76
(lp3671
S':'
asbag69
(g90
g71
NtRp3672
(dp3673
g74
(dp3674
sg83
g3659
sg76
(lp3675
g69
(g70
g71
NtRp3676
(dp3677
g74
(dp3678
g82
I5
ssg83
g3672
sg76
(lp3679
S''
asbasbasbag69
(g85
g71
NtRp3680
(dp3681
g74
(dp3682
sg83
g3349
sg76
(lp3683
g69
(g90
g71
NtRp3684
(dp3685
g74
(dp3686
g94
g95
ssg83
g3680
sg76
(lp3687
S'generic_patterns'
p3688
asbag69
(g90
g71
NtRp3689
(dp3690
g74
(dp3691
g101
g102
ssg83
g3680
sg76
(lp3692
S':'
asbag69
(g90
g71
NtRp3693
(dp3694
g74
(dp3695
sg83
g3680
sg76
(lp3696
g69
(g70
g71
NtRp3697
(dp3698
g74
(dp3699
g82
I5
ssg83
g3693
sg76
(lp3700
g69
(g78
g71
NtRp3701
(dp3702
g74
(dp3703
g82
I4
ssg83
Nsg76
(lp3704
g69
(g85
g71
NtRp3705
(dp3706
g74
(dp3707
sg83
g3701
sg76
(lp3708
g69
(g90
g71
NtRp3709
(dp3710
g74
(dp3711
sg83
g3705
sg76
(lp3712
g69
(g70
g71
NtRp3713
(dp3714
g74
(dp3715
g82
I4
ssg83
g3709
sg76
(lp3716
S'*'
asbasbasbasbasbasbasbag69
(g85
g71
NtRp3717
(dp3718
g74
(dp3719
sg83
g3349
sg76
(lp3720
g69
(g90
g71
NtRp3721
(dp3722
g74
(dp3723
g94
g95
ssg83
g3717
sg76
(lp3724
S'google_analytics_id'
p3725
asbag69
(g90
g71
NtRp3726
(dp3727
g74
(dp3728
g101
g102
ssg83
g3717
sg76
(lp3729
S':'
asbag69
(g90
g71
NtRp3730
(dp3731
g74
(dp3732
sg83
g3717
sg76
(lp3733
g69
(g70
g71
NtRp3734
(dp3735
g74
(dp3736
g82
I5
ssg83
g3730
sg76
(lp3737
S'None'
p3738
asbasbasbag69
(g85
g71
NtRp3739
(dp3740
g74
(dp3741
sg83
g3349
sg76
(lp3742
g69
(g90
g71
NtRp3743
(dp3744
g74
(dp3745
g94
g95
ssg83
g3739
sg76
(lp3746
S'headers'
p3747
asbag69
(g90
g71
NtRp3748
(dp3749
g74
(dp3750
g101
g102
ssg83
g3739
sg76
(lp3751
S':'
asbag69
(g90
g71
NtRp3752
(dp3753
g74
(dp3754
sg83
g3739
sg76
(lp3755
g69
(g70
g71
NtRp3756
(dp3757
g74
(dp3758
g82
I5
ssg83
g3752
sg76
(lp3759
g69
(g78
g71
NtRp3760
(dp3761
g74
(dp3762
g82
I4
ssg83
Nsg76
(lp3763
g69
(g85
g71
NtRp3764
(dp3765
g74
(dp3766
sg83
g3760
sg76
(lp3767
g69
(g90
g71
NtRp3768
(dp3769
g74
(dp3770
g94
g95
ssg83
g3764
sg76
(lp3771
S'X-Powered-By'
p3772
asbag69
(g90
g71
NtRp3773
(dp3774
g74
(dp3775
g101
g102
ssg83
g3764
sg76
(lp3776
S':'
asbag69
(g90
g71
NtRp3777
(dp3778
g74
(dp3779
sg83
g3764
sg76
(lp3780
g69
(g70
g71
NtRp3781
(dp3782
g74
(dp3783
g82
I4
ssg83
g3777
sg76
(lp3784
S'web2py'
p3785
asbasbasbasbasbasbasbag69
(g85
g71
NtRp3786
(dp3787
g74
(dp3788
sg83
g3349
sg76
(lp3789
g69
(g90
g71
NtRp3790
(dp3791
g74
(dp3792
g94
g95
ssg83
g3786
sg76
(lp3793
S'menu'
p3794
asbag69
(g90
g71
NtRp3795
(dp3796
g74
(dp3797
g101
g102
ssg83
g3786
sg76
(lp3798
S':'
asbag69
(g90
g71
NtRp3799
(dp3800
g74
(dp3801
sg83
g3786
sg76
(lp3802
g69
(g70
g71
NtRp3803
(dp3804
g74
(dp3805
g82
I5
ssg83
g3799
sg76
(lp3806
g69
(g78
g71
NtRp3807
(dp3808
g74
(dp3809
g82
I4
ssg83
Nsg76
(lp3810
g69
(g85
g71
NtRp3811
(dp3812
g74
(dp3813
sg83
g3807
sg76
(lp3814
g69
(g90
g71
NtRp3815
(dp3816
g74
(dp3817
sg83
g3811
sg76
(lp3818
g69
(g70
g71
NtRp3819
(dp3820
g74
(dp3821
g82
I4
ssg83
g3815
sg76
(lp3822
g69
(g78
g71
NtRp3823
(dp3824
g74
(dp3825
g82
I3
ssg83
Nsg76
(lp3826
g69
(g85
g71
NtRp3827
(dp3828
g74
(dp3829
sg83
g3823
sg76
(lp3830
g69
(g90
g71
NtRp3831
(dp3832
g74
(dp3833
sg83
g3827
sg76
(lp3834
g69
(g70
g71
NtRp3835
(dp3836
g74
(dp3837
g82
I3
ssg83
g3831
sg76
(lp3838
cgluon.languages
lazyT_unpickle
p3839
(S't\x04\x00\x00\x00Home'
tRp3840
asbasbasbag69
(g85
g71
NtRp3841
(dp3842
g74
(dp3843
sg83
g3823
sg76
(lp3844
g69
(g90
g71
NtRp3845
(dp3846
g74
(dp3847
sg83
g3841
sg76
(lp3848
g69
(g70
g71
NtRp3849
(dp3850
g74
(dp3851
g82
I3
ssg83
g3845
sg76
(lp3852
g112
asbasbasbag69
(g85
g71
NtRp3853
(dp3854
g74
(dp3855
sg83
g3823
sg76
(lp3856
g69
(g90
g71
NtRp3857
(dp3858
g74
(dp3859
sg83
g3853
sg76
(lp3860
g69
(g70
g71
NtRp3861
(dp3862
g74
(dp3863
g82
I3
ssg83
g3857
sg76
(lp3864
S'/manager/default/index'
p3865
asbasbasbasbasbasbasbag69
(g85
g71
NtRp3866
(dp3867
g74
(dp3868
sg83
g3807
sg76
(lp3869
g69
(g90
g71
NtRp3870
(dp3871
g74
(dp3872
sg83
g3866
sg76
(lp3873
g69
(g70
g71
NtRp3874
(dp3875
g74
(dp3876
g82
I4
ssg83
g3870
sg76
(lp3877
g69
(g78
g71
NtRp3878
(dp3879
g74
(dp3880
g82
I3
ssg83
Nsg76
(lp3881
g69
(g85
g71
NtRp3882
(dp3883
g74
(dp3884
sg83
g3878
sg76
(lp3885
g69
(g90
g71
NtRp3886
(dp3887
g74
(dp3888
sg83
g3882
sg76
(lp3889
g69
(g70
g71
NtRp3890
(dp3891
g74
(dp3892
g82
I3
ssg83
g3886
sg76
(lp3893
g3839
(S't\x06\x00\x00\x00logout'
tRp3894
asbasbasbag69
(g85
g71
NtRp3895
(dp3896
g74
(dp3897
sg83
g3878
sg76
(lp3898
g69
(g90
g71
NtRp3899
(dp3900
g74
(dp3901
sg83
g3895
sg76
(lp3902
g69
(g70
g71
NtRp3903
(dp3904
g74
(dp3905
g82
I3
ssg83
g3899
sg76
(lp3906
g112
asbasbasbag69
(g85
g71
NtRp3907
(dp3908
g74
(dp3909
sg83
g3878
sg76
(lp3910
g69
(g90
g71
NtRp3911
(dp3912
g74
(dp3913
sg83
g3907
sg76
(lp3914
g69
(g70
g71
NtRp3915
(dp3916
g74
(dp3917
g82
I3
ssg83
g3911
sg76
(lp3918
S'/manager/default/logout'
p3919
asbasbasbasbasbasbasbasbasbasbasbag69
(g85
g71
NtRp3920
(dp3921
g74
(dp3922
sg83
g3349
sg76
(lp3923
g69
(g90
g71
NtRp3924
(dp3925
g74
(dp3926
g94
g95
ssg83
g3920
sg76
(lp3927
S'meta'
p3928
asbag69
(g90
g71
NtRp3929
(dp3930
g74
(dp3931
g101
g102
ssg83
g3920
sg76
(lp3932
S':'
asbag69
(g90
g71
NtRp3933
(dp3934
g74
(dp3935
sg83
g3920
sg76
(lp3936
g69
(g70
g71
NtRp3937
(dp3938
g74
(dp3939
g82
I5
ssg83
g3933
sg76
(lp3940
g69
(g78
g71
NtRp3941
(dp3942
g74
(dp3943
g82
I4
ssg83
Nsg76
(lp3944
g69
(g85
g71
NtRp3945
(dp3946
g74
(dp3947
sg83
g3941
sg76
(lp3948
g69
(g90
g71
NtRp3949
(dp3950
g74
(dp3951
g94
g95
ssg83
g3945
sg76
(lp3952
S'author'
p3953
asbag69
(g90
g71
NtRp3954
(dp3955
g74
(dp3956
g101
g102
ssg83
g3945
sg76
(lp3957
S':'
asbag69
(g90
g71
NtRp3958
(dp3959
g74
(dp3960
sg83
g3945
sg76
(lp3961
g69
(g70
g71
NtRp3962
(dp3963
g74
(dp3964
g82
I4
ssg83
g3958
sg76
(lp3965
S'Your Name <you@example.com>'
p3966
asbasbasbag69
(g85
g71
NtRp3967
(dp3968
g74
(dp3969
sg83
g3941
sg76
(lp3970
g69
(g90
g71
NtRp3971
(dp3972
g74
(dp3973
g94
g95
ssg83
g3967
sg76
(lp3974
S'copyright'
p3975
asbag69
(g90
g71
NtRp3976
(dp3977
g74
(dp3978
g101
g102
ssg83
g3967
sg76
(lp3979
S':'
asbag69
(g90
g71
NtRp3980
(dp3981
g74
(dp3982
sg83
g3967
sg76
(lp3983
g69
(g70
g71
NtRp3984
(dp3985
g74
(dp3986
g82
I4
ssg83
g3980
sg76
(lp3987
S'Copyright 2011'
p3988
asbasbasbag69
(g85
g71
NtRp3989
(dp3990
g74
(dp3991
sg83
g3941
sg76
(lp3992
g69
(g90
g71
NtRp3993
(dp3994
g74
(dp3995
g94
g95
ssg83
g3989
sg76
(lp3996
S'description'
p3997
asbag69
(g90
g71
NtRp3998
(dp3999
g74
(dp4000
g101
g102
ssg83
g3989
sg76
(lp4001
S':'
asbag69
(g90
g71
NtRp4002
(dp4003
g74
(dp4004
sg83
g3989
sg76
(lp4005
g69
(g70
g71
NtRp4006
(dp4007
g74
(dp4008
g82
I4
ssg83
g4002
sg76
(lp4009
S'a cool new app'
p4010
asbasbasbag69
(g85
g71
NtRp4011
(dp4012
g74
(dp4013
sg83
g3941
sg76
(lp4014
g69
(g90
g71
NtRp4015
(dp4016
g74
(dp4017
g94
g95
ssg83
g4011
sg76
(lp4018
S'generator'
p4019
asbag69
(g90
g71
NtRp4020
(dp4021
g74
(dp4022
g101
g102
ssg83
g4011
sg76
(lp4023
S':'
asbag69
(g90
g71
NtRp4024
(dp4025
g74
(dp4026
sg83
g4011
sg76
(lp4027
g69
(g70
g71
NtRp4028
(dp4029
g74
(dp4030
g82
I4
ssg83
g4024
sg76
(lp4031
S'Web2py Web Framework'
p4032
asbasbasbag69
(g85
g71
NtRp4033
(dp4034
g74
(dp4035
sg83
g3941
sg76
(lp4036
g69
(g90
g71
NtRp4037
(dp4038
g74
(dp4039
g94
g95
ssg83
g4033
sg76
(lp4040
S'keywords'
p4041
asbag69
(g90
g71
NtRp4042
(dp4043
g74
(dp4044
g101
g102
ssg83
g4033
sg76
(lp4045
S':'
asbag69
(g90
g71
NtRp4046
(dp4047
g74
(dp4048
sg83
g4033
sg76
(lp4049
g69
(g70
g71
NtRp4050
(dp4051
g74
(dp4052
g82
I4
ssg83
g4046
sg76
(lp4053
S'web2py, python, framework'
p4054
asbasbasbasbasbasbasbag69
(g85
g71
NtRp4055
(dp4056
g74
(dp4057
sg83
g3349
sg76
(lp4058
g69
(g90
g71
NtRp4059
(dp4060
g74
(dp4061
g94
g95
ssg83
g4055
sg76
(lp4062
S'models_to_run'
p4063
asbag69
(g90
g71
NtRp4064
(dp4065
g74
(dp4066
g101
g102
ssg83
g4055
sg76
(lp4067
S':'
asbag69
(g90
g71
NtRp4068
(dp4069
g74
(dp4070
sg83
g4055
sg76
(lp4071
g69
(g70
g71
NtRp4072
(dp4073
g74
(dp4074
g82
I5
ssg83
g4068
sg76
(lp4075
g69
(g78
g71
NtRp4076
(dp4077
g74
(dp4078
g82
I4
ssg83
Nsg76
(lp4079
g69
(g85
g71
NtRp4080
(dp4081
g74
(dp4082
sg83
g4076
sg76
(lp4083
g69
(g90
g71
NtRp4084
(dp4085
g74
(dp4086
sg83
g4080
sg76
(lp4087
g69
(g70
g71
NtRp4088
(dp4089
g74
(dp4090
g82
I4
ssg83
g4084
sg76
(lp4091
S'^\\w+\\.py$'
p4092
asbasbasbag69
(g85
g71
NtRp4093
(dp4094
g74
(dp4095
sg83
g4076
sg76
(lp4096
g69
(g90
g71
NtRp4097
(dp4098
g74
(dp4099
sg83
g4093
sg76
(lp4100
g69
(g70
g71
NtRp4101
(dp4102
g74
(dp4103
g82
I4
ssg83
g4097
sg76
(lp4104
S'^default/\\w+\\.py$'
p4105
asbasbasbag69
(g85
g71
NtRp4106
(dp4107
g74
(dp4108
sg83
g4076
sg76
(lp4109
g69
(g90
g71
NtRp4110
(dp4111
g74
(dp4112
sg83
g4106
sg76
(lp4113
g69
(g70
g71
NtRp4114
(dp4115
g74
(dp4116
g82
I4
ssg83
g4110
sg76
(lp4117
S'^default/login/\\w+\\.py$'
p4118
asbasbasbasbasbasbasbag69
(g85
g71
NtRp4119
(dp4120
g74
(dp4121
sg83
g3349
sg76
(lp4122
g69
(g90
g71
NtRp4123
(dp4124
g74
(dp4125
g94
g95
ssg83
g4119
sg76
(lp4126
S'postprocessing'
p4127
asbag69
(g90
g71
NtRp4128
(dp4129
g74
(dp4130
g101
g102
ssg83
g4119
sg76
(lp4131
S':'
asbag69
(g90
g71
NtRp4132
(dp4133
g74
(dp4134
sg83
g4119
sg76
(lp4135
g69
(g70
g71
NtRp4136
(dp4137
g74
(dp4138
g82
I5
ssg83
g4132
sg76
(lp4139
g69
(g78
g71
NtRp4140
(dp4141
g74
(dp4142
g82
I4
ssg83
Nsg76
(lp4143
sbasbasbasbag69
(g85
g71
NtRp4144
(dp4145
g74
(dp4146
sg83
g3349
sg76
(lp4147
g69
(g90
g71
NtRp4148
(dp4149
g74
(dp4150
g94
g95
ssg83
g4144
sg76
(lp4151
S'session_file'
p4152
asbag69
(g90
g71
NtRp4153
(dp4154
g74
(dp4155
g101
g102
ssg83
g4144
sg76
(lp4156
S':'
asbag69
(g90
g71
NtRp4157
(dp4158
g74
(dp4159
sg83
g4144
sg76
(lp4160
g69
(g70
g71
NtRp4161
(dp4162
g74
(dp4163
g82
I5
ssg83
g4157
sg76
(lp4164
S"<open file '/home/madhuri/Downloads/web2py/applications/manager/sessions/127.0.0.1-6f272149-6c92-44cc-85ba-c8ea1e4f1e04', mode 'rb+' at 0x7f20180740c0>"
p4165
asbasbasbag69
(g85
g71
NtRp4166
(dp4167
g74
(dp4168
sg83
g3349
sg76
(lp4169
g69
(g90
g71
NtRp4170
(dp4171
g74
(dp4172
g94
g95
ssg83
g4166
sg76
(lp4173
S'session_filename'
p4174
asbag69
(g90
g71
NtRp4175
(dp4176
g74
(dp4177
g101
g102
ssg83
g4166
sg76
(lp4178
S':'
asbag69
(g90
g71
NtRp4179
(dp4180
g74
(dp4181
sg83
g4166
sg76
(lp4182
g69
(g70
g71
NtRp4183
(dp4184
g74
(dp4185
g82
I5
ssg83
g4179
sg76
(lp4186
S'/home/madhuri/Downloads/web2py/applications/manager/sessions/127.0.0.1-6f272149-6c92-44cc-85ba-c8ea1e4f1e04'
p4187
asbasbasbag69
(g85
g71
NtRp4188
(dp4189
g74
(dp4190
sg83
g3349
sg76
(lp4191
g69
(g90
g71
NtRp4192
(dp4193
g74
(dp4194
g94
g95
ssg83
g4188
sg76
(lp4195
S'session_id'
p4196
asbag69
(g90
g71
NtRp4197
(dp4198
g74
(dp4199
g101
g102
ssg83
g4188
sg76
(lp4200
S':'
asbag69
(g90
g71
NtRp4201
(dp4202
g74
(dp4203
sg83
g4188
sg76
(lp4204
g69
(g70
g71
NtRp4205
(dp4206
g74
(dp4207
g82
I5
ssg83
g4201
sg76
(lp4208
g487
asbasbasbag69
(g85
g71
NtRp4209
(dp4210
g74
(dp4211
sg83
g3349
sg76
(lp4212
g69
(g90
g71
NtRp4213
(dp4214
g74
(dp4215
g94
g95
ssg83
g4209
sg76
(lp4216
S'session_id_name'
p4217
asbag69
(g90
g71
NtRp4218
(dp4219
g74
(dp4220
g101
g102
ssg83
g4209
sg76
(lp4221
S':'
asbag69
(g90
g71
NtRp4222
(dp4223
g74
(dp4224
sg83
g4209
sg76
(lp4225
g69
(g70
g71
NtRp4226
(dp4227
g74
(dp4228
g82
I5
ssg83
g4222
sg76
(lp4229
g3406
asbasbasbag69
(g85
g71
NtRp4230
(dp4231
g74
(dp4232
sg83
g3349
sg76
(lp4233
g69
(g90
g71
NtRp4234
(dp4235
g74
(dp4236
g94
g95
ssg83
g4230
sg76
(lp4237
S'session_locked'
p4238
asbag69
(g90
g71
NtRp4239
(dp4240
g74
(dp4241
g101
g102
ssg83
g4230
sg76
(lp4242
S':'
asbag69
(g90
g71
NtRp4243
(dp4244
g74
(dp4245
sg83
g4230
sg76
(lp4246
g69
(g70
g71
NtRp4247
(dp4248
g74
(dp4249
g82
I5
ssg83
g4243
sg76
(lp4250
g1715
asbasbasbag69
(g85
g71
NtRp4251
(dp4252
g74
(dp4253
sg83
g3349
sg76
(lp4254
g69
(g90
g71
NtRp4255
(dp4256
g74
(dp4257
g94
g95
ssg83
g4251
sg76
(lp4258
S'session_new'
p4259
asbag69
(g90
g71
NtRp4260
(dp4261
g74
(dp4262
g101
g102
ssg83
g4251
sg76
(lp4263
S':'
asbag69
(g90
g71
NtRp4264
(dp4265
g74
(dp4266
sg83
g4251
sg76
(lp4267
g69
(g70
g71
NtRp4268
(dp4269
g74
(dp4270
g82
I5
ssg83
g4264
sg76
(lp4271
g112
asbasbasbag69
(g85
g71
NtRp4272
(dp4273
g74
(dp4274
sg83
g3349
sg76
(lp4275
g69
(g90
g71
NtRp4276
(dp4277
g74
(dp4278
g94
g95
ssg83
g4272
sg76
(lp4279
S'status'
p4280
asbag69
(g90
g71
NtRp4281
(dp4282
g74
(dp4283
g101
g102
ssg83
g4272
sg76
(lp4284
S':'
asbag69
(g90
g71
NtRp4285
(dp4286
g74
(dp4287
sg83
g4272
sg76
(lp4288
g69
(g70
g71
NtRp4289
(dp4290
g74
(dp4291
g82
I5
ssg83
g4285
sg76
(lp4292
S'200'
p4293
asbasbasbag69
(g85
g71
NtRp4294
(dp4295
g74
(dp4296
sg83
g3349
sg76
(lp4297
g69
(g90
g71
NtRp4298
(dp4299
g74
(dp4300
g94
g95
ssg83
g4294
sg76
(lp4301
S'subtitle'
p4302
asbag69
(g90
g71
NtRp4303
(dp4304
g74
(dp4305
g101
g102
ssg83
g4294
sg76
(lp4306
S':'
asbag69
(g90
g71
NtRp4307
(dp4308
g74
(dp4309
sg83
g4294
sg76
(lp4310
g69
(g70
g71
NtRp4311
(dp4312
g74
(dp4313
g82
I5
ssg83
g4307
sg76
(lp4314
g3839
(S's\r\x00\x00\x00customize me!'
tRp4315
asbasbasbag69
(g85
g71
NtRp4316
(dp4317
g74
(dp4318
sg83
g3349
sg76
(lp4319
g69
(g90
g71
NtRp4320
(dp4321
g74
(dp4322
g94
g95
ssg83
g4316
sg76
(lp4323
S'title'
p4324
asbag69
(g90
g71
NtRp4325
(dp4326
g74
(dp4327
g101
g102
ssg83
g4316
sg76
(lp4328
S':'
asbag69
(g90
g71
NtRp4329
(dp4330
g74
(dp4331
sg83
g4316
sg76
(lp4332
g69
(g70
g71
NtRp4333
(dp4334
g74
(dp4335
g82
I5
ssg83
g4329
sg76
(lp4336
S'Manager'
p4337
asbasbasbag69
(g85
g71
NtRp4338
(dp4339
g74
(dp4340
sg83
g3349
sg76
(lp4341
g69
(g90
g71
NtRp4342
(dp4343
g74
(dp4344
g94
g95
ssg83
g4338
sg76
(lp4345
S'view'
p4346
asbag69
(g90
g71
NtRp4347
(dp4348
g74
(dp4349
g101
g102
ssg83
g4338
sg76
(lp4350
S':'
asbag69
(g90
g71
NtRp4351
(dp4352
g74
(dp4353
sg83
g4338
sg76
(lp4354
g69
(g70
g71
NtRp4355
(dp4356
g74
(dp4357
g82
I5
ssg83
g4351
sg76
(lp4358
S'default/login.html'
p4359
asbasbasbasbasbsS'locals'
p4360
(dp4361
g4
S"'/home/madhuri/Downloads/web2py/applications/manager/views/default/login.html'"
p4362
sg6
S'\'response.write(\\\'<!DOCTYPE html PUBLIC "-//W3C//D...v>\\\\n  </div>\\\\n </body>\\\\n</html>\\\\n\\\', escape=False)\''
p4363
sssS'traceback'
p4364
S'Traceback (most recent call last):\n  File "/home/madhuri/Downloads/web2py/gluon/restricted.py", line 208, in restricted\n    ccode = compile2(code,layer)\n  File "/home/madhuri/Downloads/web2py/gluon/restricted.py", line 193, in compile2\n    return compile(code.rstrip().replace(\'\\r\\n\',\'\\n\')+\'\\n\', layer, \'exec\')\n  File "/home/madhuri/Downloads/web2py/applications/manager/views/default/login.html", line 56\n    id1 == NULL  and  session.token != "neeharikak.v@students.iiit.ac.in":\n                                                                         ^\nSyntaxError: invalid syntax\n'
p4365
s.