(dp1
S'output'
p2
S"<type 'exceptions.AttributeError'> 'NoneType' object has no attribute 'split'"
p3
sS'layer'
p4
S'/home/unic/web2py/applications/manager/controllers/default.py'
p5
sS'code'
p6
S'# -*- coding: utf-8 -*-\n# this file is released under public domain and you can use without limitations\n\n#########################################################################\n## This is a samples controller\n## - index is the default action of any application\n## - user is required for authentication and authorization\n## - download is for downloading files uploaded in the db (does streaming)\n## - call exposes all registered services (none by default)\n#########################################################################\n\n\ndef index():\n    name=session.token.split(\'@\')[0]\n    first_name=name.split(\'.\')[0]\n    last_name=name.split(\'.\')[1]\n    test1 = db(db.auth_user.email == session.token).select()\n    if(len(test1)==0):\n        db.auth_user.insert(\n        first_name=first_name,\n        last_name=last_name,\n        email=session.token)\n    """\n    example action using the internationalization operator T and flash\n    rendered by views/default/index.html or views/generic.html\n    """\n    \n    session.login = 0\n    session.LOGGEDIN = 0\n    \n    images=db().select(db.Book.ALL)\n #   return dict(message=T(\'Hello World\'))\n    return dict(images=images,t=session.token)\ndef admin():\n    award = db(db.Admin.id > 0).select().first()\n    return dict(award=award)\ndef user():\n    """\n    exposes:\n    http://..../[app]/default/user/login\n    http://..../[app]/default/user/logout\n    http://..../[app]/default/user/register\n    http://..../[app]/default/user/profile\n    http://..../[app]/default/user/retrieve_password\n    http://..../[app]/default/user/change_password\n    use @auth.requires_login()\n        @auth.requires_membership(\'group name\')\n        @auth.requires_permission(\'read\',\'table name\',record_id)\n    to decorate functions that need access control\n    """\n    return dict(form=auth())\n#@auth.requires_login()\ndef choose():\n  users1 = db().select(db.User.ALL, orderby=db.User.Name)\n  users2 = db().select(db.User.ALL, orderby=db.User.Name)\n  for i in users1:\n      for j in users2:\n          if i.id < j.id:\n              if i.RollNo == j.RollNo:\n                  db(db.User.id == i.id).update(Total=i.Total+j.Total)\n                  db(db.User.id == i.id).update(Award1=j.Award)\n                  db(db.User.id == j.id).delete()\n  users = db().select(db.User.ALL, orderby=db.User.Name)\n  return dict(users=users)\n\ndef show():\n User = db.User(request.args(0)) or redirect(URL(\'choose\'))\n Books = db().select(db.Book.ALL, orderby=db.Book.Name)\n UPBooks = db(db.UPBook.usd==User.RollNo).select()\n upbooks1 = db(db.UPBook.usd==User.RollNo).select()\n upbooks = db(db.UPBook.usd==User.RollNo).select()\n \n for i in upbooks:\n      for j in upbooks1:\n          if i.id < j.id:\n              if i.Bid == j.Bid:\n                 db(db.UPBook.Bid == j.Bid).delete()\n langu = db().select(db.Lpref.ALL)\n lang = db().select(db.lang.ALL)\n return dict(User=User,UPBooks=UPBooks,Books=Books,langu=langu,lang=lang)\ndef alloted():\n  users = db().select(db.User.ALL, orderby=db.User.Name)\n  return dict(users=users)\ndef preference():\n  db.Lpref.E.default=auth.user.email\n  form1 = crud.create(db.Lpref,\n         next=URL("index"))\n  users1 = db().select(db.Lpref.ALL)\n  users2 = db().select(db.Lpref.ALL)\n  for i in users1:\n      for j in users2:\n          if i.id > j.id:\n              if i.E == j.E:\n                  db(db.Lpref.id == j.id).delete()\n  return dict(form1=form1)\ndef total():\n   users = db().select(db.User.ALL, orderby=db.User.Name)\n  # award = db().select(db.Admin.ALL).first()\n   award = db(db.Admin.id > 0).select().first()\n   return dict(users=users,award=award)\ndef Admin():  \n  form2 = crud.create(db.Admin,\n         next=URL("admin"))\n  \n  return dict(form2=form2)\ndef submit():\n db(request.args(0) == db.User.id).update(flag = 1)\n users = db().select(db.User.ALL, orderby=db.User.Name)\n return dict(users=users)\ndef upload():\n    if request.vars.csvfile != None:\n        table = db[request.vars.table]\n        file = request.vars.csvfile.file\n        table.import_from_csv_file(file) #Import from the csv file\n        award = db(db.Admin.id > 0).select().first()                                         \n        #query = db.stlist.flag==""\n        #db(query).update(flag="1")         \n        for k in db(db.User.Award=="D1").select():\n            k.Total=award.D1                                                        #Change the value to change the cost of D1\n            k.update_record()\n        for k in db(db.User.Award=="D2").select():\n            k.Total=award.D2                                                        #change the value to cost of D2\n            k.update_record()\n        for k in db(db.User.Award=="D3").select():\n            k.Total=award.D3                                                       #Change the value to change the cost of D3\n            k.update_record()\n        for k in db(db.User.Award=="ML").select():\n            k.Total=award.ML                                                       #Change the value to change the cost of ML\n            k.update_record()\n        #db(db.stlist.Award==k).update(total="1200")\n        #response.flash = \'Students List uploaded\'\n    users1 = db().select(db.User.ALL, orderby=db.User.Name)\n    users2 = db().select(db.User.ALL, orderby=db.User.Name)\n    for i in users1:\n         for j in users2:\n           if i.id < j.id:\n              if i.RollNo == j.RollNo:\n                  db(db.User.id == i.id).update(Total=i.Total+j.Total)\n                  db(db.User.id == i.id).update(Award1=j.Award)\n                  db(db.User.id == j.id).delete()  \n \n        \n    return dict()\n#@auth.requires_membership(\'Administrator\')\ndef upload1():\n     if request.vars.csvfile != None:\n        table = db[request.vars.table]\n        file = request.vars.csvfile.file\n        table.import_from_csv_file(file)                                          #Import from the csv file\n        response.flash = \'Books List uploaded\'\n     return dict()\ndef update():\n  db.UPBook.insert(Stu_name=request.args(0),usd=request.args(1),Name=request.args(2),Language=request.args(3),Bid=request.args(7),Copies=request.args(8),Cost=request.args(5))\n  db(db.User.id ==request.args(4)).update(Uptotal=int(int(request.args(6))+int(request.args(5))))\n  db(db.Book.id ==request.args(7)).update(Copies=int(int(request.args(8))-1))\n  #db.UPBook.Stu_name.default = request.args(0)\n  #db.UPBook.usd.default = request.args(1))\n  #db.UPBook.Name.default=request.args(2)\n  #db.UPBook.Language.default=request.args(3)\n  #return dict(redirect(URL(\'show\')))\n  User = db.User(request.args(4)) or redirect(URL(\'choose\'))\n  upbooks1 = db(db.UPBook.usd==User.RollNo).select()\n  upbooks = db(db.UPBook.usd==User.RollNo).select()\n  \n  for i in upbooks:\n      for j in upbooks1:\n          if i.id < j.id:\n              if i.Bid == j.Bid:\n                 \n                  db(db.UPBook.id == j.id).delete()\n  \n  UPBooks = db(db.UPBook.usd==request.args(1)).select()\n  langu = db().select(db.Lpref.ALL)\n  lang = db().select(db.lang.ALL)\n  Books = db().select(db.Book.ALL, orderby=db.Book.Name)\n  return dict(User=User,UPBooks=UPBooks,Books=Books,lang=lang,langu=langu)\ndef delete():\n  db(db.UPBook.id == request.args(2)).delete()\n  db(db.User.id ==request.args(0)).update(Uptotal=int(int(request.args(1))-int(request.args(6))))\n  db(db.Book.id ==request.args(4)).update(Copies=int(int(request.args(3))))\n  User = db.User(request.args(0)) or redirect(URL(\'choose\'))\n  UPBooks = db(db.UPBook.usd==request.args(5)).select()\n  Books = db().select(db.Book.ALL, orderby=db.Book.Name)\n  langu = db().select(db.Lpref.ALL)\n  lang = db().select(db.lang.ALL)\n  return dict(User=User,UPBooks=UPBooks,Books=Books,langu=langu,lang=lang)\ndef choose1():\n prebooks = db(db.prebook.usd == auth.user_id).select()\n Books = db().select(db.Book.ALL, orderby=db.Book.Name)\n return dict(prebooks=prebooks,Books=Books)\n \n\ndef update1():\n  db.prebook.insert(usd=request.args(0),Name=request.args(1),Language=request.args(2),Bid=request.args(3),Stu_name=request.args(4))\n  db(db.prebook.Stu_name == \'static\').delete()\n \n  #db.UPBook.Stu_name.default = request.args(0)\n  #db.UPBook.usd.default = request.args(1))\n  #db.UPBook.Name.default=request.args(2)\n  #db.UPBook.Language.default=request.args(3)\n  #return dict(redirect(URL(\'show\')))\n # User = db.User(request.args(0)) or redirect(URL(\'choose1\'))\n\n  \n  prebooks2 = db(db.prebook.usd ==request.args(0)).select()\n  prebooks1 = db(db.prebook.usd ==request.args(0)).select()\n  \n  for i in prebooks2:\n      for j in prebooks1:\n          if i.id < j.id:\n              if i.Bid == j.Bid:\n                 \n                  db(db.prebook.id == j.id).delete()\n  prebooks = db(db.prebook.usd ==request.args(0)).select()\n  Books = db().select(db.Book.ALL, orderby=db.Book.Name)\n  return dict(prebooks=prebooks,Books=Books)\ndef delete1():\n  db(db.prebook.id == request.args(1)).delete()\n  \n  prebooks = db(db.prebook.usd == request.args(0)).select()\n  Books = db().select(db.Book.ALL, orderby=db.Book.Name)\n  return dict(prebooks=prebooks,Books=Books)\ndef download():\n    """\n    allows downloading of uploaded files\n    http://..../[app]/default/download/[filename]\n    """\n    return response.download(request,db)\n\n\ndef call():\n    """\n    exposes services. for example:\n    http://..../[app]/default/call/jsonrpc\n    decorate with @services.jsonrpc the functions to expose\n    supports xml, json, xmlrpc, jsonrpc, amfrpc, rss, csv\n    """\n    return service()\n\n\n@auth.requires_signature()\ndef data():\n    """\n    http://..../[app]/default/data/tables\n    http://..../[app]/default/data/create/[table]\n    http://..../[app]/default/data/read/[table]/[id]\n    http://..../[app]/default/data/update/[table]/[id]\n    http://..../[app]/default/data/delete/[table]/[id]\n    http://..../[app]/default/data/select/[table]\n    http://..../[app]/default/data/search/[table]\n    but URLs must be signed, i.e. linked with\n      A(\'table\',_href=URL(\'data/tables\',user_signature=True))\n    or with the signed load operator\n      LOAD(\'default\',\'data.load\',args=\'tables\',ajax=True,user_signature=True)\n    """\n    return dict(form=crud())\ndef manage():\n    grid = SQLFORM.smartgrid(db.UPBook)\n    return dict(grid=grid)\n\nresponse._vars=response._caller(index)\n'
p7
sS'snapshot'
p8
(dp9
S'exception'
p10
(dp11
S'__hash__'
p12
S"<method-wrapper '__hash__' of exceptions.AttributeError object>"
p13
sS'__setattr__'
p14
S"<method-wrapper '__setattr__' of exceptions.AttributeError object>"
p15
sS'__reduce_ex__'
p16
S'<built-in method __reduce_ex__ of exceptions.AttributeError object>'
p17
sS'__getslice__'
p18
S"<method-wrapper '__getslice__' of exceptions.AttributeError object>"
p19
sS'__getitem__'
p20
S"<method-wrapper '__getitem__' of exceptions.AttributeError object>"
p21
sS'__setstate__'
p22
S'<built-in method __setstate__ of exceptions.AttributeError object>'
p23
sS'__reduce__'
p24
S'<built-in method __reduce__ of exceptions.AttributeError object>'
p25
sS'__str__'
p26
S"<method-wrapper '__str__' of exceptions.AttributeError object>"
p27
sS'__format__'
p28
S'<built-in method __format__ of exceptions.AttributeError object>'
p29
sS'__getattribute__'
p30
S"<method-wrapper '__getattribute__' of exceptions.AttributeError object>"
p31
sS'__class__'
p32
S"<type 'exceptions.AttributeError'>"
p33
sS'__unicode__'
p34
S'<built-in method __unicode__ of exceptions.AttributeError object>'
p35
sS'__delattr__'
p36
S"<method-wrapper '__delattr__' of exceptions.AttributeError object>"
p37
sS'__subclasshook__'
p38
S'<built-in method __subclasshook__ of type object>'
p39
sS'__repr__'
p40
S"<method-wrapper '__repr__' of exceptions.AttributeError object>"
p41
sS'args'
p42
S'("\'NoneType\' object has no attribute \'split\'",)'
p43
sS'__dict__'
p44
S'{}'
p45
sS'__sizeof__'
p46
S'<built-in method __sizeof__ of exceptions.AttributeError object>'
p47
sS'__doc__'
p48
S"'Attribute not found.'"
p49
sS'__init__'
p50
S"<method-wrapper '__init__' of exceptions.AttributeError object>"
p51
sS'__new__'
p52
S'<built-in method __new__ of type object>'
p53
ssS'evalue'
p54
S"'NoneType' object has no attribute 'split'"
p55
sS'request'
p56
ccopy_reg
_reconstructor
p57
(cgluon.html
BEAUTIFY
p58
c__builtin__
object
p59
NtRp60
(dp61
S'attributes'
p62
(dp63
sS'components'
p64
(lp65
g57
(cgluon.html
TABLE
p66
g59
NtRp67
(dp68
g62
(dp69
S'level'
p70
I5
ssS'parent'
p71
Nsg64
(lp72
g57
(cgluon.html
TR
p73
g59
NtRp74
(dp75
g62
(dp76
sg71
g67
sg64
(lp77
g57
(cgluon.html
TD
p78
g59
NtRp79
(dp80
g62
(dp81
S'_style'
p82
S'font-weight:bold;vertical-align:top'
p83
ssg71
g74
sg64
(lp84
S'ajax'
p85
asbag57
(g78
g59
NtRp86
(dp87
g62
(dp88
S'_valign'
p89
S'top'
p90
ssg71
g74
sg64
(lp91
S':'
asbag57
(g78
g59
NtRp92
(dp93
g62
(dp94
sg71
g74
sg64
(lp95
g57
(g58
g59
NtRp96
(dp97
g62
(dp98
g70
I5
ssg71
g92
sg64
(lp99
S'False'
p100
asbasbasbag57
(g73
g59
NtRp101
(dp102
g62
(dp103
sg71
g67
sg64
(lp104
g57
(g78
g59
NtRp105
(dp106
g62
(dp107
g82
g83
ssg71
g101
sg64
(lp108
S'application'
p109
asbag57
(g78
g59
NtRp110
(dp111
g62
(dp112
g89
g90
ssg71
g101
sg64
(lp113
S':'
asbag57
(g78
g59
NtRp114
(dp115
g62
(dp116
sg71
g101
sg64
(lp117
g57
(g58
g59
NtRp118
(dp119
g62
(dp120
g70
I5
ssg71
g114
sg64
(lp121
S'manager'
p122
asbasbasbag57
(g73
g59
NtRp123
(dp124
g62
(dp125
sg71
g67
sg64
(lp126
g57
(g78
g59
NtRp127
(dp128
g62
(dp129
g82
g83
ssg71
g123
sg64
(lp130
g42
asbag57
(g78
g59
NtRp131
(dp132
g62
(dp133
g89
g90
ssg71
g123
sg64
(lp134
S':'
asbag57
(g78
g59
NtRp135
(dp136
g62
(dp137
sg71
g123
sg64
(lp138
g57
(g58
g59
NtRp139
(dp140
g62
(dp141
g70
I5
ssg71
g135
sg64
(lp142
g57
(g66
g59
NtRp143
(dp144
g62
(dp145
g70
I4
ssg71
Nsg64
(lp146
sbasbasbasbag57
(g73
g59
NtRp147
(dp148
g62
(dp149
sg71
g67
sg64
(lp150
g57
(g78
g59
NtRp151
(dp152
g62
(dp153
g82
g83
ssg71
g147
sg64
(lp154
S'body'
p155
asbag57
(g78
g59
NtRp156
(dp157
g62
(dp158
g89
g90
ssg71
g147
sg64
(lp159
S':'
asbag57
(g78
g59
NtRp160
(dp161
g62
(dp162
sg71
g147
sg64
(lp163
g57
(g58
g59
NtRp164
(dp165
g62
(dp166
g70
I5
ssg71
g160
sg64
(lp167
S'<cStringIO.StringO object at 0xaaa1eb00>'
p168
asbasbasbag57
(g73
g59
NtRp169
(dp170
g62
(dp171
sg71
g67
sg64
(lp172
g57
(g78
g59
NtRp173
(dp174
g62
(dp175
g82
g83
ssg71
g169
sg64
(lp176
S'client'
p177
asbag57
(g78
g59
NtRp178
(dp179
g62
(dp180
g89
g90
ssg71
g169
sg64
(lp181
S':'
asbag57
(g78
g59
NtRp182
(dp183
g62
(dp184
sg71
g169
sg64
(lp185
g57
(g58
g59
NtRp186
(dp187
g62
(dp188
g70
I5
ssg71
g182
sg64
(lp189
S'127.0.0.1'
p190
asbasbasbag57
(g73
g59
NtRp191
(dp192
g62
(dp193
sg71
g67
sg64
(lp194
g57
(g78
g59
NtRp195
(dp196
g62
(dp197
g82
g83
ssg71
g191
sg64
(lp198
S'controller'
p199
asbag57
(g78
g59
NtRp200
(dp201
g62
(dp202
g89
g90
ssg71
g191
sg64
(lp203
S':'
asbag57
(g78
g59
NtRp204
(dp205
g62
(dp206
sg71
g191
sg64
(lp207
g57
(g58
g59
NtRp208
(dp209
g62
(dp210
g70
I5
ssg71
g204
sg64
(lp211
S'default'
p212
asbasbasbag57
(g73
g59
NtRp213
(dp214
g62
(dp215
sg71
g67
sg64
(lp216
g57
(g78
g59
NtRp217
(dp218
g62
(dp219
g82
g83
ssg71
g213
sg64
(lp220
S'cookies'
p221
asbag57
(g78
g59
NtRp222
(dp223
g62
(dp224
g89
g90
ssg71
g213
sg64
(lp225
S':'
asbag57
(g78
g59
NtRp226
(dp227
g62
(dp228
sg71
g213
sg64
(lp229
g57
(g58
g59
NtRp230
(dp231
g62
(dp232
g70
I5
ssg71
g226
sg64
(lp233
g57
(g66
g59
NtRp234
(dp235
g62
(dp236
g70
I4
ssg71
Nsg64
(lp237
g57
(g73
g59
NtRp238
(dp239
g62
(dp240
sg71
g234
sg64
(lp241
g57
(g78
g59
NtRp242
(dp243
g62
(dp244
g82
g83
ssg71
g238
sg64
(lp245
S'session_id_admin'
p246
asbag57
(g78
g59
NtRp247
(dp248
g62
(dp249
g89
g90
ssg71
g238
sg64
(lp250
S':'
asbag57
(g78
g59
NtRp251
(dp252
g62
(dp253
sg71
g238
sg64
(lp254
g57
(g58
g59
NtRp255
(dp256
g62
(dp257
g70
I4
ssg71
g251
sg64
(lp258
g57
(g66
g59
NtRp259
(dp260
g62
(dp261
g70
I3
ssg71
Nsg64
(lp262
g57
(g73
g59
NtRp263
(dp264
g62
(dp265
sg71
g259
sg64
(lp266
g57
(g78
g59
NtRp267
(dp268
g62
(dp269
g82
g83
ssg71
g263
sg64
(lp270
S'comment'
p271
asbag57
(g78
g59
NtRp272
(dp273
g62
(dp274
g89
g90
ssg71
g263
sg64
(lp275
S':'
asbag57
(g78
g59
NtRp276
(dp277
g62
(dp278
sg71
g263
sg64
(lp279
g57
(g58
g59
NtRp280
(dp281
g62
(dp282
g70
I3
ssg71
g276
sg64
(lp283
S''
asbasbasbag57
(g73
g59
NtRp284
(dp285
g62
(dp286
sg71
g259
sg64
(lp287
g57
(g78
g59
NtRp288
(dp289
g62
(dp290
g82
g83
ssg71
g284
sg64
(lp291
S'domain'
p292
asbag57
(g78
g59
NtRp293
(dp294
g62
(dp295
g89
g90
ssg71
g284
sg64
(lp296
S':'
asbag57
(g78
g59
NtRp297
(dp298
g62
(dp299
sg71
g284
sg64
(lp300
g57
(g58
g59
NtRp301
(dp302
g62
(dp303
g70
I3
ssg71
g297
sg64
(lp304
S''
asbasbasbag57
(g73
g59
NtRp305
(dp306
g62
(dp307
sg71
g259
sg64
(lp308
g57
(g78
g59
NtRp309
(dp310
g62
(dp311
g82
g83
ssg71
g305
sg64
(lp312
S'expires'
p313
asbag57
(g78
g59
NtRp314
(dp315
g62
(dp316
g89
g90
ssg71
g305
sg64
(lp317
S':'
asbag57
(g78
g59
NtRp318
(dp319
g62
(dp320
sg71
g305
sg64
(lp321
g57
(g58
g59
NtRp322
(dp323
g62
(dp324
g70
I3
ssg71
g318
sg64
(lp325
S''
asbasbasbag57
(g73
g59
NtRp326
(dp327
g62
(dp328
sg71
g259
sg64
(lp329
g57
(g78
g59
NtRp330
(dp331
g62
(dp332
g82
g83
ssg71
g326
sg64
(lp333
S'httponly'
p334
asbag57
(g78
g59
NtRp335
(dp336
g62
(dp337
g89
g90
ssg71
g326
sg64
(lp338
S':'
asbag57
(g78
g59
NtRp339
(dp340
g62
(dp341
sg71
g326
sg64
(lp342
g57
(g58
g59
NtRp343
(dp344
g62
(dp345
g70
I3
ssg71
g339
sg64
(lp346
S''
asbasbasbag57
(g73
g59
NtRp347
(dp348
g62
(dp349
sg71
g259
sg64
(lp350
g57
(g78
g59
NtRp351
(dp352
g62
(dp353
g82
g83
ssg71
g347
sg64
(lp354
S'max-age'
p355
asbag57
(g78
g59
NtRp356
(dp357
g62
(dp358
g89
g90
ssg71
g347
sg64
(lp359
S':'
asbag57
(g78
g59
NtRp360
(dp361
g62
(dp362
sg71
g347
sg64
(lp363
g57
(g58
g59
NtRp364
(dp365
g62
(dp366
g70
I3
ssg71
g360
sg64
(lp367
S''
asbasbasbag57
(g73
g59
NtRp368
(dp369
g62
(dp370
sg71
g259
sg64
(lp371
g57
(g78
g59
NtRp372
(dp373
g62
(dp374
g82
g83
ssg71
g368
sg64
(lp375
S'path'
p376
asbag57
(g78
g59
NtRp377
(dp378
g62
(dp379
g89
g90
ssg71
g368
sg64
(lp380
S':'
asbag57
(g78
g59
NtRp381
(dp382
g62
(dp383
sg71
g368
sg64
(lp384
g57
(g58
g59
NtRp385
(dp386
g62
(dp387
g70
I3
ssg71
g381
sg64
(lp388
S''
asbasbasbag57
(g73
g59
NtRp389
(dp390
g62
(dp391
sg71
g259
sg64
(lp392
g57
(g78
g59
NtRp393
(dp394
g62
(dp395
g82
g83
ssg71
g389
sg64
(lp396
S'secure'
p397
asbag57
(g78
g59
NtRp398
(dp399
g62
(dp400
g89
g90
ssg71
g389
sg64
(lp401
S':'
asbag57
(g78
g59
NtRp402
(dp403
g62
(dp404
sg71
g389
sg64
(lp405
g57
(g58
g59
NtRp406
(dp407
g62
(dp408
g70
I3
ssg71
g402
sg64
(lp409
S''
asbasbasbag57
(g73
g59
NtRp410
(dp411
g62
(dp412
sg71
g259
sg64
(lp413
g57
(g78
g59
NtRp414
(dp415
g62
(dp416
g82
g83
ssg71
g410
sg64
(lp417
S'version'
p418
asbag57
(g78
g59
NtRp419
(dp420
g62
(dp421
g89
g90
ssg71
g410
sg64
(lp422
S':'
asbag57
(g78
g59
NtRp423
(dp424
g62
(dp425
sg71
g410
sg64
(lp426
g57
(g58
g59
NtRp427
(dp428
g62
(dp429
g70
I3
ssg71
g423
sg64
(lp430
S''
asbasbasbasbasbasbasbag57
(g73
g59
NtRp431
(dp432
g62
(dp433
sg71
g234
sg64
(lp434
g57
(g78
g59
NtRp435
(dp436
g62
(dp437
g82
g83
ssg71
g431
sg64
(lp438
S'session_id_award_cas'
p439
asbag57
(g78
g59
NtRp440
(dp441
g62
(dp442
g89
g90
ssg71
g431
sg64
(lp443
S':'
asbag57
(g78
g59
NtRp444
(dp445
g62
(dp446
sg71
g431
sg64
(lp447
g57
(g58
g59
NtRp448
(dp449
g62
(dp450
g70
I4
ssg71
g444
sg64
(lp451
g57
(g66
g59
NtRp452
(dp453
g62
(dp454
g70
I3
ssg71
Nsg64
(lp455
g57
(g73
g59
NtRp456
(dp457
g62
(dp458
sg71
g452
sg64
(lp459
g57
(g78
g59
NtRp460
(dp461
g62
(dp462
g82
g83
ssg71
g456
sg64
(lp463
g271
asbag57
(g78
g59
NtRp464
(dp465
g62
(dp466
g89
g90
ssg71
g456
sg64
(lp467
S':'
asbag57
(g78
g59
NtRp468
(dp469
g62
(dp470
sg71
g456
sg64
(lp471
g57
(g58
g59
NtRp472
(dp473
g62
(dp474
g70
I3
ssg71
g468
sg64
(lp475
S''
asbasbasbag57
(g73
g59
NtRp476
(dp477
g62
(dp478
sg71
g452
sg64
(lp479
g57
(g78
g59
NtRp480
(dp481
g62
(dp482
g82
g83
ssg71
g476
sg64
(lp483
g292
asbag57
(g78
g59
NtRp484
(dp485
g62
(dp486
g89
g90
ssg71
g476
sg64
(lp487
S':'
asbag57
(g78
g59
NtRp488
(dp489
g62
(dp490
sg71
g476
sg64
(lp491
g57
(g58
g59
NtRp492
(dp493
g62
(dp494
g70
I3
ssg71
g488
sg64
(lp495
S''
asbasbasbag57
(g73
g59
NtRp496
(dp497
g62
(dp498
sg71
g452
sg64
(lp499
g57
(g78
g59
NtRp500
(dp501
g62
(dp502
g82
g83
ssg71
g496
sg64
(lp503
g313
asbag57
(g78
g59
NtRp504
(dp505
g62
(dp506
g89
g90
ssg71
g496
sg64
(lp507
S':'
asbag57
(g78
g59
NtRp508
(dp509
g62
(dp510
sg71
g496
sg64
(lp511
g57
(g58
g59
NtRp512
(dp513
g62
(dp514
g70
I3
ssg71
g508
sg64
(lp515
S''
asbasbasbag57
(g73
g59
NtRp516
(dp517
g62
(dp518
sg71
g452
sg64
(lp519
g57
(g78
g59
NtRp520
(dp521
g62
(dp522
g82
g83
ssg71
g516
sg64
(lp523
g334
asbag57
(g78
g59
NtRp524
(dp525
g62
(dp526
g89
g90
ssg71
g516
sg64
(lp527
S':'
asbag57
(g78
g59
NtRp528
(dp529
g62
(dp530
sg71
g516
sg64
(lp531
g57
(g58
g59
NtRp532
(dp533
g62
(dp534
g70
I3
ssg71
g528
sg64
(lp535
S''
asbasbasbag57
(g73
g59
NtRp536
(dp537
g62
(dp538
sg71
g452
sg64
(lp539
g57
(g78
g59
NtRp540
(dp541
g62
(dp542
g82
g83
ssg71
g536
sg64
(lp543
g355
asbag57
(g78
g59
NtRp544
(dp545
g62
(dp546
g89
g90
ssg71
g536
sg64
(lp547
S':'
asbag57
(g78
g59
NtRp548
(dp549
g62
(dp550
sg71
g536
sg64
(lp551
g57
(g58
g59
NtRp552
(dp553
g62
(dp554
g70
I3
ssg71
g548
sg64
(lp555
S''
asbasbasbag57
(g73
g59
NtRp556
(dp557
g62
(dp558
sg71
g452
sg64
(lp559
g57
(g78
g59
NtRp560
(dp561
g62
(dp562
g82
g83
ssg71
g556
sg64
(lp563
g376
asbag57
(g78
g59
NtRp564
(dp565
g62
(dp566
g89
g90
ssg71
g556
sg64
(lp567
S':'
asbag57
(g78
g59
NtRp568
(dp569
g62
(dp570
sg71
g556
sg64
(lp571
g57
(g58
g59
NtRp572
(dp573
g62
(dp574
g70
I3
ssg71
g568
sg64
(lp575
S''
asbasbasbag57
(g73
g59
NtRp576
(dp577
g62
(dp578
sg71
g452
sg64
(lp579
g57
(g78
g59
NtRp580
(dp581
g62
(dp582
g82
g83
ssg71
g576
sg64
(lp583
g397
asbag57
(g78
g59
NtRp584
(dp585
g62
(dp586
g89
g90
ssg71
g576
sg64
(lp587
S':'
asbag57
(g78
g59
NtRp588
(dp589
g62
(dp590
sg71
g576
sg64
(lp591
g57
(g58
g59
NtRp592
(dp593
g62
(dp594
g70
I3
ssg71
g588
sg64
(lp595
S''
asbasbasbag57
(g73
g59
NtRp596
(dp597
g62
(dp598
sg71
g452
sg64
(lp599
g57
(g78
g59
NtRp600
(dp601
g62
(dp602
g82
g83
ssg71
g596
sg64
(lp603
g418
asbag57
(g78
g59
NtRp604
(dp605
g62
(dp606
g89
g90
ssg71
g596
sg64
(lp607
S':'
asbag57
(g78
g59
NtRp608
(dp609
g62
(dp610
sg71
g596
sg64
(lp611
g57
(g58
g59
NtRp612
(dp613
g62
(dp614
g70
I3
ssg71
g608
sg64
(lp615
S''
asbasbasbasbasbasbasbag57
(g73
g59
NtRp616
(dp617
g62
(dp618
sg71
g234
sg64
(lp619
g57
(g78
g59
NtRp620
(dp621
g62
(dp622
g82
g83
ssg71
g616
sg64
(lp623
S'session_id_award_manager'
p624
asbag57
(g78
g59
NtRp625
(dp626
g62
(dp627
g89
g90
ssg71
g616
sg64
(lp628
S':'
asbag57
(g78
g59
NtRp629
(dp630
g62
(dp631
sg71
g616
sg64
(lp632
g57
(g58
g59
NtRp633
(dp634
g62
(dp635
g70
I4
ssg71
g629
sg64
(lp636
g57
(g66
g59
NtRp637
(dp638
g62
(dp639
g70
I3
ssg71
Nsg64
(lp640
g57
(g73
g59
NtRp641
(dp642
g62
(dp643
sg71
g637
sg64
(lp644
g57
(g78
g59
NtRp645
(dp646
g62
(dp647
g82
g83
ssg71
g641
sg64
(lp648
g271
asbag57
(g78
g59
NtRp649
(dp650
g62
(dp651
g89
g90
ssg71
g641
sg64
(lp652
S':'
asbag57
(g78
g59
NtRp653
(dp654
g62
(dp655
sg71
g641
sg64
(lp656
g57
(g58
g59
NtRp657
(dp658
g62
(dp659
g70
I3
ssg71
g653
sg64
(lp660
S''
asbasbasbag57
(g73
g59
NtRp661
(dp662
g62
(dp663
sg71
g637
sg64
(lp664
g57
(g78
g59
NtRp665
(dp666
g62
(dp667
g82
g83
ssg71
g661
sg64
(lp668
g292
asbag57
(g78
g59
NtRp669
(dp670
g62
(dp671
g89
g90
ssg71
g661
sg64
(lp672
S':'
asbag57
(g78
g59
NtRp673
(dp674
g62
(dp675
sg71
g661
sg64
(lp676
g57
(g58
g59
NtRp677
(dp678
g62
(dp679
g70
I3
ssg71
g673
sg64
(lp680
S''
asbasbasbag57
(g73
g59
NtRp681
(dp682
g62
(dp683
sg71
g637
sg64
(lp684
g57
(g78
g59
NtRp685
(dp686
g62
(dp687
g82
g83
ssg71
g681
sg64
(lp688
g313
asbag57
(g78
g59
NtRp689
(dp690
g62
(dp691
g89
g90
ssg71
g681
sg64
(lp692
S':'
asbag57
(g78
g59
NtRp693
(dp694
g62
(dp695
sg71
g681
sg64
(lp696
g57
(g58
g59
NtRp697
(dp698
g62
(dp699
g70
I3
ssg71
g693
sg64
(lp700
S''
asbasbasbag57
(g73
g59
NtRp701
(dp702
g62
(dp703
sg71
g637
sg64
(lp704
g57
(g78
g59
NtRp705
(dp706
g62
(dp707
g82
g83
ssg71
g701
sg64
(lp708
g334
asbag57
(g78
g59
NtRp709
(dp710
g62
(dp711
g89
g90
ssg71
g701
sg64
(lp712
S':'
asbag57
(g78
g59
NtRp713
(dp714
g62
(dp715
sg71
g701
sg64
(lp716
g57
(g58
g59
NtRp717
(dp718
g62
(dp719
g70
I3
ssg71
g713
sg64
(lp720
S''
asbasbasbag57
(g73
g59
NtRp721
(dp722
g62
(dp723
sg71
g637
sg64
(lp724
g57
(g78
g59
NtRp725
(dp726
g62
(dp727
g82
g83
ssg71
g721
sg64
(lp728
g355
asbag57
(g78
g59
NtRp729
(dp730
g62
(dp731
g89
g90
ssg71
g721
sg64
(lp732
S':'
asbag57
(g78
g59
NtRp733
(dp734
g62
(dp735
sg71
g721
sg64
(lp736
g57
(g58
g59
NtRp737
(dp738
g62
(dp739
g70
I3
ssg71
g733
sg64
(lp740
S''
asbasbasbag57
(g73
g59
NtRp741
(dp742
g62
(dp743
sg71
g637
sg64
(lp744
g57
(g78
g59
NtRp745
(dp746
g62
(dp747
g82
g83
ssg71
g741
sg64
(lp748
g376
asbag57
(g78
g59
NtRp749
(dp750
g62
(dp751
g89
g90
ssg71
g741
sg64
(lp752
S':'
asbag57
(g78
g59
NtRp753
(dp754
g62
(dp755
sg71
g741
sg64
(lp756
g57
(g58
g59
NtRp757
(dp758
g62
(dp759
g70
I3
ssg71
g753
sg64
(lp760
S''
asbasbasbag57
(g73
g59
NtRp761
(dp762
g62
(dp763
sg71
g637
sg64
(lp764
g57
(g78
g59
NtRp765
(dp766
g62
(dp767
g82
g83
ssg71
g761
sg64
(lp768
g397
asbag57
(g78
g59
NtRp769
(dp770
g62
(dp771
g89
g90
ssg71
g761
sg64
(lp772
S':'
asbag57
(g78
g59
NtRp773
(dp774
g62
(dp775
sg71
g761
sg64
(lp776
g57
(g58
g59
NtRp777
(dp778
g62
(dp779
g70
I3
ssg71
g773
sg64
(lp780
S''
asbasbasbag57
(g73
g59
NtRp781
(dp782
g62
(dp783
sg71
g637
sg64
(lp784
g57
(g78
g59
NtRp785
(dp786
g62
(dp787
g82
g83
ssg71
g781
sg64
(lp788
g418
asbag57
(g78
g59
NtRp789
(dp790
g62
(dp791
g89
g90
ssg71
g781
sg64
(lp792
S':'
asbag57
(g78
g59
NtRp793
(dp794
g62
(dp795
sg71
g781
sg64
(lp796
g57
(g58
g59
NtRp797
(dp798
g62
(dp799
g70
I3
ssg71
g793
sg64
(lp800
S''
asbasbasbasbasbasbasbag57
(g73
g59
NtRp801
(dp802
g62
(dp803
sg71
g234
sg64
(lp804
g57
(g78
g59
NtRp805
(dp806
g62
(dp807
g82
g83
ssg71
g801
sg64
(lp808
S'session_id_maddy'
p809
asbag57
(g78
g59
NtRp810
(dp811
g62
(dp812
g89
g90
ssg71
g801
sg64
(lp813
S':'
asbag57
(g78
g59
NtRp814
(dp815
g62
(dp816
sg71
g801
sg64
(lp817
g57
(g58
g59
NtRp818
(dp819
g62
(dp820
g70
I4
ssg71
g814
sg64
(lp821
g57
(g66
g59
NtRp822
(dp823
g62
(dp824
g70
I3
ssg71
Nsg64
(lp825
g57
(g73
g59
NtRp826
(dp827
g62
(dp828
sg71
g822
sg64
(lp829
g57
(g78
g59
NtRp830
(dp831
g62
(dp832
g82
g83
ssg71
g826
sg64
(lp833
g271
asbag57
(g78
g59
NtRp834
(dp835
g62
(dp836
g89
g90
ssg71
g826
sg64
(lp837
S':'
asbag57
(g78
g59
NtRp838
(dp839
g62
(dp840
sg71
g826
sg64
(lp841
g57
(g58
g59
NtRp842
(dp843
g62
(dp844
g70
I3
ssg71
g838
sg64
(lp845
S''
asbasbasbag57
(g73
g59
NtRp846
(dp847
g62
(dp848
sg71
g822
sg64
(lp849
g57
(g78
g59
NtRp850
(dp851
g62
(dp852
g82
g83
ssg71
g846
sg64
(lp853
g292
asbag57
(g78
g59
NtRp854
(dp855
g62
(dp856
g89
g90
ssg71
g846
sg64
(lp857
S':'
asbag57
(g78
g59
NtRp858
(dp859
g62
(dp860
sg71
g846
sg64
(lp861
g57
(g58
g59
NtRp862
(dp863
g62
(dp864
g70
I3
ssg71
g858
sg64
(lp865
S''
asbasbasbag57
(g73
g59
NtRp866
(dp867
g62
(dp868
sg71
g822
sg64
(lp869
g57
(g78
g59
NtRp870
(dp871
g62
(dp872
g82
g83
ssg71
g866
sg64
(lp873
g313
asbag57
(g78
g59
NtRp874
(dp875
g62
(dp876
g89
g90
ssg71
g866
sg64
(lp877
S':'
asbag57
(g78
g59
NtRp878
(dp879
g62
(dp880
sg71
g866
sg64
(lp881
g57
(g58
g59
NtRp882
(dp883
g62
(dp884
g70
I3
ssg71
g878
sg64
(lp885
S''
asbasbasbag57
(g73
g59
NtRp886
(dp887
g62
(dp888
sg71
g822
sg64
(lp889
g57
(g78
g59
NtRp890
(dp891
g62
(dp892
g82
g83
ssg71
g886
sg64
(lp893
g334
asbag57
(g78
g59
NtRp894
(dp895
g62
(dp896
g89
g90
ssg71
g886
sg64
(lp897
S':'
asbag57
(g78
g59
NtRp898
(dp899
g62
(dp900
sg71
g886
sg64
(lp901
g57
(g58
g59
NtRp902
(dp903
g62
(dp904
g70
I3
ssg71
g898
sg64
(lp905
S''
asbasbasbag57
(g73
g59
NtRp906
(dp907
g62
(dp908
sg71
g822
sg64
(lp909
g57
(g78
g59
NtRp910
(dp911
g62
(dp912
g82
g83
ssg71
g906
sg64
(lp913
g355
asbag57
(g78
g59
NtRp914
(dp915
g62
(dp916
g89
g90
ssg71
g906
sg64
(lp917
S':'
asbag57
(g78
g59
NtRp918
(dp919
g62
(dp920
sg71
g906
sg64
(lp921
g57
(g58
g59
NtRp922
(dp923
g62
(dp924
g70
I3
ssg71
g918
sg64
(lp925
S''
asbasbasbag57
(g73
g59
NtRp926
(dp927
g62
(dp928
sg71
g822
sg64
(lp929
g57
(g78
g59
NtRp930
(dp931
g62
(dp932
g82
g83
ssg71
g926
sg64
(lp933
g376
asbag57
(g78
g59
NtRp934
(dp935
g62
(dp936
g89
g90
ssg71
g926
sg64
(lp937
S':'
asbag57
(g78
g59
NtRp938
(dp939
g62
(dp940
sg71
g926
sg64
(lp941
g57
(g58
g59
NtRp942
(dp943
g62
(dp944
g70
I3
ssg71
g938
sg64
(lp945
S''
asbasbasbag57
(g73
g59
NtRp946
(dp947
g62
(dp948
sg71
g822
sg64
(lp949
g57
(g78
g59
NtRp950
(dp951
g62
(dp952
g82
g83
ssg71
g946
sg64
(lp953
g397
asbag57
(g78
g59
NtRp954
(dp955
g62
(dp956
g89
g90
ssg71
g946
sg64
(lp957
S':'
asbag57
(g78
g59
NtRp958
(dp959
g62
(dp960
sg71
g946
sg64
(lp961
g57
(g58
g59
NtRp962
(dp963
g62
(dp964
g70
I3
ssg71
g958
sg64
(lp965
S''
asbasbasbag57
(g73
g59
NtRp966
(dp967
g62
(dp968
sg71
g822
sg64
(lp969
g57
(g78
g59
NtRp970
(dp971
g62
(dp972
g82
g83
ssg71
g966
sg64
(lp973
g418
asbag57
(g78
g59
NtRp974
(dp975
g62
(dp976
g89
g90
ssg71
g966
sg64
(lp977
S':'
asbag57
(g78
g59
NtRp978
(dp979
g62
(dp980
sg71
g966
sg64
(lp981
g57
(g58
g59
NtRp982
(dp983
g62
(dp984
g70
I3
ssg71
g978
sg64
(lp985
S''
asbasbasbasbasbasbasbag57
(g73
g59
NtRp986
(dp987
g62
(dp988
sg71
g234
sg64
(lp989
g57
(g78
g59
NtRp990
(dp991
g62
(dp992
g82
g83
ssg71
g986
sg64
(lp993
S'session_id_manager'
p994
asbag57
(g78
g59
NtRp995
(dp996
g62
(dp997
g89
g90
ssg71
g986
sg64
(lp998
S':'
asbag57
(g78
g59
NtRp999
(dp1000
g62
(dp1001
sg71
g986
sg64
(lp1002
g57
(g58
g59
NtRp1003
(dp1004
g62
(dp1005
g70
I4
ssg71
g999
sg64
(lp1006
g57
(g66
g59
NtRp1007
(dp1008
g62
(dp1009
g70
I3
ssg71
Nsg64
(lp1010
g57
(g73
g59
NtRp1011
(dp1012
g62
(dp1013
sg71
g1007
sg64
(lp1014
g57
(g78
g59
NtRp1015
(dp1016
g62
(dp1017
g82
g83
ssg71
g1011
sg64
(lp1018
g271
asbag57
(g78
g59
NtRp1019
(dp1020
g62
(dp1021
g89
g90
ssg71
g1011
sg64
(lp1022
S':'
asbag57
(g78
g59
NtRp1023
(dp1024
g62
(dp1025
sg71
g1011
sg64
(lp1026
g57
(g58
g59
NtRp1027
(dp1028
g62
(dp1029
g70
I3
ssg71
g1023
sg64
(lp1030
S''
asbasbasbag57
(g73
g59
NtRp1031
(dp1032
g62
(dp1033
sg71
g1007
sg64
(lp1034
g57
(g78
g59
NtRp1035
(dp1036
g62
(dp1037
g82
g83
ssg71
g1031
sg64
(lp1038
g292
asbag57
(g78
g59
NtRp1039
(dp1040
g62
(dp1041
g89
g90
ssg71
g1031
sg64
(lp1042
S':'
asbag57
(g78
g59
NtRp1043
(dp1044
g62
(dp1045
sg71
g1031
sg64
(lp1046
g57
(g58
g59
NtRp1047
(dp1048
g62
(dp1049
g70
I3
ssg71
g1043
sg64
(lp1050
S''
asbasbasbag57
(g73
g59
NtRp1051
(dp1052
g62
(dp1053
sg71
g1007
sg64
(lp1054
g57
(g78
g59
NtRp1055
(dp1056
g62
(dp1057
g82
g83
ssg71
g1051
sg64
(lp1058
g313
asbag57
(g78
g59
NtRp1059
(dp1060
g62
(dp1061
g89
g90
ssg71
g1051
sg64
(lp1062
S':'
asbag57
(g78
g59
NtRp1063
(dp1064
g62
(dp1065
sg71
g1051
sg64
(lp1066
g57
(g58
g59
NtRp1067
(dp1068
g62
(dp1069
g70
I3
ssg71
g1063
sg64
(lp1070
S''
asbasbasbag57
(g73
g59
NtRp1071
(dp1072
g62
(dp1073
sg71
g1007
sg64
(lp1074
g57
(g78
g59
NtRp1075
(dp1076
g62
(dp1077
g82
g83
ssg71
g1071
sg64
(lp1078
g334
asbag57
(g78
g59
NtRp1079
(dp1080
g62
(dp1081
g89
g90
ssg71
g1071
sg64
(lp1082
S':'
asbag57
(g78
g59
NtRp1083
(dp1084
g62
(dp1085
sg71
g1071
sg64
(lp1086
g57
(g58
g59
NtRp1087
(dp1088
g62
(dp1089
g70
I3
ssg71
g1083
sg64
(lp1090
S''
asbasbasbag57
(g73
g59
NtRp1091
(dp1092
g62
(dp1093
sg71
g1007
sg64
(lp1094
g57
(g78
g59
NtRp1095
(dp1096
g62
(dp1097
g82
g83
ssg71
g1091
sg64
(lp1098
g355
asbag57
(g78
g59
NtRp1099
(dp1100
g62
(dp1101
g89
g90
ssg71
g1091
sg64
(lp1102
S':'
asbag57
(g78
g59
NtRp1103
(dp1104
g62
(dp1105
sg71
g1091
sg64
(lp1106
g57
(g58
g59
NtRp1107
(dp1108
g62
(dp1109
g70
I3
ssg71
g1103
sg64
(lp1110
S''
asbasbasbag57
(g73
g59
NtRp1111
(dp1112
g62
(dp1113
sg71
g1007
sg64
(lp1114
g57
(g78
g59
NtRp1115
(dp1116
g62
(dp1117
g82
g83
ssg71
g1111
sg64
(lp1118
g376
asbag57
(g78
g59
NtRp1119
(dp1120
g62
(dp1121
g89
g90
ssg71
g1111
sg64
(lp1122
S':'
asbag57
(g78
g59
NtRp1123
(dp1124
g62
(dp1125
sg71
g1111
sg64
(lp1126
g57
(g58
g59
NtRp1127
(dp1128
g62
(dp1129
g70
I3
ssg71
g1123
sg64
(lp1130
S''
asbasbasbag57
(g73
g59
NtRp1131
(dp1132
g62
(dp1133
sg71
g1007
sg64
(lp1134
g57
(g78
g59
NtRp1135
(dp1136
g62
(dp1137
g82
g83
ssg71
g1131
sg64
(lp1138
g397
asbag57
(g78
g59
NtRp1139
(dp1140
g62
(dp1141
g89
g90
ssg71
g1131
sg64
(lp1142
S':'
asbag57
(g78
g59
NtRp1143
(dp1144
g62
(dp1145
sg71
g1131
sg64
(lp1146
g57
(g58
g59
NtRp1147
(dp1148
g62
(dp1149
g70
I3
ssg71
g1143
sg64
(lp1150
S''
asbasbasbag57
(g73
g59
NtRp1151
(dp1152
g62
(dp1153
sg71
g1007
sg64
(lp1154
g57
(g78
g59
NtRp1155
(dp1156
g62
(dp1157
g82
g83
ssg71
g1151
sg64
(lp1158
g418
asbag57
(g78
g59
NtRp1159
(dp1160
g62
(dp1161
g89
g90
ssg71
g1151
sg64
(lp1162
S':'
asbag57
(g78
g59
NtRp1163
(dp1164
g62
(dp1165
sg71
g1151
sg64
(lp1166
g57
(g58
g59
NtRp1167
(dp1168
g62
(dp1169
g70
I3
ssg71
g1163
sg64
(lp1170
S''
asbasbasbasbasbasbasbag57
(g73
g59
NtRp1171
(dp1172
g62
(dp1173
sg71
g234
sg64
(lp1174
g57
(g78
g59
NtRp1175
(dp1176
g62
(dp1177
g82
g83
ssg71
g1171
sg64
(lp1178
S'session_id_welcome'
p1179
asbag57
(g78
g59
NtRp1180
(dp1181
g62
(dp1182
g89
g90
ssg71
g1171
sg64
(lp1183
S':'
asbag57
(g78
g59
NtRp1184
(dp1185
g62
(dp1186
sg71
g1171
sg64
(lp1187
g57
(g58
g59
NtRp1188
(dp1189
g62
(dp1190
g70
I4
ssg71
g1184
sg64
(lp1191
g57
(g66
g59
NtRp1192
(dp1193
g62
(dp1194
g70
I3
ssg71
Nsg64
(lp1195
g57
(g73
g59
NtRp1196
(dp1197
g62
(dp1198
sg71
g1192
sg64
(lp1199
g57
(g78
g59
NtRp1200
(dp1201
g62
(dp1202
g82
g83
ssg71
g1196
sg64
(lp1203
g271
asbag57
(g78
g59
NtRp1204
(dp1205
g62
(dp1206
g89
g90
ssg71
g1196
sg64
(lp1207
S':'
asbag57
(g78
g59
NtRp1208
(dp1209
g62
(dp1210
sg71
g1196
sg64
(lp1211
g57
(g58
g59
NtRp1212
(dp1213
g62
(dp1214
g70
I3
ssg71
g1208
sg64
(lp1215
S''
asbasbasbag57
(g73
g59
NtRp1216
(dp1217
g62
(dp1218
sg71
g1192
sg64
(lp1219
g57
(g78
g59
NtRp1220
(dp1221
g62
(dp1222
g82
g83
ssg71
g1216
sg64
(lp1223
g292
asbag57
(g78
g59
NtRp1224
(dp1225
g62
(dp1226
g89
g90
ssg71
g1216
sg64
(lp1227
S':'
asbag57
(g78
g59
NtRp1228
(dp1229
g62
(dp1230
sg71
g1216
sg64
(lp1231
g57
(g58
g59
NtRp1232
(dp1233
g62
(dp1234
g70
I3
ssg71
g1228
sg64
(lp1235
S''
asbasbasbag57
(g73
g59
NtRp1236
(dp1237
g62
(dp1238
sg71
g1192
sg64
(lp1239
g57
(g78
g59
NtRp1240
(dp1241
g62
(dp1242
g82
g83
ssg71
g1236
sg64
(lp1243
g313
asbag57
(g78
g59
NtRp1244
(dp1245
g62
(dp1246
g89
g90
ssg71
g1236
sg64
(lp1247
S':'
asbag57
(g78
g59
NtRp1248
(dp1249
g62
(dp1250
sg71
g1236
sg64
(lp1251
g57
(g58
g59
NtRp1252
(dp1253
g62
(dp1254
g70
I3
ssg71
g1248
sg64
(lp1255
S''
asbasbasbag57
(g73
g59
NtRp1256
(dp1257
g62
(dp1258
sg71
g1192
sg64
(lp1259
g57
(g78
g59
NtRp1260
(dp1261
g62
(dp1262
g82
g83
ssg71
g1256
sg64
(lp1263
g334
asbag57
(g78
g59
NtRp1264
(dp1265
g62
(dp1266
g89
g90
ssg71
g1256
sg64
(lp1267
S':'
asbag57
(g78
g59
NtRp1268
(dp1269
g62
(dp1270
sg71
g1256
sg64
(lp1271
g57
(g58
g59
NtRp1272
(dp1273
g62
(dp1274
g70
I3
ssg71
g1268
sg64
(lp1275
S''
asbasbasbag57
(g73
g59
NtRp1276
(dp1277
g62
(dp1278
sg71
g1192
sg64
(lp1279
g57
(g78
g59
NtRp1280
(dp1281
g62
(dp1282
g82
g83
ssg71
g1276
sg64
(lp1283
g355
asbag57
(g78
g59
NtRp1284
(dp1285
g62
(dp1286
g89
g90
ssg71
g1276
sg64
(lp1287
S':'
asbag57
(g78
g59
NtRp1288
(dp1289
g62
(dp1290
sg71
g1276
sg64
(lp1291
g57
(g58
g59
NtRp1292
(dp1293
g62
(dp1294
g70
I3
ssg71
g1288
sg64
(lp1295
S''
asbasbasbag57
(g73
g59
NtRp1296
(dp1297
g62
(dp1298
sg71
g1192
sg64
(lp1299
g57
(g78
g59
NtRp1300
(dp1301
g62
(dp1302
g82
g83
ssg71
g1296
sg64
(lp1303
g376
asbag57
(g78
g59
NtRp1304
(dp1305
g62
(dp1306
g89
g90
ssg71
g1296
sg64
(lp1307
S':'
asbag57
(g78
g59
NtRp1308
(dp1309
g62
(dp1310
sg71
g1296
sg64
(lp1311
g57
(g58
g59
NtRp1312
(dp1313
g62
(dp1314
g70
I3
ssg71
g1308
sg64
(lp1315
S''
asbasbasbag57
(g73
g59
NtRp1316
(dp1317
g62
(dp1318
sg71
g1192
sg64
(lp1319
g57
(g78
g59
NtRp1320
(dp1321
g62
(dp1322
g82
g83
ssg71
g1316
sg64
(lp1323
g397
asbag57
(g78
g59
NtRp1324
(dp1325
g62
(dp1326
g89
g90
ssg71
g1316
sg64
(lp1327
S':'
asbag57
(g78
g59
NtRp1328
(dp1329
g62
(dp1330
sg71
g1316
sg64
(lp1331
g57
(g58
g59
NtRp1332
(dp1333
g62
(dp1334
g70
I3
ssg71
g1328
sg64
(lp1335
S''
asbasbasbag57
(g73
g59
NtRp1336
(dp1337
g62
(dp1338
sg71
g1192
sg64
(lp1339
g57
(g78
g59
NtRp1340
(dp1341
g62
(dp1342
g82
g83
ssg71
g1336
sg64
(lp1343
g418
asbag57
(g78
g59
NtRp1344
(dp1345
g62
(dp1346
g89
g90
ssg71
g1336
sg64
(lp1347
S':'
asbag57
(g78
g59
NtRp1348
(dp1349
g62
(dp1350
sg71
g1336
sg64
(lp1351
g57
(g58
g59
NtRp1352
(dp1353
g62
(dp1354
g70
I3
ssg71
g1348
sg64
(lp1355
S''
asbasbasbasbasbasbasbasbasbasbasbag57
(g73
g59
NtRp1356
(dp1357
g62
(dp1358
sg71
g67
sg64
(lp1359
g57
(g78
g59
NtRp1360
(dp1361
g62
(dp1362
g82
g83
ssg71
g1356
sg64
(lp1363
S'env'
p1364
asbag57
(g78
g59
NtRp1365
(dp1366
g62
(dp1367
g89
g90
ssg71
g1356
sg64
(lp1368
S':'
asbag57
(g78
g59
NtRp1369
(dp1370
g62
(dp1371
sg71
g1356
sg64
(lp1372
g57
(g58
g59
NtRp1373
(dp1374
g62
(dp1375
g70
I5
ssg71
g1369
sg64
(lp1376
g57
(g66
g59
NtRp1377
(dp1378
g62
(dp1379
g70
I4
ssg71
Nsg64
(lp1380
g57
(g73
g59
NtRp1381
(dp1382
g62
(dp1383
sg71
g1377
sg64
(lp1384
g57
(g78
g59
NtRp1385
(dp1386
g62
(dp1387
g82
g83
ssg71
g1381
sg64
(lp1388
S'app_folders'
p1389
asbag57
(g78
g59
NtRp1390
(dp1391
g62
(dp1392
g89
g90
ssg71
g1381
sg64
(lp1393
S':'
asbag57
(g78
g59
NtRp1394
(dp1395
g62
(dp1396
sg71
g1381
sg64
(lp1397
g57
(g58
g59
NtRp1398
(dp1399
g62
(dp1400
g70
I4
ssg71
g1394
sg64
(lp1401
S"set(['/home/unic/web2py/applications/maddy/', '/home/unic/web2py/applications/manager/', '/home/unic/web2py/applications/award_cas/', '/home/unic/web2py/applications/Award_Manager/', '/home/unic/web2py/applications/admin/', '/home/unic/web2py/applications/welcome/'])"
p1402
asbasbasbag57
(g73
g59
NtRp1403
(dp1404
g62
(dp1405
sg71
g1377
sg64
(lp1406
g57
(g78
g59
NtRp1407
(dp1408
g62
(dp1409
g82
g83
ssg71
g1403
sg64
(lp1410
S'applications_parent'
p1411
asbag57
(g78
g59
NtRp1412
(dp1413
g62
(dp1414
g89
g90
ssg71
g1403
sg64
(lp1415
S':'
asbag57
(g78
g59
NtRp1416
(dp1417
g62
(dp1418
sg71
g1403
sg64
(lp1419
g57
(g58
g59
NtRp1420
(dp1421
g62
(dp1422
g70
I4
ssg71
g1416
sg64
(lp1423
S'/home/unic/web2py'
p1424
asbasbasbag57
(g73
g59
NtRp1425
(dp1426
g62
(dp1427
sg71
g1377
sg64
(lp1428
g57
(g78
g59
NtRp1429
(dp1430
g62
(dp1431
g82
g83
ssg71
g1425
sg64
(lp1432
S'cmd_args'
p1433
asbag57
(g78
g59
NtRp1434
(dp1435
g62
(dp1436
g89
g90
ssg71
g1425
sg64
(lp1437
S':'
asbag57
(g78
g59
NtRp1438
(dp1439
g62
(dp1440
sg71
g1425
sg64
(lp1441
g57
(g58
g59
NtRp1442
(dp1443
g62
(dp1444
g70
I4
ssg71
g1438
sg64
(lp1445
g57
(g66
g59
NtRp1446
(dp1447
g62
(dp1448
g70
I3
ssg71
Nsg64
(lp1449
sbasbasbasbag57
(g73
g59
NtRp1450
(dp1451
g62
(dp1452
sg71
g1377
sg64
(lp1453
g57
(g78
g59
NtRp1454
(dp1455
g62
(dp1456
g82
g83
ssg71
g1450
sg64
(lp1457
S'cmd_options'
p1458
asbag57
(g78
g59
NtRp1459
(dp1460
g62
(dp1461
g89
g90
ssg71
g1450
sg64
(lp1462
S':'
asbag57
(g78
g59
NtRp1463
(dp1464
g62
(dp1465
sg71
g1450
sg64
(lp1466
g57
(g58
g59
NtRp1467
(dp1468
g62
(dp1469
g70
I4
ssg71
g1463
sg64
(lp1470
S"<Values at 0x89f780c: {'verbose': False, 'ip': '127.0.0.1', 'shutdown_timeout': 5, 'taskbar': False, 'port': 8000, 'maxthreads': None, 'softcron': False, 'server_name': 'unic-Inspiron-N5050', 'bpython': False, 'nogui': False, 'nocron': False, 'extcron': False, 'debuglevel': 30, 'test': None, 'folder': '/home/unic/web2py', 'config': '', 'import_models': False, 'winservice': '', 'shell': None, 'run': '', 'log_filename': 'httpserver.log', 'args': [''], 'socket_timeout': 1, 'profiler_filename': None, 'ssl_private_key': '', 'password': '<ask>', 'request_queue_size': 5, 'ssl_certificate': '', 'cronjob': False, 'plain': False, 'quiet': False, 'interfaces': None, 'minthreads': None, 'timeout': 10, 'numthreads': None, 'nobanner': False, 'pid_filename': 'httpserver.pid'}>"
p1471
asbasbasbag57
(g73
g59
NtRp1472
(dp1473
g62
(dp1474
sg71
g1377
sg64
(lp1475
g57
(g78
g59
NtRp1476
(dp1477
g62
(dp1478
g82
g83
ssg71
g1472
sg64
(lp1479
S'db_sessions'
p1480
asbag57
(g78
g59
NtRp1481
(dp1482
g62
(dp1483
g89
g90
ssg71
g1472
sg64
(lp1484
S':'
asbag57
(g78
g59
NtRp1485
(dp1486
g62
(dp1487
sg71
g1472
sg64
(lp1488
g57
(g58
g59
NtRp1489
(dp1490
g62
(dp1491
g70
I4
ssg71
g1485
sg64
(lp1492
S'set([])'
p1493
asbasbasbag57
(g73
g59
NtRp1494
(dp1495
g62
(dp1496
sg71
g1377
sg64
(lp1497
g57
(g78
g59
NtRp1498
(dp1499
g62
(dp1500
g82
g83
ssg71
g1494
sg64
(lp1501
S'debugging'
p1502
asbag57
(g78
g59
NtRp1503
(dp1504
g62
(dp1505
g89
g90
ssg71
g1494
sg64
(lp1506
S':'
asbag57
(g78
g59
NtRp1507
(dp1508
g62
(dp1509
sg71
g1494
sg64
(lp1510
g57
(g58
g59
NtRp1511
(dp1512
g62
(dp1513
g70
I4
ssg71
g1507
sg64
(lp1514
g100
asbasbasbag57
(g73
g59
NtRp1515
(dp1516
g62
(dp1517
sg71
g1377
sg64
(lp1518
g57
(g78
g59
NtRp1519
(dp1520
g62
(dp1521
g82
g83
ssg71
g1515
sg64
(lp1522
S'gluon_parent'
p1523
asbag57
(g78
g59
NtRp1524
(dp1525
g62
(dp1526
g89
g90
ssg71
g1515
sg64
(lp1527
S':'
asbag57
(g78
g59
NtRp1528
(dp1529
g62
(dp1530
sg71
g1515
sg64
(lp1531
g57
(g58
g59
NtRp1532
(dp1533
g62
(dp1534
g70
I4
ssg71
g1528
sg64
(lp1535
S'/usr/share/web2py'
p1536
asbasbasbag57
(g73
g59
NtRp1537
(dp1538
g62
(dp1539
sg71
g1377
sg64
(lp1540
g57
(g78
g59
NtRp1541
(dp1542
g62
(dp1543
g82
g83
ssg71
g1537
sg64
(lp1544
S'http_accept'
p1545
asbag57
(g78
g59
NtRp1546
(dp1547
g62
(dp1548
g89
g90
ssg71
g1537
sg64
(lp1549
S':'
asbag57
(g78
g59
NtRp1550
(dp1551
g62
(dp1552
sg71
g1537
sg64
(lp1553
g57
(g58
g59
NtRp1554
(dp1555
g62
(dp1556
g70
I4
ssg71
g1550
sg64
(lp1557
S'text/html,application/xhtml+xml,application/xml;q=0.9,*/*;q=0.8'
p1558
asbasbasbag57
(g73
g59
NtRp1559
(dp1560
g62
(dp1561
sg71
g1377
sg64
(lp1562
g57
(g78
g59
NtRp1563
(dp1564
g62
(dp1565
g82
g83
ssg71
g1559
sg64
(lp1566
S'http_accept_encoding'
p1567
asbag57
(g78
g59
NtRp1568
(dp1569
g62
(dp1570
g89
g90
ssg71
g1559
sg64
(lp1571
S':'
asbag57
(g78
g59
NtRp1572
(dp1573
g62
(dp1574
sg71
g1559
sg64
(lp1575
g57
(g58
g59
NtRp1576
(dp1577
g62
(dp1578
g70
I4
ssg71
g1572
sg64
(lp1579
S'gzip, deflate'
p1580
asbasbasbag57
(g73
g59
NtRp1581
(dp1582
g62
(dp1583
sg71
g1377
sg64
(lp1584
g57
(g78
g59
NtRp1585
(dp1586
g62
(dp1587
g82
g83
ssg71
g1581
sg64
(lp1588
S'http_accept_language'
p1589
asbag57
(g78
g59
NtRp1590
(dp1591
g62
(dp1592
g89
g90
ssg71
g1581
sg64
(lp1593
S':'
asbag57
(g78
g59
NtRp1594
(dp1595
g62
(dp1596
sg71
g1581
sg64
(lp1597
g57
(g58
g59
NtRp1598
(dp1599
g62
(dp1600
g70
I4
ssg71
g1594
sg64
(lp1601
S'en-us,en;q=0.5'
p1602
asbasbasbag57
(g73
g59
NtRp1603
(dp1604
g62
(dp1605
sg71
g1377
sg64
(lp1606
g57
(g78
g59
NtRp1607
(dp1608
g62
(dp1609
g82
g83
ssg71
g1603
sg64
(lp1610
S'http_connection'
p1611
asbag57
(g78
g59
NtRp1612
(dp1613
g62
(dp1614
g89
g90
ssg71
g1603
sg64
(lp1615
S':'
asbag57
(g78
g59
NtRp1616
(dp1617
g62
(dp1618
sg71
g1603
sg64
(lp1619
g57
(g58
g59
NtRp1620
(dp1621
g62
(dp1622
g70
I4
ssg71
g1616
sg64
(lp1623
S'keep-alive'
p1624
asbasbasbag57
(g73
g59
NtRp1625
(dp1626
g62
(dp1627
sg71
g1377
sg64
(lp1628
g57
(g78
g59
NtRp1629
(dp1630
g62
(dp1631
g82
g83
ssg71
g1625
sg64
(lp1632
S'http_cookie'
p1633
asbag57
(g78
g59
NtRp1634
(dp1635
g62
(dp1636
g89
g90
ssg71
g1625
sg64
(lp1637
S':'
asbag57
(g78
g59
NtRp1638
(dp1639
g62
(dp1640
sg71
g1625
sg64
(lp1641
g57
(g58
g59
NtRp1642
(dp1643
g62
(dp1644
g70
I4
ssg71
g1638
sg64
(lp1645
S'session_id_welcome=127.0.0.1-f690d2be-e55e-40f4-b7a9-4f3294aeb1e3; session_id_admin=127.0.0.1-e9c4a25d-df9f-4ad3-896b-e0686704ce8a; session_id_award_manager=127.0.0.1-52f24ace-8865-4da7-8015-990a750c24f1; session_id_award_cas=127.0.0.1-579ca68d-c488-4086-bd4a-d66601669aa4; session_id_maddy=127.0.0.1-97b15789-fe71-4042-a568-288ca6b30be4; session_id_manager=127.0.0.1-ae61ac4f-5f97-42be-a28c-3bc6a699e4f2'
p1646
asbasbasbag57
(g73
g59
NtRp1647
(dp1648
g62
(dp1649
sg71
g1377
sg64
(lp1650
g57
(g78
g59
NtRp1651
(dp1652
g62
(dp1653
g82
g83
ssg71
g1647
sg64
(lp1654
S'http_host'
p1655
asbag57
(g78
g59
NtRp1656
(dp1657
g62
(dp1658
g89
g90
ssg71
g1647
sg64
(lp1659
S':'
asbag57
(g78
g59
NtRp1660
(dp1661
g62
(dp1662
sg71
g1647
sg64
(lp1663
g57
(g58
g59
NtRp1664
(dp1665
g62
(dp1666
g70
I4
ssg71
g1660
sg64
(lp1667
S'127.0.0.1:8000'
p1668
asbasbasbag57
(g73
g59
NtRp1669
(dp1670
g62
(dp1671
sg71
g1377
sg64
(lp1672
g57
(g78
g59
NtRp1673
(dp1674
g62
(dp1675
g82
g83
ssg71
g1669
sg64
(lp1676
S'http_referer'
p1677
asbag57
(g78
g59
NtRp1678
(dp1679
g62
(dp1680
g89
g90
ssg71
g1669
sg64
(lp1681
S':'
asbag57
(g78
g59
NtRp1682
(dp1683
g62
(dp1684
sg71
g1669
sg64
(lp1685
g57
(g58
g59
NtRp1686
(dp1687
g62
(dp1688
g70
I4
ssg71
g1682
sg64
(lp1689
S'http://127.0.0.1:8000/admin/default/design/manager'
p1690
asbasbasbag57
(g73
g59
NtRp1691
(dp1692
g62
(dp1693
sg71
g1377
sg64
(lp1694
g57
(g78
g59
NtRp1695
(dp1696
g62
(dp1697
g82
g83
ssg71
g1691
sg64
(lp1698
S'http_user_agent'
p1699
asbag57
(g78
g59
NtRp1700
(dp1701
g62
(dp1702
g89
g90
ssg71
g1691
sg64
(lp1703
S':'
asbag57
(g78
g59
NtRp1704
(dp1705
g62
(dp1706
sg71
g1691
sg64
(lp1707
g57
(g58
g59
NtRp1708
(dp1709
g62
(dp1710
g70
I4
ssg71
g1704
sg64
(lp1711
S'Mozilla/5.0 (X11; Ubuntu; Linux i686; rv:14.0) Gecko/20100101 Firefox/14.0.1'
p1712
asbasbasbag57
(g73
g59
NtRp1713
(dp1714
g62
(dp1715
sg71
g1377
sg64
(lp1716
g57
(g78
g59
NtRp1717
(dp1718
g62
(dp1719
g82
g83
ssg71
g1713
sg64
(lp1720
S'is_jython'
p1721
asbag57
(g78
g59
NtRp1722
(dp1723
g62
(dp1724
g89
g90
ssg71
g1713
sg64
(lp1725
S':'
asbag57
(g78
g59
NtRp1726
(dp1727
g62
(dp1728
sg71
g1713
sg64
(lp1729
g57
(g58
g59
NtRp1730
(dp1731
g62
(dp1732
g70
I4
ssg71
g1726
sg64
(lp1733
g100
asbasbasbag57
(g73
g59
NtRp1734
(dp1735
g62
(dp1736
sg71
g1377
sg64
(lp1737
g57
(g78
g59
NtRp1738
(dp1739
g62
(dp1740
g82
g83
ssg71
g1734
sg64
(lp1741
S'is_pypy'
p1742
asbag57
(g78
g59
NtRp1743
(dp1744
g62
(dp1745
g89
g90
ssg71
g1734
sg64
(lp1746
S':'
asbag57
(g78
g59
NtRp1747
(dp1748
g62
(dp1749
sg71
g1734
sg64
(lp1750
g57
(g58
g59
NtRp1751
(dp1752
g62
(dp1753
g70
I4
ssg71
g1747
sg64
(lp1754
g100
asbasbasbag57
(g73
g59
NtRp1755
(dp1756
g62
(dp1757
sg71
g1377
sg64
(lp1758
g57
(g78
g59
NtRp1759
(dp1760
g62
(dp1761
g82
g83
ssg71
g1755
sg64
(lp1762
S'path_info'
p1763
asbag57
(g78
g59
NtRp1764
(dp1765
g62
(dp1766
g89
g90
ssg71
g1755
sg64
(lp1767
S':'
asbag57
(g78
g59
NtRp1768
(dp1769
g62
(dp1770
sg71
g1755
sg64
(lp1771
g57
(g58
g59
NtRp1772
(dp1773
g62
(dp1774
g70
I4
ssg71
g1768
sg64
(lp1775
S'/manager/default/index'
p1776
asbasbasbag57
(g73
g59
NtRp1777
(dp1778
g62
(dp1779
sg71
g1377
sg64
(lp1780
g57
(g78
g59
NtRp1781
(dp1782
g62
(dp1783
g82
g83
ssg71
g1777
sg64
(lp1784
S'query_string'
p1785
asbag57
(g78
g59
NtRp1786
(dp1787
g62
(dp1788
g89
g90
ssg71
g1777
sg64
(lp1789
S':'
asbag57
(g78
g59
NtRp1790
(dp1791
g62
(dp1792
sg71
g1777
sg64
(lp1793
g57
(g58
g59
NtRp1794
(dp1795
g62
(dp1796
g70
I4
ssg71
g1790
sg64
(lp1797
S''
asbasbasbag57
(g73
g59
NtRp1798
(dp1799
g62
(dp1800
sg71
g1377
sg64
(lp1801
g57
(g78
g59
NtRp1802
(dp1803
g62
(dp1804
g82
g83
ssg71
g1798
sg64
(lp1805
S'remote_addr'
p1806
asbag57
(g78
g59
NtRp1807
(dp1808
g62
(dp1809
g89
g90
ssg71
g1798
sg64
(lp1810
S':'
asbag57
(g78
g59
NtRp1811
(dp1812
g62
(dp1813
sg71
g1798
sg64
(lp1814
g57
(g58
g59
NtRp1815
(dp1816
g62
(dp1817
g70
I4
ssg71
g1811
sg64
(lp1818
g190
asbasbasbag57
(g73
g59
NtRp1819
(dp1820
g62
(dp1821
sg71
g1377
sg64
(lp1822
g57
(g78
g59
NtRp1823
(dp1824
g62
(dp1825
g82
g83
ssg71
g1819
sg64
(lp1826
S'remote_port'
p1827
asbag57
(g78
g59
NtRp1828
(dp1829
g62
(dp1830
g89
g90
ssg71
g1819
sg64
(lp1831
S':'
asbag57
(g78
g59
NtRp1832
(dp1833
g62
(dp1834
sg71
g1819
sg64
(lp1835
g57
(g58
g59
NtRp1836
(dp1837
g62
(dp1838
g70
I4
ssg71
g1832
sg64
(lp1839
S'55655'
p1840
asbasbasbag57
(g73
g59
NtRp1841
(dp1842
g62
(dp1843
sg71
g1377
sg64
(lp1844
g57
(g78
g59
NtRp1845
(dp1846
g62
(dp1847
g82
g83
ssg71
g1841
sg64
(lp1848
S'request_method'
p1849
asbag57
(g78
g59
NtRp1850
(dp1851
g62
(dp1852
g89
g90
ssg71
g1841
sg64
(lp1853
S':'
asbag57
(g78
g59
NtRp1854
(dp1855
g62
(dp1856
sg71
g1841
sg64
(lp1857
g57
(g58
g59
NtRp1858
(dp1859
g62
(dp1860
g70
I4
ssg71
g1854
sg64
(lp1861
S'GET'
p1862
asbasbasbag57
(g73
g59
NtRp1863
(dp1864
g62
(dp1865
sg71
g1377
sg64
(lp1866
g57
(g78
g59
NtRp1867
(dp1868
g62
(dp1869
g82
g83
ssg71
g1863
sg64
(lp1870
S'script_name'
p1871
asbag57
(g78
g59
NtRp1872
(dp1873
g62
(dp1874
g89
g90
ssg71
g1863
sg64
(lp1875
S':'
asbag57
(g78
g59
NtRp1876
(dp1877
g62
(dp1878
sg71
g1863
sg64
(lp1879
g57
(g58
g59
NtRp1880
(dp1881
g62
(dp1882
g70
I4
ssg71
g1876
sg64
(lp1883
S''
asbasbasbag57
(g73
g59
NtRp1884
(dp1885
g62
(dp1886
sg71
g1377
sg64
(lp1887
g57
(g78
g59
NtRp1888
(dp1889
g62
(dp1890
g82
g83
ssg71
g1884
sg64
(lp1891
S'server_name'
p1892
asbag57
(g78
g59
NtRp1893
(dp1894
g62
(dp1895
g89
g90
ssg71
g1884
sg64
(lp1896
S':'
asbag57
(g78
g59
NtRp1897
(dp1898
g62
(dp1899
sg71
g1884
sg64
(lp1900
g57
(g58
g59
NtRp1901
(dp1902
g62
(dp1903
g70
I4
ssg71
g1897
sg64
(lp1904
S'unic-Inspiron-N5050'
p1905
asbasbasbag57
(g73
g59
NtRp1906
(dp1907
g62
(dp1908
sg71
g1377
sg64
(lp1909
g57
(g78
g59
NtRp1910
(dp1911
g62
(dp1912
g82
g83
ssg71
g1906
sg64
(lp1913
S'server_port'
p1914
asbag57
(g78
g59
NtRp1915
(dp1916
g62
(dp1917
g89
g90
ssg71
g1906
sg64
(lp1918
S':'
asbag57
(g78
g59
NtRp1919
(dp1920
g62
(dp1921
sg71
g1906
sg64
(lp1922
g57
(g58
g59
NtRp1923
(dp1924
g62
(dp1925
g70
I4
ssg71
g1919
sg64
(lp1926
S'8000'
p1927
asbasbasbag57
(g73
g59
NtRp1928
(dp1929
g62
(dp1930
sg71
g1377
sg64
(lp1931
g57
(g78
g59
NtRp1932
(dp1933
g62
(dp1934
g82
g83
ssg71
g1928
sg64
(lp1935
S'server_protocol'
p1936
asbag57
(g78
g59
NtRp1937
(dp1938
g62
(dp1939
g89
g90
ssg71
g1928
sg64
(lp1940
S':'
asbag57
(g78
g59
NtRp1941
(dp1942
g62
(dp1943
sg71
g1928
sg64
(lp1944
g57
(g58
g59
NtRp1945
(dp1946
g62
(dp1947
g70
I4
ssg71
g1941
sg64
(lp1948
S'HTTP/1.1'
p1949
asbasbasbag57
(g73
g59
NtRp1950
(dp1951
g62
(dp1952
sg71
g1377
sg64
(lp1953
g57
(g78
g59
NtRp1954
(dp1955
g62
(dp1956
g82
g83
ssg71
g1950
sg64
(lp1957
S'server_software'
p1958
asbag57
(g78
g59
NtRp1959
(dp1960
g62
(dp1961
g89
g90
ssg71
g1950
sg64
(lp1962
S':'
asbag57
(g78
g59
NtRp1963
(dp1964
g62
(dp1965
sg71
g1950
sg64
(lp1966
g57
(g58
g59
NtRp1967
(dp1968
g62
(dp1969
g70
I4
ssg71
g1963
sg64
(lp1970
S'Rocket 1.2.4'
p1971
asbasbasbag57
(g73
g59
NtRp1972
(dp1973
g62
(dp1974
sg71
g1377
sg64
(lp1975
g57
(g78
g59
NtRp1976
(dp1977
g62
(dp1978
g82
g83
ssg71
g1972
sg64
(lp1979
S'web2py_crontype'
p1980
asbag57
(g78
g59
NtRp1981
(dp1982
g62
(dp1983
g89
g90
ssg71
g1972
sg64
(lp1984
S':'
asbag57
(g78
g59
NtRp1985
(dp1986
g62
(dp1987
sg71
g1972
sg64
(lp1988
g57
(g58
g59
NtRp1989
(dp1990
g62
(dp1991
g70
I4
ssg71
g1985
sg64
(lp1992
S'hard'
p1993
asbasbasbag57
(g73
g59
NtRp1994
(dp1995
g62
(dp1996
sg71
g1377
sg64
(lp1997
g57
(g78
g59
NtRp1998
(dp1999
g62
(dp2000
g82
g83
ssg71
g1994
sg64
(lp2001
S'web2py_path'
p2002
asbag57
(g78
g59
NtRp2003
(dp2004
g62
(dp2005
g89
g90
ssg71
g1994
sg64
(lp2006
S':'
asbag57
(g78
g59
NtRp2007
(dp2008
g62
(dp2009
sg71
g1994
sg64
(lp2010
g57
(g58
g59
NtRp2011
(dp2012
g62
(dp2013
g70
I4
ssg71
g2007
sg64
(lp2014
g1424
asbasbasbag57
(g73
g59
NtRp2015
(dp2016
g62
(dp2017
sg71
g1377
sg64
(lp2018
g57
(g78
g59
NtRp2019
(dp2020
g62
(dp2021
g82
g83
ssg71
g2015
sg64
(lp2022
S'web2py_version'
p2023
asbag57
(g78
g59
NtRp2024
(dp2025
g62
(dp2026
g89
g90
ssg71
g2015
sg64
(lp2027
S':'
asbag57
(g78
g59
NtRp2028
(dp2029
g62
(dp2030
sg71
g2015
sg64
(lp2031
g57
(g58
g59
NtRp2032
(dp2033
g62
(dp2034
g70
I4
ssg71
g2028
sg64
(lp2035
g57
(g66
g59
NtRp2036
(dp2037
g62
(dp2038
g70
I3
ssg71
Nsg64
(lp2039
g57
(g73
g59
NtRp2040
(dp2041
g62
(dp2042
sg71
g2036
sg64
(lp2043
g57
(g78
g59
NtRp2044
(dp2045
g62
(dp2046
sg71
g2040
sg64
(lp2047
g57
(g58
g59
NtRp2048
(dp2049
g62
(dp2050
g70
I3
ssg71
g2044
sg64
(lp2051
S'1'
asbasbasbag57
(g73
g59
NtRp2052
(dp2053
g62
(dp2054
sg71
g2036
sg64
(lp2055
g57
(g78
g59
NtRp2056
(dp2057
g62
(dp2058
sg71
g2052
sg64
(lp2059
g57
(g58
g59
NtRp2060
(dp2061
g62
(dp2062
g70
I3
ssg71
g2056
sg64
(lp2063
S'99'
p2064
asbasbasbag57
(g73
g59
NtRp2065
(dp2066
g62
(dp2067
sg71
g2036
sg64
(lp2068
g57
(g78
g59
NtRp2069
(dp2070
g62
(dp2071
sg71
g2065
sg64
(lp2072
g57
(g58
g59
NtRp2073
(dp2074
g62
(dp2075
g70
I3
ssg71
g2069
sg64
(lp2076
S'4'
asbasbasbag57
(g73
g59
NtRp2077
(dp2078
g62
(dp2079
sg71
g2036
sg64
(lp2080
g57
(g78
g59
NtRp2081
(dp2082
g62
(dp2083
sg71
g2077
sg64
(lp2084
g57
(g58
g59
NtRp2085
(dp2086
g62
(dp2087
g70
I3
ssg71
g2081
sg64
(lp2088
S'datetime.datetime(2011, 12, 14, 14, 46, 14)'
p2089
asbasbasbag57
(g73
g59
NtRp2090
(dp2091
g62
(dp2092
sg71
g2036
sg64
(lp2093
g57
(g78
g59
NtRp2094
(dp2095
g62
(dp2096
sg71
g2090
sg64
(lp2097
g57
(g58
g59
NtRp2098
(dp2099
g62
(dp2100
g70
I3
ssg71
g2094
sg64
(lp2101
S'stable'
p2102
asbasbasbasbasbasbasbag57
(g73
g59
NtRp2103
(dp2104
g62
(dp2105
sg71
g1377
sg64
(lp2106
g57
(g78
g59
NtRp2107
(dp2108
g62
(dp2109
g82
g83
ssg71
g2103
sg64
(lp2110
S'wsgi_errors'
p2111
asbag57
(g78
g59
NtRp2112
(dp2113
g62
(dp2114
g89
g90
ssg71
g2103
sg64
(lp2115
S':'
asbag57
(g78
g59
NtRp2116
(dp2117
g62
(dp2118
sg71
g2103
sg64
(lp2119
g57
(g58
g59
NtRp2120
(dp2121
g62
(dp2122
g70
I4
ssg71
g2116
sg64
(lp2123
S"<open file '<stderr>', mode 'w' at 0xb73060d0>"
p2124
asbasbasbag57
(g73
g59
NtRp2125
(dp2126
g62
(dp2127
sg71
g1377
sg64
(lp2128
g57
(g78
g59
NtRp2129
(dp2130
g62
(dp2131
g82
g83
ssg71
g2125
sg64
(lp2132
S'wsgi_file_wrapper'
p2133
asbag57
(g78
g59
NtRp2134
(dp2135
g62
(dp2136
g89
g90
ssg71
g2125
sg64
(lp2137
S':'
asbag57
(g78
g59
NtRp2138
(dp2139
g62
(dp2140
sg71
g2125
sg64
(lp2141
g57
(g58
g59
NtRp2142
(dp2143
g62
(dp2144
g70
I4
ssg71
g2138
sg64
(lp2145
S'<class wsgiref.util.FileWrapper at 0x89a24ac>'
p2146
asbasbasbag57
(g73
g59
NtRp2147
(dp2148
g62
(dp2149
sg71
g1377
sg64
(lp2150
g57
(g78
g59
NtRp2151
(dp2152
g62
(dp2153
g82
g83
ssg71
g2147
sg64
(lp2154
S'wsgi_input'
p2155
asbag57
(g78
g59
NtRp2156
(dp2157
g62
(dp2158
g89
g90
ssg71
g2147
sg64
(lp2159
S':'
asbag57
(g78
g59
NtRp2160
(dp2161
g62
(dp2162
sg71
g2147
sg64
(lp2163
g57
(g58
g59
NtRp2164
(dp2165
g62
(dp2166
g70
I4
ssg71
g2160
sg64
(lp2167
S'<socket._fileobject object at 0xabc0c72c>'
p2168
asbasbasbag57
(g73
g59
NtRp2169
(dp2170
g62
(dp2171
sg71
g1377
sg64
(lp2172
g57
(g78
g59
NtRp2173
(dp2174
g62
(dp2175
g82
g83
ssg71
g2169
sg64
(lp2176
S'wsgi_multiprocess'
p2177
asbag57
(g78
g59
NtRp2178
(dp2179
g62
(dp2180
g89
g90
ssg71
g2169
sg64
(lp2181
S':'
asbag57
(g78
g59
NtRp2182
(dp2183
g62
(dp2184
sg71
g2169
sg64
(lp2185
g57
(g58
g59
NtRp2186
(dp2187
g62
(dp2188
g70
I4
ssg71
g2182
sg64
(lp2189
g100
asbasbasbag57
(g73
g59
NtRp2190
(dp2191
g62
(dp2192
sg71
g1377
sg64
(lp2193
g57
(g78
g59
NtRp2194
(dp2195
g62
(dp2196
g82
g83
ssg71
g2190
sg64
(lp2197
S'wsgi_multithread'
p2198
asbag57
(g78
g59
NtRp2199
(dp2200
g62
(dp2201
g89
g90
ssg71
g2190
sg64
(lp2202
S':'
asbag57
(g78
g59
NtRp2203
(dp2204
g62
(dp2205
sg71
g2190
sg64
(lp2206
g57
(g58
g59
NtRp2207
(dp2208
g62
(dp2209
g70
I4
ssg71
g2203
sg64
(lp2210
S'True'
p2211
asbasbasbag57
(g73
g59
NtRp2212
(dp2213
g62
(dp2214
sg71
g1377
sg64
(lp2215
g57
(g78
g59
NtRp2216
(dp2217
g62
(dp2218
g82
g83
ssg71
g2212
sg64
(lp2219
S'wsgi_run_once'
p2220
asbag57
(g78
g59
NtRp2221
(dp2222
g62
(dp2223
g89
g90
ssg71
g2212
sg64
(lp2224
S':'
asbag57
(g78
g59
NtRp2225
(dp2226
g62
(dp2227
sg71
g2212
sg64
(lp2228
g57
(g58
g59
NtRp2229
(dp2230
g62
(dp2231
g70
I4
ssg71
g2225
sg64
(lp2232
g100
asbasbasbag57
(g73
g59
NtRp2233
(dp2234
g62
(dp2235
sg71
g1377
sg64
(lp2236
g57
(g78
g59
NtRp2237
(dp2238
g62
(dp2239
g82
g83
ssg71
g2233
sg64
(lp2240
S'wsgi_url_scheme'
p2241
asbag57
(g78
g59
NtRp2242
(dp2243
g62
(dp2244
g89
g90
ssg71
g2233
sg64
(lp2245
S':'
asbag57
(g78
g59
NtRp2246
(dp2247
g62
(dp2248
sg71
g2233
sg64
(lp2249
g57
(g58
g59
NtRp2250
(dp2251
g62
(dp2252
g70
I4
ssg71
g2246
sg64
(lp2253
S'http'
p2254
asbasbasbag57
(g73
g59
NtRp2255
(dp2256
g62
(dp2257
sg71
g1377
sg64
(lp2258
g57
(g78
g59
NtRp2259
(dp2260
g62
(dp2261
g82
g83
ssg71
g2255
sg64
(lp2262
S'wsgi_version'
p2263
asbag57
(g78
g59
NtRp2264
(dp2265
g62
(dp2266
g89
g90
ssg71
g2255
sg64
(lp2267
S':'
asbag57
(g78
g59
NtRp2268
(dp2269
g62
(dp2270
sg71
g2255
sg64
(lp2271
g57
(g58
g59
NtRp2272
(dp2273
g62
(dp2274
g70
I4
ssg71
g2268
sg64
(lp2275
g57
(g66
g59
NtRp2276
(dp2277
g62
(dp2278
g70
I3
ssg71
Nsg64
(lp2279
g57
(g73
g59
NtRp2280
(dp2281
g62
(dp2282
sg71
g2276
sg64
(lp2283
g57
(g78
g59
NtRp2284
(dp2285
g62
(dp2286
sg71
g2280
sg64
(lp2287
g57
(g58
g59
NtRp2288
(dp2289
g62
(dp2290
g70
I3
ssg71
g2284
sg64
(lp2291
S'1'
asbasbasbag57
(g73
g59
NtRp2292
(dp2293
g62
(dp2294
sg71
g2276
sg64
(lp2295
g57
(g78
g59
NtRp2296
(dp2297
g62
(dp2298
sg71
g2292
sg64
(lp2299
g57
(g58
g59
NtRp2300
(dp2301
g62
(dp2302
g70
I3
ssg71
g2296
sg64
(lp2303
S'0'
asbasbasbasbasbasbasbasbasbasbasbag57
(g73
g59
NtRp2304
(dp2305
g62
(dp2306
sg71
g67
sg64
(lp2307
g57
(g78
g59
NtRp2308
(dp2309
g62
(dp2310
g82
g83
ssg71
g2304
sg64
(lp2311
S'extension'
p2312
asbag57
(g78
g59
NtRp2313
(dp2314
g62
(dp2315
g89
g90
ssg71
g2304
sg64
(lp2316
S':'
asbag57
(g78
g59
NtRp2317
(dp2318
g62
(dp2319
sg71
g2304
sg64
(lp2320
g57
(g58
g59
NtRp2321
(dp2322
g62
(dp2323
g70
I5
ssg71
g2317
sg64
(lp2324
S'html'
p2325
asbasbasbag57
(g73
g59
NtRp2326
(dp2327
g62
(dp2328
sg71
g67
sg64
(lp2329
g57
(g78
g59
NtRp2330
(dp2331
g62
(dp2332
g82
g83
ssg71
g2326
sg64
(lp2333
S'folder'
p2334
asbag57
(g78
g59
NtRp2335
(dp2336
g62
(dp2337
g89
g90
ssg71
g2326
sg64
(lp2338
S':'
asbag57
(g78
g59
NtRp2339
(dp2340
g62
(dp2341
sg71
g2326
sg64
(lp2342
g57
(g58
g59
NtRp2343
(dp2344
g62
(dp2345
g70
I5
ssg71
g2339
sg64
(lp2346
S'/home/unic/web2py/applications/manager/'
p2347
asbasbasbag57
(g73
g59
NtRp2348
(dp2349
g62
(dp2350
sg71
g67
sg64
(lp2351
g57
(g78
g59
NtRp2352
(dp2353
g62
(dp2354
g82
g83
ssg71
g2348
sg64
(lp2355
S'function'
p2356
asbag57
(g78
g59
NtRp2357
(dp2358
g62
(dp2359
g89
g90
ssg71
g2348
sg64
(lp2360
S':'
asbag57
(g78
g59
NtRp2361
(dp2362
g62
(dp2363
sg71
g2348
sg64
(lp2364
g57
(g58
g59
NtRp2365
(dp2366
g62
(dp2367
g70
I5
ssg71
g2361
sg64
(lp2368
S'index'
p2369
asbasbasbag57
(g73
g59
NtRp2370
(dp2371
g62
(dp2372
sg71
g67
sg64
(lp2373
g57
(g78
g59
NtRp2374
(dp2375
g62
(dp2376
g82
g83
ssg71
g2370
sg64
(lp2377
S'get_vars'
p2378
asbag57
(g78
g59
NtRp2379
(dp2380
g62
(dp2381
g89
g90
ssg71
g2370
sg64
(lp2382
S':'
asbag57
(g78
g59
NtRp2383
(dp2384
g62
(dp2385
sg71
g2370
sg64
(lp2386
g57
(g58
g59
NtRp2387
(dp2388
g62
(dp2389
g70
I5
ssg71
g2383
sg64
(lp2390
g57
(g66
g59
NtRp2391
(dp2392
g62
(dp2393
g70
I4
ssg71
Nsg64
(lp2394
sbasbasbasbag57
(g73
g59
NtRp2395
(dp2396
g62
(dp2397
sg71
g67
sg64
(lp2398
g57
(g78
g59
NtRp2399
(dp2400
g62
(dp2401
g82
g83
ssg71
g2395
sg64
(lp2402
S'global_settings'
p2403
asbag57
(g78
g59
NtRp2404
(dp2405
g62
(dp2406
g89
g90
ssg71
g2395
sg64
(lp2407
S':'
asbag57
(g78
g59
NtRp2408
(dp2409
g62
(dp2410
sg71
g2395
sg64
(lp2411
g57
(g58
g59
NtRp2412
(dp2413
g62
(dp2414
g70
I5
ssg71
g2408
sg64
(lp2415
g57
(g66
g59
NtRp2416
(dp2417
g62
(dp2418
g70
I4
ssg71
Nsg64
(lp2419
g57
(g73
g59
NtRp2420
(dp2421
g62
(dp2422
sg71
g2416
sg64
(lp2423
g57
(g78
g59
NtRp2424
(dp2425
g62
(dp2426
g82
g83
ssg71
g2420
sg64
(lp2427
g1389
asbag57
(g78
g59
NtRp2428
(dp2429
g62
(dp2430
g89
g90
ssg71
g2420
sg64
(lp2431
S':'
asbag57
(g78
g59
NtRp2432
(dp2433
g62
(dp2434
sg71
g2420
sg64
(lp2435
g57
(g58
g59
NtRp2436
(dp2437
g62
(dp2438
g70
I4
ssg71
g2432
sg64
(lp2439
S"set(['/home/unic/web2py/applications/maddy/', '/home/unic/web2py/applications/manager/', '/home/unic/web2py/applications/award_cas/', '/home/unic/web2py/applications/Award_Manager/', '/home/unic/web2py/applications/admin/', '/home/unic/web2py/applications/welcome/'])"
p2440
asbasbasbag57
(g73
g59
NtRp2441
(dp2442
g62
(dp2443
sg71
g2416
sg64
(lp2444
g57
(g78
g59
NtRp2445
(dp2446
g62
(dp2447
g82
g83
ssg71
g2441
sg64
(lp2448
g1411
asbag57
(g78
g59
NtRp2449
(dp2450
g62
(dp2451
g89
g90
ssg71
g2441
sg64
(lp2452
S':'
asbag57
(g78
g59
NtRp2453
(dp2454
g62
(dp2455
sg71
g2441
sg64
(lp2456
g57
(g58
g59
NtRp2457
(dp2458
g62
(dp2459
g70
I4
ssg71
g2453
sg64
(lp2460
g1424
asbasbasbag57
(g73
g59
NtRp2461
(dp2462
g62
(dp2463
sg71
g2416
sg64
(lp2464
g57
(g78
g59
NtRp2465
(dp2466
g62
(dp2467
g82
g83
ssg71
g2461
sg64
(lp2468
g1433
asbag57
(g78
g59
NtRp2469
(dp2470
g62
(dp2471
g89
g90
ssg71
g2461
sg64
(lp2472
S':'
asbag57
(g78
g59
NtRp2473
(dp2474
g62
(dp2475
sg71
g2461
sg64
(lp2476
g57
(g58
g59
NtRp2477
(dp2478
g62
(dp2479
g70
I4
ssg71
g2473
sg64
(lp2480
g57
(g66
g59
NtRp2481
(dp2482
g62
(dp2483
g70
I3
ssg71
Nsg64
(lp2484
sbasbasbasbag57
(g73
g59
NtRp2485
(dp2486
g62
(dp2487
sg71
g2416
sg64
(lp2488
g57
(g78
g59
NtRp2489
(dp2490
g62
(dp2491
g82
g83
ssg71
g2485
sg64
(lp2492
g1458
asbag57
(g78
g59
NtRp2493
(dp2494
g62
(dp2495
g89
g90
ssg71
g2485
sg64
(lp2496
S':'
asbag57
(g78
g59
NtRp2497
(dp2498
g62
(dp2499
sg71
g2485
sg64
(lp2500
g57
(g58
g59
NtRp2501
(dp2502
g62
(dp2503
g70
I4
ssg71
g2497
sg64
(lp2504
S"<Values at 0x89f780c: {'verbose': False, 'ip': '127.0.0.1', 'shutdown_timeout': 5, 'taskbar': False, 'port': 8000, 'maxthreads': None, 'softcron': False, 'server_name': 'unic-Inspiron-N5050', 'bpython': False, 'nogui': False, 'nocron': False, 'extcron': False, 'debuglevel': 30, 'test': None, 'folder': '/home/unic/web2py', 'config': '', 'import_models': False, 'winservice': '', 'shell': None, 'run': '', 'log_filename': 'httpserver.log', 'args': [''], 'socket_timeout': 1, 'profiler_filename': None, 'ssl_private_key': '', 'password': '<ask>', 'request_queue_size': 5, 'ssl_certificate': '', 'cronjob': False, 'plain': False, 'quiet': False, 'interfaces': None, 'minthreads': None, 'timeout': 10, 'numthreads': None, 'nobanner': False, 'pid_filename': 'httpserver.pid'}>"
p2505
asbasbasbag57
(g73
g59
NtRp2506
(dp2507
g62
(dp2508
sg71
g2416
sg64
(lp2509
g57
(g78
g59
NtRp2510
(dp2511
g62
(dp2512
g82
g83
ssg71
g2506
sg64
(lp2513
g1480
asbag57
(g78
g59
NtRp2514
(dp2515
g62
(dp2516
g89
g90
ssg71
g2506
sg64
(lp2517
S':'
asbag57
(g78
g59
NtRp2518
(dp2519
g62
(dp2520
sg71
g2506
sg64
(lp2521
g57
(g58
g59
NtRp2522
(dp2523
g62
(dp2524
g70
I4
ssg71
g2518
sg64
(lp2525
S'set([])'
p2526
asbasbasbag57
(g73
g59
NtRp2527
(dp2528
g62
(dp2529
sg71
g2416
sg64
(lp2530
g57
(g78
g59
NtRp2531
(dp2532
g62
(dp2533
g82
g83
ssg71
g2527
sg64
(lp2534
g1502
asbag57
(g78
g59
NtRp2535
(dp2536
g62
(dp2537
g89
g90
ssg71
g2527
sg64
(lp2538
S':'
asbag57
(g78
g59
NtRp2539
(dp2540
g62
(dp2541
sg71
g2527
sg64
(lp2542
g57
(g58
g59
NtRp2543
(dp2544
g62
(dp2545
g70
I4
ssg71
g2539
sg64
(lp2546
g100
asbasbasbag57
(g73
g59
NtRp2547
(dp2548
g62
(dp2549
sg71
g2416
sg64
(lp2550
g57
(g78
g59
NtRp2551
(dp2552
g62
(dp2553
g82
g83
ssg71
g2547
sg64
(lp2554
g1523
asbag57
(g78
g59
NtRp2555
(dp2556
g62
(dp2557
g89
g90
ssg71
g2547
sg64
(lp2558
S':'
asbag57
(g78
g59
NtRp2559
(dp2560
g62
(dp2561
sg71
g2547
sg64
(lp2562
g57
(g58
g59
NtRp2563
(dp2564
g62
(dp2565
g70
I4
ssg71
g2559
sg64
(lp2566
g1536
asbasbasbag57
(g73
g59
NtRp2567
(dp2568
g62
(dp2569
sg71
g2416
sg64
(lp2570
g57
(g78
g59
NtRp2571
(dp2572
g62
(dp2573
g82
g83
ssg71
g2567
sg64
(lp2574
g1721
asbag57
(g78
g59
NtRp2575
(dp2576
g62
(dp2577
g89
g90
ssg71
g2567
sg64
(lp2578
S':'
asbag57
(g78
g59
NtRp2579
(dp2580
g62
(dp2581
sg71
g2567
sg64
(lp2582
g57
(g58
g59
NtRp2583
(dp2584
g62
(dp2585
g70
I4
ssg71
g2579
sg64
(lp2586
g100
asbasbasbag57
(g73
g59
NtRp2587
(dp2588
g62
(dp2589
sg71
g2416
sg64
(lp2590
g57
(g78
g59
NtRp2591
(dp2592
g62
(dp2593
g82
g83
ssg71
g2587
sg64
(lp2594
g1742
asbag57
(g78
g59
NtRp2595
(dp2596
g62
(dp2597
g89
g90
ssg71
g2587
sg64
(lp2598
S':'
asbag57
(g78
g59
NtRp2599
(dp2600
g62
(dp2601
sg71
g2587
sg64
(lp2602
g57
(g58
g59
NtRp2603
(dp2604
g62
(dp2605
g70
I4
ssg71
g2599
sg64
(lp2606
g100
asbasbasbag57
(g73
g59
NtRp2607
(dp2608
g62
(dp2609
sg71
g2416
sg64
(lp2610
g57
(g78
g59
NtRp2611
(dp2612
g62
(dp2613
g82
g83
ssg71
g2607
sg64
(lp2614
g1980
asbag57
(g78
g59
NtRp2615
(dp2616
g62
(dp2617
g89
g90
ssg71
g2607
sg64
(lp2618
S':'
asbag57
(g78
g59
NtRp2619
(dp2620
g62
(dp2621
sg71
g2607
sg64
(lp2622
g57
(g58
g59
NtRp2623
(dp2624
g62
(dp2625
g70
I4
ssg71
g2619
sg64
(lp2626
g1993
asbasbasbag57
(g73
g59
NtRp2627
(dp2628
g62
(dp2629
sg71
g2416
sg64
(lp2630
g57
(g78
g59
NtRp2631
(dp2632
g62
(dp2633
g82
g83
ssg71
g2627
sg64
(lp2634
g2023
asbag57
(g78
g59
NtRp2635
(dp2636
g62
(dp2637
g89
g90
ssg71
g2627
sg64
(lp2638
S':'
asbag57
(g78
g59
NtRp2639
(dp2640
g62
(dp2641
sg71
g2627
sg64
(lp2642
g57
(g58
g59
NtRp2643
(dp2644
g62
(dp2645
g70
I4
ssg71
g2639
sg64
(lp2646
g57
(g66
g59
NtRp2647
(dp2648
g62
(dp2649
g70
I3
ssg71
Nsg64
(lp2650
g57
(g73
g59
NtRp2651
(dp2652
g62
(dp2653
sg71
g2647
sg64
(lp2654
g57
(g78
g59
NtRp2655
(dp2656
g62
(dp2657
sg71
g2651
sg64
(lp2658
g57
(g58
g59
NtRp2659
(dp2660
g62
(dp2661
g70
I3
ssg71
g2655
sg64
(lp2662
S'1'
asbasbasbag57
(g73
g59
NtRp2663
(dp2664
g62
(dp2665
sg71
g2647
sg64
(lp2666
g57
(g78
g59
NtRp2667
(dp2668
g62
(dp2669
sg71
g2663
sg64
(lp2670
g57
(g58
g59
NtRp2671
(dp2672
g62
(dp2673
g70
I3
ssg71
g2667
sg64
(lp2674
S'99'
p2675
asbasbasbag57
(g73
g59
NtRp2676
(dp2677
g62
(dp2678
sg71
g2647
sg64
(lp2679
g57
(g78
g59
NtRp2680
(dp2681
g62
(dp2682
sg71
g2676
sg64
(lp2683
g57
(g58
g59
NtRp2684
(dp2685
g62
(dp2686
g70
I3
ssg71
g2680
sg64
(lp2687
S'4'
asbasbasbag57
(g73
g59
NtRp2688
(dp2689
g62
(dp2690
sg71
g2647
sg64
(lp2691
g57
(g78
g59
NtRp2692
(dp2693
g62
(dp2694
sg71
g2688
sg64
(lp2695
g57
(g58
g59
NtRp2696
(dp2697
g62
(dp2698
g70
I3
ssg71
g2692
sg64
(lp2699
S'datetime.datetime(2011, 12, 14, 14, 46, 14)'
p2700
asbasbasbag57
(g73
g59
NtRp2701
(dp2702
g62
(dp2703
sg71
g2647
sg64
(lp2704
g57
(g78
g59
NtRp2705
(dp2706
g62
(dp2707
sg71
g2701
sg64
(lp2708
g57
(g58
g59
NtRp2709
(dp2710
g62
(dp2711
g70
I3
ssg71
g2705
sg64
(lp2712
g2102
asbasbasbasbasbasbasbasbasbasbasbag57
(g73
g59
NtRp2713
(dp2714
g62
(dp2715
sg71
g67
sg64
(lp2716
g57
(g78
g59
NtRp2717
(dp2718
g62
(dp2719
g82
g83
ssg71
g2713
sg64
(lp2720
S'is_https'
p2721
asbag57
(g78
g59
NtRp2722
(dp2723
g62
(dp2724
g89
g90
ssg71
g2713
sg64
(lp2725
S':'
asbag57
(g78
g59
NtRp2726
(dp2727
g62
(dp2728
sg71
g2713
sg64
(lp2729
g57
(g58
g59
NtRp2730
(dp2731
g62
(dp2732
g70
I5
ssg71
g2726
sg64
(lp2733
g100
asbasbasbag57
(g73
g59
NtRp2734
(dp2735
g62
(dp2736
sg71
g67
sg64
(lp2737
g57
(g78
g59
NtRp2738
(dp2739
g62
(dp2740
g82
g83
ssg71
g2734
sg64
(lp2741
S'is_local'
p2742
asbag57
(g78
g59
NtRp2743
(dp2744
g62
(dp2745
g89
g90
ssg71
g2734
sg64
(lp2746
S':'
asbag57
(g78
g59
NtRp2747
(dp2748
g62
(dp2749
sg71
g2734
sg64
(lp2750
g57
(g58
g59
NtRp2751
(dp2752
g62
(dp2753
g70
I5
ssg71
g2747
sg64
(lp2754
g2211
asbasbasbag57
(g73
g59
NtRp2755
(dp2756
g62
(dp2757
sg71
g67
sg64
(lp2758
g57
(g78
g59
NtRp2759
(dp2760
g62
(dp2761
g82
g83
ssg71
g2755
sg64
(lp2762
S'is_restful'
p2763
asbag57
(g78
g59
NtRp2764
(dp2765
g62
(dp2766
g89
g90
ssg71
g2755
sg64
(lp2767
S':'
asbag57
(g78
g59
NtRp2768
(dp2769
g62
(dp2770
sg71
g2755
sg64
(lp2771
g57
(g58
g59
NtRp2772
(dp2773
g62
(dp2774
g70
I5
ssg71
g2768
sg64
(lp2775
g100
asbasbasbag57
(g73
g59
NtRp2776
(dp2777
g62
(dp2778
sg71
g67
sg64
(lp2779
g57
(g78
g59
NtRp2780
(dp2781
g62
(dp2782
g82
g83
ssg71
g2776
sg64
(lp2783
S'now'
p2784
asbag57
(g78
g59
NtRp2785
(dp2786
g62
(dp2787
g89
g90
ssg71
g2776
sg64
(lp2788
S':'
asbag57
(g78
g59
NtRp2789
(dp2790
g62
(dp2791
sg71
g2776
sg64
(lp2792
g57
(g58
g59
NtRp2793
(dp2794
g62
(dp2795
g70
I5
ssg71
g2789
sg64
(lp2796
S'datetime.datetime(2012, 11, 5, 22, 37, 35, 117464)'
p2797
asbasbasbag57
(g73
g59
NtRp2798
(dp2799
g62
(dp2800
sg71
g67
sg64
(lp2801
g57
(g78
g59
NtRp2802
(dp2803
g62
(dp2804
g82
g83
ssg71
g2798
sg64
(lp2805
S'post_vars'
p2806
asbag57
(g78
g59
NtRp2807
(dp2808
g62
(dp2809
g89
g90
ssg71
g2798
sg64
(lp2810
S':'
asbag57
(g78
g59
NtRp2811
(dp2812
g62
(dp2813
sg71
g2798
sg64
(lp2814
g57
(g58
g59
NtRp2815
(dp2816
g62
(dp2817
g70
I5
ssg71
g2811
sg64
(lp2818
g57
(g66
g59
NtRp2819
(dp2820
g62
(dp2821
g70
I4
ssg71
Nsg64
(lp2822
sbasbasbasbag57
(g73
g59
NtRp2823
(dp2824
g62
(dp2825
sg71
g67
sg64
(lp2826
g57
(g78
g59
NtRp2827
(dp2828
g62
(dp2829
g82
g83
ssg71
g2823
sg64
(lp2830
S'url'
p2831
asbag57
(g78
g59
NtRp2832
(dp2833
g62
(dp2834
g89
g90
ssg71
g2823
sg64
(lp2835
S':'
asbag57
(g78
g59
NtRp2836
(dp2837
g62
(dp2838
sg71
g2823
sg64
(lp2839
g57
(g58
g59
NtRp2840
(dp2841
g62
(dp2842
g70
I5
ssg71
g2836
sg64
(lp2843
S'/manager/default/index'
p2844
asbasbasbag57
(g73
g59
NtRp2845
(dp2846
g62
(dp2847
sg71
g67
sg64
(lp2848
g57
(g78
g59
NtRp2849
(dp2850
g62
(dp2851
g82
g83
ssg71
g2845
sg64
(lp2852
S'utcnow'
p2853
asbag57
(g78
g59
NtRp2854
(dp2855
g62
(dp2856
g89
g90
ssg71
g2845
sg64
(lp2857
S':'
asbag57
(g78
g59
NtRp2858
(dp2859
g62
(dp2860
sg71
g2845
sg64
(lp2861
g57
(g58
g59
NtRp2862
(dp2863
g62
(dp2864
g70
I5
ssg71
g2858
sg64
(lp2865
S'datetime.datetime(2012, 11, 5, 17, 7, 35, 117493)'
p2866
asbasbasbag57
(g73
g59
NtRp2867
(dp2868
g62
(dp2869
sg71
g67
sg64
(lp2870
g57
(g78
g59
NtRp2871
(dp2872
g62
(dp2873
g82
g83
ssg71
g2867
sg64
(lp2874
S'uuid'
p2875
asbag57
(g78
g59
NtRp2876
(dp2877
g62
(dp2878
g89
g90
ssg71
g2867
sg64
(lp2879
S':'
asbag57
(g78
g59
NtRp2880
(dp2881
g62
(dp2882
sg71
g2867
sg64
(lp2883
g57
(g58
g59
NtRp2884
(dp2885
g62
(dp2886
g70
I5
ssg71
g2880
sg64
(lp2887
S'manager/127.0.0.1.2012-11-05.22-37-35.ff905997-c6ab-497b-b91e-eb15b5468bd7'
p2888
asbasbasbag57
(g73
g59
NtRp2889
(dp2890
g62
(dp2891
sg71
g67
sg64
(lp2892
g57
(g78
g59
NtRp2893
(dp2894
g62
(dp2895
g82
g83
ssg71
g2889
sg64
(lp2896
S'vars'
p2897
asbag57
(g78
g59
NtRp2898
(dp2899
g62
(dp2900
g89
g90
ssg71
g2889
sg64
(lp2901
S':'
asbag57
(g78
g59
NtRp2902
(dp2903
g62
(dp2904
sg71
g2889
sg64
(lp2905
g57
(g58
g59
NtRp2906
(dp2907
g62
(dp2908
g70
I5
ssg71
g2902
sg64
(lp2909
g57
(g66
g59
NtRp2910
(dp2911
g62
(dp2912
g70
I4
ssg71
Nsg64
(lp2913
sbasbasbasbag57
(g73
g59
NtRp2914
(dp2915
g62
(dp2916
sg71
g67
sg64
(lp2917
g57
(g78
g59
NtRp2918
(dp2919
g62
(dp2920
g82
g83
ssg71
g2914
sg64
(lp2921
S'wsgi'
p2922
asbag57
(g78
g59
NtRp2923
(dp2924
g62
(dp2925
g89
g90
ssg71
g2914
sg64
(lp2926
S':'
asbag57
(g78
g59
NtRp2927
(dp2928
g62
(dp2929
sg71
g2914
sg64
(lp2930
g57
(g58
g59
NtRp2931
(dp2932
g62
(dp2933
g70
I5
ssg71
g2927
sg64
(lp2934
g57
(g66
g59
NtRp2935
(dp2936
g62
(dp2937
g70
I4
ssg71
Nsg64
(lp2938
g57
(g73
g59
NtRp2939
(dp2940
g62
(dp2941
sg71
g2935
sg64
(lp2942
g57
(g78
g59
NtRp2943
(dp2944
g62
(dp2945
g82
g83
ssg71
g2939
sg64
(lp2946
S'environ'
p2947
asbag57
(g78
g59
NtRp2948
(dp2949
g62
(dp2950
g89
g90
ssg71
g2939
sg64
(lp2951
S':'
asbag57
(g78
g59
NtRp2952
(dp2953
g62
(dp2954
sg71
g2939
sg64
(lp2955
g57
(g58
g59
NtRp2956
(dp2957
g62
(dp2958
g70
I4
ssg71
g2952
sg64
(lp2959
g57
(g66
g59
NtRp2960
(dp2961
g62
(dp2962
g70
I3
ssg71
Nsg64
(lp2963
g57
(g73
g59
NtRp2964
(dp2965
g62
(dp2966
sg71
g2960
sg64
(lp2967
g57
(g78
g59
NtRp2968
(dp2969
g62
(dp2970
g82
g83
ssg71
g2964
sg64
(lp2971
S'HTTP_ACCEPT'
p2972
asbag57
(g78
g59
NtRp2973
(dp2974
g62
(dp2975
g89
g90
ssg71
g2964
sg64
(lp2976
S':'
asbag57
(g78
g59
NtRp2977
(dp2978
g62
(dp2979
sg71
g2964
sg64
(lp2980
g57
(g58
g59
NtRp2981
(dp2982
g62
(dp2983
g70
I3
ssg71
g2977
sg64
(lp2984
g1558
asbasbasbag57
(g73
g59
NtRp2985
(dp2986
g62
(dp2987
sg71
g2960
sg64
(lp2988
g57
(g78
g59
NtRp2989
(dp2990
g62
(dp2991
g82
g83
ssg71
g2985
sg64
(lp2992
S'HTTP_ACCEPT_ENCODING'
p2993
asbag57
(g78
g59
NtRp2994
(dp2995
g62
(dp2996
g89
g90
ssg71
g2985
sg64
(lp2997
S':'
asbag57
(g78
g59
NtRp2998
(dp2999
g62
(dp3000
sg71
g2985
sg64
(lp3001
g57
(g58
g59
NtRp3002
(dp3003
g62
(dp3004
g70
I3
ssg71
g2998
sg64
(lp3005
g1580
asbasbasbag57
(g73
g59
NtRp3006
(dp3007
g62
(dp3008
sg71
g2960
sg64
(lp3009
g57
(g78
g59
NtRp3010
(dp3011
g62
(dp3012
g82
g83
ssg71
g3006
sg64
(lp3013
S'HTTP_ACCEPT_LANGUAGE'
p3014
asbag57
(g78
g59
NtRp3015
(dp3016
g62
(dp3017
g89
g90
ssg71
g3006
sg64
(lp3018
S':'
asbag57
(g78
g59
NtRp3019
(dp3020
g62
(dp3021
sg71
g3006
sg64
(lp3022
g57
(g58
g59
NtRp3023
(dp3024
g62
(dp3025
g70
I3
ssg71
g3019
sg64
(lp3026
g1602
asbasbasbag57
(g73
g59
NtRp3027
(dp3028
g62
(dp3029
sg71
g2960
sg64
(lp3030
g57
(g78
g59
NtRp3031
(dp3032
g62
(dp3033
g82
g83
ssg71
g3027
sg64
(lp3034
S'HTTP_CONNECTION'
p3035
asbag57
(g78
g59
NtRp3036
(dp3037
g62
(dp3038
g89
g90
ssg71
g3027
sg64
(lp3039
S':'
asbag57
(g78
g59
NtRp3040
(dp3041
g62
(dp3042
sg71
g3027
sg64
(lp3043
g57
(g58
g59
NtRp3044
(dp3045
g62
(dp3046
g70
I3
ssg71
g3040
sg64
(lp3047
g1624
asbasbasbag57
(g73
g59
NtRp3048
(dp3049
g62
(dp3050
sg71
g2960
sg64
(lp3051
g57
(g78
g59
NtRp3052
(dp3053
g62
(dp3054
g82
g83
ssg71
g3048
sg64
(lp3055
S'HTTP_COOKIE'
p3056
asbag57
(g78
g59
NtRp3057
(dp3058
g62
(dp3059
g89
g90
ssg71
g3048
sg64
(lp3060
S':'
asbag57
(g78
g59
NtRp3061
(dp3062
g62
(dp3063
sg71
g3048
sg64
(lp3064
g57
(g58
g59
NtRp3065
(dp3066
g62
(dp3067
g70
I3
ssg71
g3061
sg64
(lp3068
g1646
asbasbasbag57
(g73
g59
NtRp3069
(dp3070
g62
(dp3071
sg71
g2960
sg64
(lp3072
g57
(g78
g59
NtRp3073
(dp3074
g62
(dp3075
g82
g83
ssg71
g3069
sg64
(lp3076
S'HTTP_HOST'
p3077
asbag57
(g78
g59
NtRp3078
(dp3079
g62
(dp3080
g89
g90
ssg71
g3069
sg64
(lp3081
S':'
asbag57
(g78
g59
NtRp3082
(dp3083
g62
(dp3084
sg71
g3069
sg64
(lp3085
g57
(g58
g59
NtRp3086
(dp3087
g62
(dp3088
g70
I3
ssg71
g3082
sg64
(lp3089
g1668
asbasbasbag57
(g73
g59
NtRp3090
(dp3091
g62
(dp3092
sg71
g2960
sg64
(lp3093
g57
(g78
g59
NtRp3094
(dp3095
g62
(dp3096
g82
g83
ssg71
g3090
sg64
(lp3097
S'HTTP_REFERER'
p3098
asbag57
(g78
g59
NtRp3099
(dp3100
g62
(dp3101
g89
g90
ssg71
g3090
sg64
(lp3102
S':'
asbag57
(g78
g59
NtRp3103
(dp3104
g62
(dp3105
sg71
g3090
sg64
(lp3106
g57
(g58
g59
NtRp3107
(dp3108
g62
(dp3109
g70
I3
ssg71
g3103
sg64
(lp3110
g1690
asbasbasbag57
(g73
g59
NtRp3111
(dp3112
g62
(dp3113
sg71
g2960
sg64
(lp3114
g57
(g78
g59
NtRp3115
(dp3116
g62
(dp3117
g82
g83
ssg71
g3111
sg64
(lp3118
S'HTTP_USER_AGENT'
p3119
asbag57
(g78
g59
NtRp3120
(dp3121
g62
(dp3122
g89
g90
ssg71
g3111
sg64
(lp3123
S':'
asbag57
(g78
g59
NtRp3124
(dp3125
g62
(dp3126
sg71
g3111
sg64
(lp3127
g57
(g58
g59
NtRp3128
(dp3129
g62
(dp3130
g70
I3
ssg71
g3124
sg64
(lp3131
g1712
asbasbasbag57
(g73
g59
NtRp3132
(dp3133
g62
(dp3134
sg71
g2960
sg64
(lp3135
g57
(g78
g59
NtRp3136
(dp3137
g62
(dp3138
g82
g83
ssg71
g3132
sg64
(lp3139
S'PATH_INFO'
p3140
asbag57
(g78
g59
NtRp3141
(dp3142
g62
(dp3143
g89
g90
ssg71
g3132
sg64
(lp3144
S':'
asbag57
(g78
g59
NtRp3145
(dp3146
g62
(dp3147
sg71
g3132
sg64
(lp3148
g57
(g58
g59
NtRp3149
(dp3150
g62
(dp3151
g70
I3
ssg71
g3145
sg64
(lp3152
g1776
asbasbasbag57
(g73
g59
NtRp3153
(dp3154
g62
(dp3155
sg71
g2960
sg64
(lp3156
g57
(g78
g59
NtRp3157
(dp3158
g62
(dp3159
g82
g83
ssg71
g3153
sg64
(lp3160
S'QUERY_STRING'
p3161
asbag57
(g78
g59
NtRp3162
(dp3163
g62
(dp3164
g89
g90
ssg71
g3153
sg64
(lp3165
S':'
asbag57
(g78
g59
NtRp3166
(dp3167
g62
(dp3168
sg71
g3153
sg64
(lp3169
g57
(g58
g59
NtRp3170
(dp3171
g62
(dp3172
g70
I3
ssg71
g3166
sg64
(lp3173
S''
asbasbasbag57
(g73
g59
NtRp3174
(dp3175
g62
(dp3176
sg71
g2960
sg64
(lp3177
g57
(g78
g59
NtRp3178
(dp3179
g62
(dp3180
g82
g83
ssg71
g3174
sg64
(lp3181
S'REMOTE_ADDR'
p3182
asbag57
(g78
g59
NtRp3183
(dp3184
g62
(dp3185
g89
g90
ssg71
g3174
sg64
(lp3186
S':'
asbag57
(g78
g59
NtRp3187
(dp3188
g62
(dp3189
sg71
g3174
sg64
(lp3190
g57
(g58
g59
NtRp3191
(dp3192
g62
(dp3193
g70
I3
ssg71
g3187
sg64
(lp3194
g190
asbasbasbag57
(g73
g59
NtRp3195
(dp3196
g62
(dp3197
sg71
g2960
sg64
(lp3198
g57
(g78
g59
NtRp3199
(dp3200
g62
(dp3201
g82
g83
ssg71
g3195
sg64
(lp3202
S'REMOTE_PORT'
p3203
asbag57
(g78
g59
NtRp3204
(dp3205
g62
(dp3206
g89
g90
ssg71
g3195
sg64
(lp3207
S':'
asbag57
(g78
g59
NtRp3208
(dp3209
g62
(dp3210
sg71
g3195
sg64
(lp3211
g57
(g58
g59
NtRp3212
(dp3213
g62
(dp3214
g70
I3
ssg71
g3208
sg64
(lp3215
g1840
asbasbasbag57
(g73
g59
NtRp3216
(dp3217
g62
(dp3218
sg71
g2960
sg64
(lp3219
g57
(g78
g59
NtRp3220
(dp3221
g62
(dp3222
g82
g83
ssg71
g3216
sg64
(lp3223
S'REQUEST_METHOD'
p3224
asbag57
(g78
g59
NtRp3225
(dp3226
g62
(dp3227
g89
g90
ssg71
g3216
sg64
(lp3228
S':'
asbag57
(g78
g59
NtRp3229
(dp3230
g62
(dp3231
sg71
g3216
sg64
(lp3232
g57
(g58
g59
NtRp3233
(dp3234
g62
(dp3235
g70
I3
ssg71
g3229
sg64
(lp3236
g1862
asbasbasbag57
(g73
g59
NtRp3237
(dp3238
g62
(dp3239
sg71
g2960
sg64
(lp3240
g57
(g78
g59
NtRp3241
(dp3242
g62
(dp3243
g82
g83
ssg71
g3237
sg64
(lp3244
S'SCRIPT_NAME'
p3245
asbag57
(g78
g59
NtRp3246
(dp3247
g62
(dp3248
g89
g90
ssg71
g3237
sg64
(lp3249
S':'
asbag57
(g78
g59
NtRp3250
(dp3251
g62
(dp3252
sg71
g3237
sg64
(lp3253
g57
(g58
g59
NtRp3254
(dp3255
g62
(dp3256
g70
I3
ssg71
g3250
sg64
(lp3257
S''
asbasbasbag57
(g73
g59
NtRp3258
(dp3259
g62
(dp3260
sg71
g2960
sg64
(lp3261
g57
(g78
g59
NtRp3262
(dp3263
g62
(dp3264
g82
g83
ssg71
g3258
sg64
(lp3265
S'SERVER_NAME'
p3266
asbag57
(g78
g59
NtRp3267
(dp3268
g62
(dp3269
g89
g90
ssg71
g3258
sg64
(lp3270
S':'
asbag57
(g78
g59
NtRp3271
(dp3272
g62
(dp3273
sg71
g3258
sg64
(lp3274
g57
(g58
g59
NtRp3275
(dp3276
g62
(dp3277
g70
I3
ssg71
g3271
sg64
(lp3278
g1905
asbasbasbag57
(g73
g59
NtRp3279
(dp3280
g62
(dp3281
sg71
g2960
sg64
(lp3282
g57
(g78
g59
NtRp3283
(dp3284
g62
(dp3285
g82
g83
ssg71
g3279
sg64
(lp3286
S'SERVER_PORT'
p3287
asbag57
(g78
g59
NtRp3288
(dp3289
g62
(dp3290
g89
g90
ssg71
g3279
sg64
(lp3291
S':'
asbag57
(g78
g59
NtRp3292
(dp3293
g62
(dp3294
sg71
g3279
sg64
(lp3295
g57
(g58
g59
NtRp3296
(dp3297
g62
(dp3298
g70
I3
ssg71
g3292
sg64
(lp3299
g1927
asbasbasbag57
(g73
g59
NtRp3300
(dp3301
g62
(dp3302
sg71
g2960
sg64
(lp3303
g57
(g78
g59
NtRp3304
(dp3305
g62
(dp3306
g82
g83
ssg71
g3300
sg64
(lp3307
S'SERVER_PROTOCOL'
p3308
asbag57
(g78
g59
NtRp3309
(dp3310
g62
(dp3311
g89
g90
ssg71
g3300
sg64
(lp3312
S':'
asbag57
(g78
g59
NtRp3313
(dp3314
g62
(dp3315
sg71
g3300
sg64
(lp3316
g57
(g58
g59
NtRp3317
(dp3318
g62
(dp3319
g70
I3
ssg71
g3313
sg64
(lp3320
g1949
asbasbasbag57
(g73
g59
NtRp3321
(dp3322
g62
(dp3323
sg71
g2960
sg64
(lp3324
g57
(g78
g59
NtRp3325
(dp3326
g62
(dp3327
g82
g83
ssg71
g3321
sg64
(lp3328
S'SERVER_SOFTWARE'
p3329
asbag57
(g78
g59
NtRp3330
(dp3331
g62
(dp3332
g89
g90
ssg71
g3321
sg64
(lp3333
S':'
asbag57
(g78
g59
NtRp3334
(dp3335
g62
(dp3336
sg71
g3321
sg64
(lp3337
g57
(g58
g59
NtRp3338
(dp3339
g62
(dp3340
g70
I3
ssg71
g3334
sg64
(lp3341
g1971
asbasbasbag57
(g73
g59
NtRp3342
(dp3343
g62
(dp3344
sg71
g2960
sg64
(lp3345
g57
(g78
g59
NtRp3346
(dp3347
g62
(dp3348
g82
g83
ssg71
g3342
sg64
(lp3349
S'wsgi.errors'
p3350
asbag57
(g78
g59
NtRp3351
(dp3352
g62
(dp3353
g89
g90
ssg71
g3342
sg64
(lp3354
S':'
asbag57
(g78
g59
NtRp3355
(dp3356
g62
(dp3357
sg71
g3342
sg64
(lp3358
g57
(g58
g59
NtRp3359
(dp3360
g62
(dp3361
g70
I3
ssg71
g3355
sg64
(lp3362
S"<open file '<stderr>', mode 'w' at 0xb73060d0>"
p3363
asbasbasbag57
(g73
g59
NtRp3364
(dp3365
g62
(dp3366
sg71
g2960
sg64
(lp3367
g57
(g78
g59
NtRp3368
(dp3369
g62
(dp3370
g82
g83
ssg71
g3364
sg64
(lp3371
S'wsgi.file_wrapper'
p3372
asbag57
(g78
g59
NtRp3373
(dp3374
g62
(dp3375
g89
g90
ssg71
g3364
sg64
(lp3376
S':'
asbag57
(g78
g59
NtRp3377
(dp3378
g62
(dp3379
sg71
g3364
sg64
(lp3380
g57
(g58
g59
NtRp3381
(dp3382
g62
(dp3383
g70
I3
ssg71
g3377
sg64
(lp3384
S'<class wsgiref.util.FileWrapper at 0x89a24ac>'
p3385
asbasbasbag57
(g73
g59
NtRp3386
(dp3387
g62
(dp3388
sg71
g2960
sg64
(lp3389
g57
(g78
g59
NtRp3390
(dp3391
g62
(dp3392
g82
g83
ssg71
g3386
sg64
(lp3393
S'wsgi.input'
p3394
asbag57
(g78
g59
NtRp3395
(dp3396
g62
(dp3397
g89
g90
ssg71
g3386
sg64
(lp3398
S':'
asbag57
(g78
g59
NtRp3399
(dp3400
g62
(dp3401
sg71
g3386
sg64
(lp3402
g57
(g58
g59
NtRp3403
(dp3404
g62
(dp3405
g70
I3
ssg71
g3399
sg64
(lp3406
S'<cStringIO.StringO object at 0xaaa1eb00>'
p3407
asbasbasbag57
(g73
g59
NtRp3408
(dp3409
g62
(dp3410
sg71
g2960
sg64
(lp3411
g57
(g78
g59
NtRp3412
(dp3413
g62
(dp3414
g82
g83
ssg71
g3408
sg64
(lp3415
S'wsgi.multiprocess'
p3416
asbag57
(g78
g59
NtRp3417
(dp3418
g62
(dp3419
g89
g90
ssg71
g3408
sg64
(lp3420
S':'
asbag57
(g78
g59
NtRp3421
(dp3422
g62
(dp3423
sg71
g3408
sg64
(lp3424
g57
(g58
g59
NtRp3425
(dp3426
g62
(dp3427
g70
I3
ssg71
g3421
sg64
(lp3428
g100
asbasbasbag57
(g73
g59
NtRp3429
(dp3430
g62
(dp3431
sg71
g2960
sg64
(lp3432
g57
(g78
g59
NtRp3433
(dp3434
g62
(dp3435
g82
g83
ssg71
g3429
sg64
(lp3436
S'wsgi.multithread'
p3437
asbag57
(g78
g59
NtRp3438
(dp3439
g62
(dp3440
g89
g90
ssg71
g3429
sg64
(lp3441
S':'
asbag57
(g78
g59
NtRp3442
(dp3443
g62
(dp3444
sg71
g3429
sg64
(lp3445
g57
(g58
g59
NtRp3446
(dp3447
g62
(dp3448
g70
I3
ssg71
g3442
sg64
(lp3449
g2211
asbasbasbag57
(g73
g59
NtRp3450
(dp3451
g62
(dp3452
sg71
g2960
sg64
(lp3453
g57
(g78
g59
NtRp3454
(dp3455
g62
(dp3456
g82
g83
ssg71
g3450
sg64
(lp3457
S'wsgi.run_once'
p3458
asbag57
(g78
g59
NtRp3459
(dp3460
g62
(dp3461
g89
g90
ssg71
g3450
sg64
(lp3462
S':'
asbag57
(g78
g59
NtRp3463
(dp3464
g62
(dp3465
sg71
g3450
sg64
(lp3466
g57
(g58
g59
NtRp3467
(dp3468
g62
(dp3469
g70
I3
ssg71
g3463
sg64
(lp3470
g100
asbasbasbag57
(g73
g59
NtRp3471
(dp3472
g62
(dp3473
sg71
g2960
sg64
(lp3474
g57
(g78
g59
NtRp3475
(dp3476
g62
(dp3477
g82
g83
ssg71
g3471
sg64
(lp3478
S'wsgi.url_scheme'
p3479
asbag57
(g78
g59
NtRp3480
(dp3481
g62
(dp3482
g89
g90
ssg71
g3471
sg64
(lp3483
S':'
asbag57
(g78
g59
NtRp3484
(dp3485
g62
(dp3486
sg71
g3471
sg64
(lp3487
g57
(g58
g59
NtRp3488
(dp3489
g62
(dp3490
g70
I3
ssg71
g3484
sg64
(lp3491
g2254
asbasbasbag57
(g73
g59
NtRp3492
(dp3493
g62
(dp3494
sg71
g2960
sg64
(lp3495
g57
(g78
g59
NtRp3496
(dp3497
g62
(dp3498
g82
g83
ssg71
g3492
sg64
(lp3499
S'wsgi.version'
p3500
asbag57
(g78
g59
NtRp3501
(dp3502
g62
(dp3503
g89
g90
ssg71
g3492
sg64
(lp3504
S':'
asbag57
(g78
g59
NtRp3505
(dp3506
g62
(dp3507
sg71
g3492
sg64
(lp3508
g57
(g58
g59
NtRp3509
(dp3510
g62
(dp3511
g70
I3
ssg71
g3505
sg64
(lp3512
S'1'
asbasbasbasbasbasbasbasbasbasbasbasbasbsS'frames'
p3513
(lp3514
(dp3515
S'file'
p3516
S'/usr/lib/pymodules/python2.7/gluon/restricted.py'
p3517
sS'dump'
p3518
(dp3519
S'environment'
p3520
S"{'A': <class 'gluon.html.A'>, 'Admin': <function Admin>, 'Auth': <class 'gluon.tools.Auth'>, 'B': <class 'gluon.html.B'>, 'BEAUTIFY': <class 'gluon.html.BEAUTIFY'>, 'BODY': <class 'gluon.html.BODY'>, 'BR': <class 'gluon.html.BR'>, 'BUTTON': <class 'gluon.html.BUTTON'>, 'CAT': <class 'gluon.html.CAT'>, 'CENTER': <class 'gluon.html.CENTER'>, ...}"
p3521
sS'ccode'
p3522
S'<code object <module> at 0xab698b60, file "/home...cations/manager/controllers/default.py", line 13>'
p3523
ssS'lnum'
p3524
I204
sS'lines'
p3525
(dp3526
I199
S'    try:'
p3527
sI200
S'        if type(code) == types.CodeType:'
p3528
sI201
S'            ccode = code'
p3529
sI202
S'        else:'
p3530
sI203
S'            ccode = compile2(code,layer)'
p3531
sI204
S'        exec ccode in environment'
p3532
sI205
S'    except HTTP:'
p3533
sI206
S'        raise'
p3534
sI207
S'    except RestrictedError:'
p3535
sI208
S'        # do not encapsulate (obfuscate) the original RestrictedError'
p3536
ssS'call'
p3537
S"(code='# -*- coding: utf-8 -*-\\n# this file is released ...id=grid)\\n\\nresponse._vars=response._caller(index)\\n', environment={'A': <class 'gluon.html.A'>, 'Admin': <function Admin>, 'Auth': <class 'gluon.tools.Auth'>, 'B': <class 'gluon.html.B'>, 'BEAUTIFY': <class 'gluon.html.BEAUTIFY'>, 'BODY': <class 'gluon.html.BODY'>, 'BR': <class 'gluon.html.BR'>, 'BUTTON': <class 'gluon.html.BUTTON'>, 'CAT': <class 'gluon.html.CAT'>, 'CENTER': <class 'gluon.html.CENTER'>, ...}, layer='/home/unic/web2py/applications/manager/controllers/default.py')"
p3538
sS'func'
p3539
S'restricted'
p3540
sa(dp3541
g3516
S'/home/unic/web2py/applications/manager/controllers/default.py'
p3542
sg3518
(dp3543
sg3524
I261
sg3525
(dp3544
I256
S'    return dict(form=crud())'
p3545
sI257
S'def manage():'
p3546
sI258
S'    grid = SQLFORM.smartgrid(db.UPBook)'
p3547
sI259
S'    return dict(grid=grid)'
p3548
sI250
S'    http://..../[app]/default/data/search/[table]'
p3549
sI251
S'    but URLs must be signed, i.e. linked with'
p3550
sI252
S"      A('table',_href=URL('data/tables',user_signature=True))"
p3551
sI253
S'    or with the signed load operator'
p3552
sI254
S"      LOAD('default','data.load',args='tables',ajax=True,user_signature=True)"
p3553
sI255
S'    """'
p3554
ssg3537
S'()'
p3555
sg3539
S'<module>'
p3556
sa(dp3557
g3516
S'/usr/lib/pymodules/python2.7/gluon/globals.py'
p3558
sg3518
(dp3559
S'self'
p3560
S'undefined'
p3561
sS'f'
S'<function index>'
p3562
ssg3524
I172
sg3525
(dp3563
I167
S'        self.meta = Storage()      # used by web2py_ajax.html'
p3564
sI168
S'        self.menu = []             # used by the default view layout'
p3565
sI169
S'        self.files = []            # used by web2py_ajax.html'
p3566
sI170
S'        self.generic_patterns = [] # patterns to allow generic views'
p3567
sI171
S'        self._vars = None'
p3568
sI172
S'        self._caller = lambda f: f()'
p3569
sI173
S'        self._view_environment = None'
p3570
sI174
S'        self._custom_commit = None'
p3571
sI175
S'        self._custom_rollback = None'
p3572
sI176
S''
ssg3537
S'(f=<function index>)'
p3573
sg3539
S'<lambda>'
p3574
sa(dp3575
g3516
S'/home/unic/web2py/applications/manager/controllers/default.py'
p3576
sg3518
(dp3577
S'session.token.split'
p3578
g3561
sS'global session'
p3579
S"<Storage {'login': 0, '_Session__hash': '\\xe5\\x1b\\\\\\xc92\\xbb\\xb0\\xcc\\xf0\\xf5V\\x1d(\\xd8\\r\\xb0'}>"
p3580
sS'session.token'
p3581
S'None'
p3582
sS'name'
p3583
g3561
ssg3524
I14
sg3525
(dp3584
I9
S'## - call exposes all registered services (none by default)'
p3585
sI10
S'#########################################################################'
p3586
sI11
S''
sI12
S''
sI13
S'def index():'
p3587
sI14
S"    name=session.token.split('@')[0]"
p3588
sI15
S"    first_name=name.split('.')[0]"
p3589
sI16
S"    last_name=name.split('.')[1]"
p3590
sI17
S'    test1 = db(db.auth_user.email == session.token).select()'
p3591
sI18
S'    if(len(test1)==0):'
p3592
ssg3537
S'()'
p3593
sg3539
S'index'
p3594
sasS'pyver'
p3595
S'Python 2.7.3: /usr/bin/python'
p3596
sS'session'
p3597
g57
(g58
g59
NtRp3598
(dp3599
g62
(dp3600
sg64
(lp3601
g57
(g66
g59
NtRp3602
(dp3603
g62
(dp3604
g70
I5
ssg71
Nsg64
(lp3605
g57
(g73
g59
NtRp3606
(dp3607
g62
(dp3608
sg71
g3602
sg64
(lp3609
g57
(g78
g59
NtRp3610
(dp3611
g62
(dp3612
g82
g83
ssg71
g3606
sg64
(lp3613
S'login'
p3614
asbag57
(g78
g59
NtRp3615
(dp3616
g62
(dp3617
g89
g90
ssg71
g3606
sg64
(lp3618
S':'
asbag57
(g78
g59
NtRp3619
(dp3620
g62
(dp3621
sg71
g3606
sg64
(lp3622
g57
(g58
g59
NtRp3623
(dp3624
g62
(dp3625
g70
I5
ssg71
g3619
sg64
(lp3626
S'0'
asbasbasbasbasbsS'etype'
p3627
S"<type 'exceptions.AttributeError'>"
p3628
sS'date'
p3629
S'Mon Nov  5 22:37:35 2012'
p3630
sS'response'
p3631
g57
(g58
g59
NtRp3632
(dp3633
g62
(dp3634
sg64
(lp3635
g57
(g66
g59
NtRp3636
(dp3637
g62
(dp3638
g70
I5
ssg71
Nsg64
(lp3639
g57
(g73
g59
NtRp3640
(dp3641
g62
(dp3642
sg71
g3636
sg64
(lp3643
g57
(g78
g59
NtRp3644
(dp3645
g62
(dp3646
g82
g83
ssg71
g3640
sg64
(lp3647
g155
asbag57
(g78
g59
NtRp3648
(dp3649
g62
(dp3650
g89
g90
ssg71
g3640
sg64
(lp3651
S':'
asbag57
(g78
g59
NtRp3652
(dp3653
g62
(dp3654
sg71
g3640
sg64
(lp3655
g57
(g58
g59
NtRp3656
(dp3657
g62
(dp3658
g70
I5
ssg71
g3652
sg64
(lp3659
S'<cStringIO.StringO object at 0xabc924e0>'
p3660
asbasbasbag57
(g73
g59
NtRp3661
(dp3662
g62
(dp3663
sg71
g3636
sg64
(lp3664
g57
(g78
g59
NtRp3665
(dp3666
g62
(dp3667
g82
g83
ssg71
g3661
sg64
(lp3668
g221
asbag57
(g78
g59
NtRp3669
(dp3670
g62
(dp3671
g89
g90
ssg71
g3661
sg64
(lp3672
S':'
asbag57
(g78
g59
NtRp3673
(dp3674
g62
(dp3675
sg71
g3661
sg64
(lp3676
g57
(g58
g59
NtRp3677
(dp3678
g62
(dp3679
g70
I5
ssg71
g3673
sg64
(lp3680
g57
(g66
g59
NtRp3681
(dp3682
g62
(dp3683
g70
I4
ssg71
Nsg64
(lp3684
g57
(g73
g59
NtRp3685
(dp3686
g62
(dp3687
sg71
g3681
sg64
(lp3688
g57
(g78
g59
NtRp3689
(dp3690
g62
(dp3691
g82
g83
ssg71
g3685
sg64
(lp3692
S'session_id_manager'
p3693
asbag57
(g78
g59
NtRp3694
(dp3695
g62
(dp3696
g89
g90
ssg71
g3685
sg64
(lp3697
S':'
asbag57
(g78
g59
NtRp3698
(dp3699
g62
(dp3700
sg71
g3685
sg64
(lp3701
g57
(g58
g59
NtRp3702
(dp3703
g62
(dp3704
g70
I4
ssg71
g3698
sg64
(lp3705
g57
(g66
g59
NtRp3706
(dp3707
g62
(dp3708
g70
I3
ssg71
Nsg64
(lp3709
g57
(g73
g59
NtRp3710
(dp3711
g62
(dp3712
sg71
g3706
sg64
(lp3713
g57
(g78
g59
NtRp3714
(dp3715
g62
(dp3716
g82
g83
ssg71
g3710
sg64
(lp3717
g271
asbag57
(g78
g59
NtRp3718
(dp3719
g62
(dp3720
g89
g90
ssg71
g3710
sg64
(lp3721
S':'
asbag57
(g78
g59
NtRp3722
(dp3723
g62
(dp3724
sg71
g3710
sg64
(lp3725
g57
(g58
g59
NtRp3726
(dp3727
g62
(dp3728
g70
I3
ssg71
g3722
sg64
(lp3729
S''
asbasbasbag57
(g73
g59
NtRp3730
(dp3731
g62
(dp3732
sg71
g3706
sg64
(lp3733
g57
(g78
g59
NtRp3734
(dp3735
g62
(dp3736
g82
g83
ssg71
g3730
sg64
(lp3737
g292
asbag57
(g78
g59
NtRp3738
(dp3739
g62
(dp3740
g89
g90
ssg71
g3730
sg64
(lp3741
S':'
asbag57
(g78
g59
NtRp3742
(dp3743
g62
(dp3744
sg71
g3730
sg64
(lp3745
g57
(g58
g59
NtRp3746
(dp3747
g62
(dp3748
g70
I3
ssg71
g3742
sg64
(lp3749
S''
asbasbasbag57
(g73
g59
NtRp3750
(dp3751
g62
(dp3752
sg71
g3706
sg64
(lp3753
g57
(g78
g59
NtRp3754
(dp3755
g62
(dp3756
g82
g83
ssg71
g3750
sg64
(lp3757
g313
asbag57
(g78
g59
NtRp3758
(dp3759
g62
(dp3760
g89
g90
ssg71
g3750
sg64
(lp3761
S':'
asbag57
(g78
g59
NtRp3762
(dp3763
g62
(dp3764
sg71
g3750
sg64
(lp3765
g57
(g58
g59
NtRp3766
(dp3767
g62
(dp3768
g70
I3
ssg71
g3762
sg64
(lp3769
S''
asbasbasbag57
(g73
g59
NtRp3770
(dp3771
g62
(dp3772
sg71
g3706
sg64
(lp3773
g57
(g78
g59
NtRp3774
(dp3775
g62
(dp3776
g82
g83
ssg71
g3770
sg64
(lp3777
g334
asbag57
(g78
g59
NtRp3778
(dp3779
g62
(dp3780
g89
g90
ssg71
g3770
sg64
(lp3781
S':'
asbag57
(g78
g59
NtRp3782
(dp3783
g62
(dp3784
sg71
g3770
sg64
(lp3785
g57
(g58
g59
NtRp3786
(dp3787
g62
(dp3788
g70
I3
ssg71
g3782
sg64
(lp3789
S''
asbasbasbag57
(g73
g59
NtRp3790
(dp3791
g62
(dp3792
sg71
g3706
sg64
(lp3793
g57
(g78
g59
NtRp3794
(dp3795
g62
(dp3796
g82
g83
ssg71
g3790
sg64
(lp3797
g355
asbag57
(g78
g59
NtRp3798
(dp3799
g62
(dp3800
g89
g90
ssg71
g3790
sg64
(lp3801
S':'
asbag57
(g78
g59
NtRp3802
(dp3803
g62
(dp3804
sg71
g3790
sg64
(lp3805
g57
(g58
g59
NtRp3806
(dp3807
g62
(dp3808
g70
I3
ssg71
g3802
sg64
(lp3809
S''
asbasbasbag57
(g73
g59
NtRp3810
(dp3811
g62
(dp3812
sg71
g3706
sg64
(lp3813
g57
(g78
g59
NtRp3814
(dp3815
g62
(dp3816
g82
g83
ssg71
g3810
sg64
(lp3817
g376
asbag57
(g78
g59
NtRp3818
(dp3819
g62
(dp3820
g89
g90
ssg71
g3810
sg64
(lp3821
S':'
asbag57
(g78
g59
NtRp3822
(dp3823
g62
(dp3824
sg71
g3810
sg64
(lp3825
g57
(g58
g59
NtRp3826
(dp3827
g62
(dp3828
g70
I3
ssg71
g3822
sg64
(lp3829
S'/'
asbasbasbag57
(g73
g59
NtRp3830
(dp3831
g62
(dp3832
sg71
g3706
sg64
(lp3833
g57
(g78
g59
NtRp3834
(dp3835
g62
(dp3836
g82
g83
ssg71
g3830
sg64
(lp3837
g397
asbag57
(g78
g59
NtRp3838
(dp3839
g62
(dp3840
g89
g90
ssg71
g3830
sg64
(lp3841
S':'
asbag57
(g78
g59
NtRp3842
(dp3843
g62
(dp3844
sg71
g3830
sg64
(lp3845
g57
(g58
g59
NtRp3846
(dp3847
g62
(dp3848
g70
I3
ssg71
g3842
sg64
(lp3849
S''
asbasbasbag57
(g73
g59
NtRp3850
(dp3851
g62
(dp3852
sg71
g3706
sg64
(lp3853
g57
(g78
g59
NtRp3854
(dp3855
g62
(dp3856
g82
g83
ssg71
g3850
sg64
(lp3857
g418
asbag57
(g78
g59
NtRp3858
(dp3859
g62
(dp3860
g89
g90
ssg71
g3850
sg64
(lp3861
S':'
asbag57
(g78
g59
NtRp3862
(dp3863
g62
(dp3864
sg71
g3850
sg64
(lp3865
g57
(g58
g59
NtRp3866
(dp3867
g62
(dp3868
g70
I3
ssg71
g3862
sg64
(lp3869
S''
asbasbasbasbasbasbasbasbasbasbasbag57
(g73
g59
NtRp3870
(dp3871
g62
(dp3872
sg71
g3636
sg64
(lp3873
g57
(g78
g59
NtRp3874
(dp3875
g62
(dp3876
g82
g83
ssg71
g3870
sg64
(lp3877
S'files'
p3878
asbag57
(g78
g59
NtRp3879
(dp3880
g62
(dp3881
g89
g90
ssg71
g3870
sg64
(lp3882
S':'
asbag57
(g78
g59
NtRp3883
(dp3884
g62
(dp3885
sg71
g3870
sg64
(lp3886
g57
(g58
g59
NtRp3887
(dp3888
g62
(dp3889
g70
I5
ssg71
g3883
sg64
(lp3890
g57
(g66
g59
NtRp3891
(dp3892
g62
(dp3893
g70
I4
ssg71
Nsg64
(lp3894
sbasbasbasbag57
(g73
g59
NtRp3895
(dp3896
g62
(dp3897
sg71
g3636
sg64
(lp3898
g57
(g78
g59
NtRp3899
(dp3900
g62
(dp3901
g82
g83
ssg71
g3895
sg64
(lp3902
S'flash'
p3903
asbag57
(g78
g59
NtRp3904
(dp3905
g62
(dp3906
g89
g90
ssg71
g3895
sg64
(lp3907
S':'
asbag57
(g78
g59
NtRp3908
(dp3909
g62
(dp3910
sg71
g3895
sg64
(lp3911
g57
(g58
g59
NtRp3912
(dp3913
g62
(dp3914
g70
I5
ssg71
g3908
sg64
(lp3915
S''
asbasbasbag57
(g73
g59
NtRp3916
(dp3917
g62
(dp3918
sg71
g3636
sg64
(lp3919
g57
(g78
g59
NtRp3920
(dp3921
g62
(dp3922
g82
g83
ssg71
g3916
sg64
(lp3923
S'generic_patterns'
p3924
asbag57
(g78
g59
NtRp3925
(dp3926
g62
(dp3927
g89
g90
ssg71
g3916
sg64
(lp3928
S':'
asbag57
(g78
g59
NtRp3929
(dp3930
g62
(dp3931
sg71
g3916
sg64
(lp3932
g57
(g58
g59
NtRp3933
(dp3934
g62
(dp3935
g70
I5
ssg71
g3929
sg64
(lp3936
g57
(g66
g59
NtRp3937
(dp3938
g62
(dp3939
g70
I4
ssg71
Nsg64
(lp3940
g57
(g73
g59
NtRp3941
(dp3942
g62
(dp3943
sg71
g3937
sg64
(lp3944
g57
(g78
g59
NtRp3945
(dp3946
g62
(dp3947
sg71
g3941
sg64
(lp3948
g57
(g58
g59
NtRp3949
(dp3950
g62
(dp3951
g70
I4
ssg71
g3945
sg64
(lp3952
S'*'
asbasbasbasbasbasbasbag57
(g73
g59
NtRp3953
(dp3954
g62
(dp3955
sg71
g3636
sg64
(lp3956
g57
(g78
g59
NtRp3957
(dp3958
g62
(dp3959
g82
g83
ssg71
g3953
sg64
(lp3960
S'headers'
p3961
asbag57
(g78
g59
NtRp3962
(dp3963
g62
(dp3964
g89
g90
ssg71
g3953
sg64
(lp3965
S':'
asbag57
(g78
g59
NtRp3966
(dp3967
g62
(dp3968
sg71
g3953
sg64
(lp3969
g57
(g58
g59
NtRp3970
(dp3971
g62
(dp3972
g70
I5
ssg71
g3966
sg64
(lp3973
g57
(g66
g59
NtRp3974
(dp3975
g62
(dp3976
g70
I4
ssg71
Nsg64
(lp3977
g57
(g73
g59
NtRp3978
(dp3979
g62
(dp3980
sg71
g3974
sg64
(lp3981
g57
(g78
g59
NtRp3982
(dp3983
g62
(dp3984
g82
g83
ssg71
g3978
sg64
(lp3985
S'Cache-Control'
p3986
asbag57
(g78
g59
NtRp3987
(dp3988
g62
(dp3989
g89
g90
ssg71
g3978
sg64
(lp3990
S':'
asbag57
(g78
g59
NtRp3991
(dp3992
g62
(dp3993
sg71
g3978
sg64
(lp3994
g57
(g58
g59
NtRp3995
(dp3996
g62
(dp3997
g70
I4
ssg71
g3991
sg64
(lp3998
S'no-store, no-cache, must-revalidate, post-check=0, pre-check=0'
p3999
asbasbasbag57
(g73
g59
NtRp4000
(dp4001
g62
(dp4002
sg71
g3974
sg64
(lp4003
g57
(g78
g59
NtRp4004
(dp4005
g62
(dp4006
g82
g83
ssg71
g4000
sg64
(lp4007
S'Content-Type'
p4008
asbag57
(g78
g59
NtRp4009
(dp4010
g62
(dp4011
g89
g90
ssg71
g4000
sg64
(lp4012
S':'
asbag57
(g78
g59
NtRp4013
(dp4014
g62
(dp4015
sg71
g4000
sg64
(lp4016
g57
(g58
g59
NtRp4017
(dp4018
g62
(dp4019
g70
I4
ssg71
g4013
sg64
(lp4020
S'text/html; charset=utf-8'
p4021
asbasbasbag57
(g73
g59
NtRp4022
(dp4023
g62
(dp4024
sg71
g3974
sg64
(lp4025
g57
(g78
g59
NtRp4026
(dp4027
g62
(dp4028
g82
g83
ssg71
g4022
sg64
(lp4029
S'Expires'
p4030
asbag57
(g78
g59
NtRp4031
(dp4032
g62
(dp4033
g89
g90
ssg71
g4022
sg64
(lp4034
S':'
asbag57
(g78
g59
NtRp4035
(dp4036
g62
(dp4037
sg71
g4022
sg64
(lp4038
g57
(g58
g59
NtRp4039
(dp4040
g62
(dp4041
g70
I4
ssg71
g4035
sg64
(lp4042
S'Mon, 05 Nov 2012 17:07:35 GMT'
p4043
asbasbasbag57
(g73
g59
NtRp4044
(dp4045
g62
(dp4046
sg71
g3974
sg64
(lp4047
g57
(g78
g59
NtRp4048
(dp4049
g62
(dp4050
g82
g83
ssg71
g4044
sg64
(lp4051
S'Pragma'
p4052
asbag57
(g78
g59
NtRp4053
(dp4054
g62
(dp4055
g89
g90
ssg71
g4044
sg64
(lp4056
S':'
asbag57
(g78
g59
NtRp4057
(dp4058
g62
(dp4059
sg71
g4044
sg64
(lp4060
g57
(g58
g59
NtRp4061
(dp4062
g62
(dp4063
g70
I4
ssg71
g4057
sg64
(lp4064
S'no-cache'
p4065
asbasbasbag57
(g73
g59
NtRp4066
(dp4067
g62
(dp4068
sg71
g3974
sg64
(lp4069
g57
(g78
g59
NtRp4070
(dp4071
g62
(dp4072
g82
g83
ssg71
g4066
sg64
(lp4073
S'X-Powered-By'
p4074
asbag57
(g78
g59
NtRp4075
(dp4076
g62
(dp4077
g89
g90
ssg71
g4066
sg64
(lp4078
S':'
asbag57
(g78
g59
NtRp4079
(dp4080
g62
(dp4081
sg71
g4066
sg64
(lp4082
g57
(g58
g59
NtRp4083
(dp4084
g62
(dp4085
g70
I4
ssg71
g4079
sg64
(lp4086
S'web2py'
p4087
asbasbasbasbasbasbasbag57
(g73
g59
NtRp4088
(dp4089
g62
(dp4090
sg71
g3636
sg64
(lp4091
g57
(g78
g59
NtRp4092
(dp4093
g62
(dp4094
g82
g83
ssg71
g4088
sg64
(lp4095
S'menu'
p4096
asbag57
(g78
g59
NtRp4097
(dp4098
g62
(dp4099
g89
g90
ssg71
g4088
sg64
(lp4100
S':'
asbag57
(g78
g59
NtRp4101
(dp4102
g62
(dp4103
sg71
g4088
sg64
(lp4104
g57
(g58
g59
NtRp4105
(dp4106
g62
(dp4107
g70
I5
ssg71
g4101
sg64
(lp4108
g57
(g66
g59
NtRp4109
(dp4110
g62
(dp4111
g70
I4
ssg71
Nsg64
(lp4112
g57
(g73
g59
NtRp4113
(dp4114
g62
(dp4115
sg71
g4109
sg64
(lp4116
g57
(g78
g59
NtRp4117
(dp4118
g62
(dp4119
sg71
g4113
sg64
(lp4120
g57
(g58
g59
NtRp4121
(dp4122
g62
(dp4123
g70
I4
ssg71
g4117
sg64
(lp4124
g57
(g66
g59
NtRp4125
(dp4126
g62
(dp4127
g70
I3
ssg71
Nsg64
(lp4128
g57
(g73
g59
NtRp4129
(dp4130
g62
(dp4131
sg71
g4125
sg64
(lp4132
g57
(g78
g59
NtRp4133
(dp4134
g62
(dp4135
sg71
g4129
sg64
(lp4136
g57
(g58
g59
NtRp4137
(dp4138
g62
(dp4139
g70
I3
ssg71
g4133
sg64
(lp4140
cgluon.languages
lazyT_unpickle
p4141
(S't\x04\x00\x00\x00Home'
tRp4142
asbasbasbag57
(g73
g59
NtRp4143
(dp4144
g62
(dp4145
sg71
g4125
sg64
(lp4146
g57
(g78
g59
NtRp4147
(dp4148
g62
(dp4149
sg71
g4143
sg64
(lp4150
g57
(g58
g59
NtRp4151
(dp4152
g62
(dp4153
g70
I3
ssg71
g4147
sg64
(lp4154
g100
asbasbasbag57
(g73
g59
NtRp4155
(dp4156
g62
(dp4157
sg71
g4125
sg64
(lp4158
g57
(g78
g59
NtRp4159
(dp4160
g62
(dp4161
sg71
g4155
sg64
(lp4162
g57
(g58
g59
NtRp4163
(dp4164
g62
(dp4165
g70
I3
ssg71
g4159
sg64
(lp4166
S'/manager/default/index'
p4167
asbasbasbasbasbasbasbag57
(g73
g59
NtRp4168
(dp4169
g62
(dp4170
sg71
g4109
sg64
(lp4171
g57
(g78
g59
NtRp4172
(dp4173
g62
(dp4174
sg71
g4168
sg64
(lp4175
g57
(g58
g59
NtRp4176
(dp4177
g62
(dp4178
g70
I4
ssg71
g4172
sg64
(lp4179
g57
(g66
g59
NtRp4180
(dp4181
g62
(dp4182
g70
I3
ssg71
Nsg64
(lp4183
g57
(g73
g59
NtRp4184
(dp4185
g62
(dp4186
sg71
g4180
sg64
(lp4187
g57
(g78
g59
NtRp4188
(dp4189
g62
(dp4190
sg71
g4184
sg64
(lp4191
g57
(g58
g59
NtRp4192
(dp4193
g62
(dp4194
g70
I3
ssg71
g4188
sg64
(lp4195
g4141
(S't\x05\x00\x00\x00About'
tRp4196
asbasbasbag57
(g73
g59
NtRp4197
(dp4198
g62
(dp4199
sg71
g4180
sg64
(lp4200
g57
(g78
g59
NtRp4201
(dp4202
g62
(dp4203
sg71
g4197
sg64
(lp4204
g57
(g58
g59
NtRp4205
(dp4206
g62
(dp4207
g70
I3
ssg71
g4201
sg64
(lp4208
g100
asbasbasbag57
(g73
g59
NtRp4209
(dp4210
g62
(dp4211
sg71
g4180
sg64
(lp4212
g57
(g78
g59
NtRp4213
(dp4214
g62
(dp4215
sg71
g4209
sg64
(lp4216
g57
(g58
g59
NtRp4217
(dp4218
g62
(dp4219
g70
I3
ssg71
g4213
sg64
(lp4220
S'/manager/default/what'
p4221
asbasbasbasbasbasbasbasbasbasbasbag57
(g73
g59
NtRp4222
(dp4223
g62
(dp4224
sg71
g3636
sg64
(lp4225
g57
(g78
g59
NtRp4226
(dp4227
g62
(dp4228
g82
g83
ssg71
g4222
sg64
(lp4229
S'meta'
p4230
asbag57
(g78
g59
NtRp4231
(dp4232
g62
(dp4233
g89
g90
ssg71
g4222
sg64
(lp4234
S':'
asbag57
(g78
g59
NtRp4235
(dp4236
g62
(dp4237
sg71
g4222
sg64
(lp4238
g57
(g58
g59
NtRp4239
(dp4240
g62
(dp4241
g70
I5
ssg71
g4235
sg64
(lp4242
g57
(g66
g59
NtRp4243
(dp4244
g62
(dp4245
g70
I4
ssg71
Nsg64
(lp4246
g57
(g73
g59
NtRp4247
(dp4248
g62
(dp4249
sg71
g4243
sg64
(lp4250
g57
(g78
g59
NtRp4251
(dp4252
g62
(dp4253
g82
g83
ssg71
g4247
sg64
(lp4254
S'author'
p4255
asbag57
(g78
g59
NtRp4256
(dp4257
g62
(dp4258
g89
g90
ssg71
g4247
sg64
(lp4259
S':'
asbag57
(g78
g59
NtRp4260
(dp4261
g62
(dp4262
sg71
g4247
sg64
(lp4263
g57
(g58
g59
NtRp4264
(dp4265
g62
(dp4266
g70
I4
ssg71
g4260
sg64
(lp4267
S'Your Name <you@example.com>'
p4268
asbasbasbag57
(g73
g59
NtRp4269
(dp4270
g62
(dp4271
sg71
g4243
sg64
(lp4272
g57
(g78
g59
NtRp4273
(dp4274
g62
(dp4275
g82
g83
ssg71
g4269
sg64
(lp4276
S'copyright'
p4277
asbag57
(g78
g59
NtRp4278
(dp4279
g62
(dp4280
g89
g90
ssg71
g4269
sg64
(lp4281
S':'
asbag57
(g78
g59
NtRp4282
(dp4283
g62
(dp4284
sg71
g4269
sg64
(lp4285
g57
(g58
g59
NtRp4286
(dp4287
g62
(dp4288
g70
I4
ssg71
g4282
sg64
(lp4289
S'Copyright 2011'
p4290
asbasbasbag57
(g73
g59
NtRp4291
(dp4292
g62
(dp4293
sg71
g4243
sg64
(lp4294
g57
(g78
g59
NtRp4295
(dp4296
g62
(dp4297
g82
g83
ssg71
g4291
sg64
(lp4298
S'description'
p4299
asbag57
(g78
g59
NtRp4300
(dp4301
g62
(dp4302
g89
g90
ssg71
g4291
sg64
(lp4303
S':'
asbag57
(g78
g59
NtRp4304
(dp4305
g62
(dp4306
sg71
g4291
sg64
(lp4307
g57
(g58
g59
NtRp4308
(dp4309
g62
(dp4310
g70
I4
ssg71
g4304
sg64
(lp4311
S'a cool new app'
p4312
asbasbasbag57
(g73
g59
NtRp4313
(dp4314
g62
(dp4315
sg71
g4243
sg64
(lp4316
g57
(g78
g59
NtRp4317
(dp4318
g62
(dp4319
g82
g83
ssg71
g4313
sg64
(lp4320
S'generator'
p4321
asbag57
(g78
g59
NtRp4322
(dp4323
g62
(dp4324
g89
g90
ssg71
g4313
sg64
(lp4325
S':'
asbag57
(g78
g59
NtRp4326
(dp4327
g62
(dp4328
sg71
g4313
sg64
(lp4329
g57
(g58
g59
NtRp4330
(dp4331
g62
(dp4332
g70
I4
ssg71
g4326
sg64
(lp4333
S'Web2py Web Framework'
p4334
asbasbasbag57
(g73
g59
NtRp4335
(dp4336
g62
(dp4337
sg71
g4243
sg64
(lp4338
g57
(g78
g59
NtRp4339
(dp4340
g62
(dp4341
g82
g83
ssg71
g4335
sg64
(lp4342
S'keywords'
p4343
asbag57
(g78
g59
NtRp4344
(dp4345
g62
(dp4346
g89
g90
ssg71
g4335
sg64
(lp4347
S':'
asbag57
(g78
g59
NtRp4348
(dp4349
g62
(dp4350
sg71
g4335
sg64
(lp4351
g57
(g58
g59
NtRp4352
(dp4353
g62
(dp4354
g70
I4
ssg71
g4348
sg64
(lp4355
S'web2py, python, framework'
p4356
asbasbasbasbasbasbasbag57
(g73
g59
NtRp4357
(dp4358
g62
(dp4359
sg71
g3636
sg64
(lp4360
g57
(g78
g59
NtRp4361
(dp4362
g62
(dp4363
g82
g83
ssg71
g4357
sg64
(lp4364
S'postprocessing'
p4365
asbag57
(g78
g59
NtRp4366
(dp4367
g62
(dp4368
g89
g90
ssg71
g4357
sg64
(lp4369
S':'
asbag57
(g78
g59
NtRp4370
(dp4371
g62
(dp4372
sg71
g4357
sg64
(lp4373
g57
(g58
g59
NtRp4374
(dp4375
g62
(dp4376
g70
I5
ssg71
g4370
sg64
(lp4377
g57
(g66
g59
NtRp4378
(dp4379
g62
(dp4380
g70
I4
ssg71
Nsg64
(lp4381
sbasbasbasbag57
(g73
g59
NtRp4382
(dp4383
g62
(dp4384
sg71
g3636
sg64
(lp4385
g57
(g78
g59
NtRp4386
(dp4387
g62
(dp4388
g82
g83
ssg71
g4382
sg64
(lp4389
S'session_file'
p4390
asbag57
(g78
g59
NtRp4391
(dp4392
g62
(dp4393
g89
g90
ssg71
g4382
sg64
(lp4394
S':'
asbag57
(g78
g59
NtRp4395
(dp4396
g62
(dp4397
sg71
g4382
sg64
(lp4398
g57
(g58
g59
NtRp4399
(dp4400
g62
(dp4401
g70
I5
ssg71
g4395
sg64
(lp4402
S"<open file '/home/unic/web2py/applications/manager/sessions/127.0.0.1-ae61ac4f-5f97-42be-a28c-3bc6a699e4f2', mode 'rb+' at 0xab6704f0>"
p4403
asbasbasbag57
(g73
g59
NtRp4404
(dp4405
g62
(dp4406
sg71
g3636
sg64
(lp4407
g57
(g78
g59
NtRp4408
(dp4409
g62
(dp4410
g82
g83
ssg71
g4404
sg64
(lp4411
S'session_filename'
p4412
asbag57
(g78
g59
NtRp4413
(dp4414
g62
(dp4415
g89
g90
ssg71
g4404
sg64
(lp4416
S':'
asbag57
(g78
g59
NtRp4417
(dp4418
g62
(dp4419
sg71
g4404
sg64
(lp4420
g57
(g58
g59
NtRp4421
(dp4422
g62
(dp4423
g70
I5
ssg71
g4417
sg64
(lp4424
S'/home/unic/web2py/applications/manager/sessions/127.0.0.1-ae61ac4f-5f97-42be-a28c-3bc6a699e4f2'
p4425
asbasbasbag57
(g73
g59
NtRp4426
(dp4427
g62
(dp4428
sg71
g3636
sg64
(lp4429
g57
(g78
g59
NtRp4430
(dp4431
g62
(dp4432
g82
g83
ssg71
g4426
sg64
(lp4433
S'session_id'
p4434
asbag57
(g78
g59
NtRp4435
(dp4436
g62
(dp4437
g89
g90
ssg71
g4426
sg64
(lp4438
S':'
asbag57
(g78
g59
NtRp4439
(dp4440
g62
(dp4441
sg71
g4426
sg64
(lp4442
g57
(g58
g59
NtRp4443
(dp4444
g62
(dp4445
g70
I5
ssg71
g4439
sg64
(lp4446
S'127.0.0.1-ae61ac4f-5f97-42be-a28c-3bc6a699e4f2'
p4447
asbasbasbag57
(g73
g59
NtRp4448
(dp4449
g62
(dp4450
sg71
g3636
sg64
(lp4451
g57
(g78
g59
NtRp4452
(dp4453
g62
(dp4454
g82
g83
ssg71
g4448
sg64
(lp4455
S'session_id_name'
p4456
asbag57
(g78
g59
NtRp4457
(dp4458
g62
(dp4459
g89
g90
ssg71
g4448
sg64
(lp4460
S':'
asbag57
(g78
g59
NtRp4461
(dp4462
g62
(dp4463
sg71
g4448
sg64
(lp4464
g57
(g58
g59
NtRp4465
(dp4466
g62
(dp4467
g70
I5
ssg71
g4461
sg64
(lp4468
g3693
asbasbasbag57
(g73
g59
NtRp4469
(dp4470
g62
(dp4471
sg71
g3636
sg64
(lp4472
g57
(g78
g59
NtRp4473
(dp4474
g62
(dp4475
g82
g83
ssg71
g4469
sg64
(lp4476
S'session_locked'
p4477
asbag57
(g78
g59
NtRp4478
(dp4479
g62
(dp4480
g89
g90
ssg71
g4469
sg64
(lp4481
S':'
asbag57
(g78
g59
NtRp4482
(dp4483
g62
(dp4484
sg71
g4469
sg64
(lp4485
g57
(g58
g59
NtRp4486
(dp4487
g62
(dp4488
g70
I5
ssg71
g4482
sg64
(lp4489
g2211
asbasbasbag57
(g73
g59
NtRp4490
(dp4491
g62
(dp4492
sg71
g3636
sg64
(lp4493
g57
(g78
g59
NtRp4494
(dp4495
g62
(dp4496
g82
g83
ssg71
g4490
sg64
(lp4497
S'session_new'
p4498
asbag57
(g78
g59
NtRp4499
(dp4500
g62
(dp4501
g89
g90
ssg71
g4490
sg64
(lp4502
S':'
asbag57
(g78
g59
NtRp4503
(dp4504
g62
(dp4505
sg71
g4490
sg64
(lp4506
g57
(g58
g59
NtRp4507
(dp4508
g62
(dp4509
g70
I5
ssg71
g4503
sg64
(lp4510
g100
asbasbasbag57
(g73
g59
NtRp4511
(dp4512
g62
(dp4513
sg71
g3636
sg64
(lp4514
g57
(g78
g59
NtRp4515
(dp4516
g62
(dp4517
g82
g83
ssg71
g4511
sg64
(lp4518
S'status'
p4519
asbag57
(g78
g59
NtRp4520
(dp4521
g62
(dp4522
g89
g90
ssg71
g4511
sg64
(lp4523
S':'
asbag57
(g78
g59
NtRp4524
(dp4525
g62
(dp4526
sg71
g4511
sg64
(lp4527
g57
(g58
g59
NtRp4528
(dp4529
g62
(dp4530
g70
I5
ssg71
g4524
sg64
(lp4531
S'200'
p4532
asbasbasbag57
(g73
g59
NtRp4533
(dp4534
g62
(dp4535
sg71
g3636
sg64
(lp4536
g57
(g78
g59
NtRp4537
(dp4538
g62
(dp4539
g82
g83
ssg71
g4533
sg64
(lp4540
S'subtitle'
p4541
asbag57
(g78
g59
NtRp4542
(dp4543
g62
(dp4544
g89
g90
ssg71
g4533
sg64
(lp4545
S':'
asbag57
(g78
g59
NtRp4546
(dp4547
g62
(dp4548
sg71
g4533
sg64
(lp4549
g57
(g58
g59
NtRp4550
(dp4551
g62
(dp4552
g70
I5
ssg71
g4546
sg64
(lp4553
g4141
(S's\r\x00\x00\x00customize me!'
tRp4554
asbasbasbag57
(g73
g59
NtRp4555
(dp4556
g62
(dp4557
sg71
g3636
sg64
(lp4558
g57
(g78
g59
NtRp4559
(dp4560
g62
(dp4561
g82
g83
ssg71
g4555
sg64
(lp4562
S'title'
p4563
asbag57
(g78
g59
NtRp4564
(dp4565
g62
(dp4566
g89
g90
ssg71
g4555
sg64
(lp4567
S':'
asbag57
(g78
g59
NtRp4568
(dp4569
g62
(dp4570
sg71
g4555
sg64
(lp4571
g57
(g58
g59
NtRp4572
(dp4573
g62
(dp4574
g70
I5
ssg71
g4568
sg64
(lp4575
S'Manager'
p4576
asbasbasbag57
(g73
g59
NtRp4577
(dp4578
g62
(dp4579
sg71
g3636
sg64
(lp4580
g57
(g78
g59
NtRp4581
(dp4582
g62
(dp4583
g82
g83
ssg71
g4577
sg64
(lp4584
g2875
asbag57
(g78
g59
NtRp4585
(dp4586
g62
(dp4587
g89
g90
ssg71
g4577
sg64
(lp4588
S':'
asbag57
(g78
g59
NtRp4589
(dp4590
g62
(dp4591
sg71
g4577
sg64
(lp4592
g57
(g58
g59
NtRp4593
(dp4594
g62
(dp4595
g70
I5
ssg71
g4589
sg64
(lp4596
g2888
asbasbasbag57
(g73
g59
NtRp4597
(dp4598
g62
(dp4599
sg71
g3636
sg64
(lp4600
g57
(g78
g59
NtRp4601
(dp4602
g62
(dp4603
g82
g83
ssg71
g4597
sg64
(lp4604
S'view'
p4605
asbag57
(g78
g59
NtRp4606
(dp4607
g62
(dp4608
g89
g90
ssg71
g4597
sg64
(lp4609
S':'
asbag57
(g78
g59
NtRp4610
(dp4611
g62
(dp4612
sg71
g4597
sg64
(lp4613
g57
(g58
g59
NtRp4614
(dp4615
g62
(dp4616
g70
I5
ssg71
g4610
sg64
(lp4617
S'default/index.html'
p4618
asbasbasbasbasbsS'locals'
p4619
(dp4620
ssS'traceback'
p4621
S'Traceback (most recent call last):\n  File "/usr/lib/pymodules/python2.7/gluon/restricted.py", line 204, in restricted\n    exec ccode in environment\n  File "/home/unic/web2py/applications/manager/controllers/default.py", line 261, in <module>\n  File "/usr/lib/pymodules/python2.7/gluon/globals.py", line 172, in <lambda>\n    self._caller = lambda f: f()\n  File "/home/unic/web2py/applications/manager/controllers/default.py", line 14, in index\n    name=session.token.split(\'@\')[0]\nAttributeError: \'NoneType\' object has no attribute \'split\'\n'
p4622
s.