(dp1
S'output'
p2
S"<type 'exceptions.IndentationError'> unexpected indent (cas.py, line 25)"
p3
sS'layer'
p4
S'/home/unic/web2py/applications/manager/models/cas.py'
p5
sS'code'
p6
S'import gluon.storage\n\n### this the CAS object used to acces a CAS serive client side\nCAS=gluon.storage.Storage()\n\ndef _CAS_login(request):\n    """\n    exposed as CAS.login(request)\n    returns a token on success, None on failed authentication\n    """\n    CAS.ticket=request.vars.ticket\n    import urllib\n    import httplib\n    if not request.vars.ticket:\n        redirect("%(login_url)s?service=%(my_url)s" % CAS)\n    else:\n        url="%(check_url)s?service=%(my_url)s&ticket=%(ticket)s" % CAS\n    hostname = \'login.iiit.ac.in\'\n    conn = httplib.HTTPSConnection(hostname)\n    conn.putrequest(\'GET\',url.split(\'login.iiit.ac.in\')[1])\n    conn.endheaders()\n    data = conn.getresponse()\n    data = data.read()\n    data = data.split(\'\\n\')\n        if ( data[0] == "yes" ) :\n        return data[1]\n    return None\n\ndef _CAS_logout():\n    """\n    exposed CAS.logout()\n    redirects to the CAS logout page\n    """\n    import urllib\n    redirect("%(logout_url)s?service=%(my_url)s" % CAS)\n\nCAS.login=lambda r=request: _CAS_login(r)\nCAS.logout=lambda: _CAS_logout()\n\n### Parameters for the CAS serivice, these should be customized by the user\n\nHOST=request.env.http_x_forwarded_for\nif not HOST: HOST=request.env.http_host\n### the CAS service login URL\nCAS.login_url=\'http://%s/%s/cas/login\' % (HOST,request.application)\n### the CAS service check URL\nCAS.check_url=\'http://%s/%s/cas/check\' % (HOST,request.application)\n### the CAS service logout URL\nCAS.logout_url=\'http://%s/%s/cas/logout\' % (HOST,request.application)\n### the URL to return to after login\nCAS.my_url=\'http://%s%s\' % (HOST,request.env.path_info)\n### this is the URL used to confirm and email address\nCAS.verify_url=\'http://%s/%s/cas/verify\' % (HOST,request.application)\n'
p7
sS'snapshot'
p8
(dp9
S'exception'
p10
(dp11
S'__getslice__'
p12
S"<method-wrapper '__getslice__' of exceptions.IndentationError object>"
p13
sS'text'
p14
S'\'        if ( data[0] == "yes" ) :\\n\''
p15
sS'__str__'
p16
S"<method-wrapper '__str__' of exceptions.IndentationError object>"
p17
sS'__reduce__'
p18
S'<built-in method __reduce__ of exceptions.IndentationError object>'
p19
sS'__dict__'
p20
S'{}'
p21
sS'__sizeof__'
p22
S'<built-in method __sizeof__ of exceptions.IndentationError object>'
p23
sS'__init__'
p24
S"<method-wrapper '__init__' of exceptions.IndentationError object>"
p25
sS'__setattr__'
p26
S"<method-wrapper '__setattr__' of exceptions.IndentationError object>"
p27
sS'__reduce_ex__'
p28
S'<built-in method __reduce_ex__ of exceptions.IndentationError object>'
p29
sS'__new__'
p30
S'<built-in method __new__ of type object>'
p31
sS'__format__'
p32
S'<built-in method __format__ of exceptions.IndentationError object>'
p33
sS'__class__'
p34
S"<type 'exceptions.IndentationError'>"
p35
sS'filename'
p36
S"'/home/unic/web2py/applications/manager/models/cas.py'"
p37
sS'lineno'
p38
S'25'
p39
sS'msg'
p40
S"'unexpected indent'"
p41
sS'__doc__'
p42
S"'Improper indentation.'"
p43
sS'__getitem__'
p44
S"<method-wrapper '__getitem__' of exceptions.IndentationError object>"
p45
sS'__setstate__'
p46
S'<built-in method __setstate__ of exceptions.IndentationError object>'
p47
sS'__getattribute__'
p48
S"<method-wrapper '__getattribute__' of exceptions.IndentationError object>"
p49
sS'print_file_and_line'
p50
S'None'
p51
sS'args'
p52
S'(\'unexpected indent\', (\'/home/unic/web2py/applications/manager/models/cas.py\', 25, 8, \'        if ( data[0] == "yes" ) :\\n\'))'
p53
sS'__subclasshook__'
p54
S'<built-in method __subclasshook__ of type object>'
p55
sS'offset'
p56
S'8'
sS'__unicode__'
p57
S'<built-in method __unicode__ of exceptions.IndentationError object>'
p58
sS'__delattr__'
p59
S"<method-wrapper '__delattr__' of exceptions.IndentationError object>"
p60
sS'__repr__'
p61
S"<method-wrapper '__repr__' of exceptions.IndentationError object>"
p62
sS'__hash__'
p63
S"<method-wrapper '__hash__' of exceptions.IndentationError object>"
p64
ssS'evalue'
p65
S'unexpected indent (cas.py, line 25)'
p66
sS'request'
p67
ccopy_reg
_reconstructor
p68
(cgluon.html
BEAUTIFY
p69
c__builtin__
object
p70
NtRp71
(dp72
S'attributes'
p73
(dp74
sS'components'
p75
(lp76
g68
(cgluon.html
TABLE
p77
g70
NtRp78
(dp79
g73
(dp80
S'level'
p81
I5
ssS'parent'
p82
Nsg75
(lp83
g68
(cgluon.html
TR
p84
g70
NtRp85
(dp86
g73
(dp87
sg82
g78
sg75
(lp88
g68
(cgluon.html
TD
p89
g70
NtRp90
(dp91
g73
(dp92
S'_style'
p93
S'font-weight:bold;vertical-align:top'
p94
ssg82
g85
sg75
(lp95
S'ajax'
p96
asbag68
(g89
g70
NtRp97
(dp98
g73
(dp99
S'_valign'
p100
S'top'
p101
ssg82
g85
sg75
(lp102
S':'
asbag68
(g89
g70
NtRp103
(dp104
g73
(dp105
sg82
g85
sg75
(lp106
g68
(g69
g70
NtRp107
(dp108
g73
(dp109
g81
I5
ssg82
g103
sg75
(lp110
S'False'
p111
asbasbasbag68
(g84
g70
NtRp112
(dp113
g73
(dp114
sg82
g78
sg75
(lp115
g68
(g89
g70
NtRp116
(dp117
g73
(dp118
g93
g94
ssg82
g112
sg75
(lp119
S'application'
p120
asbag68
(g89
g70
NtRp121
(dp122
g73
(dp123
g100
g101
ssg82
g112
sg75
(lp124
S':'
asbag68
(g89
g70
NtRp125
(dp126
g73
(dp127
sg82
g112
sg75
(lp128
g68
(g69
g70
NtRp129
(dp130
g73
(dp131
g81
I5
ssg82
g125
sg75
(lp132
S'manager'
p133
asbasbasbag68
(g84
g70
NtRp134
(dp135
g73
(dp136
sg82
g78
sg75
(lp137
g68
(g89
g70
NtRp138
(dp139
g73
(dp140
g93
g94
ssg82
g134
sg75
(lp141
g52
asbag68
(g89
g70
NtRp142
(dp143
g73
(dp144
g100
g101
ssg82
g134
sg75
(lp145
S':'
asbag68
(g89
g70
NtRp146
(dp147
g73
(dp148
sg82
g134
sg75
(lp149
g68
(g69
g70
NtRp150
(dp151
g73
(dp152
g81
I5
ssg82
g146
sg75
(lp153
g68
(g77
g70
NtRp154
(dp155
g73
(dp156
g81
I4
ssg82
Nsg75
(lp157
sbasbasbasbag68
(g84
g70
NtRp158
(dp159
g73
(dp160
sg82
g78
sg75
(lp161
g68
(g89
g70
NtRp162
(dp163
g73
(dp164
g93
g94
ssg82
g158
sg75
(lp165
S'body'
p166
asbag68
(g89
g70
NtRp167
(dp168
g73
(dp169
g100
g101
ssg82
g158
sg75
(lp170
S':'
asbag68
(g89
g70
NtRp171
(dp172
g73
(dp173
sg82
g158
sg75
(lp174
g68
(g69
g70
NtRp175
(dp176
g73
(dp177
g81
I5
ssg82
g171
sg75
(lp178
S'<cStringIO.StringO object at 0xaaa373a0>'
p179
asbasbasbag68
(g84
g70
NtRp180
(dp181
g73
(dp182
sg82
g78
sg75
(lp183
g68
(g89
g70
NtRp184
(dp185
g73
(dp186
g93
g94
ssg82
g180
sg75
(lp187
S'client'
p188
asbag68
(g89
g70
NtRp189
(dp190
g73
(dp191
g100
g101
ssg82
g180
sg75
(lp192
S':'
asbag68
(g89
g70
NtRp193
(dp194
g73
(dp195
sg82
g180
sg75
(lp196
g68
(g69
g70
NtRp197
(dp198
g73
(dp199
g81
I5
ssg82
g193
sg75
(lp200
S'127.0.0.1'
p201
asbasbasbag68
(g84
g70
NtRp202
(dp203
g73
(dp204
sg82
g78
sg75
(lp205
g68
(g89
g70
NtRp206
(dp207
g73
(dp208
g93
g94
ssg82
g202
sg75
(lp209
S'controller'
p210
asbag68
(g89
g70
NtRp211
(dp212
g73
(dp213
g100
g101
ssg82
g202
sg75
(lp214
S':'
asbag68
(g89
g70
NtRp215
(dp216
g73
(dp217
sg82
g202
sg75
(lp218
g68
(g69
g70
NtRp219
(dp220
g73
(dp221
g81
I5
ssg82
g215
sg75
(lp222
S'default'
p223
asbasbasbag68
(g84
g70
NtRp224
(dp225
g73
(dp226
sg82
g78
sg75
(lp227
g68
(g89
g70
NtRp228
(dp229
g73
(dp230
g93
g94
ssg82
g224
sg75
(lp231
S'cookies'
p232
asbag68
(g89
g70
NtRp233
(dp234
g73
(dp235
g100
g101
ssg82
g224
sg75
(lp236
S':'
asbag68
(g89
g70
NtRp237
(dp238
g73
(dp239
sg82
g224
sg75
(lp240
g68
(g69
g70
NtRp241
(dp242
g73
(dp243
g81
I5
ssg82
g237
sg75
(lp244
g68
(g77
g70
NtRp245
(dp246
g73
(dp247
g81
I4
ssg82
Nsg75
(lp248
g68
(g84
g70
NtRp249
(dp250
g73
(dp251
sg82
g245
sg75
(lp252
g68
(g89
g70
NtRp253
(dp254
g73
(dp255
g93
g94
ssg82
g249
sg75
(lp256
S'session_id_admin'
p257
asbag68
(g89
g70
NtRp258
(dp259
g73
(dp260
g100
g101
ssg82
g249
sg75
(lp261
S':'
asbag68
(g89
g70
NtRp262
(dp263
g73
(dp264
sg82
g249
sg75
(lp265
g68
(g69
g70
NtRp266
(dp267
g73
(dp268
g81
I4
ssg82
g262
sg75
(lp269
g68
(g77
g70
NtRp270
(dp271
g73
(dp272
g81
I3
ssg82
Nsg75
(lp273
g68
(g84
g70
NtRp274
(dp275
g73
(dp276
sg82
g270
sg75
(lp277
g68
(g89
g70
NtRp278
(dp279
g73
(dp280
g93
g94
ssg82
g274
sg75
(lp281
S'comment'
p282
asbag68
(g89
g70
NtRp283
(dp284
g73
(dp285
g100
g101
ssg82
g274
sg75
(lp286
S':'
asbag68
(g89
g70
NtRp287
(dp288
g73
(dp289
sg82
g274
sg75
(lp290
g68
(g69
g70
NtRp291
(dp292
g73
(dp293
g81
I3
ssg82
g287
sg75
(lp294
S''
asbasbasbag68
(g84
g70
NtRp295
(dp296
g73
(dp297
sg82
g270
sg75
(lp298
g68
(g89
g70
NtRp299
(dp300
g73
(dp301
g93
g94
ssg82
g295
sg75
(lp302
S'domain'
p303
asbag68
(g89
g70
NtRp304
(dp305
g73
(dp306
g100
g101
ssg82
g295
sg75
(lp307
S':'
asbag68
(g89
g70
NtRp308
(dp309
g73
(dp310
sg82
g295
sg75
(lp311
g68
(g69
g70
NtRp312
(dp313
g73
(dp314
g81
I3
ssg82
g308
sg75
(lp315
S''
asbasbasbag68
(g84
g70
NtRp316
(dp317
g73
(dp318
sg82
g270
sg75
(lp319
g68
(g89
g70
NtRp320
(dp321
g73
(dp322
g93
g94
ssg82
g316
sg75
(lp323
S'expires'
p324
asbag68
(g89
g70
NtRp325
(dp326
g73
(dp327
g100
g101
ssg82
g316
sg75
(lp328
S':'
asbag68
(g89
g70
NtRp329
(dp330
g73
(dp331
sg82
g316
sg75
(lp332
g68
(g69
g70
NtRp333
(dp334
g73
(dp335
g81
I3
ssg82
g329
sg75
(lp336
S''
asbasbasbag68
(g84
g70
NtRp337
(dp338
g73
(dp339
sg82
g270
sg75
(lp340
g68
(g89
g70
NtRp341
(dp342
g73
(dp343
g93
g94
ssg82
g337
sg75
(lp344
S'httponly'
p345
asbag68
(g89
g70
NtRp346
(dp347
g73
(dp348
g100
g101
ssg82
g337
sg75
(lp349
S':'
asbag68
(g89
g70
NtRp350
(dp351
g73
(dp352
sg82
g337
sg75
(lp353
g68
(g69
g70
NtRp354
(dp355
g73
(dp356
g81
I3
ssg82
g350
sg75
(lp357
S''
asbasbasbag68
(g84
g70
NtRp358
(dp359
g73
(dp360
sg82
g270
sg75
(lp361
g68
(g89
g70
NtRp362
(dp363
g73
(dp364
g93
g94
ssg82
g358
sg75
(lp365
S'max-age'
p366
asbag68
(g89
g70
NtRp367
(dp368
g73
(dp369
g100
g101
ssg82
g358
sg75
(lp370
S':'
asbag68
(g89
g70
NtRp371
(dp372
g73
(dp373
sg82
g358
sg75
(lp374
g68
(g69
g70
NtRp375
(dp376
g73
(dp377
g81
I3
ssg82
g371
sg75
(lp378
S''
asbasbasbag68
(g84
g70
NtRp379
(dp380
g73
(dp381
sg82
g270
sg75
(lp382
g68
(g89
g70
NtRp383
(dp384
g73
(dp385
g93
g94
ssg82
g379
sg75
(lp386
S'path'
p387
asbag68
(g89
g70
NtRp388
(dp389
g73
(dp390
g100
g101
ssg82
g379
sg75
(lp391
S':'
asbag68
(g89
g70
NtRp392
(dp393
g73
(dp394
sg82
g379
sg75
(lp395
g68
(g69
g70
NtRp396
(dp397
g73
(dp398
g81
I3
ssg82
g392
sg75
(lp399
S''
asbasbasbag68
(g84
g70
NtRp400
(dp401
g73
(dp402
sg82
g270
sg75
(lp403
g68
(g89
g70
NtRp404
(dp405
g73
(dp406
g93
g94
ssg82
g400
sg75
(lp407
S'secure'
p408
asbag68
(g89
g70
NtRp409
(dp410
g73
(dp411
g100
g101
ssg82
g400
sg75
(lp412
S':'
asbag68
(g89
g70
NtRp413
(dp414
g73
(dp415
sg82
g400
sg75
(lp416
g68
(g69
g70
NtRp417
(dp418
g73
(dp419
g81
I3
ssg82
g413
sg75
(lp420
S''
asbasbasbag68
(g84
g70
NtRp421
(dp422
g73
(dp423
sg82
g270
sg75
(lp424
g68
(g89
g70
NtRp425
(dp426
g73
(dp427
g93
g94
ssg82
g421
sg75
(lp428
S'version'
p429
asbag68
(g89
g70
NtRp430
(dp431
g73
(dp432
g100
g101
ssg82
g421
sg75
(lp433
S':'
asbag68
(g89
g70
NtRp434
(dp435
g73
(dp436
sg82
g421
sg75
(lp437
g68
(g69
g70
NtRp438
(dp439
g73
(dp440
g81
I3
ssg82
g434
sg75
(lp441
S''
asbasbasbasbasbasbasbag68
(g84
g70
NtRp442
(dp443
g73
(dp444
sg82
g245
sg75
(lp445
g68
(g89
g70
NtRp446
(dp447
g73
(dp448
g93
g94
ssg82
g442
sg75
(lp449
S'session_id_award_cas'
p450
asbag68
(g89
g70
NtRp451
(dp452
g73
(dp453
g100
g101
ssg82
g442
sg75
(lp454
S':'
asbag68
(g89
g70
NtRp455
(dp456
g73
(dp457
sg82
g442
sg75
(lp458
g68
(g69
g70
NtRp459
(dp460
g73
(dp461
g81
I4
ssg82
g455
sg75
(lp462
g68
(g77
g70
NtRp463
(dp464
g73
(dp465
g81
I3
ssg82
Nsg75
(lp466
g68
(g84
g70
NtRp467
(dp468
g73
(dp469
sg82
g463
sg75
(lp470
g68
(g89
g70
NtRp471
(dp472
g73
(dp473
g93
g94
ssg82
g467
sg75
(lp474
g282
asbag68
(g89
g70
NtRp475
(dp476
g73
(dp477
g100
g101
ssg82
g467
sg75
(lp478
S':'
asbag68
(g89
g70
NtRp479
(dp480
g73
(dp481
sg82
g467
sg75
(lp482
g68
(g69
g70
NtRp483
(dp484
g73
(dp485
g81
I3
ssg82
g479
sg75
(lp486
S''
asbasbasbag68
(g84
g70
NtRp487
(dp488
g73
(dp489
sg82
g463
sg75
(lp490
g68
(g89
g70
NtRp491
(dp492
g73
(dp493
g93
g94
ssg82
g487
sg75
(lp494
g303
asbag68
(g89
g70
NtRp495
(dp496
g73
(dp497
g100
g101
ssg82
g487
sg75
(lp498
S':'
asbag68
(g89
g70
NtRp499
(dp500
g73
(dp501
sg82
g487
sg75
(lp502
g68
(g69
g70
NtRp503
(dp504
g73
(dp505
g81
I3
ssg82
g499
sg75
(lp506
S''
asbasbasbag68
(g84
g70
NtRp507
(dp508
g73
(dp509
sg82
g463
sg75
(lp510
g68
(g89
g70
NtRp511
(dp512
g73
(dp513
g93
g94
ssg82
g507
sg75
(lp514
g324
asbag68
(g89
g70
NtRp515
(dp516
g73
(dp517
g100
g101
ssg82
g507
sg75
(lp518
S':'
asbag68
(g89
g70
NtRp519
(dp520
g73
(dp521
sg82
g507
sg75
(lp522
g68
(g69
g70
NtRp523
(dp524
g73
(dp525
g81
I3
ssg82
g519
sg75
(lp526
S''
asbasbasbag68
(g84
g70
NtRp527
(dp528
g73
(dp529
sg82
g463
sg75
(lp530
g68
(g89
g70
NtRp531
(dp532
g73
(dp533
g93
g94
ssg82
g527
sg75
(lp534
g345
asbag68
(g89
g70
NtRp535
(dp536
g73
(dp537
g100
g101
ssg82
g527
sg75
(lp538
S':'
asbag68
(g89
g70
NtRp539
(dp540
g73
(dp541
sg82
g527
sg75
(lp542
g68
(g69
g70
NtRp543
(dp544
g73
(dp545
g81
I3
ssg82
g539
sg75
(lp546
S''
asbasbasbag68
(g84
g70
NtRp547
(dp548
g73
(dp549
sg82
g463
sg75
(lp550
g68
(g89
g70
NtRp551
(dp552
g73
(dp553
g93
g94
ssg82
g547
sg75
(lp554
g366
asbag68
(g89
g70
NtRp555
(dp556
g73
(dp557
g100
g101
ssg82
g547
sg75
(lp558
S':'
asbag68
(g89
g70
NtRp559
(dp560
g73
(dp561
sg82
g547
sg75
(lp562
g68
(g69
g70
NtRp563
(dp564
g73
(dp565
g81
I3
ssg82
g559
sg75
(lp566
S''
asbasbasbag68
(g84
g70
NtRp567
(dp568
g73
(dp569
sg82
g463
sg75
(lp570
g68
(g89
g70
NtRp571
(dp572
g73
(dp573
g93
g94
ssg82
g567
sg75
(lp574
g387
asbag68
(g89
g70
NtRp575
(dp576
g73
(dp577
g100
g101
ssg82
g567
sg75
(lp578
S':'
asbag68
(g89
g70
NtRp579
(dp580
g73
(dp581
sg82
g567
sg75
(lp582
g68
(g69
g70
NtRp583
(dp584
g73
(dp585
g81
I3
ssg82
g579
sg75
(lp586
S''
asbasbasbag68
(g84
g70
NtRp587
(dp588
g73
(dp589
sg82
g463
sg75
(lp590
g68
(g89
g70
NtRp591
(dp592
g73
(dp593
g93
g94
ssg82
g587
sg75
(lp594
g408
asbag68
(g89
g70
NtRp595
(dp596
g73
(dp597
g100
g101
ssg82
g587
sg75
(lp598
S':'
asbag68
(g89
g70
NtRp599
(dp600
g73
(dp601
sg82
g587
sg75
(lp602
g68
(g69
g70
NtRp603
(dp604
g73
(dp605
g81
I3
ssg82
g599
sg75
(lp606
S''
asbasbasbag68
(g84
g70
NtRp607
(dp608
g73
(dp609
sg82
g463
sg75
(lp610
g68
(g89
g70
NtRp611
(dp612
g73
(dp613
g93
g94
ssg82
g607
sg75
(lp614
g429
asbag68
(g89
g70
NtRp615
(dp616
g73
(dp617
g100
g101
ssg82
g607
sg75
(lp618
S':'
asbag68
(g89
g70
NtRp619
(dp620
g73
(dp621
sg82
g607
sg75
(lp622
g68
(g69
g70
NtRp623
(dp624
g73
(dp625
g81
I3
ssg82
g619
sg75
(lp626
S''
asbasbasbasbasbasbasbag68
(g84
g70
NtRp627
(dp628
g73
(dp629
sg82
g245
sg75
(lp630
g68
(g89
g70
NtRp631
(dp632
g73
(dp633
g93
g94
ssg82
g627
sg75
(lp634
S'session_id_award_manager'
p635
asbag68
(g89
g70
NtRp636
(dp637
g73
(dp638
g100
g101
ssg82
g627
sg75
(lp639
S':'
asbag68
(g89
g70
NtRp640
(dp641
g73
(dp642
sg82
g627
sg75
(lp643
g68
(g69
g70
NtRp644
(dp645
g73
(dp646
g81
I4
ssg82
g640
sg75
(lp647
g68
(g77
g70
NtRp648
(dp649
g73
(dp650
g81
I3
ssg82
Nsg75
(lp651
g68
(g84
g70
NtRp652
(dp653
g73
(dp654
sg82
g648
sg75
(lp655
g68
(g89
g70
NtRp656
(dp657
g73
(dp658
g93
g94
ssg82
g652
sg75
(lp659
g282
asbag68
(g89
g70
NtRp660
(dp661
g73
(dp662
g100
g101
ssg82
g652
sg75
(lp663
S':'
asbag68
(g89
g70
NtRp664
(dp665
g73
(dp666
sg82
g652
sg75
(lp667
g68
(g69
g70
NtRp668
(dp669
g73
(dp670
g81
I3
ssg82
g664
sg75
(lp671
S''
asbasbasbag68
(g84
g70
NtRp672
(dp673
g73
(dp674
sg82
g648
sg75
(lp675
g68
(g89
g70
NtRp676
(dp677
g73
(dp678
g93
g94
ssg82
g672
sg75
(lp679
g303
asbag68
(g89
g70
NtRp680
(dp681
g73
(dp682
g100
g101
ssg82
g672
sg75
(lp683
S':'
asbag68
(g89
g70
NtRp684
(dp685
g73
(dp686
sg82
g672
sg75
(lp687
g68
(g69
g70
NtRp688
(dp689
g73
(dp690
g81
I3
ssg82
g684
sg75
(lp691
S''
asbasbasbag68
(g84
g70
NtRp692
(dp693
g73
(dp694
sg82
g648
sg75
(lp695
g68
(g89
g70
NtRp696
(dp697
g73
(dp698
g93
g94
ssg82
g692
sg75
(lp699
g324
asbag68
(g89
g70
NtRp700
(dp701
g73
(dp702
g100
g101
ssg82
g692
sg75
(lp703
S':'
asbag68
(g89
g70
NtRp704
(dp705
g73
(dp706
sg82
g692
sg75
(lp707
g68
(g69
g70
NtRp708
(dp709
g73
(dp710
g81
I3
ssg82
g704
sg75
(lp711
S''
asbasbasbag68
(g84
g70
NtRp712
(dp713
g73
(dp714
sg82
g648
sg75
(lp715
g68
(g89
g70
NtRp716
(dp717
g73
(dp718
g93
g94
ssg82
g712
sg75
(lp719
g345
asbag68
(g89
g70
NtRp720
(dp721
g73
(dp722
g100
g101
ssg82
g712
sg75
(lp723
S':'
asbag68
(g89
g70
NtRp724
(dp725
g73
(dp726
sg82
g712
sg75
(lp727
g68
(g69
g70
NtRp728
(dp729
g73
(dp730
g81
I3
ssg82
g724
sg75
(lp731
S''
asbasbasbag68
(g84
g70
NtRp732
(dp733
g73
(dp734
sg82
g648
sg75
(lp735
g68
(g89
g70
NtRp736
(dp737
g73
(dp738
g93
g94
ssg82
g732
sg75
(lp739
g366
asbag68
(g89
g70
NtRp740
(dp741
g73
(dp742
g100
g101
ssg82
g732
sg75
(lp743
S':'
asbag68
(g89
g70
NtRp744
(dp745
g73
(dp746
sg82
g732
sg75
(lp747
g68
(g69
g70
NtRp748
(dp749
g73
(dp750
g81
I3
ssg82
g744
sg75
(lp751
S''
asbasbasbag68
(g84
g70
NtRp752
(dp753
g73
(dp754
sg82
g648
sg75
(lp755
g68
(g89
g70
NtRp756
(dp757
g73
(dp758
g93
g94
ssg82
g752
sg75
(lp759
g387
asbag68
(g89
g70
NtRp760
(dp761
g73
(dp762
g100
g101
ssg82
g752
sg75
(lp763
S':'
asbag68
(g89
g70
NtRp764
(dp765
g73
(dp766
sg82
g752
sg75
(lp767
g68
(g69
g70
NtRp768
(dp769
g73
(dp770
g81
I3
ssg82
g764
sg75
(lp771
S''
asbasbasbag68
(g84
g70
NtRp772
(dp773
g73
(dp774
sg82
g648
sg75
(lp775
g68
(g89
g70
NtRp776
(dp777
g73
(dp778
g93
g94
ssg82
g772
sg75
(lp779
g408
asbag68
(g89
g70
NtRp780
(dp781
g73
(dp782
g100
g101
ssg82
g772
sg75
(lp783
S':'
asbag68
(g89
g70
NtRp784
(dp785
g73
(dp786
sg82
g772
sg75
(lp787
g68
(g69
g70
NtRp788
(dp789
g73
(dp790
g81
I3
ssg82
g784
sg75
(lp791
S''
asbasbasbag68
(g84
g70
NtRp792
(dp793
g73
(dp794
sg82
g648
sg75
(lp795
g68
(g89
g70
NtRp796
(dp797
g73
(dp798
g93
g94
ssg82
g792
sg75
(lp799
g429
asbag68
(g89
g70
NtRp800
(dp801
g73
(dp802
g100
g101
ssg82
g792
sg75
(lp803
S':'
asbag68
(g89
g70
NtRp804
(dp805
g73
(dp806
sg82
g792
sg75
(lp807
g68
(g69
g70
NtRp808
(dp809
g73
(dp810
g81
I3
ssg82
g804
sg75
(lp811
S''
asbasbasbasbasbasbasbag68
(g84
g70
NtRp812
(dp813
g73
(dp814
sg82
g245
sg75
(lp815
g68
(g89
g70
NtRp816
(dp817
g73
(dp818
g93
g94
ssg82
g812
sg75
(lp819
S'session_id_maddy'
p820
asbag68
(g89
g70
NtRp821
(dp822
g73
(dp823
g100
g101
ssg82
g812
sg75
(lp824
S':'
asbag68
(g89
g70
NtRp825
(dp826
g73
(dp827
sg82
g812
sg75
(lp828
g68
(g69
g70
NtRp829
(dp830
g73
(dp831
g81
I4
ssg82
g825
sg75
(lp832
g68
(g77
g70
NtRp833
(dp834
g73
(dp835
g81
I3
ssg82
Nsg75
(lp836
g68
(g84
g70
NtRp837
(dp838
g73
(dp839
sg82
g833
sg75
(lp840
g68
(g89
g70
NtRp841
(dp842
g73
(dp843
g93
g94
ssg82
g837
sg75
(lp844
g282
asbag68
(g89
g70
NtRp845
(dp846
g73
(dp847
g100
g101
ssg82
g837
sg75
(lp848
S':'
asbag68
(g89
g70
NtRp849
(dp850
g73
(dp851
sg82
g837
sg75
(lp852
g68
(g69
g70
NtRp853
(dp854
g73
(dp855
g81
I3
ssg82
g849
sg75
(lp856
S''
asbasbasbag68
(g84
g70
NtRp857
(dp858
g73
(dp859
sg82
g833
sg75
(lp860
g68
(g89
g70
NtRp861
(dp862
g73
(dp863
g93
g94
ssg82
g857
sg75
(lp864
g303
asbag68
(g89
g70
NtRp865
(dp866
g73
(dp867
g100
g101
ssg82
g857
sg75
(lp868
S':'
asbag68
(g89
g70
NtRp869
(dp870
g73
(dp871
sg82
g857
sg75
(lp872
g68
(g69
g70
NtRp873
(dp874
g73
(dp875
g81
I3
ssg82
g869
sg75
(lp876
S''
asbasbasbag68
(g84
g70
NtRp877
(dp878
g73
(dp879
sg82
g833
sg75
(lp880
g68
(g89
g70
NtRp881
(dp882
g73
(dp883
g93
g94
ssg82
g877
sg75
(lp884
g324
asbag68
(g89
g70
NtRp885
(dp886
g73
(dp887
g100
g101
ssg82
g877
sg75
(lp888
S':'
asbag68
(g89
g70
NtRp889
(dp890
g73
(dp891
sg82
g877
sg75
(lp892
g68
(g69
g70
NtRp893
(dp894
g73
(dp895
g81
I3
ssg82
g889
sg75
(lp896
S''
asbasbasbag68
(g84
g70
NtRp897
(dp898
g73
(dp899
sg82
g833
sg75
(lp900
g68
(g89
g70
NtRp901
(dp902
g73
(dp903
g93
g94
ssg82
g897
sg75
(lp904
g345
asbag68
(g89
g70
NtRp905
(dp906
g73
(dp907
g100
g101
ssg82
g897
sg75
(lp908
S':'
asbag68
(g89
g70
NtRp909
(dp910
g73
(dp911
sg82
g897
sg75
(lp912
g68
(g69
g70
NtRp913
(dp914
g73
(dp915
g81
I3
ssg82
g909
sg75
(lp916
S''
asbasbasbag68
(g84
g70
NtRp917
(dp918
g73
(dp919
sg82
g833
sg75
(lp920
g68
(g89
g70
NtRp921
(dp922
g73
(dp923
g93
g94
ssg82
g917
sg75
(lp924
g366
asbag68
(g89
g70
NtRp925
(dp926
g73
(dp927
g100
g101
ssg82
g917
sg75
(lp928
S':'
asbag68
(g89
g70
NtRp929
(dp930
g73
(dp931
sg82
g917
sg75
(lp932
g68
(g69
g70
NtRp933
(dp934
g73
(dp935
g81
I3
ssg82
g929
sg75
(lp936
S''
asbasbasbag68
(g84
g70
NtRp937
(dp938
g73
(dp939
sg82
g833
sg75
(lp940
g68
(g89
g70
NtRp941
(dp942
g73
(dp943
g93
g94
ssg82
g937
sg75
(lp944
g387
asbag68
(g89
g70
NtRp945
(dp946
g73
(dp947
g100
g101
ssg82
g937
sg75
(lp948
S':'
asbag68
(g89
g70
NtRp949
(dp950
g73
(dp951
sg82
g937
sg75
(lp952
g68
(g69
g70
NtRp953
(dp954
g73
(dp955
g81
I3
ssg82
g949
sg75
(lp956
S''
asbasbasbag68
(g84
g70
NtRp957
(dp958
g73
(dp959
sg82
g833
sg75
(lp960
g68
(g89
g70
NtRp961
(dp962
g73
(dp963
g93
g94
ssg82
g957
sg75
(lp964
g408
asbag68
(g89
g70
NtRp965
(dp966
g73
(dp967
g100
g101
ssg82
g957
sg75
(lp968
S':'
asbag68
(g89
g70
NtRp969
(dp970
g73
(dp971
sg82
g957
sg75
(lp972
g68
(g69
g70
NtRp973
(dp974
g73
(dp975
g81
I3
ssg82
g969
sg75
(lp976
S''
asbasbasbag68
(g84
g70
NtRp977
(dp978
g73
(dp979
sg82
g833
sg75
(lp980
g68
(g89
g70
NtRp981
(dp982
g73
(dp983
g93
g94
ssg82
g977
sg75
(lp984
g429
asbag68
(g89
g70
NtRp985
(dp986
g73
(dp987
g100
g101
ssg82
g977
sg75
(lp988
S':'
asbag68
(g89
g70
NtRp989
(dp990
g73
(dp991
sg82
g977
sg75
(lp992
g68
(g69
g70
NtRp993
(dp994
g73
(dp995
g81
I3
ssg82
g989
sg75
(lp996
S''
asbasbasbasbasbasbasbag68
(g84
g70
NtRp997
(dp998
g73
(dp999
sg82
g245
sg75
(lp1000
g68
(g89
g70
NtRp1001
(dp1002
g73
(dp1003
g93
g94
ssg82
g997
sg75
(lp1004
S'session_id_manager'
p1005
asbag68
(g89
g70
NtRp1006
(dp1007
g73
(dp1008
g100
g101
ssg82
g997
sg75
(lp1009
S':'
asbag68
(g89
g70
NtRp1010
(dp1011
g73
(dp1012
sg82
g997
sg75
(lp1013
g68
(g69
g70
NtRp1014
(dp1015
g73
(dp1016
g81
I4
ssg82
g1010
sg75
(lp1017
g68
(g77
g70
NtRp1018
(dp1019
g73
(dp1020
g81
I3
ssg82
Nsg75
(lp1021
g68
(g84
g70
NtRp1022
(dp1023
g73
(dp1024
sg82
g1018
sg75
(lp1025
g68
(g89
g70
NtRp1026
(dp1027
g73
(dp1028
g93
g94
ssg82
g1022
sg75
(lp1029
g282
asbag68
(g89
g70
NtRp1030
(dp1031
g73
(dp1032
g100
g101
ssg82
g1022
sg75
(lp1033
S':'
asbag68
(g89
g70
NtRp1034
(dp1035
g73
(dp1036
sg82
g1022
sg75
(lp1037
g68
(g69
g70
NtRp1038
(dp1039
g73
(dp1040
g81
I3
ssg82
g1034
sg75
(lp1041
S''
asbasbasbag68
(g84
g70
NtRp1042
(dp1043
g73
(dp1044
sg82
g1018
sg75
(lp1045
g68
(g89
g70
NtRp1046
(dp1047
g73
(dp1048
g93
g94
ssg82
g1042
sg75
(lp1049
g303
asbag68
(g89
g70
NtRp1050
(dp1051
g73
(dp1052
g100
g101
ssg82
g1042
sg75
(lp1053
S':'
asbag68
(g89
g70
NtRp1054
(dp1055
g73
(dp1056
sg82
g1042
sg75
(lp1057
g68
(g69
g70
NtRp1058
(dp1059
g73
(dp1060
g81
I3
ssg82
g1054
sg75
(lp1061
S''
asbasbasbag68
(g84
g70
NtRp1062
(dp1063
g73
(dp1064
sg82
g1018
sg75
(lp1065
g68
(g89
g70
NtRp1066
(dp1067
g73
(dp1068
g93
g94
ssg82
g1062
sg75
(lp1069
g324
asbag68
(g89
g70
NtRp1070
(dp1071
g73
(dp1072
g100
g101
ssg82
g1062
sg75
(lp1073
S':'
asbag68
(g89
g70
NtRp1074
(dp1075
g73
(dp1076
sg82
g1062
sg75
(lp1077
g68
(g69
g70
NtRp1078
(dp1079
g73
(dp1080
g81
I3
ssg82
g1074
sg75
(lp1081
S''
asbasbasbag68
(g84
g70
NtRp1082
(dp1083
g73
(dp1084
sg82
g1018
sg75
(lp1085
g68
(g89
g70
NtRp1086
(dp1087
g73
(dp1088
g93
g94
ssg82
g1082
sg75
(lp1089
g345
asbag68
(g89
g70
NtRp1090
(dp1091
g73
(dp1092
g100
g101
ssg82
g1082
sg75
(lp1093
S':'
asbag68
(g89
g70
NtRp1094
(dp1095
g73
(dp1096
sg82
g1082
sg75
(lp1097
g68
(g69
g70
NtRp1098
(dp1099
g73
(dp1100
g81
I3
ssg82
g1094
sg75
(lp1101
S''
asbasbasbag68
(g84
g70
NtRp1102
(dp1103
g73
(dp1104
sg82
g1018
sg75
(lp1105
g68
(g89
g70
NtRp1106
(dp1107
g73
(dp1108
g93
g94
ssg82
g1102
sg75
(lp1109
g366
asbag68
(g89
g70
NtRp1110
(dp1111
g73
(dp1112
g100
g101
ssg82
g1102
sg75
(lp1113
S':'
asbag68
(g89
g70
NtRp1114
(dp1115
g73
(dp1116
sg82
g1102
sg75
(lp1117
g68
(g69
g70
NtRp1118
(dp1119
g73
(dp1120
g81
I3
ssg82
g1114
sg75
(lp1121
S''
asbasbasbag68
(g84
g70
NtRp1122
(dp1123
g73
(dp1124
sg82
g1018
sg75
(lp1125
g68
(g89
g70
NtRp1126
(dp1127
g73
(dp1128
g93
g94
ssg82
g1122
sg75
(lp1129
g387
asbag68
(g89
g70
NtRp1130
(dp1131
g73
(dp1132
g100
g101
ssg82
g1122
sg75
(lp1133
S':'
asbag68
(g89
g70
NtRp1134
(dp1135
g73
(dp1136
sg82
g1122
sg75
(lp1137
g68
(g69
g70
NtRp1138
(dp1139
g73
(dp1140
g81
I3
ssg82
g1134
sg75
(lp1141
S''
asbasbasbag68
(g84
g70
NtRp1142
(dp1143
g73
(dp1144
sg82
g1018
sg75
(lp1145
g68
(g89
g70
NtRp1146
(dp1147
g73
(dp1148
g93
g94
ssg82
g1142
sg75
(lp1149
g408
asbag68
(g89
g70
NtRp1150
(dp1151
g73
(dp1152
g100
g101
ssg82
g1142
sg75
(lp1153
S':'
asbag68
(g89
g70
NtRp1154
(dp1155
g73
(dp1156
sg82
g1142
sg75
(lp1157
g68
(g69
g70
NtRp1158
(dp1159
g73
(dp1160
g81
I3
ssg82
g1154
sg75
(lp1161
S''
asbasbasbag68
(g84
g70
NtRp1162
(dp1163
g73
(dp1164
sg82
g1018
sg75
(lp1165
g68
(g89
g70
NtRp1166
(dp1167
g73
(dp1168
g93
g94
ssg82
g1162
sg75
(lp1169
g429
asbag68
(g89
g70
NtRp1170
(dp1171
g73
(dp1172
g100
g101
ssg82
g1162
sg75
(lp1173
S':'
asbag68
(g89
g70
NtRp1174
(dp1175
g73
(dp1176
sg82
g1162
sg75
(lp1177
g68
(g69
g70
NtRp1178
(dp1179
g73
(dp1180
g81
I3
ssg82
g1174
sg75
(lp1181
S''
asbasbasbasbasbasbasbag68
(g84
g70
NtRp1182
(dp1183
g73
(dp1184
sg82
g245
sg75
(lp1185
g68
(g89
g70
NtRp1186
(dp1187
g73
(dp1188
g93
g94
ssg82
g1182
sg75
(lp1189
S'session_id_welcome'
p1190
asbag68
(g89
g70
NtRp1191
(dp1192
g73
(dp1193
g100
g101
ssg82
g1182
sg75
(lp1194
S':'
asbag68
(g89
g70
NtRp1195
(dp1196
g73
(dp1197
sg82
g1182
sg75
(lp1198
g68
(g69
g70
NtRp1199
(dp1200
g73
(dp1201
g81
I4
ssg82
g1195
sg75
(lp1202
g68
(g77
g70
NtRp1203
(dp1204
g73
(dp1205
g81
I3
ssg82
Nsg75
(lp1206
g68
(g84
g70
NtRp1207
(dp1208
g73
(dp1209
sg82
g1203
sg75
(lp1210
g68
(g89
g70
NtRp1211
(dp1212
g73
(dp1213
g93
g94
ssg82
g1207
sg75
(lp1214
g282
asbag68
(g89
g70
NtRp1215
(dp1216
g73
(dp1217
g100
g101
ssg82
g1207
sg75
(lp1218
S':'
asbag68
(g89
g70
NtRp1219
(dp1220
g73
(dp1221
sg82
g1207
sg75
(lp1222
g68
(g69
g70
NtRp1223
(dp1224
g73
(dp1225
g81
I3
ssg82
g1219
sg75
(lp1226
S''
asbasbasbag68
(g84
g70
NtRp1227
(dp1228
g73
(dp1229
sg82
g1203
sg75
(lp1230
g68
(g89
g70
NtRp1231
(dp1232
g73
(dp1233
g93
g94
ssg82
g1227
sg75
(lp1234
g303
asbag68
(g89
g70
NtRp1235
(dp1236
g73
(dp1237
g100
g101
ssg82
g1227
sg75
(lp1238
S':'
asbag68
(g89
g70
NtRp1239
(dp1240
g73
(dp1241
sg82
g1227
sg75
(lp1242
g68
(g69
g70
NtRp1243
(dp1244
g73
(dp1245
g81
I3
ssg82
g1239
sg75
(lp1246
S''
asbasbasbag68
(g84
g70
NtRp1247
(dp1248
g73
(dp1249
sg82
g1203
sg75
(lp1250
g68
(g89
g70
NtRp1251
(dp1252
g73
(dp1253
g93
g94
ssg82
g1247
sg75
(lp1254
g324
asbag68
(g89
g70
NtRp1255
(dp1256
g73
(dp1257
g100
g101
ssg82
g1247
sg75
(lp1258
S':'
asbag68
(g89
g70
NtRp1259
(dp1260
g73
(dp1261
sg82
g1247
sg75
(lp1262
g68
(g69
g70
NtRp1263
(dp1264
g73
(dp1265
g81
I3
ssg82
g1259
sg75
(lp1266
S''
asbasbasbag68
(g84
g70
NtRp1267
(dp1268
g73
(dp1269
sg82
g1203
sg75
(lp1270
g68
(g89
g70
NtRp1271
(dp1272
g73
(dp1273
g93
g94
ssg82
g1267
sg75
(lp1274
g345
asbag68
(g89
g70
NtRp1275
(dp1276
g73
(dp1277
g100
g101
ssg82
g1267
sg75
(lp1278
S':'
asbag68
(g89
g70
NtRp1279
(dp1280
g73
(dp1281
sg82
g1267
sg75
(lp1282
g68
(g69
g70
NtRp1283
(dp1284
g73
(dp1285
g81
I3
ssg82
g1279
sg75
(lp1286
S''
asbasbasbag68
(g84
g70
NtRp1287
(dp1288
g73
(dp1289
sg82
g1203
sg75
(lp1290
g68
(g89
g70
NtRp1291
(dp1292
g73
(dp1293
g93
g94
ssg82
g1287
sg75
(lp1294
g366
asbag68
(g89
g70
NtRp1295
(dp1296
g73
(dp1297
g100
g101
ssg82
g1287
sg75
(lp1298
S':'
asbag68
(g89
g70
NtRp1299
(dp1300
g73
(dp1301
sg82
g1287
sg75
(lp1302
g68
(g69
g70
NtRp1303
(dp1304
g73
(dp1305
g81
I3
ssg82
g1299
sg75
(lp1306
S''
asbasbasbag68
(g84
g70
NtRp1307
(dp1308
g73
(dp1309
sg82
g1203
sg75
(lp1310
g68
(g89
g70
NtRp1311
(dp1312
g73
(dp1313
g93
g94
ssg82
g1307
sg75
(lp1314
g387
asbag68
(g89
g70
NtRp1315
(dp1316
g73
(dp1317
g100
g101
ssg82
g1307
sg75
(lp1318
S':'
asbag68
(g89
g70
NtRp1319
(dp1320
g73
(dp1321
sg82
g1307
sg75
(lp1322
g68
(g69
g70
NtRp1323
(dp1324
g73
(dp1325
g81
I3
ssg82
g1319
sg75
(lp1326
S''
asbasbasbag68
(g84
g70
NtRp1327
(dp1328
g73
(dp1329
sg82
g1203
sg75
(lp1330
g68
(g89
g70
NtRp1331
(dp1332
g73
(dp1333
g93
g94
ssg82
g1327
sg75
(lp1334
g408
asbag68
(g89
g70
NtRp1335
(dp1336
g73
(dp1337
g100
g101
ssg82
g1327
sg75
(lp1338
S':'
asbag68
(g89
g70
NtRp1339
(dp1340
g73
(dp1341
sg82
g1327
sg75
(lp1342
g68
(g69
g70
NtRp1343
(dp1344
g73
(dp1345
g81
I3
ssg82
g1339
sg75
(lp1346
S''
asbasbasbag68
(g84
g70
NtRp1347
(dp1348
g73
(dp1349
sg82
g1203
sg75
(lp1350
g68
(g89
g70
NtRp1351
(dp1352
g73
(dp1353
g93
g94
ssg82
g1347
sg75
(lp1354
g429
asbag68
(g89
g70
NtRp1355
(dp1356
g73
(dp1357
g100
g101
ssg82
g1347
sg75
(lp1358
S':'
asbag68
(g89
g70
NtRp1359
(dp1360
g73
(dp1361
sg82
g1347
sg75
(lp1362
g68
(g69
g70
NtRp1363
(dp1364
g73
(dp1365
g81
I3
ssg82
g1359
sg75
(lp1366
S''
asbasbasbasbasbasbasbasbasbasbasbag68
(g84
g70
NtRp1367
(dp1368
g73
(dp1369
sg82
g78
sg75
(lp1370
g68
(g89
g70
NtRp1371
(dp1372
g73
(dp1373
g93
g94
ssg82
g1367
sg75
(lp1374
S'env'
p1375
asbag68
(g89
g70
NtRp1376
(dp1377
g73
(dp1378
g100
g101
ssg82
g1367
sg75
(lp1379
S':'
asbag68
(g89
g70
NtRp1380
(dp1381
g73
(dp1382
sg82
g1367
sg75
(lp1383
g68
(g69
g70
NtRp1384
(dp1385
g73
(dp1386
g81
I5
ssg82
g1380
sg75
(lp1387
g68
(g77
g70
NtRp1388
(dp1389
g73
(dp1390
g81
I4
ssg82
Nsg75
(lp1391
g68
(g84
g70
NtRp1392
(dp1393
g73
(dp1394
sg82
g1388
sg75
(lp1395
g68
(g89
g70
NtRp1396
(dp1397
g73
(dp1398
g93
g94
ssg82
g1392
sg75
(lp1399
S'app_folders'
p1400
asbag68
(g89
g70
NtRp1401
(dp1402
g73
(dp1403
g100
g101
ssg82
g1392
sg75
(lp1404
S':'
asbag68
(g89
g70
NtRp1405
(dp1406
g73
(dp1407
sg82
g1392
sg75
(lp1408
g68
(g69
g70
NtRp1409
(dp1410
g73
(dp1411
g81
I4
ssg82
g1405
sg75
(lp1412
S"set(['/home/unic/web2py/applications/maddy/', '/home/unic/web2py/applications/manager/', '/home/unic/web2py/applications/award_cas/', '/home/unic/web2py/applications/Award_Manager/', '/home/unic/web2py/applications/admin/', '/home/unic/web2py/applications/welcome/'])"
p1413
asbasbasbag68
(g84
g70
NtRp1414
(dp1415
g73
(dp1416
sg82
g1388
sg75
(lp1417
g68
(g89
g70
NtRp1418
(dp1419
g73
(dp1420
g93
g94
ssg82
g1414
sg75
(lp1421
S'applications_parent'
p1422
asbag68
(g89
g70
NtRp1423
(dp1424
g73
(dp1425
g100
g101
ssg82
g1414
sg75
(lp1426
S':'
asbag68
(g89
g70
NtRp1427
(dp1428
g73
(dp1429
sg82
g1414
sg75
(lp1430
g68
(g69
g70
NtRp1431
(dp1432
g73
(dp1433
g81
I4
ssg82
g1427
sg75
(lp1434
S'/home/unic/web2py'
p1435
asbasbasbag68
(g84
g70
NtRp1436
(dp1437
g73
(dp1438
sg82
g1388
sg75
(lp1439
g68
(g89
g70
NtRp1440
(dp1441
g73
(dp1442
g93
g94
ssg82
g1436
sg75
(lp1443
S'cmd_args'
p1444
asbag68
(g89
g70
NtRp1445
(dp1446
g73
(dp1447
g100
g101
ssg82
g1436
sg75
(lp1448
S':'
asbag68
(g89
g70
NtRp1449
(dp1450
g73
(dp1451
sg82
g1436
sg75
(lp1452
g68
(g69
g70
NtRp1453
(dp1454
g73
(dp1455
g81
I4
ssg82
g1449
sg75
(lp1456
g68
(g77
g70
NtRp1457
(dp1458
g73
(dp1459
g81
I3
ssg82
Nsg75
(lp1460
sbasbasbasbag68
(g84
g70
NtRp1461
(dp1462
g73
(dp1463
sg82
g1388
sg75
(lp1464
g68
(g89
g70
NtRp1465
(dp1466
g73
(dp1467
g93
g94
ssg82
g1461
sg75
(lp1468
S'cmd_options'
p1469
asbag68
(g89
g70
NtRp1470
(dp1471
g73
(dp1472
g100
g101
ssg82
g1461
sg75
(lp1473
S':'
asbag68
(g89
g70
NtRp1474
(dp1475
g73
(dp1476
sg82
g1461
sg75
(lp1477
g68
(g69
g70
NtRp1478
(dp1479
g73
(dp1480
g81
I4
ssg82
g1474
sg75
(lp1481
S"<Values at 0x89f780c: {'verbose': False, 'ip': '127.0.0.1', 'shutdown_timeout': 5, 'taskbar': False, 'port': 8000, 'maxthreads': None, 'softcron': False, 'server_name': 'unic-Inspiron-N5050', 'bpython': False, 'nogui': False, 'nocron': False, 'extcron': False, 'debuglevel': 30, 'test': None, 'folder': '/home/unic/web2py', 'config': '', 'import_models': False, 'winservice': '', 'shell': None, 'run': '', 'log_filename': 'httpserver.log', 'args': [''], 'socket_timeout': 1, 'profiler_filename': None, 'ssl_private_key': '', 'password': '<ask>', 'request_queue_size': 5, 'ssl_certificate': '', 'cronjob': False, 'plain': False, 'quiet': False, 'interfaces': None, 'minthreads': None, 'timeout': 10, 'numthreads': None, 'nobanner': False, 'pid_filename': 'httpserver.pid'}>"
p1482
asbasbasbag68
(g84
g70
NtRp1483
(dp1484
g73
(dp1485
sg82
g1388
sg75
(lp1486
g68
(g89
g70
NtRp1487
(dp1488
g73
(dp1489
g93
g94
ssg82
g1483
sg75
(lp1490
S'db_sessions'
p1491
asbag68
(g89
g70
NtRp1492
(dp1493
g73
(dp1494
g100
g101
ssg82
g1483
sg75
(lp1495
S':'
asbag68
(g89
g70
NtRp1496
(dp1497
g73
(dp1498
sg82
g1483
sg75
(lp1499
g68
(g69
g70
NtRp1500
(dp1501
g73
(dp1502
g81
I4
ssg82
g1496
sg75
(lp1503
S'set([])'
p1504
asbasbasbag68
(g84
g70
NtRp1505
(dp1506
g73
(dp1507
sg82
g1388
sg75
(lp1508
g68
(g89
g70
NtRp1509
(dp1510
g73
(dp1511
g93
g94
ssg82
g1505
sg75
(lp1512
S'debugging'
p1513
asbag68
(g89
g70
NtRp1514
(dp1515
g73
(dp1516
g100
g101
ssg82
g1505
sg75
(lp1517
S':'
asbag68
(g89
g70
NtRp1518
(dp1519
g73
(dp1520
sg82
g1505
sg75
(lp1521
g68
(g69
g70
NtRp1522
(dp1523
g73
(dp1524
g81
I4
ssg82
g1518
sg75
(lp1525
g111
asbasbasbag68
(g84
g70
NtRp1526
(dp1527
g73
(dp1528
sg82
g1388
sg75
(lp1529
g68
(g89
g70
NtRp1530
(dp1531
g73
(dp1532
g93
g94
ssg82
g1526
sg75
(lp1533
S'gluon_parent'
p1534
asbag68
(g89
g70
NtRp1535
(dp1536
g73
(dp1537
g100
g101
ssg82
g1526
sg75
(lp1538
S':'
asbag68
(g89
g70
NtRp1539
(dp1540
g73
(dp1541
sg82
g1526
sg75
(lp1542
g68
(g69
g70
NtRp1543
(dp1544
g73
(dp1545
g81
I4
ssg82
g1539
sg75
(lp1546
S'/usr/share/web2py'
p1547
asbasbasbag68
(g84
g70
NtRp1548
(dp1549
g73
(dp1550
sg82
g1388
sg75
(lp1551
g68
(g89
g70
NtRp1552
(dp1553
g73
(dp1554
g93
g94
ssg82
g1548
sg75
(lp1555
S'http_accept'
p1556
asbag68
(g89
g70
NtRp1557
(dp1558
g73
(dp1559
g100
g101
ssg82
g1548
sg75
(lp1560
S':'
asbag68
(g89
g70
NtRp1561
(dp1562
g73
(dp1563
sg82
g1548
sg75
(lp1564
g68
(g69
g70
NtRp1565
(dp1566
g73
(dp1567
g81
I4
ssg82
g1561
sg75
(lp1568
S'text/html,application/xhtml+xml,application/xml;q=0.9,*/*;q=0.8'
p1569
asbasbasbag68
(g84
g70
NtRp1570
(dp1571
g73
(dp1572
sg82
g1388
sg75
(lp1573
g68
(g89
g70
NtRp1574
(dp1575
g73
(dp1576
g93
g94
ssg82
g1570
sg75
(lp1577
S'http_accept_encoding'
p1578
asbag68
(g89
g70
NtRp1579
(dp1580
g73
(dp1581
g100
g101
ssg82
g1570
sg75
(lp1582
S':'
asbag68
(g89
g70
NtRp1583
(dp1584
g73
(dp1585
sg82
g1570
sg75
(lp1586
g68
(g69
g70
NtRp1587
(dp1588
g73
(dp1589
g81
I4
ssg82
g1583
sg75
(lp1590
S'gzip, deflate'
p1591
asbasbasbag68
(g84
g70
NtRp1592
(dp1593
g73
(dp1594
sg82
g1388
sg75
(lp1595
g68
(g89
g70
NtRp1596
(dp1597
g73
(dp1598
g93
g94
ssg82
g1592
sg75
(lp1599
S'http_accept_language'
p1600
asbag68
(g89
g70
NtRp1601
(dp1602
g73
(dp1603
g100
g101
ssg82
g1592
sg75
(lp1604
S':'
asbag68
(g89
g70
NtRp1605
(dp1606
g73
(dp1607
sg82
g1592
sg75
(lp1608
g68
(g69
g70
NtRp1609
(dp1610
g73
(dp1611
g81
I4
ssg82
g1605
sg75
(lp1612
S'en-us,en;q=0.5'
p1613
asbasbasbag68
(g84
g70
NtRp1614
(dp1615
g73
(dp1616
sg82
g1388
sg75
(lp1617
g68
(g89
g70
NtRp1618
(dp1619
g73
(dp1620
g93
g94
ssg82
g1614
sg75
(lp1621
S'http_connection'
p1622
asbag68
(g89
g70
NtRp1623
(dp1624
g73
(dp1625
g100
g101
ssg82
g1614
sg75
(lp1626
S':'
asbag68
(g89
g70
NtRp1627
(dp1628
g73
(dp1629
sg82
g1614
sg75
(lp1630
g68
(g69
g70
NtRp1631
(dp1632
g73
(dp1633
g81
I4
ssg82
g1627
sg75
(lp1634
S'keep-alive'
p1635
asbasbasbag68
(g84
g70
NtRp1636
(dp1637
g73
(dp1638
sg82
g1388
sg75
(lp1639
g68
(g89
g70
NtRp1640
(dp1641
g73
(dp1642
g93
g94
ssg82
g1636
sg75
(lp1643
S'http_cookie'
p1644
asbag68
(g89
g70
NtRp1645
(dp1646
g73
(dp1647
g100
g101
ssg82
g1636
sg75
(lp1648
S':'
asbag68
(g89
g70
NtRp1649
(dp1650
g73
(dp1651
sg82
g1636
sg75
(lp1652
g68
(g69
g70
NtRp1653
(dp1654
g73
(dp1655
g81
I4
ssg82
g1649
sg75
(lp1656
S'session_id_welcome=127.0.0.1-f690d2be-e55e-40f4-b7a9-4f3294aeb1e3; session_id_admin=127.0.0.1-e9c4a25d-df9f-4ad3-896b-e0686704ce8a; session_id_award_manager=127.0.0.1-52f24ace-8865-4da7-8015-990a750c24f1; session_id_award_cas=127.0.0.1-579ca68d-c488-4086-bd4a-d66601669aa4; session_id_maddy=127.0.0.1-97b15789-fe71-4042-a568-288ca6b30be4; session_id_manager=127.0.0.1-ae61ac4f-5f97-42be-a28c-3bc6a699e4f2'
p1657
asbasbasbag68
(g84
g70
NtRp1658
(dp1659
g73
(dp1660
sg82
g1388
sg75
(lp1661
g68
(g89
g70
NtRp1662
(dp1663
g73
(dp1664
g93
g94
ssg82
g1658
sg75
(lp1665
S'http_host'
p1666
asbag68
(g89
g70
NtRp1667
(dp1668
g73
(dp1669
g100
g101
ssg82
g1658
sg75
(lp1670
S':'
asbag68
(g89
g70
NtRp1671
(dp1672
g73
(dp1673
sg82
g1658
sg75
(lp1674
g68
(g69
g70
NtRp1675
(dp1676
g73
(dp1677
g81
I4
ssg82
g1671
sg75
(lp1678
S'127.0.0.1:8000'
p1679
asbasbasbag68
(g84
g70
NtRp1680
(dp1681
g73
(dp1682
sg82
g1388
sg75
(lp1683
g68
(g89
g70
NtRp1684
(dp1685
g73
(dp1686
g93
g94
ssg82
g1680
sg75
(lp1687
S'http_referer'
p1688
asbag68
(g89
g70
NtRp1689
(dp1690
g73
(dp1691
g100
g101
ssg82
g1680
sg75
(lp1692
S':'
asbag68
(g89
g70
NtRp1693
(dp1694
g73
(dp1695
sg82
g1680
sg75
(lp1696
g68
(g69
g70
NtRp1697
(dp1698
g73
(dp1699
g81
I4
ssg82
g1693
sg75
(lp1700
S'http://127.0.0.1:8000/admin/default/design/manager'
p1701
asbasbasbag68
(g84
g70
NtRp1702
(dp1703
g73
(dp1704
sg82
g1388
sg75
(lp1705
g68
(g89
g70
NtRp1706
(dp1707
g73
(dp1708
g93
g94
ssg82
g1702
sg75
(lp1709
S'http_user_agent'
p1710
asbag68
(g89
g70
NtRp1711
(dp1712
g73
(dp1713
g100
g101
ssg82
g1702
sg75
(lp1714
S':'
asbag68
(g89
g70
NtRp1715
(dp1716
g73
(dp1717
sg82
g1702
sg75
(lp1718
g68
(g69
g70
NtRp1719
(dp1720
g73
(dp1721
g81
I4
ssg82
g1715
sg75
(lp1722
S'Mozilla/5.0 (X11; Ubuntu; Linux i686; rv:14.0) Gecko/20100101 Firefox/14.0.1'
p1723
asbasbasbag68
(g84
g70
NtRp1724
(dp1725
g73
(dp1726
sg82
g1388
sg75
(lp1727
g68
(g89
g70
NtRp1728
(dp1729
g73
(dp1730
g93
g94
ssg82
g1724
sg75
(lp1731
S'is_jython'
p1732
asbag68
(g89
g70
NtRp1733
(dp1734
g73
(dp1735
g100
g101
ssg82
g1724
sg75
(lp1736
S':'
asbag68
(g89
g70
NtRp1737
(dp1738
g73
(dp1739
sg82
g1724
sg75
(lp1740
g68
(g69
g70
NtRp1741
(dp1742
g73
(dp1743
g81
I4
ssg82
g1737
sg75
(lp1744
g111
asbasbasbag68
(g84
g70
NtRp1745
(dp1746
g73
(dp1747
sg82
g1388
sg75
(lp1748
g68
(g89
g70
NtRp1749
(dp1750
g73
(dp1751
g93
g94
ssg82
g1745
sg75
(lp1752
S'is_pypy'
p1753
asbag68
(g89
g70
NtRp1754
(dp1755
g73
(dp1756
g100
g101
ssg82
g1745
sg75
(lp1757
S':'
asbag68
(g89
g70
NtRp1758
(dp1759
g73
(dp1760
sg82
g1745
sg75
(lp1761
g68
(g69
g70
NtRp1762
(dp1763
g73
(dp1764
g81
I4
ssg82
g1758
sg75
(lp1765
g111
asbasbasbag68
(g84
g70
NtRp1766
(dp1767
g73
(dp1768
sg82
g1388
sg75
(lp1769
g68
(g89
g70
NtRp1770
(dp1771
g73
(dp1772
g93
g94
ssg82
g1766
sg75
(lp1773
S'path_info'
p1774
asbag68
(g89
g70
NtRp1775
(dp1776
g73
(dp1777
g100
g101
ssg82
g1766
sg75
(lp1778
S':'
asbag68
(g89
g70
NtRp1779
(dp1780
g73
(dp1781
sg82
g1766
sg75
(lp1782
g68
(g69
g70
NtRp1783
(dp1784
g73
(dp1785
g81
I4
ssg82
g1779
sg75
(lp1786
S'/manager/default/choose'
p1787
asbasbasbag68
(g84
g70
NtRp1788
(dp1789
g73
(dp1790
sg82
g1388
sg75
(lp1791
g68
(g89
g70
NtRp1792
(dp1793
g73
(dp1794
g93
g94
ssg82
g1788
sg75
(lp1795
S'query_string'
p1796
asbag68
(g89
g70
NtRp1797
(dp1798
g73
(dp1799
g100
g101
ssg82
g1788
sg75
(lp1800
S':'
asbag68
(g89
g70
NtRp1801
(dp1802
g73
(dp1803
sg82
g1788
sg75
(lp1804
g68
(g69
g70
NtRp1805
(dp1806
g73
(dp1807
g81
I4
ssg82
g1801
sg75
(lp1808
S''
asbasbasbag68
(g84
g70
NtRp1809
(dp1810
g73
(dp1811
sg82
g1388
sg75
(lp1812
g68
(g89
g70
NtRp1813
(dp1814
g73
(dp1815
g93
g94
ssg82
g1809
sg75
(lp1816
S'remote_addr'
p1817
asbag68
(g89
g70
NtRp1818
(dp1819
g73
(dp1820
g100
g101
ssg82
g1809
sg75
(lp1821
S':'
asbag68
(g89
g70
NtRp1822
(dp1823
g73
(dp1824
sg82
g1809
sg75
(lp1825
g68
(g69
g70
NtRp1826
(dp1827
g73
(dp1828
g81
I4
ssg82
g1822
sg75
(lp1829
g201
asbasbasbag68
(g84
g70
NtRp1830
(dp1831
g73
(dp1832
sg82
g1388
sg75
(lp1833
g68
(g89
g70
NtRp1834
(dp1835
g73
(dp1836
g93
g94
ssg82
g1830
sg75
(lp1837
S'remote_port'
p1838
asbag68
(g89
g70
NtRp1839
(dp1840
g73
(dp1841
g100
g101
ssg82
g1830
sg75
(lp1842
S':'
asbag68
(g89
g70
NtRp1843
(dp1844
g73
(dp1845
sg82
g1830
sg75
(lp1846
g68
(g69
g70
NtRp1847
(dp1848
g73
(dp1849
g81
I4
ssg82
g1843
sg75
(lp1850
S'55627'
p1851
asbasbasbag68
(g84
g70
NtRp1852
(dp1853
g73
(dp1854
sg82
g1388
sg75
(lp1855
g68
(g89
g70
NtRp1856
(dp1857
g73
(dp1858
g93
g94
ssg82
g1852
sg75
(lp1859
S'request_method'
p1860
asbag68
(g89
g70
NtRp1861
(dp1862
g73
(dp1863
g100
g101
ssg82
g1852
sg75
(lp1864
S':'
asbag68
(g89
g70
NtRp1865
(dp1866
g73
(dp1867
sg82
g1852
sg75
(lp1868
g68
(g69
g70
NtRp1869
(dp1870
g73
(dp1871
g81
I4
ssg82
g1865
sg75
(lp1872
S'GET'
p1873
asbasbasbag68
(g84
g70
NtRp1874
(dp1875
g73
(dp1876
sg82
g1388
sg75
(lp1877
g68
(g89
g70
NtRp1878
(dp1879
g73
(dp1880
g93
g94
ssg82
g1874
sg75
(lp1881
S'script_name'
p1882
asbag68
(g89
g70
NtRp1883
(dp1884
g73
(dp1885
g100
g101
ssg82
g1874
sg75
(lp1886
S':'
asbag68
(g89
g70
NtRp1887
(dp1888
g73
(dp1889
sg82
g1874
sg75
(lp1890
g68
(g69
g70
NtRp1891
(dp1892
g73
(dp1893
g81
I4
ssg82
g1887
sg75
(lp1894
S''
asbasbasbag68
(g84
g70
NtRp1895
(dp1896
g73
(dp1897
sg82
g1388
sg75
(lp1898
g68
(g89
g70
NtRp1899
(dp1900
g73
(dp1901
g93
g94
ssg82
g1895
sg75
(lp1902
S'server_name'
p1903
asbag68
(g89
g70
NtRp1904
(dp1905
g73
(dp1906
g100
g101
ssg82
g1895
sg75
(lp1907
S':'
asbag68
(g89
g70
NtRp1908
(dp1909
g73
(dp1910
sg82
g1895
sg75
(lp1911
g68
(g69
g70
NtRp1912
(dp1913
g73
(dp1914
g81
I4
ssg82
g1908
sg75
(lp1915
S'unic-Inspiron-N5050'
p1916
asbasbasbag68
(g84
g70
NtRp1917
(dp1918
g73
(dp1919
sg82
g1388
sg75
(lp1920
g68
(g89
g70
NtRp1921
(dp1922
g73
(dp1923
g93
g94
ssg82
g1917
sg75
(lp1924
S'server_port'
p1925
asbag68
(g89
g70
NtRp1926
(dp1927
g73
(dp1928
g100
g101
ssg82
g1917
sg75
(lp1929
S':'
asbag68
(g89
g70
NtRp1930
(dp1931
g73
(dp1932
sg82
g1917
sg75
(lp1933
g68
(g69
g70
NtRp1934
(dp1935
g73
(dp1936
g81
I4
ssg82
g1930
sg75
(lp1937
S'8000'
p1938
asbasbasbag68
(g84
g70
NtRp1939
(dp1940
g73
(dp1941
sg82
g1388
sg75
(lp1942
g68
(g89
g70
NtRp1943
(dp1944
g73
(dp1945
g93
g94
ssg82
g1939
sg75
(lp1946
S'server_protocol'
p1947
asbag68
(g89
g70
NtRp1948
(dp1949
g73
(dp1950
g100
g101
ssg82
g1939
sg75
(lp1951
S':'
asbag68
(g89
g70
NtRp1952
(dp1953
g73
(dp1954
sg82
g1939
sg75
(lp1955
g68
(g69
g70
NtRp1956
(dp1957
g73
(dp1958
g81
I4
ssg82
g1952
sg75
(lp1959
S'HTTP/1.1'
p1960
asbasbasbag68
(g84
g70
NtRp1961
(dp1962
g73
(dp1963
sg82
g1388
sg75
(lp1964
g68
(g89
g70
NtRp1965
(dp1966
g73
(dp1967
g93
g94
ssg82
g1961
sg75
(lp1968
S'server_software'
p1969
asbag68
(g89
g70
NtRp1970
(dp1971
g73
(dp1972
g100
g101
ssg82
g1961
sg75
(lp1973
S':'
asbag68
(g89
g70
NtRp1974
(dp1975
g73
(dp1976
sg82
g1961
sg75
(lp1977
g68
(g69
g70
NtRp1978
(dp1979
g73
(dp1980
g81
I4
ssg82
g1974
sg75
(lp1981
S'Rocket 1.2.4'
p1982
asbasbasbag68
(g84
g70
NtRp1983
(dp1984
g73
(dp1985
sg82
g1388
sg75
(lp1986
g68
(g89
g70
NtRp1987
(dp1988
g73
(dp1989
g93
g94
ssg82
g1983
sg75
(lp1990
S'web2py_crontype'
p1991
asbag68
(g89
g70
NtRp1992
(dp1993
g73
(dp1994
g100
g101
ssg82
g1983
sg75
(lp1995
S':'
asbag68
(g89
g70
NtRp1996
(dp1997
g73
(dp1998
sg82
g1983
sg75
(lp1999
g68
(g69
g70
NtRp2000
(dp2001
g73
(dp2002
g81
I4
ssg82
g1996
sg75
(lp2003
S'hard'
p2004
asbasbasbag68
(g84
g70
NtRp2005
(dp2006
g73
(dp2007
sg82
g1388
sg75
(lp2008
g68
(g89
g70
NtRp2009
(dp2010
g73
(dp2011
g93
g94
ssg82
g2005
sg75
(lp2012
S'web2py_path'
p2013
asbag68
(g89
g70
NtRp2014
(dp2015
g73
(dp2016
g100
g101
ssg82
g2005
sg75
(lp2017
S':'
asbag68
(g89
g70
NtRp2018
(dp2019
g73
(dp2020
sg82
g2005
sg75
(lp2021
g68
(g69
g70
NtRp2022
(dp2023
g73
(dp2024
g81
I4
ssg82
g2018
sg75
(lp2025
g1435
asbasbasbag68
(g84
g70
NtRp2026
(dp2027
g73
(dp2028
sg82
g1388
sg75
(lp2029
g68
(g89
g70
NtRp2030
(dp2031
g73
(dp2032
g93
g94
ssg82
g2026
sg75
(lp2033
S'web2py_version'
p2034
asbag68
(g89
g70
NtRp2035
(dp2036
g73
(dp2037
g100
g101
ssg82
g2026
sg75
(lp2038
S':'
asbag68
(g89
g70
NtRp2039
(dp2040
g73
(dp2041
sg82
g2026
sg75
(lp2042
g68
(g69
g70
NtRp2043
(dp2044
g73
(dp2045
g81
I4
ssg82
g2039
sg75
(lp2046
g68
(g77
g70
NtRp2047
(dp2048
g73
(dp2049
g81
I3
ssg82
Nsg75
(lp2050
g68
(g84
g70
NtRp2051
(dp2052
g73
(dp2053
sg82
g2047
sg75
(lp2054
g68
(g89
g70
NtRp2055
(dp2056
g73
(dp2057
sg82
g2051
sg75
(lp2058
g68
(g69
g70
NtRp2059
(dp2060
g73
(dp2061
g81
I3
ssg82
g2055
sg75
(lp2062
S'1'
asbasbasbag68
(g84
g70
NtRp2063
(dp2064
g73
(dp2065
sg82
g2047
sg75
(lp2066
g68
(g89
g70
NtRp2067
(dp2068
g73
(dp2069
sg82
g2063
sg75
(lp2070
g68
(g69
g70
NtRp2071
(dp2072
g73
(dp2073
g81
I3
ssg82
g2067
sg75
(lp2074
S'99'
p2075
asbasbasbag68
(g84
g70
NtRp2076
(dp2077
g73
(dp2078
sg82
g2047
sg75
(lp2079
g68
(g89
g70
NtRp2080
(dp2081
g73
(dp2082
sg82
g2076
sg75
(lp2083
g68
(g69
g70
NtRp2084
(dp2085
g73
(dp2086
g81
I3
ssg82
g2080
sg75
(lp2087
S'4'
asbasbasbag68
(g84
g70
NtRp2088
(dp2089
g73
(dp2090
sg82
g2047
sg75
(lp2091
g68
(g89
g70
NtRp2092
(dp2093
g73
(dp2094
sg82
g2088
sg75
(lp2095
g68
(g69
g70
NtRp2096
(dp2097
g73
(dp2098
g81
I3
ssg82
g2092
sg75
(lp2099
S'datetime.datetime(2011, 12, 14, 14, 46, 14)'
p2100
asbasbasbag68
(g84
g70
NtRp2101
(dp2102
g73
(dp2103
sg82
g2047
sg75
(lp2104
g68
(g89
g70
NtRp2105
(dp2106
g73
(dp2107
sg82
g2101
sg75
(lp2108
g68
(g69
g70
NtRp2109
(dp2110
g73
(dp2111
g81
I3
ssg82
g2105
sg75
(lp2112
S'stable'
p2113
asbasbasbasbasbasbasbag68
(g84
g70
NtRp2114
(dp2115
g73
(dp2116
sg82
g1388
sg75
(lp2117
g68
(g89
g70
NtRp2118
(dp2119
g73
(dp2120
g93
g94
ssg82
g2114
sg75
(lp2121
S'wsgi_errors'
p2122
asbag68
(g89
g70
NtRp2123
(dp2124
g73
(dp2125
g100
g101
ssg82
g2114
sg75
(lp2126
S':'
asbag68
(g89
g70
NtRp2127
(dp2128
g73
(dp2129
sg82
g2114
sg75
(lp2130
g68
(g69
g70
NtRp2131
(dp2132
g73
(dp2133
g81
I4
ssg82
g2127
sg75
(lp2134
S"<open file '<stderr>', mode 'w' at 0xb73060d0>"
p2135
asbasbasbag68
(g84
g70
NtRp2136
(dp2137
g73
(dp2138
sg82
g1388
sg75
(lp2139
g68
(g89
g70
NtRp2140
(dp2141
g73
(dp2142
g93
g94
ssg82
g2136
sg75
(lp2143
S'wsgi_file_wrapper'
p2144
asbag68
(g89
g70
NtRp2145
(dp2146
g73
(dp2147
g100
g101
ssg82
g2136
sg75
(lp2148
S':'
asbag68
(g89
g70
NtRp2149
(dp2150
g73
(dp2151
sg82
g2136
sg75
(lp2152
g68
(g69
g70
NtRp2153
(dp2154
g73
(dp2155
g81
I4
ssg82
g2149
sg75
(lp2156
S'<class wsgiref.util.FileWrapper at 0x89a24ac>'
p2157
asbasbasbag68
(g84
g70
NtRp2158
(dp2159
g73
(dp2160
sg82
g1388
sg75
(lp2161
g68
(g89
g70
NtRp2162
(dp2163
g73
(dp2164
g93
g94
ssg82
g2158
sg75
(lp2165
S'wsgi_input'
p2166
asbag68
(g89
g70
NtRp2167
(dp2168
g73
(dp2169
g100
g101
ssg82
g2158
sg75
(lp2170
S':'
asbag68
(g89
g70
NtRp2171
(dp2172
g73
(dp2173
sg82
g2158
sg75
(lp2174
g68
(g69
g70
NtRp2175
(dp2176
g73
(dp2177
g81
I4
ssg82
g2171
sg75
(lp2178
S'<socket._fileobject object at 0xabac6a2c>'
p2179
asbasbasbag68
(g84
g70
NtRp2180
(dp2181
g73
(dp2182
sg82
g1388
sg75
(lp2183
g68
(g89
g70
NtRp2184
(dp2185
g73
(dp2186
g93
g94
ssg82
g2180
sg75
(lp2187
S'wsgi_multiprocess'
p2188
asbag68
(g89
g70
NtRp2189
(dp2190
g73
(dp2191
g100
g101
ssg82
g2180
sg75
(lp2192
S':'
asbag68
(g89
g70
NtRp2193
(dp2194
g73
(dp2195
sg82
g2180
sg75
(lp2196
g68
(g69
g70
NtRp2197
(dp2198
g73
(dp2199
g81
I4
ssg82
g2193
sg75
(lp2200
g111
asbasbasbag68
(g84
g70
NtRp2201
(dp2202
g73
(dp2203
sg82
g1388
sg75
(lp2204
g68
(g89
g70
NtRp2205
(dp2206
g73
(dp2207
g93
g94
ssg82
g2201
sg75
(lp2208
S'wsgi_multithread'
p2209
asbag68
(g89
g70
NtRp2210
(dp2211
g73
(dp2212
g100
g101
ssg82
g2201
sg75
(lp2213
S':'
asbag68
(g89
g70
NtRp2214
(dp2215
g73
(dp2216
sg82
g2201
sg75
(lp2217
g68
(g69
g70
NtRp2218
(dp2219
g73
(dp2220
g81
I4
ssg82
g2214
sg75
(lp2221
S'True'
p2222
asbasbasbag68
(g84
g70
NtRp2223
(dp2224
g73
(dp2225
sg82
g1388
sg75
(lp2226
g68
(g89
g70
NtRp2227
(dp2228
g73
(dp2229
g93
g94
ssg82
g2223
sg75
(lp2230
S'wsgi_run_once'
p2231
asbag68
(g89
g70
NtRp2232
(dp2233
g73
(dp2234
g100
g101
ssg82
g2223
sg75
(lp2235
S':'
asbag68
(g89
g70
NtRp2236
(dp2237
g73
(dp2238
sg82
g2223
sg75
(lp2239
g68
(g69
g70
NtRp2240
(dp2241
g73
(dp2242
g81
I4
ssg82
g2236
sg75
(lp2243
g111
asbasbasbag68
(g84
g70
NtRp2244
(dp2245
g73
(dp2246
sg82
g1388
sg75
(lp2247
g68
(g89
g70
NtRp2248
(dp2249
g73
(dp2250
g93
g94
ssg82
g2244
sg75
(lp2251
S'wsgi_url_scheme'
p2252
asbag68
(g89
g70
NtRp2253
(dp2254
g73
(dp2255
g100
g101
ssg82
g2244
sg75
(lp2256
S':'
asbag68
(g89
g70
NtRp2257
(dp2258
g73
(dp2259
sg82
g2244
sg75
(lp2260
g68
(g69
g70
NtRp2261
(dp2262
g73
(dp2263
g81
I4
ssg82
g2257
sg75
(lp2264
S'http'
p2265
asbasbasbag68
(g84
g70
NtRp2266
(dp2267
g73
(dp2268
sg82
g1388
sg75
(lp2269
g68
(g89
g70
NtRp2270
(dp2271
g73
(dp2272
g93
g94
ssg82
g2266
sg75
(lp2273
S'wsgi_version'
p2274
asbag68
(g89
g70
NtRp2275
(dp2276
g73
(dp2277
g100
g101
ssg82
g2266
sg75
(lp2278
S':'
asbag68
(g89
g70
NtRp2279
(dp2280
g73
(dp2281
sg82
g2266
sg75
(lp2282
g68
(g69
g70
NtRp2283
(dp2284
g73
(dp2285
g81
I4
ssg82
g2279
sg75
(lp2286
g68
(g77
g70
NtRp2287
(dp2288
g73
(dp2289
g81
I3
ssg82
Nsg75
(lp2290
g68
(g84
g70
NtRp2291
(dp2292
g73
(dp2293
sg82
g2287
sg75
(lp2294
g68
(g89
g70
NtRp2295
(dp2296
g73
(dp2297
sg82
g2291
sg75
(lp2298
g68
(g69
g70
NtRp2299
(dp2300
g73
(dp2301
g81
I3
ssg82
g2295
sg75
(lp2302
S'1'
asbasbasbag68
(g84
g70
NtRp2303
(dp2304
g73
(dp2305
sg82
g2287
sg75
(lp2306
g68
(g89
g70
NtRp2307
(dp2308
g73
(dp2309
sg82
g2303
sg75
(lp2310
g68
(g69
g70
NtRp2311
(dp2312
g73
(dp2313
g81
I3
ssg82
g2307
sg75
(lp2314
S'0'
asbasbasbasbasbasbasbasbasbasbasbag68
(g84
g70
NtRp2315
(dp2316
g73
(dp2317
sg82
g78
sg75
(lp2318
g68
(g89
g70
NtRp2319
(dp2320
g73
(dp2321
g93
g94
ssg82
g2315
sg75
(lp2322
S'extension'
p2323
asbag68
(g89
g70
NtRp2324
(dp2325
g73
(dp2326
g100
g101
ssg82
g2315
sg75
(lp2327
S':'
asbag68
(g89
g70
NtRp2328
(dp2329
g73
(dp2330
sg82
g2315
sg75
(lp2331
g68
(g69
g70
NtRp2332
(dp2333
g73
(dp2334
g81
I5
ssg82
g2328
sg75
(lp2335
S'html'
p2336
asbasbasbag68
(g84
g70
NtRp2337
(dp2338
g73
(dp2339
sg82
g78
sg75
(lp2340
g68
(g89
g70
NtRp2341
(dp2342
g73
(dp2343
g93
g94
ssg82
g2337
sg75
(lp2344
S'folder'
p2345
asbag68
(g89
g70
NtRp2346
(dp2347
g73
(dp2348
g100
g101
ssg82
g2337
sg75
(lp2349
S':'
asbag68
(g89
g70
NtRp2350
(dp2351
g73
(dp2352
sg82
g2337
sg75
(lp2353
g68
(g69
g70
NtRp2354
(dp2355
g73
(dp2356
g81
I5
ssg82
g2350
sg75
(lp2357
S'/home/unic/web2py/applications/manager/'
p2358
asbasbasbag68
(g84
g70
NtRp2359
(dp2360
g73
(dp2361
sg82
g78
sg75
(lp2362
g68
(g89
g70
NtRp2363
(dp2364
g73
(dp2365
g93
g94
ssg82
g2359
sg75
(lp2366
S'function'
p2367
asbag68
(g89
g70
NtRp2368
(dp2369
g73
(dp2370
g100
g101
ssg82
g2359
sg75
(lp2371
S':'
asbag68
(g89
g70
NtRp2372
(dp2373
g73
(dp2374
sg82
g2359
sg75
(lp2375
g68
(g69
g70
NtRp2376
(dp2377
g73
(dp2378
g81
I5
ssg82
g2372
sg75
(lp2379
S'choose'
p2380
asbasbasbag68
(g84
g70
NtRp2381
(dp2382
g73
(dp2383
sg82
g78
sg75
(lp2384
g68
(g89
g70
NtRp2385
(dp2386
g73
(dp2387
g93
g94
ssg82
g2381
sg75
(lp2388
S'get_vars'
p2389
asbag68
(g89
g70
NtRp2390
(dp2391
g73
(dp2392
g100
g101
ssg82
g2381
sg75
(lp2393
S':'
asbag68
(g89
g70
NtRp2394
(dp2395
g73
(dp2396
sg82
g2381
sg75
(lp2397
g68
(g69
g70
NtRp2398
(dp2399
g73
(dp2400
g81
I5
ssg82
g2394
sg75
(lp2401
g68
(g77
g70
NtRp2402
(dp2403
g73
(dp2404
g81
I4
ssg82
Nsg75
(lp2405
sbasbasbasbag68
(g84
g70
NtRp2406
(dp2407
g73
(dp2408
sg82
g78
sg75
(lp2409
g68
(g89
g70
NtRp2410
(dp2411
g73
(dp2412
g93
g94
ssg82
g2406
sg75
(lp2413
S'global_settings'
p2414
asbag68
(g89
g70
NtRp2415
(dp2416
g73
(dp2417
g100
g101
ssg82
g2406
sg75
(lp2418
S':'
asbag68
(g89
g70
NtRp2419
(dp2420
g73
(dp2421
sg82
g2406
sg75
(lp2422
g68
(g69
g70
NtRp2423
(dp2424
g73
(dp2425
g81
I5
ssg82
g2419
sg75
(lp2426
g68
(g77
g70
NtRp2427
(dp2428
g73
(dp2429
g81
I4
ssg82
Nsg75
(lp2430
g68
(g84
g70
NtRp2431
(dp2432
g73
(dp2433
sg82
g2427
sg75
(lp2434
g68
(g89
g70
NtRp2435
(dp2436
g73
(dp2437
g93
g94
ssg82
g2431
sg75
(lp2438
g1400
asbag68
(g89
g70
NtRp2439
(dp2440
g73
(dp2441
g100
g101
ssg82
g2431
sg75
(lp2442
S':'
asbag68
(g89
g70
NtRp2443
(dp2444
g73
(dp2445
sg82
g2431
sg75
(lp2446
g68
(g69
g70
NtRp2447
(dp2448
g73
(dp2449
g81
I4
ssg82
g2443
sg75
(lp2450
S"set(['/home/unic/web2py/applications/maddy/', '/home/unic/web2py/applications/manager/', '/home/unic/web2py/applications/award_cas/', '/home/unic/web2py/applications/Award_Manager/', '/home/unic/web2py/applications/admin/', '/home/unic/web2py/applications/welcome/'])"
p2451
asbasbasbag68
(g84
g70
NtRp2452
(dp2453
g73
(dp2454
sg82
g2427
sg75
(lp2455
g68
(g89
g70
NtRp2456
(dp2457
g73
(dp2458
g93
g94
ssg82
g2452
sg75
(lp2459
g1422
asbag68
(g89
g70
NtRp2460
(dp2461
g73
(dp2462
g100
g101
ssg82
g2452
sg75
(lp2463
S':'
asbag68
(g89
g70
NtRp2464
(dp2465
g73
(dp2466
sg82
g2452
sg75
(lp2467
g68
(g69
g70
NtRp2468
(dp2469
g73
(dp2470
g81
I4
ssg82
g2464
sg75
(lp2471
g1435
asbasbasbag68
(g84
g70
NtRp2472
(dp2473
g73
(dp2474
sg82
g2427
sg75
(lp2475
g68
(g89
g70
NtRp2476
(dp2477
g73
(dp2478
g93
g94
ssg82
g2472
sg75
(lp2479
g1444
asbag68
(g89
g70
NtRp2480
(dp2481
g73
(dp2482
g100
g101
ssg82
g2472
sg75
(lp2483
S':'
asbag68
(g89
g70
NtRp2484
(dp2485
g73
(dp2486
sg82
g2472
sg75
(lp2487
g68
(g69
g70
NtRp2488
(dp2489
g73
(dp2490
g81
I4
ssg82
g2484
sg75
(lp2491
g68
(g77
g70
NtRp2492
(dp2493
g73
(dp2494
g81
I3
ssg82
Nsg75
(lp2495
sbasbasbasbag68
(g84
g70
NtRp2496
(dp2497
g73
(dp2498
sg82
g2427
sg75
(lp2499
g68
(g89
g70
NtRp2500
(dp2501
g73
(dp2502
g93
g94
ssg82
g2496
sg75
(lp2503
g1469
asbag68
(g89
g70
NtRp2504
(dp2505
g73
(dp2506
g100
g101
ssg82
g2496
sg75
(lp2507
S':'
asbag68
(g89
g70
NtRp2508
(dp2509
g73
(dp2510
sg82
g2496
sg75
(lp2511
g68
(g69
g70
NtRp2512
(dp2513
g73
(dp2514
g81
I4
ssg82
g2508
sg75
(lp2515
S"<Values at 0x89f780c: {'verbose': False, 'ip': '127.0.0.1', 'shutdown_timeout': 5, 'taskbar': False, 'port': 8000, 'maxthreads': None, 'softcron': False, 'server_name': 'unic-Inspiron-N5050', 'bpython': False, 'nogui': False, 'nocron': False, 'extcron': False, 'debuglevel': 30, 'test': None, 'folder': '/home/unic/web2py', 'config': '', 'import_models': False, 'winservice': '', 'shell': None, 'run': '', 'log_filename': 'httpserver.log', 'args': [''], 'socket_timeout': 1, 'profiler_filename': None, 'ssl_private_key': '', 'password': '<ask>', 'request_queue_size': 5, 'ssl_certificate': '', 'cronjob': False, 'plain': False, 'quiet': False, 'interfaces': None, 'minthreads': None, 'timeout': 10, 'numthreads': None, 'nobanner': False, 'pid_filename': 'httpserver.pid'}>"
p2516
asbasbasbag68
(g84
g70
NtRp2517
(dp2518
g73
(dp2519
sg82
g2427
sg75
(lp2520
g68
(g89
g70
NtRp2521
(dp2522
g73
(dp2523
g93
g94
ssg82
g2517
sg75
(lp2524
g1491
asbag68
(g89
g70
NtRp2525
(dp2526
g73
(dp2527
g100
g101
ssg82
g2517
sg75
(lp2528
S':'
asbag68
(g89
g70
NtRp2529
(dp2530
g73
(dp2531
sg82
g2517
sg75
(lp2532
g68
(g69
g70
NtRp2533
(dp2534
g73
(dp2535
g81
I4
ssg82
g2529
sg75
(lp2536
S'set([])'
p2537
asbasbasbag68
(g84
g70
NtRp2538
(dp2539
g73
(dp2540
sg82
g2427
sg75
(lp2541
g68
(g89
g70
NtRp2542
(dp2543
g73
(dp2544
g93
g94
ssg82
g2538
sg75
(lp2545
g1513
asbag68
(g89
g70
NtRp2546
(dp2547
g73
(dp2548
g100
g101
ssg82
g2538
sg75
(lp2549
S':'
asbag68
(g89
g70
NtRp2550
(dp2551
g73
(dp2552
sg82
g2538
sg75
(lp2553
g68
(g69
g70
NtRp2554
(dp2555
g73
(dp2556
g81
I4
ssg82
g2550
sg75
(lp2557
g111
asbasbasbag68
(g84
g70
NtRp2558
(dp2559
g73
(dp2560
sg82
g2427
sg75
(lp2561
g68
(g89
g70
NtRp2562
(dp2563
g73
(dp2564
g93
g94
ssg82
g2558
sg75
(lp2565
g1534
asbag68
(g89
g70
NtRp2566
(dp2567
g73
(dp2568
g100
g101
ssg82
g2558
sg75
(lp2569
S':'
asbag68
(g89
g70
NtRp2570
(dp2571
g73
(dp2572
sg82
g2558
sg75
(lp2573
g68
(g69
g70
NtRp2574
(dp2575
g73
(dp2576
g81
I4
ssg82
g2570
sg75
(lp2577
g1547
asbasbasbag68
(g84
g70
NtRp2578
(dp2579
g73
(dp2580
sg82
g2427
sg75
(lp2581
g68
(g89
g70
NtRp2582
(dp2583
g73
(dp2584
g93
g94
ssg82
g2578
sg75
(lp2585
g1732
asbag68
(g89
g70
NtRp2586
(dp2587
g73
(dp2588
g100
g101
ssg82
g2578
sg75
(lp2589
S':'
asbag68
(g89
g70
NtRp2590
(dp2591
g73
(dp2592
sg82
g2578
sg75
(lp2593
g68
(g69
g70
NtRp2594
(dp2595
g73
(dp2596
g81
I4
ssg82
g2590
sg75
(lp2597
g111
asbasbasbag68
(g84
g70
NtRp2598
(dp2599
g73
(dp2600
sg82
g2427
sg75
(lp2601
g68
(g89
g70
NtRp2602
(dp2603
g73
(dp2604
g93
g94
ssg82
g2598
sg75
(lp2605
g1753
asbag68
(g89
g70
NtRp2606
(dp2607
g73
(dp2608
g100
g101
ssg82
g2598
sg75
(lp2609
S':'
asbag68
(g89
g70
NtRp2610
(dp2611
g73
(dp2612
sg82
g2598
sg75
(lp2613
g68
(g69
g70
NtRp2614
(dp2615
g73
(dp2616
g81
I4
ssg82
g2610
sg75
(lp2617
g111
asbasbasbag68
(g84
g70
NtRp2618
(dp2619
g73
(dp2620
sg82
g2427
sg75
(lp2621
g68
(g89
g70
NtRp2622
(dp2623
g73
(dp2624
g93
g94
ssg82
g2618
sg75
(lp2625
g1991
asbag68
(g89
g70
NtRp2626
(dp2627
g73
(dp2628
g100
g101
ssg82
g2618
sg75
(lp2629
S':'
asbag68
(g89
g70
NtRp2630
(dp2631
g73
(dp2632
sg82
g2618
sg75
(lp2633
g68
(g69
g70
NtRp2634
(dp2635
g73
(dp2636
g81
I4
ssg82
g2630
sg75
(lp2637
g2004
asbasbasbag68
(g84
g70
NtRp2638
(dp2639
g73
(dp2640
sg82
g2427
sg75
(lp2641
g68
(g89
g70
NtRp2642
(dp2643
g73
(dp2644
g93
g94
ssg82
g2638
sg75
(lp2645
g2034
asbag68
(g89
g70
NtRp2646
(dp2647
g73
(dp2648
g100
g101
ssg82
g2638
sg75
(lp2649
S':'
asbag68
(g89
g70
NtRp2650
(dp2651
g73
(dp2652
sg82
g2638
sg75
(lp2653
g68
(g69
g70
NtRp2654
(dp2655
g73
(dp2656
g81
I4
ssg82
g2650
sg75
(lp2657
g68
(g77
g70
NtRp2658
(dp2659
g73
(dp2660
g81
I3
ssg82
Nsg75
(lp2661
g68
(g84
g70
NtRp2662
(dp2663
g73
(dp2664
sg82
g2658
sg75
(lp2665
g68
(g89
g70
NtRp2666
(dp2667
g73
(dp2668
sg82
g2662
sg75
(lp2669
g68
(g69
g70
NtRp2670
(dp2671
g73
(dp2672
g81
I3
ssg82
g2666
sg75
(lp2673
S'1'
asbasbasbag68
(g84
g70
NtRp2674
(dp2675
g73
(dp2676
sg82
g2658
sg75
(lp2677
g68
(g89
g70
NtRp2678
(dp2679
g73
(dp2680
sg82
g2674
sg75
(lp2681
g68
(g69
g70
NtRp2682
(dp2683
g73
(dp2684
g81
I3
ssg82
g2678
sg75
(lp2685
S'99'
p2686
asbasbasbag68
(g84
g70
NtRp2687
(dp2688
g73
(dp2689
sg82
g2658
sg75
(lp2690
g68
(g89
g70
NtRp2691
(dp2692
g73
(dp2693
sg82
g2687
sg75
(lp2694
g68
(g69
g70
NtRp2695
(dp2696
g73
(dp2697
g81
I3
ssg82
g2691
sg75
(lp2698
S'4'
asbasbasbag68
(g84
g70
NtRp2699
(dp2700
g73
(dp2701
sg82
g2658
sg75
(lp2702
g68
(g89
g70
NtRp2703
(dp2704
g73
(dp2705
sg82
g2699
sg75
(lp2706
g68
(g69
g70
NtRp2707
(dp2708
g73
(dp2709
g81
I3
ssg82
g2703
sg75
(lp2710
S'datetime.datetime(2011, 12, 14, 14, 46, 14)'
p2711
asbasbasbag68
(g84
g70
NtRp2712
(dp2713
g73
(dp2714
sg82
g2658
sg75
(lp2715
g68
(g89
g70
NtRp2716
(dp2717
g73
(dp2718
sg82
g2712
sg75
(lp2719
g68
(g69
g70
NtRp2720
(dp2721
g73
(dp2722
g81
I3
ssg82
g2716
sg75
(lp2723
g2113
asbasbasbasbasbasbasbasbasbasbasbag68
(g84
g70
NtRp2724
(dp2725
g73
(dp2726
sg82
g78
sg75
(lp2727
g68
(g89
g70
NtRp2728
(dp2729
g73
(dp2730
g93
g94
ssg82
g2724
sg75
(lp2731
S'is_https'
p2732
asbag68
(g89
g70
NtRp2733
(dp2734
g73
(dp2735
g100
g101
ssg82
g2724
sg75
(lp2736
S':'
asbag68
(g89
g70
NtRp2737
(dp2738
g73
(dp2739
sg82
g2724
sg75
(lp2740
g68
(g69
g70
NtRp2741
(dp2742
g73
(dp2743
g81
I5
ssg82
g2737
sg75
(lp2744
g111
asbasbasbag68
(g84
g70
NtRp2745
(dp2746
g73
(dp2747
sg82
g78
sg75
(lp2748
g68
(g89
g70
NtRp2749
(dp2750
g73
(dp2751
g93
g94
ssg82
g2745
sg75
(lp2752
S'is_local'
p2753
asbag68
(g89
g70
NtRp2754
(dp2755
g73
(dp2756
g100
g101
ssg82
g2745
sg75
(lp2757
S':'
asbag68
(g89
g70
NtRp2758
(dp2759
g73
(dp2760
sg82
g2745
sg75
(lp2761
g68
(g69
g70
NtRp2762
(dp2763
g73
(dp2764
g81
I5
ssg82
g2758
sg75
(lp2765
g2222
asbasbasbag68
(g84
g70
NtRp2766
(dp2767
g73
(dp2768
sg82
g78
sg75
(lp2769
g68
(g89
g70
NtRp2770
(dp2771
g73
(dp2772
g93
g94
ssg82
g2766
sg75
(lp2773
S'is_restful'
p2774
asbag68
(g89
g70
NtRp2775
(dp2776
g73
(dp2777
g100
g101
ssg82
g2766
sg75
(lp2778
S':'
asbag68
(g89
g70
NtRp2779
(dp2780
g73
(dp2781
sg82
g2766
sg75
(lp2782
g68
(g69
g70
NtRp2783
(dp2784
g73
(dp2785
g81
I5
ssg82
g2779
sg75
(lp2786
g111
asbasbasbag68
(g84
g70
NtRp2787
(dp2788
g73
(dp2789
sg82
g78
sg75
(lp2790
g68
(g89
g70
NtRp2791
(dp2792
g73
(dp2793
g93
g94
ssg82
g2787
sg75
(lp2794
S'now'
p2795
asbag68
(g89
g70
NtRp2796
(dp2797
g73
(dp2798
g100
g101
ssg82
g2787
sg75
(lp2799
S':'
asbag68
(g89
g70
NtRp2800
(dp2801
g73
(dp2802
sg82
g2787
sg75
(lp2803
g68
(g69
g70
NtRp2804
(dp2805
g73
(dp2806
g81
I5
ssg82
g2800
sg75
(lp2807
S'datetime.datetime(2012, 11, 5, 22, 30, 6, 932987)'
p2808
asbasbasbag68
(g84
g70
NtRp2809
(dp2810
g73
(dp2811
sg82
g78
sg75
(lp2812
g68
(g89
g70
NtRp2813
(dp2814
g73
(dp2815
g93
g94
ssg82
g2809
sg75
(lp2816
S'post_vars'
p2817
asbag68
(g89
g70
NtRp2818
(dp2819
g73
(dp2820
g100
g101
ssg82
g2809
sg75
(lp2821
S':'
asbag68
(g89
g70
NtRp2822
(dp2823
g73
(dp2824
sg82
g2809
sg75
(lp2825
g68
(g69
g70
NtRp2826
(dp2827
g73
(dp2828
g81
I5
ssg82
g2822
sg75
(lp2829
g68
(g77
g70
NtRp2830
(dp2831
g73
(dp2832
g81
I4
ssg82
Nsg75
(lp2833
sbasbasbasbag68
(g84
g70
NtRp2834
(dp2835
g73
(dp2836
sg82
g78
sg75
(lp2837
g68
(g89
g70
NtRp2838
(dp2839
g73
(dp2840
g93
g94
ssg82
g2834
sg75
(lp2841
S'url'
p2842
asbag68
(g89
g70
NtRp2843
(dp2844
g73
(dp2845
g100
g101
ssg82
g2834
sg75
(lp2846
S':'
asbag68
(g89
g70
NtRp2847
(dp2848
g73
(dp2849
sg82
g2834
sg75
(lp2850
g68
(g69
g70
NtRp2851
(dp2852
g73
(dp2853
g81
I5
ssg82
g2847
sg75
(lp2854
S'/manager/default/choose'
p2855
asbasbasbag68
(g84
g70
NtRp2856
(dp2857
g73
(dp2858
sg82
g78
sg75
(lp2859
g68
(g89
g70
NtRp2860
(dp2861
g73
(dp2862
g93
g94
ssg82
g2856
sg75
(lp2863
S'utcnow'
p2864
asbag68
(g89
g70
NtRp2865
(dp2866
g73
(dp2867
g100
g101
ssg82
g2856
sg75
(lp2868
S':'
asbag68
(g89
g70
NtRp2869
(dp2870
g73
(dp2871
sg82
g2856
sg75
(lp2872
g68
(g69
g70
NtRp2873
(dp2874
g73
(dp2875
g81
I5
ssg82
g2869
sg75
(lp2876
S'datetime.datetime(2012, 11, 5, 17, 0, 6, 933043)'
p2877
asbasbasbag68
(g84
g70
NtRp2878
(dp2879
g73
(dp2880
sg82
g78
sg75
(lp2881
g68
(g89
g70
NtRp2882
(dp2883
g73
(dp2884
g93
g94
ssg82
g2878
sg75
(lp2885
S'uuid'
p2886
asbag68
(g89
g70
NtRp2887
(dp2888
g73
(dp2889
g100
g101
ssg82
g2878
sg75
(lp2890
S':'
asbag68
(g89
g70
NtRp2891
(dp2892
g73
(dp2893
sg82
g2878
sg75
(lp2894
g68
(g69
g70
NtRp2895
(dp2896
g73
(dp2897
g81
I5
ssg82
g2891
sg75
(lp2898
S'manager/127.0.0.1.2012-11-05.22-30-06.b105052e-08e4-4735-af4d-ec95dcafcfcd'
p2899
asbasbasbag68
(g84
g70
NtRp2900
(dp2901
g73
(dp2902
sg82
g78
sg75
(lp2903
g68
(g89
g70
NtRp2904
(dp2905
g73
(dp2906
g93
g94
ssg82
g2900
sg75
(lp2907
S'vars'
p2908
asbag68
(g89
g70
NtRp2909
(dp2910
g73
(dp2911
g100
g101
ssg82
g2900
sg75
(lp2912
S':'
asbag68
(g89
g70
NtRp2913
(dp2914
g73
(dp2915
sg82
g2900
sg75
(lp2916
g68
(g69
g70
NtRp2917
(dp2918
g73
(dp2919
g81
I5
ssg82
g2913
sg75
(lp2920
g68
(g77
g70
NtRp2921
(dp2922
g73
(dp2923
g81
I4
ssg82
Nsg75
(lp2924
sbasbasbasbag68
(g84
g70
NtRp2925
(dp2926
g73
(dp2927
sg82
g78
sg75
(lp2928
g68
(g89
g70
NtRp2929
(dp2930
g73
(dp2931
g93
g94
ssg82
g2925
sg75
(lp2932
S'wsgi'
p2933
asbag68
(g89
g70
NtRp2934
(dp2935
g73
(dp2936
g100
g101
ssg82
g2925
sg75
(lp2937
S':'
asbag68
(g89
g70
NtRp2938
(dp2939
g73
(dp2940
sg82
g2925
sg75
(lp2941
g68
(g69
g70
NtRp2942
(dp2943
g73
(dp2944
g81
I5
ssg82
g2938
sg75
(lp2945
g68
(g77
g70
NtRp2946
(dp2947
g73
(dp2948
g81
I4
ssg82
Nsg75
(lp2949
g68
(g84
g70
NtRp2950
(dp2951
g73
(dp2952
sg82
g2946
sg75
(lp2953
g68
(g89
g70
NtRp2954
(dp2955
g73
(dp2956
g93
g94
ssg82
g2950
sg75
(lp2957
S'environ'
p2958
asbag68
(g89
g70
NtRp2959
(dp2960
g73
(dp2961
g100
g101
ssg82
g2950
sg75
(lp2962
S':'
asbag68
(g89
g70
NtRp2963
(dp2964
g73
(dp2965
sg82
g2950
sg75
(lp2966
g68
(g69
g70
NtRp2967
(dp2968
g73
(dp2969
g81
I4
ssg82
g2963
sg75
(lp2970
g68
(g77
g70
NtRp2971
(dp2972
g73
(dp2973
g81
I3
ssg82
Nsg75
(lp2974
g68
(g84
g70
NtRp2975
(dp2976
g73
(dp2977
sg82
g2971
sg75
(lp2978
g68
(g89
g70
NtRp2979
(dp2980
g73
(dp2981
g93
g94
ssg82
g2975
sg75
(lp2982
S'HTTP_ACCEPT'
p2983
asbag68
(g89
g70
NtRp2984
(dp2985
g73
(dp2986
g100
g101
ssg82
g2975
sg75
(lp2987
S':'
asbag68
(g89
g70
NtRp2988
(dp2989
g73
(dp2990
sg82
g2975
sg75
(lp2991
g68
(g69
g70
NtRp2992
(dp2993
g73
(dp2994
g81
I3
ssg82
g2988
sg75
(lp2995
g1569
asbasbasbag68
(g84
g70
NtRp2996
(dp2997
g73
(dp2998
sg82
g2971
sg75
(lp2999
g68
(g89
g70
NtRp3000
(dp3001
g73
(dp3002
g93
g94
ssg82
g2996
sg75
(lp3003
S'HTTP_ACCEPT_ENCODING'
p3004
asbag68
(g89
g70
NtRp3005
(dp3006
g73
(dp3007
g100
g101
ssg82
g2996
sg75
(lp3008
S':'
asbag68
(g89
g70
NtRp3009
(dp3010
g73
(dp3011
sg82
g2996
sg75
(lp3012
g68
(g69
g70
NtRp3013
(dp3014
g73
(dp3015
g81
I3
ssg82
g3009
sg75
(lp3016
g1591
asbasbasbag68
(g84
g70
NtRp3017
(dp3018
g73
(dp3019
sg82
g2971
sg75
(lp3020
g68
(g89
g70
NtRp3021
(dp3022
g73
(dp3023
g93
g94
ssg82
g3017
sg75
(lp3024
S'HTTP_ACCEPT_LANGUAGE'
p3025
asbag68
(g89
g70
NtRp3026
(dp3027
g73
(dp3028
g100
g101
ssg82
g3017
sg75
(lp3029
S':'
asbag68
(g89
g70
NtRp3030
(dp3031
g73
(dp3032
sg82
g3017
sg75
(lp3033
g68
(g69
g70
NtRp3034
(dp3035
g73
(dp3036
g81
I3
ssg82
g3030
sg75
(lp3037
g1613
asbasbasbag68
(g84
g70
NtRp3038
(dp3039
g73
(dp3040
sg82
g2971
sg75
(lp3041
g68
(g89
g70
NtRp3042
(dp3043
g73
(dp3044
g93
g94
ssg82
g3038
sg75
(lp3045
S'HTTP_CONNECTION'
p3046
asbag68
(g89
g70
NtRp3047
(dp3048
g73
(dp3049
g100
g101
ssg82
g3038
sg75
(lp3050
S':'
asbag68
(g89
g70
NtRp3051
(dp3052
g73
(dp3053
sg82
g3038
sg75
(lp3054
g68
(g69
g70
NtRp3055
(dp3056
g73
(dp3057
g81
I3
ssg82
g3051
sg75
(lp3058
g1635
asbasbasbag68
(g84
g70
NtRp3059
(dp3060
g73
(dp3061
sg82
g2971
sg75
(lp3062
g68
(g89
g70
NtRp3063
(dp3064
g73
(dp3065
g93
g94
ssg82
g3059
sg75
(lp3066
S'HTTP_COOKIE'
p3067
asbag68
(g89
g70
NtRp3068
(dp3069
g73
(dp3070
g100
g101
ssg82
g3059
sg75
(lp3071
S':'
asbag68
(g89
g70
NtRp3072
(dp3073
g73
(dp3074
sg82
g3059
sg75
(lp3075
g68
(g69
g70
NtRp3076
(dp3077
g73
(dp3078
g81
I3
ssg82
g3072
sg75
(lp3079
g1657
asbasbasbag68
(g84
g70
NtRp3080
(dp3081
g73
(dp3082
sg82
g2971
sg75
(lp3083
g68
(g89
g70
NtRp3084
(dp3085
g73
(dp3086
g93
g94
ssg82
g3080
sg75
(lp3087
S'HTTP_HOST'
p3088
asbag68
(g89
g70
NtRp3089
(dp3090
g73
(dp3091
g100
g101
ssg82
g3080
sg75
(lp3092
S':'
asbag68
(g89
g70
NtRp3093
(dp3094
g73
(dp3095
sg82
g3080
sg75
(lp3096
g68
(g69
g70
NtRp3097
(dp3098
g73
(dp3099
g81
I3
ssg82
g3093
sg75
(lp3100
g1679
asbasbasbag68
(g84
g70
NtRp3101
(dp3102
g73
(dp3103
sg82
g2971
sg75
(lp3104
g68
(g89
g70
NtRp3105
(dp3106
g73
(dp3107
g93
g94
ssg82
g3101
sg75
(lp3108
S'HTTP_REFERER'
p3109
asbag68
(g89
g70
NtRp3110
(dp3111
g73
(dp3112
g100
g101
ssg82
g3101
sg75
(lp3113
S':'
asbag68
(g89
g70
NtRp3114
(dp3115
g73
(dp3116
sg82
g3101
sg75
(lp3117
g68
(g69
g70
NtRp3118
(dp3119
g73
(dp3120
g81
I3
ssg82
g3114
sg75
(lp3121
g1701
asbasbasbag68
(g84
g70
NtRp3122
(dp3123
g73
(dp3124
sg82
g2971
sg75
(lp3125
g68
(g89
g70
NtRp3126
(dp3127
g73
(dp3128
g93
g94
ssg82
g3122
sg75
(lp3129
S'HTTP_USER_AGENT'
p3130
asbag68
(g89
g70
NtRp3131
(dp3132
g73
(dp3133
g100
g101
ssg82
g3122
sg75
(lp3134
S':'
asbag68
(g89
g70
NtRp3135
(dp3136
g73
(dp3137
sg82
g3122
sg75
(lp3138
g68
(g69
g70
NtRp3139
(dp3140
g73
(dp3141
g81
I3
ssg82
g3135
sg75
(lp3142
g1723
asbasbasbag68
(g84
g70
NtRp3143
(dp3144
g73
(dp3145
sg82
g2971
sg75
(lp3146
g68
(g89
g70
NtRp3147
(dp3148
g73
(dp3149
g93
g94
ssg82
g3143
sg75
(lp3150
S'PATH_INFO'
p3151
asbag68
(g89
g70
NtRp3152
(dp3153
g73
(dp3154
g100
g101
ssg82
g3143
sg75
(lp3155
S':'
asbag68
(g89
g70
NtRp3156
(dp3157
g73
(dp3158
sg82
g3143
sg75
(lp3159
g68
(g69
g70
NtRp3160
(dp3161
g73
(dp3162
g81
I3
ssg82
g3156
sg75
(lp3163
g1787
asbasbasbag68
(g84
g70
NtRp3164
(dp3165
g73
(dp3166
sg82
g2971
sg75
(lp3167
g68
(g89
g70
NtRp3168
(dp3169
g73
(dp3170
g93
g94
ssg82
g3164
sg75
(lp3171
S'QUERY_STRING'
p3172
asbag68
(g89
g70
NtRp3173
(dp3174
g73
(dp3175
g100
g101
ssg82
g3164
sg75
(lp3176
S':'
asbag68
(g89
g70
NtRp3177
(dp3178
g73
(dp3179
sg82
g3164
sg75
(lp3180
g68
(g69
g70
NtRp3181
(dp3182
g73
(dp3183
g81
I3
ssg82
g3177
sg75
(lp3184
S''
asbasbasbag68
(g84
g70
NtRp3185
(dp3186
g73
(dp3187
sg82
g2971
sg75
(lp3188
g68
(g89
g70
NtRp3189
(dp3190
g73
(dp3191
g93
g94
ssg82
g3185
sg75
(lp3192
S'REMOTE_ADDR'
p3193
asbag68
(g89
g70
NtRp3194
(dp3195
g73
(dp3196
g100
g101
ssg82
g3185
sg75
(lp3197
S':'
asbag68
(g89
g70
NtRp3198
(dp3199
g73
(dp3200
sg82
g3185
sg75
(lp3201
g68
(g69
g70
NtRp3202
(dp3203
g73
(dp3204
g81
I3
ssg82
g3198
sg75
(lp3205
g201
asbasbasbag68
(g84
g70
NtRp3206
(dp3207
g73
(dp3208
sg82
g2971
sg75
(lp3209
g68
(g89
g70
NtRp3210
(dp3211
g73
(dp3212
g93
g94
ssg82
g3206
sg75
(lp3213
S'REMOTE_PORT'
p3214
asbag68
(g89
g70
NtRp3215
(dp3216
g73
(dp3217
g100
g101
ssg82
g3206
sg75
(lp3218
S':'
asbag68
(g89
g70
NtRp3219
(dp3220
g73
(dp3221
sg82
g3206
sg75
(lp3222
g68
(g69
g70
NtRp3223
(dp3224
g73
(dp3225
g81
I3
ssg82
g3219
sg75
(lp3226
g1851
asbasbasbag68
(g84
g70
NtRp3227
(dp3228
g73
(dp3229
sg82
g2971
sg75
(lp3230
g68
(g89
g70
NtRp3231
(dp3232
g73
(dp3233
g93
g94
ssg82
g3227
sg75
(lp3234
S'REQUEST_METHOD'
p3235
asbag68
(g89
g70
NtRp3236
(dp3237
g73
(dp3238
g100
g101
ssg82
g3227
sg75
(lp3239
S':'
asbag68
(g89
g70
NtRp3240
(dp3241
g73
(dp3242
sg82
g3227
sg75
(lp3243
g68
(g69
g70
NtRp3244
(dp3245
g73
(dp3246
g81
I3
ssg82
g3240
sg75
(lp3247
g1873
asbasbasbag68
(g84
g70
NtRp3248
(dp3249
g73
(dp3250
sg82
g2971
sg75
(lp3251
g68
(g89
g70
NtRp3252
(dp3253
g73
(dp3254
g93
g94
ssg82
g3248
sg75
(lp3255
S'SCRIPT_NAME'
p3256
asbag68
(g89
g70
NtRp3257
(dp3258
g73
(dp3259
g100
g101
ssg82
g3248
sg75
(lp3260
S':'
asbag68
(g89
g70
NtRp3261
(dp3262
g73
(dp3263
sg82
g3248
sg75
(lp3264
g68
(g69
g70
NtRp3265
(dp3266
g73
(dp3267
g81
I3
ssg82
g3261
sg75
(lp3268
S''
asbasbasbag68
(g84
g70
NtRp3269
(dp3270
g73
(dp3271
sg82
g2971
sg75
(lp3272
g68
(g89
g70
NtRp3273
(dp3274
g73
(dp3275
g93
g94
ssg82
g3269
sg75
(lp3276
S'SERVER_NAME'
p3277
asbag68
(g89
g70
NtRp3278
(dp3279
g73
(dp3280
g100
g101
ssg82
g3269
sg75
(lp3281
S':'
asbag68
(g89
g70
NtRp3282
(dp3283
g73
(dp3284
sg82
g3269
sg75
(lp3285
g68
(g69
g70
NtRp3286
(dp3287
g73
(dp3288
g81
I3
ssg82
g3282
sg75
(lp3289
g1916
asbasbasbag68
(g84
g70
NtRp3290
(dp3291
g73
(dp3292
sg82
g2971
sg75
(lp3293
g68
(g89
g70
NtRp3294
(dp3295
g73
(dp3296
g93
g94
ssg82
g3290
sg75
(lp3297
S'SERVER_PORT'
p3298
asbag68
(g89
g70
NtRp3299
(dp3300
g73
(dp3301
g100
g101
ssg82
g3290
sg75
(lp3302
S':'
asbag68
(g89
g70
NtRp3303
(dp3304
g73
(dp3305
sg82
g3290
sg75
(lp3306
g68
(g69
g70
NtRp3307
(dp3308
g73
(dp3309
g81
I3
ssg82
g3303
sg75
(lp3310
g1938
asbasbasbag68
(g84
g70
NtRp3311
(dp3312
g73
(dp3313
sg82
g2971
sg75
(lp3314
g68
(g89
g70
NtRp3315
(dp3316
g73
(dp3317
g93
g94
ssg82
g3311
sg75
(lp3318
S'SERVER_PROTOCOL'
p3319
asbag68
(g89
g70
NtRp3320
(dp3321
g73
(dp3322
g100
g101
ssg82
g3311
sg75
(lp3323
S':'
asbag68
(g89
g70
NtRp3324
(dp3325
g73
(dp3326
sg82
g3311
sg75
(lp3327
g68
(g69
g70
NtRp3328
(dp3329
g73
(dp3330
g81
I3
ssg82
g3324
sg75
(lp3331
g1960
asbasbasbag68
(g84
g70
NtRp3332
(dp3333
g73
(dp3334
sg82
g2971
sg75
(lp3335
g68
(g89
g70
NtRp3336
(dp3337
g73
(dp3338
g93
g94
ssg82
g3332
sg75
(lp3339
S'SERVER_SOFTWARE'
p3340
asbag68
(g89
g70
NtRp3341
(dp3342
g73
(dp3343
g100
g101
ssg82
g3332
sg75
(lp3344
S':'
asbag68
(g89
g70
NtRp3345
(dp3346
g73
(dp3347
sg82
g3332
sg75
(lp3348
g68
(g69
g70
NtRp3349
(dp3350
g73
(dp3351
g81
I3
ssg82
g3345
sg75
(lp3352
g1982
asbasbasbag68
(g84
g70
NtRp3353
(dp3354
g73
(dp3355
sg82
g2971
sg75
(lp3356
g68
(g89
g70
NtRp3357
(dp3358
g73
(dp3359
g93
g94
ssg82
g3353
sg75
(lp3360
S'wsgi.errors'
p3361
asbag68
(g89
g70
NtRp3362
(dp3363
g73
(dp3364
g100
g101
ssg82
g3353
sg75
(lp3365
S':'
asbag68
(g89
g70
NtRp3366
(dp3367
g73
(dp3368
sg82
g3353
sg75
(lp3369
g68
(g69
g70
NtRp3370
(dp3371
g73
(dp3372
g81
I3
ssg82
g3366
sg75
(lp3373
S"<open file '<stderr>', mode 'w' at 0xb73060d0>"
p3374
asbasbasbag68
(g84
g70
NtRp3375
(dp3376
g73
(dp3377
sg82
g2971
sg75
(lp3378
g68
(g89
g70
NtRp3379
(dp3380
g73
(dp3381
g93
g94
ssg82
g3375
sg75
(lp3382
S'wsgi.file_wrapper'
p3383
asbag68
(g89
g70
NtRp3384
(dp3385
g73
(dp3386
g100
g101
ssg82
g3375
sg75
(lp3387
S':'
asbag68
(g89
g70
NtRp3388
(dp3389
g73
(dp3390
sg82
g3375
sg75
(lp3391
g68
(g69
g70
NtRp3392
(dp3393
g73
(dp3394
g81
I3
ssg82
g3388
sg75
(lp3395
S'<class wsgiref.util.FileWrapper at 0x89a24ac>'
p3396
asbasbasbag68
(g84
g70
NtRp3397
(dp3398
g73
(dp3399
sg82
g2971
sg75
(lp3400
g68
(g89
g70
NtRp3401
(dp3402
g73
(dp3403
g93
g94
ssg82
g3397
sg75
(lp3404
S'wsgi.input'
p3405
asbag68
(g89
g70
NtRp3406
(dp3407
g73
(dp3408
g100
g101
ssg82
g3397
sg75
(lp3409
S':'
asbag68
(g89
g70
NtRp3410
(dp3411
g73
(dp3412
sg82
g3397
sg75
(lp3413
g68
(g69
g70
NtRp3414
(dp3415
g73
(dp3416
g81
I3
ssg82
g3410
sg75
(lp3417
S'<cStringIO.StringO object at 0xaaa373a0>'
p3418
asbasbasbag68
(g84
g70
NtRp3419
(dp3420
g73
(dp3421
sg82
g2971
sg75
(lp3422
g68
(g89
g70
NtRp3423
(dp3424
g73
(dp3425
g93
g94
ssg82
g3419
sg75
(lp3426
S'wsgi.multiprocess'
p3427
asbag68
(g89
g70
NtRp3428
(dp3429
g73
(dp3430
g100
g101
ssg82
g3419
sg75
(lp3431
S':'
asbag68
(g89
g70
NtRp3432
(dp3433
g73
(dp3434
sg82
g3419
sg75
(lp3435
g68
(g69
g70
NtRp3436
(dp3437
g73
(dp3438
g81
I3
ssg82
g3432
sg75
(lp3439
g111
asbasbasbag68
(g84
g70
NtRp3440
(dp3441
g73
(dp3442
sg82
g2971
sg75
(lp3443
g68
(g89
g70
NtRp3444
(dp3445
g73
(dp3446
g93
g94
ssg82
g3440
sg75
(lp3447
S'wsgi.multithread'
p3448
asbag68
(g89
g70
NtRp3449
(dp3450
g73
(dp3451
g100
g101
ssg82
g3440
sg75
(lp3452
S':'
asbag68
(g89
g70
NtRp3453
(dp3454
g73
(dp3455
sg82
g3440
sg75
(lp3456
g68
(g69
g70
NtRp3457
(dp3458
g73
(dp3459
g81
I3
ssg82
g3453
sg75
(lp3460
g2222
asbasbasbag68
(g84
g70
NtRp3461
(dp3462
g73
(dp3463
sg82
g2971
sg75
(lp3464
g68
(g89
g70
NtRp3465
(dp3466
g73
(dp3467
g93
g94
ssg82
g3461
sg75
(lp3468
S'wsgi.run_once'
p3469
asbag68
(g89
g70
NtRp3470
(dp3471
g73
(dp3472
g100
g101
ssg82
g3461
sg75
(lp3473
S':'
asbag68
(g89
g70
NtRp3474
(dp3475
g73
(dp3476
sg82
g3461
sg75
(lp3477
g68
(g69
g70
NtRp3478
(dp3479
g73
(dp3480
g81
I3
ssg82
g3474
sg75
(lp3481
g111
asbasbasbag68
(g84
g70
NtRp3482
(dp3483
g73
(dp3484
sg82
g2971
sg75
(lp3485
g68
(g89
g70
NtRp3486
(dp3487
g73
(dp3488
g93
g94
ssg82
g3482
sg75
(lp3489
S'wsgi.url_scheme'
p3490
asbag68
(g89
g70
NtRp3491
(dp3492
g73
(dp3493
g100
g101
ssg82
g3482
sg75
(lp3494
S':'
asbag68
(g89
g70
NtRp3495
(dp3496
g73
(dp3497
sg82
g3482
sg75
(lp3498
g68
(g69
g70
NtRp3499
(dp3500
g73
(dp3501
g81
I3
ssg82
g3495
sg75
(lp3502
g2265
asbasbasbag68
(g84
g70
NtRp3503
(dp3504
g73
(dp3505
sg82
g2971
sg75
(lp3506
g68
(g89
g70
NtRp3507
(dp3508
g73
(dp3509
g93
g94
ssg82
g3503
sg75
(lp3510
S'wsgi.version'
p3511
asbag68
(g89
g70
NtRp3512
(dp3513
g73
(dp3514
g100
g101
ssg82
g3503
sg75
(lp3515
S':'
asbag68
(g89
g70
NtRp3516
(dp3517
g73
(dp3518
sg82
g3503
sg75
(lp3519
g68
(g69
g70
NtRp3520
(dp3521
g73
(dp3522
g81
I3
ssg82
g3516
sg75
(lp3523
S'1'
asbasbasbasbasbasbasbasbasbasbasbasbasbsS'frames'
p3524
(lp3525
(dp3526
S'file'
p3527
S'/usr/lib/pymodules/python2.7/gluon/restricted.py'
p3528
sS'dump'
p3529
(dp3530
S'code'
p3531
S'"import gluon.storage\\n\\n### this the CAS object us...//%s/%s/cas/verify\' % (HOST,request.application)\\n"'
p3532
sS'layer'
p3533
S"'/home/unic/web2py/applications/manager/models/cas.py'"
p3534
sS'global compile2'
p3535
S'<function compile2>'
p3536
sS'ccode'
p3537
S'undefined'
p3538
ssS'lnum'
p3539
I203
sS'lines'
p3540
(dp3541
I198
S"    environment['__file__'] = layer"
p3542
sI199
S'    try:'
p3543
sI200
S'        if type(code) == types.CodeType:'
p3544
sI201
S'            ccode = code'
p3545
sI202
S'        else:'
p3546
sI203
S'            ccode = compile2(code,layer)'
p3547
sI204
S'        exec ccode in environment'
p3548
sI205
S'    except HTTP:'
p3549
sI206
S'        raise'
p3550
sI207
S'    except RestrictedError:'
p3551
ssS'call'
p3552
S'(code="import gluon.storage\\n\\n### this the CAS object us...//%s/%s/cas/verify\' % (HOST,request.application)\\n", environment={\'A\': <class \'gluon.html.A\'>, \'B\': <class \'gluon.html.B\'>, \'BEAUTIFY\': <class \'gluon.html.BEAUTIFY\'>, \'BODY\': <class \'gluon.html.BODY\'>, \'BR\': <class \'gluon.html.BR\'>, \'BUTTON\': <class \'gluon.html.BUTTON\'>, \'CAT\': <class \'gluon.html.CAT\'>, \'CENTER\': <class \'gluon.html.CENTER\'>, \'CLEANUP\': <class \'gluon.validators.CLEANUP\'>, \'CODE\': <class \'gluon.html.CODE\'>, ...}, layer=\'/home/unic/web2py/applications/manager/models/cas.py\')'
p3553
sS'func'
p3554
S'restricted'
p3555
sa(dp3556
g3527
S'/usr/lib/pymodules/python2.7/gluon/restricted.py'
p3557
sg3529
(dp3558
S'builtincompile'
p3559
S'<built-in function compile>'
p3560
sS'code'
p3561
S'"import gluon.storage\\n\\n### this the CAS object us...//%s/%s/cas/verify\' % (HOST,request.application)\\n"'
p3562
sS'code.rstrip'
p3563
S'<built-in method rstrip of str object>'
p3564
sS').replace'
p3565
g3538
sS'layer'
p3566
S"'/home/unic/web2py/applications/manager/models/cas.py'"
p3567
ssg3539
I189
sg3540
(dp3568
I192
S'    """'
p3569
sI193
S'    runs code in environment and returns the output. if an exception occurs'
p3570
sI184
S''
sI185
S'def compile2(code,layer):'
p3571
sI186
S'    """'
p3572
sI187
S"    The +'\\n' is necessary else compile fails when code ends in a comment."
p3573
sI188
S'    """'
p3574
sI189
S"    return compile(code.rstrip().replace('\\r\\n','\\n')+'\\n', layer, 'exec')"
p3575
sI190
S''
sI191
S"def restricted(code, environment=None, layer='Unknown'):"
p3576
ssg3552
S'(code="import gluon.storage\\n\\n### this the CAS object us...//%s/%s/cas/verify\' % (HOST,request.application)\\n", layer=\'/home/unic/web2py/applications/manager/models/cas.py\')'
p3577
sg3554
S'compile2'
p3578
sasS'pyver'
p3579
S'Python 2.7.3: /usr/bin/python'
p3580
sS'session'
p3581
g68
(g69
g70
NtRp3582
(dp3583
g73
(dp3584
sg75
(lp3585
g68
(g77
g70
NtRp3586
(dp3587
g73
(dp3588
g81
I5
ssg82
Nsg75
(lp3589
g68
(g84
g70
NtRp3590
(dp3591
g73
(dp3592
sg82
g3586
sg75
(lp3593
g68
(g89
g70
NtRp3594
(dp3595
g73
(dp3596
g93
g94
ssg82
g3590
sg75
(lp3597
S'login'
p3598
asbag68
(g89
g70
NtRp3599
(dp3600
g73
(dp3601
g100
g101
ssg82
g3590
sg75
(lp3602
S':'
asbag68
(g89
g70
NtRp3603
(dp3604
g73
(dp3605
sg82
g3590
sg75
(lp3606
g68
(g69
g70
NtRp3607
(dp3608
g73
(dp3609
g81
I5
ssg82
g3603
sg75
(lp3610
S'0'
asbasbasbasbasbsS'etype'
p3611
S"<type 'exceptions.IndentationError'>"
p3612
sS'date'
p3613
S'Mon Nov  5 22:30:06 2012'
p3614
sS'response'
p3615
g68
(g69
g70
NtRp3616
(dp3617
g73
(dp3618
sg75
(lp3619
g68
(g77
g70
NtRp3620
(dp3621
g73
(dp3622
g81
I5
ssg82
Nsg75
(lp3623
g68
(g84
g70
NtRp3624
(dp3625
g73
(dp3626
sg82
g3620
sg75
(lp3627
g68
(g89
g70
NtRp3628
(dp3629
g73
(dp3630
g93
g94
ssg82
g3624
sg75
(lp3631
g166
asbag68
(g89
g70
NtRp3632
(dp3633
g73
(dp3634
g100
g101
ssg82
g3624
sg75
(lp3635
S':'
asbag68
(g89
g70
NtRp3636
(dp3637
g73
(dp3638
sg82
g3624
sg75
(lp3639
g68
(g69
g70
NtRp3640
(dp3641
g73
(dp3642
g81
I5
ssg82
g3636
sg75
(lp3643
S'<cStringIO.StringO object at 0x8f8aba0>'
p3644
asbasbasbag68
(g84
g70
NtRp3645
(dp3646
g73
(dp3647
sg82
g3620
sg75
(lp3648
g68
(g89
g70
NtRp3649
(dp3650
g73
(dp3651
g93
g94
ssg82
g3645
sg75
(lp3652
g232
asbag68
(g89
g70
NtRp3653
(dp3654
g73
(dp3655
g100
g101
ssg82
g3645
sg75
(lp3656
S':'
asbag68
(g89
g70
NtRp3657
(dp3658
g73
(dp3659
sg82
g3645
sg75
(lp3660
g68
(g69
g70
NtRp3661
(dp3662
g73
(dp3663
g81
I5
ssg82
g3657
sg75
(lp3664
g68
(g77
g70
NtRp3665
(dp3666
g73
(dp3667
g81
I4
ssg82
Nsg75
(lp3668
g68
(g84
g70
NtRp3669
(dp3670
g73
(dp3671
sg82
g3665
sg75
(lp3672
g68
(g89
g70
NtRp3673
(dp3674
g73
(dp3675
g93
g94
ssg82
g3669
sg75
(lp3676
S'session_id_manager'
p3677
asbag68
(g89
g70
NtRp3678
(dp3679
g73
(dp3680
g100
g101
ssg82
g3669
sg75
(lp3681
S':'
asbag68
(g89
g70
NtRp3682
(dp3683
g73
(dp3684
sg82
g3669
sg75
(lp3685
g68
(g69
g70
NtRp3686
(dp3687
g73
(dp3688
g81
I4
ssg82
g3682
sg75
(lp3689
g68
(g77
g70
NtRp3690
(dp3691
g73
(dp3692
g81
I3
ssg82
Nsg75
(lp3693
g68
(g84
g70
NtRp3694
(dp3695
g73
(dp3696
sg82
g3690
sg75
(lp3697
g68
(g89
g70
NtRp3698
(dp3699
g73
(dp3700
g93
g94
ssg82
g3694
sg75
(lp3701
g282
asbag68
(g89
g70
NtRp3702
(dp3703
g73
(dp3704
g100
g101
ssg82
g3694
sg75
(lp3705
S':'
asbag68
(g89
g70
NtRp3706
(dp3707
g73
(dp3708
sg82
g3694
sg75
(lp3709
g68
(g69
g70
NtRp3710
(dp3711
g73
(dp3712
g81
I3
ssg82
g3706
sg75
(lp3713
S''
asbasbasbag68
(g84
g70
NtRp3714
(dp3715
g73
(dp3716
sg82
g3690
sg75
(lp3717
g68
(g89
g70
NtRp3718
(dp3719
g73
(dp3720
g93
g94
ssg82
g3714
sg75
(lp3721
g303
asbag68
(g89
g70
NtRp3722
(dp3723
g73
(dp3724
g100
g101
ssg82
g3714
sg75
(lp3725
S':'
asbag68
(g89
g70
NtRp3726
(dp3727
g73
(dp3728
sg82
g3714
sg75
(lp3729
g68
(g69
g70
NtRp3730
(dp3731
g73
(dp3732
g81
I3
ssg82
g3726
sg75
(lp3733
S''
asbasbasbag68
(g84
g70
NtRp3734
(dp3735
g73
(dp3736
sg82
g3690
sg75
(lp3737
g68
(g89
g70
NtRp3738
(dp3739
g73
(dp3740
g93
g94
ssg82
g3734
sg75
(lp3741
g324
asbag68
(g89
g70
NtRp3742
(dp3743
g73
(dp3744
g100
g101
ssg82
g3734
sg75
(lp3745
S':'
asbag68
(g89
g70
NtRp3746
(dp3747
g73
(dp3748
sg82
g3734
sg75
(lp3749
g68
(g69
g70
NtRp3750
(dp3751
g73
(dp3752
g81
I3
ssg82
g3746
sg75
(lp3753
S''
asbasbasbag68
(g84
g70
NtRp3754
(dp3755
g73
(dp3756
sg82
g3690
sg75
(lp3757
g68
(g89
g70
NtRp3758
(dp3759
g73
(dp3760
g93
g94
ssg82
g3754
sg75
(lp3761
g345
asbag68
(g89
g70
NtRp3762
(dp3763
g73
(dp3764
g100
g101
ssg82
g3754
sg75
(lp3765
S':'
asbag68
(g89
g70
NtRp3766
(dp3767
g73
(dp3768
sg82
g3754
sg75
(lp3769
g68
(g69
g70
NtRp3770
(dp3771
g73
(dp3772
g81
I3
ssg82
g3766
sg75
(lp3773
S''
asbasbasbag68
(g84
g70
NtRp3774
(dp3775
g73
(dp3776
sg82
g3690
sg75
(lp3777
g68
(g89
g70
NtRp3778
(dp3779
g73
(dp3780
g93
g94
ssg82
g3774
sg75
(lp3781
g366
asbag68
(g89
g70
NtRp3782
(dp3783
g73
(dp3784
g100
g101
ssg82
g3774
sg75
(lp3785
S':'
asbag68
(g89
g70
NtRp3786
(dp3787
g73
(dp3788
sg82
g3774
sg75
(lp3789
g68
(g69
g70
NtRp3790
(dp3791
g73
(dp3792
g81
I3
ssg82
g3786
sg75
(lp3793
S''
asbasbasbag68
(g84
g70
NtRp3794
(dp3795
g73
(dp3796
sg82
g3690
sg75
(lp3797
g68
(g89
g70
NtRp3798
(dp3799
g73
(dp3800
g93
g94
ssg82
g3794
sg75
(lp3801
g387
asbag68
(g89
g70
NtRp3802
(dp3803
g73
(dp3804
g100
g101
ssg82
g3794
sg75
(lp3805
S':'
asbag68
(g89
g70
NtRp3806
(dp3807
g73
(dp3808
sg82
g3794
sg75
(lp3809
g68
(g69
g70
NtRp3810
(dp3811
g73
(dp3812
g81
I3
ssg82
g3806
sg75
(lp3813
S'/'
asbasbasbag68
(g84
g70
NtRp3814
(dp3815
g73
(dp3816
sg82
g3690
sg75
(lp3817
g68
(g89
g70
NtRp3818
(dp3819
g73
(dp3820
g93
g94
ssg82
g3814
sg75
(lp3821
g408
asbag68
(g89
g70
NtRp3822
(dp3823
g73
(dp3824
g100
g101
ssg82
g3814
sg75
(lp3825
S':'
asbag68
(g89
g70
NtRp3826
(dp3827
g73
(dp3828
sg82
g3814
sg75
(lp3829
g68
(g69
g70
NtRp3830
(dp3831
g73
(dp3832
g81
I3
ssg82
g3826
sg75
(lp3833
S''
asbasbasbag68
(g84
g70
NtRp3834
(dp3835
g73
(dp3836
sg82
g3690
sg75
(lp3837
g68
(g89
g70
NtRp3838
(dp3839
g73
(dp3840
g93
g94
ssg82
g3834
sg75
(lp3841
g429
asbag68
(g89
g70
NtRp3842
(dp3843
g73
(dp3844
g100
g101
ssg82
g3834
sg75
(lp3845
S':'
asbag68
(g89
g70
NtRp3846
(dp3847
g73
(dp3848
sg82
g3834
sg75
(lp3849
g68
(g69
g70
NtRp3850
(dp3851
g73
(dp3852
g81
I3
ssg82
g3846
sg75
(lp3853
S''
asbasbasbasbasbasbasbasbasbasbasbag68
(g84
g70
NtRp3854
(dp3855
g73
(dp3856
sg82
g3620
sg75
(lp3857
g68
(g89
g70
NtRp3858
(dp3859
g73
(dp3860
g93
g94
ssg82
g3854
sg75
(lp3861
S'files'
p3862
asbag68
(g89
g70
NtRp3863
(dp3864
g73
(dp3865
g100
g101
ssg82
g3854
sg75
(lp3866
S':'
asbag68
(g89
g70
NtRp3867
(dp3868
g73
(dp3869
sg82
g3854
sg75
(lp3870
g68
(g69
g70
NtRp3871
(dp3872
g73
(dp3873
g81
I5
ssg82
g3867
sg75
(lp3874
g68
(g77
g70
NtRp3875
(dp3876
g73
(dp3877
g81
I4
ssg82
Nsg75
(lp3878
sbasbasbasbag68
(g84
g70
NtRp3879
(dp3880
g73
(dp3881
sg82
g3620
sg75
(lp3882
g68
(g89
g70
NtRp3883
(dp3884
g73
(dp3885
g93
g94
ssg82
g3879
sg75
(lp3886
S'flash'
p3887
asbag68
(g89
g70
NtRp3888
(dp3889
g73
(dp3890
g100
g101
ssg82
g3879
sg75
(lp3891
S':'
asbag68
(g89
g70
NtRp3892
(dp3893
g73
(dp3894
sg82
g3879
sg75
(lp3895
g68
(g69
g70
NtRp3896
(dp3897
g73
(dp3898
g81
I5
ssg82
g3892
sg75
(lp3899
S''
asbasbasbag68
(g84
g70
NtRp3900
(dp3901
g73
(dp3902
sg82
g3620
sg75
(lp3903
g68
(g89
g70
NtRp3904
(dp3905
g73
(dp3906
g93
g94
ssg82
g3900
sg75
(lp3907
S'generic_patterns'
p3908
asbag68
(g89
g70
NtRp3909
(dp3910
g73
(dp3911
g100
g101
ssg82
g3900
sg75
(lp3912
S':'
asbag68
(g89
g70
NtRp3913
(dp3914
g73
(dp3915
sg82
g3900
sg75
(lp3916
g68
(g69
g70
NtRp3917
(dp3918
g73
(dp3919
g81
I5
ssg82
g3913
sg75
(lp3920
g68
(g77
g70
NtRp3921
(dp3922
g73
(dp3923
g81
I4
ssg82
Nsg75
(lp3924
sbasbasbasbag68
(g84
g70
NtRp3925
(dp3926
g73
(dp3927
sg82
g3620
sg75
(lp3928
g68
(g89
g70
NtRp3929
(dp3930
g73
(dp3931
g93
g94
ssg82
g3925
sg75
(lp3932
S'headers'
p3933
asbag68
(g89
g70
NtRp3934
(dp3935
g73
(dp3936
g100
g101
ssg82
g3925
sg75
(lp3937
S':'
asbag68
(g89
g70
NtRp3938
(dp3939
g73
(dp3940
sg82
g3925
sg75
(lp3941
g68
(g69
g70
NtRp3942
(dp3943
g73
(dp3944
g81
I5
ssg82
g3938
sg75
(lp3945
g68
(g77
g70
NtRp3946
(dp3947
g73
(dp3948
g81
I4
ssg82
Nsg75
(lp3949
g68
(g84
g70
NtRp3950
(dp3951
g73
(dp3952
sg82
g3946
sg75
(lp3953
g68
(g89
g70
NtRp3954
(dp3955
g73
(dp3956
g93
g94
ssg82
g3950
sg75
(lp3957
S'Cache-Control'
p3958
asbag68
(g89
g70
NtRp3959
(dp3960
g73
(dp3961
g100
g101
ssg82
g3950
sg75
(lp3962
S':'
asbag68
(g89
g70
NtRp3963
(dp3964
g73
(dp3965
sg82
g3950
sg75
(lp3966
g68
(g69
g70
NtRp3967
(dp3968
g73
(dp3969
g81
I4
ssg82
g3963
sg75
(lp3970
S'no-store, no-cache, must-revalidate, post-check=0, pre-check=0'
p3971
asbasbasbag68
(g84
g70
NtRp3972
(dp3973
g73
(dp3974
sg82
g3946
sg75
(lp3975
g68
(g89
g70
NtRp3976
(dp3977
g73
(dp3978
g93
g94
ssg82
g3972
sg75
(lp3979
S'Content-Type'
p3980
asbag68
(g89
g70
NtRp3981
(dp3982
g73
(dp3983
g100
g101
ssg82
g3972
sg75
(lp3984
S':'
asbag68
(g89
g70
NtRp3985
(dp3986
g73
(dp3987
sg82
g3972
sg75
(lp3988
g68
(g69
g70
NtRp3989
(dp3990
g73
(dp3991
g81
I4
ssg82
g3985
sg75
(lp3992
S'text/html; charset=utf-8'
p3993
asbasbasbag68
(g84
g70
NtRp3994
(dp3995
g73
(dp3996
sg82
g3946
sg75
(lp3997
g68
(g89
g70
NtRp3998
(dp3999
g73
(dp4000
g93
g94
ssg82
g3994
sg75
(lp4001
S'Expires'
p4002
asbag68
(g89
g70
NtRp4003
(dp4004
g73
(dp4005
g100
g101
ssg82
g3994
sg75
(lp4006
S':'
asbag68
(g89
g70
NtRp4007
(dp4008
g73
(dp4009
sg82
g3994
sg75
(lp4010
g68
(g69
g70
NtRp4011
(dp4012
g73
(dp4013
g81
I4
ssg82
g4007
sg75
(lp4014
S'Mon, 05 Nov 2012 17:00:06 GMT'
p4015
asbasbasbag68
(g84
g70
NtRp4016
(dp4017
g73
(dp4018
sg82
g3946
sg75
(lp4019
g68
(g89
g70
NtRp4020
(dp4021
g73
(dp4022
g93
g94
ssg82
g4016
sg75
(lp4023
S'Pragma'
p4024
asbag68
(g89
g70
NtRp4025
(dp4026
g73
(dp4027
g100
g101
ssg82
g4016
sg75
(lp4028
S':'
asbag68
(g89
g70
NtRp4029
(dp4030
g73
(dp4031
sg82
g4016
sg75
(lp4032
g68
(g69
g70
NtRp4033
(dp4034
g73
(dp4035
g81
I4
ssg82
g4029
sg75
(lp4036
S'no-cache'
p4037
asbasbasbag68
(g84
g70
NtRp4038
(dp4039
g73
(dp4040
sg82
g3946
sg75
(lp4041
g68
(g89
g70
NtRp4042
(dp4043
g73
(dp4044
g93
g94
ssg82
g4038
sg75
(lp4045
S'X-Powered-By'
p4046
asbag68
(g89
g70
NtRp4047
(dp4048
g73
(dp4049
g100
g101
ssg82
g4038
sg75
(lp4050
S':'
asbag68
(g89
g70
NtRp4051
(dp4052
g73
(dp4053
sg82
g4038
sg75
(lp4054
g68
(g69
g70
NtRp4055
(dp4056
g73
(dp4057
g81
I4
ssg82
g4051
sg75
(lp4058
S'web2py'
p4059
asbasbasbasbasbasbasbag68
(g84
g70
NtRp4060
(dp4061
g73
(dp4062
sg82
g3620
sg75
(lp4063
g68
(g89
g70
NtRp4064
(dp4065
g73
(dp4066
g93
g94
ssg82
g4060
sg75
(lp4067
S'menu'
p4068
asbag68
(g89
g70
NtRp4069
(dp4070
g73
(dp4071
g100
g101
ssg82
g4060
sg75
(lp4072
S':'
asbag68
(g89
g70
NtRp4073
(dp4074
g73
(dp4075
sg82
g4060
sg75
(lp4076
g68
(g69
g70
NtRp4077
(dp4078
g73
(dp4079
g81
I5
ssg82
g4073
sg75
(lp4080
g68
(g77
g70
NtRp4081
(dp4082
g73
(dp4083
g81
I4
ssg82
Nsg75
(lp4084
sbasbasbasbag68
(g84
g70
NtRp4085
(dp4086
g73
(dp4087
sg82
g3620
sg75
(lp4088
g68
(g89
g70
NtRp4089
(dp4090
g73
(dp4091
g93
g94
ssg82
g4085
sg75
(lp4092
S'meta'
p4093
asbag68
(g89
g70
NtRp4094
(dp4095
g73
(dp4096
g100
g101
ssg82
g4085
sg75
(lp4097
S':'
asbag68
(g89
g70
NtRp4098
(dp4099
g73
(dp4100
sg82
g4085
sg75
(lp4101
g68
(g69
g70
NtRp4102
(dp4103
g73
(dp4104
g81
I5
ssg82
g4098
sg75
(lp4105
g68
(g77
g70
NtRp4106
(dp4107
g73
(dp4108
g81
I4
ssg82
Nsg75
(lp4109
sbasbasbasbag68
(g84
g70
NtRp4110
(dp4111
g73
(dp4112
sg82
g3620
sg75
(lp4113
g68
(g89
g70
NtRp4114
(dp4115
g73
(dp4116
g93
g94
ssg82
g4110
sg75
(lp4117
S'postprocessing'
p4118
asbag68
(g89
g70
NtRp4119
(dp4120
g73
(dp4121
g100
g101
ssg82
g4110
sg75
(lp4122
S':'
asbag68
(g89
g70
NtRp4123
(dp4124
g73
(dp4125
sg82
g4110
sg75
(lp4126
g68
(g69
g70
NtRp4127
(dp4128
g73
(dp4129
g81
I5
ssg82
g4123
sg75
(lp4130
g68
(g77
g70
NtRp4131
(dp4132
g73
(dp4133
g81
I4
ssg82
Nsg75
(lp4134
sbasbasbasbag68
(g84
g70
NtRp4135
(dp4136
g73
(dp4137
sg82
g3620
sg75
(lp4138
g68
(g89
g70
NtRp4139
(dp4140
g73
(dp4141
g93
g94
ssg82
g4135
sg75
(lp4142
S'session_file'
p4143
asbag68
(g89
g70
NtRp4144
(dp4145
g73
(dp4146
g100
g101
ssg82
g4135
sg75
(lp4147
S':'
asbag68
(g89
g70
NtRp4148
(dp4149
g73
(dp4150
sg82
g4135
sg75
(lp4151
g68
(g69
g70
NtRp4152
(dp4153
g73
(dp4154
g81
I5
ssg82
g4148
sg75
(lp4155
S"<open file '/home/unic/web2py/applications/manager/sessions/127.0.0.1-ae61ac4f-5f97-42be-a28c-3bc6a699e4f2', mode 'rb+' at 0xb22c8808>"
p4156
asbasbasbag68
(g84
g70
NtRp4157
(dp4158
g73
(dp4159
sg82
g3620
sg75
(lp4160
g68
(g89
g70
NtRp4161
(dp4162
g73
(dp4163
g93
g94
ssg82
g4157
sg75
(lp4164
S'session_filename'
p4165
asbag68
(g89
g70
NtRp4166
(dp4167
g73
(dp4168
g100
g101
ssg82
g4157
sg75
(lp4169
S':'
asbag68
(g89
g70
NtRp4170
(dp4171
g73
(dp4172
sg82
g4157
sg75
(lp4173
g68
(g69
g70
NtRp4174
(dp4175
g73
(dp4176
g81
I5
ssg82
g4170
sg75
(lp4177
S'/home/unic/web2py/applications/manager/sessions/127.0.0.1-ae61ac4f-5f97-42be-a28c-3bc6a699e4f2'
p4178
asbasbasbag68
(g84
g70
NtRp4179
(dp4180
g73
(dp4181
sg82
g3620
sg75
(lp4182
g68
(g89
g70
NtRp4183
(dp4184
g73
(dp4185
g93
g94
ssg82
g4179
sg75
(lp4186
S'session_id'
p4187
asbag68
(g89
g70
NtRp4188
(dp4189
g73
(dp4190
g100
g101
ssg82
g4179
sg75
(lp4191
S':'
asbag68
(g89
g70
NtRp4192
(dp4193
g73
(dp4194
sg82
g4179
sg75
(lp4195
g68
(g69
g70
NtRp4196
(dp4197
g73
(dp4198
g81
I5
ssg82
g4192
sg75
(lp4199
S'127.0.0.1-ae61ac4f-5f97-42be-a28c-3bc6a699e4f2'
p4200
asbasbasbag68
(g84
g70
NtRp4201
(dp4202
g73
(dp4203
sg82
g3620
sg75
(lp4204
g68
(g89
g70
NtRp4205
(dp4206
g73
(dp4207
g93
g94
ssg82
g4201
sg75
(lp4208
S'session_id_name'
p4209
asbag68
(g89
g70
NtRp4210
(dp4211
g73
(dp4212
g100
g101
ssg82
g4201
sg75
(lp4213
S':'
asbag68
(g89
g70
NtRp4214
(dp4215
g73
(dp4216
sg82
g4201
sg75
(lp4217
g68
(g69
g70
NtRp4218
(dp4219
g73
(dp4220
g81
I5
ssg82
g4214
sg75
(lp4221
g3677
asbasbasbag68
(g84
g70
NtRp4222
(dp4223
g73
(dp4224
sg82
g3620
sg75
(lp4225
g68
(g89
g70
NtRp4226
(dp4227
g73
(dp4228
g93
g94
ssg82
g4222
sg75
(lp4229
S'session_locked'
p4230
asbag68
(g89
g70
NtRp4231
(dp4232
g73
(dp4233
g100
g101
ssg82
g4222
sg75
(lp4234
S':'
asbag68
(g89
g70
NtRp4235
(dp4236
g73
(dp4237
sg82
g4222
sg75
(lp4238
g68
(g69
g70
NtRp4239
(dp4240
g73
(dp4241
g81
I5
ssg82
g4235
sg75
(lp4242
g2222
asbasbasbag68
(g84
g70
NtRp4243
(dp4244
g73
(dp4245
sg82
g3620
sg75
(lp4246
g68
(g89
g70
NtRp4247
(dp4248
g73
(dp4249
g93
g94
ssg82
g4243
sg75
(lp4250
S'session_new'
p4251
asbag68
(g89
g70
NtRp4252
(dp4253
g73
(dp4254
g100
g101
ssg82
g4243
sg75
(lp4255
S':'
asbag68
(g89
g70
NtRp4256
(dp4257
g73
(dp4258
sg82
g4243
sg75
(lp4259
g68
(g69
g70
NtRp4260
(dp4261
g73
(dp4262
g81
I5
ssg82
g4256
sg75
(lp4263
g111
asbasbasbag68
(g84
g70
NtRp4264
(dp4265
g73
(dp4266
sg82
g3620
sg75
(lp4267
g68
(g89
g70
NtRp4268
(dp4269
g73
(dp4270
g93
g94
ssg82
g4264
sg75
(lp4271
S'status'
p4272
asbag68
(g89
g70
NtRp4273
(dp4274
g73
(dp4275
g100
g101
ssg82
g4264
sg75
(lp4276
S':'
asbag68
(g89
g70
NtRp4277
(dp4278
g73
(dp4279
sg82
g4264
sg75
(lp4280
g68
(g69
g70
NtRp4281
(dp4282
g73
(dp4283
g81
I5
ssg82
g4277
sg75
(lp4284
S'200'
p4285
asbasbasbag68
(g84
g70
NtRp4286
(dp4287
g73
(dp4288
sg82
g3620
sg75
(lp4289
g68
(g89
g70
NtRp4290
(dp4291
g73
(dp4292
g93
g94
ssg82
g4286
sg75
(lp4293
g2886
asbag68
(g89
g70
NtRp4294
(dp4295
g73
(dp4296
g100
g101
ssg82
g4286
sg75
(lp4297
S':'
asbag68
(g89
g70
NtRp4298
(dp4299
g73
(dp4300
sg82
g4286
sg75
(lp4301
g68
(g69
g70
NtRp4302
(dp4303
g73
(dp4304
g81
I5
ssg82
g4298
sg75
(lp4305
g2899
asbasbasbag68
(g84
g70
NtRp4306
(dp4307
g73
(dp4308
sg82
g3620
sg75
(lp4309
g68
(g89
g70
NtRp4310
(dp4311
g73
(dp4312
g93
g94
ssg82
g4306
sg75
(lp4313
S'view'
p4314
asbag68
(g89
g70
NtRp4315
(dp4316
g73
(dp4317
g100
g101
ssg82
g4306
sg75
(lp4318
S':'
asbag68
(g89
g70
NtRp4319
(dp4320
g73
(dp4321
sg82
g4306
sg75
(lp4322
g68
(g69
g70
NtRp4323
(dp4324
g73
(dp4325
g81
I5
ssg82
g4319
sg75
(lp4326
S'default/choose.html'
p4327
asbasbasbasbasbsS'locals'
p4328
(dp4329
g4
S"'/home/unic/web2py/applications/manager/models/cas.py'"
p4330
sg6
S'"import gluon.storage\\n\\n### this the CAS object us...//%s/%s/cas/verify\' % (HOST,request.application)\\n"'
p4331
sssS'traceback'
p4332
S'Traceback (most recent call last):\n  File "/usr/lib/pymodules/python2.7/gluon/restricted.py", line 203, in restricted\n    ccode = compile2(code,layer)\n  File "/usr/lib/pymodules/python2.7/gluon/restricted.py", line 189, in compile2\n    return compile(code.rstrip().replace(\'\\r\\n\',\'\\n\')+\'\\n\', layer, \'exec\')\n  File "/home/unic/web2py/applications/manager/models/cas.py", line 25\n    if ( data[0] == "yes" ) :\n   ^\nIndentationError: unexpected indent\n'
p4333
s.