(dp1
S'output'
p2
S"<type 'exceptions.SyntaxError'> invalid syntax (login.html, line 48)"
p3
sS'layer'
p4
S'/home/unic/web2py/applications/manager/views/default/login.html'
p5
sS'code'
p6
S'response.write(\'<!DOCTYPE html PUBLIC "-//W3C//DTD XHTML 1.0 Transitional//EN" "http://www.w3.org/TR/xhtml1/DTD/xhtml1-transitional.dtd">\\n<!--\\nAuthor: Reality Software\\nWebsite: http://www.realitysoftware.ca\\nNote: This is a free template released under the Creative Commons Attribution 3.0 license, \\nwhich means you can use it in any way you want provided you keep links to the author intact.\\n-->\\n<html xmlns="http://www.w3.org/1999/xhtml">\\n <head>\\n  <title>\\n   \', escape=False)\nresponse.write(response.title or request.application)\nresponse.write(\'\\n  </title>\\n  \', escape=False)\nresponse.files.append(URL(request.application,\'static\',\'plugin_layouts/layouts/Papira/style.css\'))\nresponse.write(\'\\n  \', escape=False)\nresponse.files.append(URL(\'static\',\'plugin_layouts/superfish.js\'))\nresponse.write(\'\\n  \', escape=False)\nresponse.write(\'<script type="text/javascript"><!--\\n    // These variables are used by the web2py_ajax_init function in web2py_ajax.js (which is loaded below).\\n    var w2p_ajax_confirm_message = "\', escape=False)\nresponse.write(T(\'Are you sure you want to delete this object?\'))\nresponse.write(\'";\\n    var w2p_ajax_date_format = "\', escape=False)\nresponse.write(T(\'%Y-%m-%d\'))\nresponse.write(\'";\\n    var w2p_ajax_datetime_format = "\', escape=False)\nresponse.write(T(\'%Y-%m-%d %H:%M:%S\'))\nresponse.write(\'";\\n    //--></script>\\n\', escape=False)\nresponse.files.insert(0,URL(\'static\',\'js/jquery.js\'))\nresponse.files.insert(3,URL(\'static\',\'js/web2py.js\'))\nresponse.include_meta()\nresponse.include_files()\nresponse.write(\'\\n\', escape=False)\nresponse.write(\'\\n  <style>\\nul.web2py-menu-vertical { width: 150px; position: relative; top:1em; left:1em;  z-index:30; border:0; margin:0; padding: 0; list-style: none; text-decoration: none;}\\nul.web2py-menu-vertical li { margin:0; padding:0; border:0; width: 150px; background: black; text-align:left;}\\nul.web2py-menu-vertical li a { margin:0; padding: 1px 3px 1px 3px; border:0; width: 144px; color: white; font-size:12px;}\\ndiv.flash { position: fixed; float: right; padding: 10px; top: 10px; right: 30px; opacity: 0.75; margin: 10px 10px 10px 10px; text-align: center; clear: both; color: #fff; font-size: 11pt; text-align: center; vertical-align: middle; cursor: pointer; background: black; border: 2px solid #fff; -moz-border-radius: 5px; -webkit-border-radius: 5px; z-index: 2; }\\ndiv.error { background-color: red; color: white; padding: 3px; }\\n.auth_navbar { text-align:right; z-index:20; position: absolute; top: 2px; right:30px; border:0; padding:0 }\\n  </style>\\n </head>\\n <body>\\n\\n\\n  <div id="all">\\n   <div id="container">\\n    <!-- header -->\\n    <div id="logo">\\n     <a href="#">\\n      <span class="brown">\\n       <strong>\\n        Award\\n       </strong>\\n      </span>\\n      Manager\\n     </a>\\n    </div>\\n    <div id="menu">\\n     <ul>\\n     \', escape=False)\nif session.token=="neeharikak.v@students.iiit.ac.in" :\n    response.write(\'\\n     <li><a href="\', escape=False)\n    response.write(URL(r = request, f = \'index\'))\n    response.write(\'">Home</a></li>\\n     <li><a href="\', escape=False)\n    response.write(URL(r = request, f = \'Admin\'))\n    response.write(\'">Amount</a></li>\\n     <li><a href="\', escape=False)\n    response.write(URL(r = request, f = \'upload\'))\n    response.write(\'">Students List</a></li>\\n     <li><a href="\', escape=False)\n    response.write(URL(r = request, f = \'upload1\'))\n    response.write(\'">Book List</a></li>\\n     <li><a href="\', escape=False)\n    response.write(URL(r = request, f = \'choose\'))\n    response.write(\'">Allot</a></li>\\n     <li><a href="\', escape=False)\n    response.write(URL(r = request, f = \'total\'))\n    response.write(\'">Output</a></li>\\n      \', escape=False)\n    pass\nresponse.write(\'\\n    \\n    \\n     </ul>\\n    <script>\\n      jQuery(document).ready(function(){jQuery(\\\'ul.web2py-menu\\\').superfish({delay:400});});\\n    </script>\\n    </div>\\n    <!--end header -->\\n    <!-- main -->\\n    <div id="main">\\n     <div class="flash">\', escape=False)\nresponse.write(response.flash or \'\')\nresponse.write(\'</div>\\n     \', escape=False)\nresponse.write(\'\\n\', escape=False)\nid1=[]\nresponse.write(\'\\n\\n\\n\', escape=False)\nfor rows in db(db.User.Email == session.token).select():\n    response.write(\'\\n\', escape=False)\n    id1=rows\n    response.write(\'\\n\', escape=False)\n    pass\nresponse.write(\'\\n\', escape=False)\nif len(id1) ==0 && session.token != "neeharikak.v@students.iiit.ac.in":\n    response.write(\'\\n\', escape=False)\n    redirect(URL(r=request,f=\'logout\'))\n    response.write(\'\\n\', escape=False)\n    pass\nresponse.write(\'\\n\', escape=False)\nif len(id1) !=0 || session.token == "neeharikak.v@students.iiit.ac.in"::\n    response.write(\'\\n\\n\\n\', escape=False)\n    redirect(URL(r=request,f=\'index\'))\n    response.write(\'\\n\', escape=False)\n    pass\nresponse.write(\'\\n\', escape=False)\nresponse.write(\'\\n    </div>\\n    <!-- end main -->\\n    <!-- footer -->\\n    <div id="footer">\\n     <div id="left_footer">\\n      &copy; Copyright 2008 Your website\\n     </div>\\n     <div id="right_footer">\\n      <!-- Please do not change or delete this links. Read the license! Thanks. :-) -->\\n      <a href="http://www.realitysoftware.ca/website-design.html">\\n       Website design\\n      </a>\\n      by\\n      <a href="http://www.realitysoftware.ca">\\n       Reality Software\\n      </a>\\n     </div>\\n    </div>\\n    <!-- end footer -->\\n   </div>\\n  </div>\\n </body>\\n</html>\\n\', escape=False)'
p7
sS'snapshot'
p8
(dp9
S'exception'
p10
(dp11
S'__getslice__'
p12
S"<method-wrapper '__getslice__' of exceptions.SyntaxError object>"
p13
sS'text'
p14
S'\'if len(id1) ==0 && session.token != "neeharikak.v@students.iiit.ac.in":\\n\''
p15
sS'__str__'
p16
S"<method-wrapper '__str__' of exceptions.SyntaxError object>"
p17
sS'__reduce__'
p18
S'<built-in method __reduce__ of exceptions.SyntaxError object>'
p19
sS'__dict__'
p20
S'{}'
p21
sS'__sizeof__'
p22
S'<built-in method __sizeof__ of exceptions.SyntaxError object>'
p23
sS'__init__'
p24
S"<method-wrapper '__init__' of exceptions.SyntaxError object>"
p25
sS'__setattr__'
p26
S"<method-wrapper '__setattr__' of exceptions.SyntaxError object>"
p27
sS'__reduce_ex__'
p28
S'<built-in method __reduce_ex__ of exceptions.SyntaxError object>'
p29
sS'__new__'
p30
S'<built-in method __new__ of type object>'
p31
sS'__format__'
p32
S'<built-in method __format__ of exceptions.SyntaxError object>'
p33
sS'__class__'
p34
S"<type 'exceptions.SyntaxError'>"
p35
sS'filename'
p36
S"'/home/unic/web2py/applications/manager/views/default/login.html'"
p37
sS'lineno'
p38
S'48'
p39
sS'msg'
p40
S"'invalid syntax'"
p41
sS'__doc__'
p42
S"'Invalid syntax.'"
p43
sS'__getitem__'
p44
S"<method-wrapper '__getitem__' of exceptions.SyntaxError object>"
p45
sS'__setstate__'
p46
S'<built-in method __setstate__ of exceptions.SyntaxError object>'
p47
sS'__getattribute__'
p48
S"<method-wrapper '__getattribute__' of exceptions.SyntaxError object>"
p49
sS'print_file_and_line'
p50
S'None'
p51
sS'args'
p52
S'(\'invalid syntax\', (\'/home/unic/web2py/applications/manager/views/default/login.html\', 48, 18, \'if len(id1) ==0 && session.token != "neeharikak.v@students.iiit.ac.in":\\n\'))'
p53
sS'__subclasshook__'
p54
S'<built-in method __subclasshook__ of type object>'
p55
sS'offset'
p56
S'18'
p57
sS'__unicode__'
p58
S'<built-in method __unicode__ of exceptions.SyntaxError object>'
p59
sS'__delattr__'
p60
S"<method-wrapper '__delattr__' of exceptions.SyntaxError object>"
p61
sS'__repr__'
p62
S"<method-wrapper '__repr__' of exceptions.SyntaxError object>"
p63
sS'__hash__'
p64
S"<method-wrapper '__hash__' of exceptions.SyntaxError object>"
p65
ssS'evalue'
p66
S'invalid syntax (login.html, line 48)'
p67
sS'request'
p68
ccopy_reg
_reconstructor
p69
(cgluon.html
BEAUTIFY
p70
c__builtin__
object
p71
NtRp72
(dp73
S'attributes'
p74
(dp75
sS'components'
p76
(lp77
g69
(cgluon.html
TABLE
p78
g71
NtRp79
(dp80
g74
(dp81
S'level'
p82
I5
ssS'parent'
p83
Nsg76
(lp84
g69
(cgluon.html
TR
p85
g71
NtRp86
(dp87
g74
(dp88
sg83
g79
sg76
(lp89
g69
(cgluon.html
TD
p90
g71
NtRp91
(dp92
g74
(dp93
S'_style'
p94
S'font-weight:bold;vertical-align:top'
p95
ssg83
g86
sg76
(lp96
S'ajax'
p97
asbag69
(g90
g71
NtRp98
(dp99
g74
(dp100
S'_valign'
p101
S'top'
p102
ssg83
g86
sg76
(lp103
S':'
asbag69
(g90
g71
NtRp104
(dp105
g74
(dp106
sg83
g86
sg76
(lp107
g69
(g70
g71
NtRp108
(dp109
g74
(dp110
g82
I5
ssg83
g104
sg76
(lp111
S'False'
p112
asbasbasbag69
(g85
g71
NtRp113
(dp114
g74
(dp115
sg83
g79
sg76
(lp116
g69
(g90
g71
NtRp117
(dp118
g74
(dp119
g94
g95
ssg83
g113
sg76
(lp120
S'application'
p121
asbag69
(g90
g71
NtRp122
(dp123
g74
(dp124
g101
g102
ssg83
g113
sg76
(lp125
S':'
asbag69
(g90
g71
NtRp126
(dp127
g74
(dp128
sg83
g113
sg76
(lp129
g69
(g70
g71
NtRp130
(dp131
g74
(dp132
g82
I5
ssg83
g126
sg76
(lp133
S'manager'
p134
asbasbasbag69
(g85
g71
NtRp135
(dp136
g74
(dp137
sg83
g79
sg76
(lp138
g69
(g90
g71
NtRp139
(dp140
g74
(dp141
g94
g95
ssg83
g135
sg76
(lp142
g52
asbag69
(g90
g71
NtRp143
(dp144
g74
(dp145
g101
g102
ssg83
g135
sg76
(lp146
S':'
asbag69
(g90
g71
NtRp147
(dp148
g74
(dp149
sg83
g135
sg76
(lp150
g69
(g70
g71
NtRp151
(dp152
g74
(dp153
g82
I5
ssg83
g147
sg76
(lp154
g69
(g78
g71
NtRp155
(dp156
g74
(dp157
g82
I4
ssg83
Nsg76
(lp158
sbasbasbasbag69
(g85
g71
NtRp159
(dp160
g74
(dp161
sg83
g79
sg76
(lp162
g69
(g90
g71
NtRp163
(dp164
g74
(dp165
g94
g95
ssg83
g159
sg76
(lp166
S'body'
p167
asbag69
(g90
g71
NtRp168
(dp169
g74
(dp170
g101
g102
ssg83
g159
sg76
(lp171
S':'
asbag69
(g90
g71
NtRp172
(dp173
g74
(dp174
sg83
g159
sg76
(lp175
g69
(g70
g71
NtRp176
(dp177
g74
(dp178
g82
I5
ssg83
g172
sg76
(lp179
S'<cStringIO.StringO object at 0xab160880>'
p180
asbasbasbag69
(g85
g71
NtRp181
(dp182
g74
(dp183
sg83
g79
sg76
(lp184
g69
(g90
g71
NtRp185
(dp186
g74
(dp187
g94
g95
ssg83
g181
sg76
(lp188
S'client'
p189
asbag69
(g90
g71
NtRp190
(dp191
g74
(dp192
g101
g102
ssg83
g181
sg76
(lp193
S':'
asbag69
(g90
g71
NtRp194
(dp195
g74
(dp196
sg83
g181
sg76
(lp197
g69
(g70
g71
NtRp198
(dp199
g74
(dp200
g82
I5
ssg83
g194
sg76
(lp201
S'127.0.0.1'
p202
asbasbasbag69
(g85
g71
NtRp203
(dp204
g74
(dp205
sg83
g79
sg76
(lp206
g69
(g90
g71
NtRp207
(dp208
g74
(dp209
g94
g95
ssg83
g203
sg76
(lp210
S'controller'
p211
asbag69
(g90
g71
NtRp212
(dp213
g74
(dp214
g101
g102
ssg83
g203
sg76
(lp215
S':'
asbag69
(g90
g71
NtRp216
(dp217
g74
(dp218
sg83
g203
sg76
(lp219
g69
(g70
g71
NtRp220
(dp221
g74
(dp222
g82
I5
ssg83
g216
sg76
(lp223
S'default'
p224
asbasbasbag69
(g85
g71
NtRp225
(dp226
g74
(dp227
sg83
g79
sg76
(lp228
g69
(g90
g71
NtRp229
(dp230
g74
(dp231
g94
g95
ssg83
g225
sg76
(lp232
S'cookies'
p233
asbag69
(g90
g71
NtRp234
(dp235
g74
(dp236
g101
g102
ssg83
g225
sg76
(lp237
S':'
asbag69
(g90
g71
NtRp238
(dp239
g74
(dp240
sg83
g225
sg76
(lp241
g69
(g70
g71
NtRp242
(dp243
g74
(dp244
g82
I5
ssg83
g238
sg76
(lp245
g69
(g78
g71
NtRp246
(dp247
g74
(dp248
g82
I4
ssg83
Nsg76
(lp249
g69
(g85
g71
NtRp250
(dp251
g74
(dp252
sg83
g246
sg76
(lp253
g69
(g90
g71
NtRp254
(dp255
g74
(dp256
g94
g95
ssg83
g250
sg76
(lp257
S'session_id_admin'
p258
asbag69
(g90
g71
NtRp259
(dp260
g74
(dp261
g101
g102
ssg83
g250
sg76
(lp262
S':'
asbag69
(g90
g71
NtRp263
(dp264
g74
(dp265
sg83
g250
sg76
(lp266
g69
(g70
g71
NtRp267
(dp268
g74
(dp269
g82
I4
ssg83
g263
sg76
(lp270
g69
(g78
g71
NtRp271
(dp272
g74
(dp273
g82
I3
ssg83
Nsg76
(lp274
g69
(g85
g71
NtRp275
(dp276
g74
(dp277
sg83
g271
sg76
(lp278
g69
(g90
g71
NtRp279
(dp280
g74
(dp281
g94
g95
ssg83
g275
sg76
(lp282
S'comment'
p283
asbag69
(g90
g71
NtRp284
(dp285
g74
(dp286
g101
g102
ssg83
g275
sg76
(lp287
S':'
asbag69
(g90
g71
NtRp288
(dp289
g74
(dp290
sg83
g275
sg76
(lp291
g69
(g70
g71
NtRp292
(dp293
g74
(dp294
g82
I3
ssg83
g288
sg76
(lp295
S''
asbasbasbag69
(g85
g71
NtRp296
(dp297
g74
(dp298
sg83
g271
sg76
(lp299
g69
(g90
g71
NtRp300
(dp301
g74
(dp302
g94
g95
ssg83
g296
sg76
(lp303
S'domain'
p304
asbag69
(g90
g71
NtRp305
(dp306
g74
(dp307
g101
g102
ssg83
g296
sg76
(lp308
S':'
asbag69
(g90
g71
NtRp309
(dp310
g74
(dp311
sg83
g296
sg76
(lp312
g69
(g70
g71
NtRp313
(dp314
g74
(dp315
g82
I3
ssg83
g309
sg76
(lp316
S''
asbasbasbag69
(g85
g71
NtRp317
(dp318
g74
(dp319
sg83
g271
sg76
(lp320
g69
(g90
g71
NtRp321
(dp322
g74
(dp323
g94
g95
ssg83
g317
sg76
(lp324
S'expires'
p325
asbag69
(g90
g71
NtRp326
(dp327
g74
(dp328
g101
g102
ssg83
g317
sg76
(lp329
S':'
asbag69
(g90
g71
NtRp330
(dp331
g74
(dp332
sg83
g317
sg76
(lp333
g69
(g70
g71
NtRp334
(dp335
g74
(dp336
g82
I3
ssg83
g330
sg76
(lp337
S''
asbasbasbag69
(g85
g71
NtRp338
(dp339
g74
(dp340
sg83
g271
sg76
(lp341
g69
(g90
g71
NtRp342
(dp343
g74
(dp344
g94
g95
ssg83
g338
sg76
(lp345
S'httponly'
p346
asbag69
(g90
g71
NtRp347
(dp348
g74
(dp349
g101
g102
ssg83
g338
sg76
(lp350
S':'
asbag69
(g90
g71
NtRp351
(dp352
g74
(dp353
sg83
g338
sg76
(lp354
g69
(g70
g71
NtRp355
(dp356
g74
(dp357
g82
I3
ssg83
g351
sg76
(lp358
S''
asbasbasbag69
(g85
g71
NtRp359
(dp360
g74
(dp361
sg83
g271
sg76
(lp362
g69
(g90
g71
NtRp363
(dp364
g74
(dp365
g94
g95
ssg83
g359
sg76
(lp366
S'max-age'
p367
asbag69
(g90
g71
NtRp368
(dp369
g74
(dp370
g101
g102
ssg83
g359
sg76
(lp371
S':'
asbag69
(g90
g71
NtRp372
(dp373
g74
(dp374
sg83
g359
sg76
(lp375
g69
(g70
g71
NtRp376
(dp377
g74
(dp378
g82
I3
ssg83
g372
sg76
(lp379
S''
asbasbasbag69
(g85
g71
NtRp380
(dp381
g74
(dp382
sg83
g271
sg76
(lp383
g69
(g90
g71
NtRp384
(dp385
g74
(dp386
g94
g95
ssg83
g380
sg76
(lp387
S'path'
p388
asbag69
(g90
g71
NtRp389
(dp390
g74
(dp391
g101
g102
ssg83
g380
sg76
(lp392
S':'
asbag69
(g90
g71
NtRp393
(dp394
g74
(dp395
sg83
g380
sg76
(lp396
g69
(g70
g71
NtRp397
(dp398
g74
(dp399
g82
I3
ssg83
g393
sg76
(lp400
S''
asbasbasbag69
(g85
g71
NtRp401
(dp402
g74
(dp403
sg83
g271
sg76
(lp404
g69
(g90
g71
NtRp405
(dp406
g74
(dp407
g94
g95
ssg83
g401
sg76
(lp408
S'secure'
p409
asbag69
(g90
g71
NtRp410
(dp411
g74
(dp412
g101
g102
ssg83
g401
sg76
(lp413
S':'
asbag69
(g90
g71
NtRp414
(dp415
g74
(dp416
sg83
g401
sg76
(lp417
g69
(g70
g71
NtRp418
(dp419
g74
(dp420
g82
I3
ssg83
g414
sg76
(lp421
S''
asbasbasbag69
(g85
g71
NtRp422
(dp423
g74
(dp424
sg83
g271
sg76
(lp425
g69
(g90
g71
NtRp426
(dp427
g74
(dp428
g94
g95
ssg83
g422
sg76
(lp429
S'version'
p430
asbag69
(g90
g71
NtRp431
(dp432
g74
(dp433
g101
g102
ssg83
g422
sg76
(lp434
S':'
asbag69
(g90
g71
NtRp435
(dp436
g74
(dp437
sg83
g422
sg76
(lp438
g69
(g70
g71
NtRp439
(dp440
g74
(dp441
g82
I3
ssg83
g435
sg76
(lp442
S''
asbasbasbasbasbasbasbag69
(g85
g71
NtRp443
(dp444
g74
(dp445
sg83
g246
sg76
(lp446
g69
(g90
g71
NtRp447
(dp448
g74
(dp449
g94
g95
ssg83
g443
sg76
(lp450
S'session_id_manager'
p451
asbag69
(g90
g71
NtRp452
(dp453
g74
(dp454
g101
g102
ssg83
g443
sg76
(lp455
S':'
asbag69
(g90
g71
NtRp456
(dp457
g74
(dp458
sg83
g443
sg76
(lp459
g69
(g70
g71
NtRp460
(dp461
g74
(dp462
g82
I4
ssg83
g456
sg76
(lp463
g69
(g78
g71
NtRp464
(dp465
g74
(dp466
g82
I3
ssg83
Nsg76
(lp467
g69
(g85
g71
NtRp468
(dp469
g74
(dp470
sg83
g464
sg76
(lp471
g69
(g90
g71
NtRp472
(dp473
g74
(dp474
g94
g95
ssg83
g468
sg76
(lp475
g283
asbag69
(g90
g71
NtRp476
(dp477
g74
(dp478
g101
g102
ssg83
g468
sg76
(lp479
S':'
asbag69
(g90
g71
NtRp480
(dp481
g74
(dp482
sg83
g468
sg76
(lp483
g69
(g70
g71
NtRp484
(dp485
g74
(dp486
g82
I3
ssg83
g480
sg76
(lp487
S''
asbasbasbag69
(g85
g71
NtRp488
(dp489
g74
(dp490
sg83
g464
sg76
(lp491
g69
(g90
g71
NtRp492
(dp493
g74
(dp494
g94
g95
ssg83
g488
sg76
(lp495
g304
asbag69
(g90
g71
NtRp496
(dp497
g74
(dp498
g101
g102
ssg83
g488
sg76
(lp499
S':'
asbag69
(g90
g71
NtRp500
(dp501
g74
(dp502
sg83
g488
sg76
(lp503
g69
(g70
g71
NtRp504
(dp505
g74
(dp506
g82
I3
ssg83
g500
sg76
(lp507
S''
asbasbasbag69
(g85
g71
NtRp508
(dp509
g74
(dp510
sg83
g464
sg76
(lp511
g69
(g90
g71
NtRp512
(dp513
g74
(dp514
g94
g95
ssg83
g508
sg76
(lp515
g325
asbag69
(g90
g71
NtRp516
(dp517
g74
(dp518
g101
g102
ssg83
g508
sg76
(lp519
S':'
asbag69
(g90
g71
NtRp520
(dp521
g74
(dp522
sg83
g508
sg76
(lp523
g69
(g70
g71
NtRp524
(dp525
g74
(dp526
g82
I3
ssg83
g520
sg76
(lp527
S''
asbasbasbag69
(g85
g71
NtRp528
(dp529
g74
(dp530
sg83
g464
sg76
(lp531
g69
(g90
g71
NtRp532
(dp533
g74
(dp534
g94
g95
ssg83
g528
sg76
(lp535
g346
asbag69
(g90
g71
NtRp536
(dp537
g74
(dp538
g101
g102
ssg83
g528
sg76
(lp539
S':'
asbag69
(g90
g71
NtRp540
(dp541
g74
(dp542
sg83
g528
sg76
(lp543
g69
(g70
g71
NtRp544
(dp545
g74
(dp546
g82
I3
ssg83
g540
sg76
(lp547
S''
asbasbasbag69
(g85
g71
NtRp548
(dp549
g74
(dp550
sg83
g464
sg76
(lp551
g69
(g90
g71
NtRp552
(dp553
g74
(dp554
g94
g95
ssg83
g548
sg76
(lp555
g367
asbag69
(g90
g71
NtRp556
(dp557
g74
(dp558
g101
g102
ssg83
g548
sg76
(lp559
S':'
asbag69
(g90
g71
NtRp560
(dp561
g74
(dp562
sg83
g548
sg76
(lp563
g69
(g70
g71
NtRp564
(dp565
g74
(dp566
g82
I3
ssg83
g560
sg76
(lp567
S''
asbasbasbag69
(g85
g71
NtRp568
(dp569
g74
(dp570
sg83
g464
sg76
(lp571
g69
(g90
g71
NtRp572
(dp573
g74
(dp574
g94
g95
ssg83
g568
sg76
(lp575
g388
asbag69
(g90
g71
NtRp576
(dp577
g74
(dp578
g101
g102
ssg83
g568
sg76
(lp579
S':'
asbag69
(g90
g71
NtRp580
(dp581
g74
(dp582
sg83
g568
sg76
(lp583
g69
(g70
g71
NtRp584
(dp585
g74
(dp586
g82
I3
ssg83
g580
sg76
(lp587
S''
asbasbasbag69
(g85
g71
NtRp588
(dp589
g74
(dp590
sg83
g464
sg76
(lp591
g69
(g90
g71
NtRp592
(dp593
g74
(dp594
g94
g95
ssg83
g588
sg76
(lp595
g409
asbag69
(g90
g71
NtRp596
(dp597
g74
(dp598
g101
g102
ssg83
g588
sg76
(lp599
S':'
asbag69
(g90
g71
NtRp600
(dp601
g74
(dp602
sg83
g588
sg76
(lp603
g69
(g70
g71
NtRp604
(dp605
g74
(dp606
g82
I3
ssg83
g600
sg76
(lp607
S''
asbasbasbag69
(g85
g71
NtRp608
(dp609
g74
(dp610
sg83
g464
sg76
(lp611
g69
(g90
g71
NtRp612
(dp613
g74
(dp614
g94
g95
ssg83
g608
sg76
(lp615
g430
asbag69
(g90
g71
NtRp616
(dp617
g74
(dp618
g101
g102
ssg83
g608
sg76
(lp619
S':'
asbag69
(g90
g71
NtRp620
(dp621
g74
(dp622
sg83
g608
sg76
(lp623
g69
(g70
g71
NtRp624
(dp625
g74
(dp626
g82
I3
ssg83
g620
sg76
(lp627
S''
asbasbasbasbasbasbasbag69
(g85
g71
NtRp628
(dp629
g74
(dp630
sg83
g246
sg76
(lp631
g69
(g90
g71
NtRp632
(dp633
g74
(dp634
g94
g95
ssg83
g628
sg76
(lp635
S'session_id_welcome'
p636
asbag69
(g90
g71
NtRp637
(dp638
g74
(dp639
g101
g102
ssg83
g628
sg76
(lp640
S':'
asbag69
(g90
g71
NtRp641
(dp642
g74
(dp643
sg83
g628
sg76
(lp644
g69
(g70
g71
NtRp645
(dp646
g74
(dp647
g82
I4
ssg83
g641
sg76
(lp648
g69
(g78
g71
NtRp649
(dp650
g74
(dp651
g82
I3
ssg83
Nsg76
(lp652
g69
(g85
g71
NtRp653
(dp654
g74
(dp655
sg83
g649
sg76
(lp656
g69
(g90
g71
NtRp657
(dp658
g74
(dp659
g94
g95
ssg83
g653
sg76
(lp660
g283
asbag69
(g90
g71
NtRp661
(dp662
g74
(dp663
g101
g102
ssg83
g653
sg76
(lp664
S':'
asbag69
(g90
g71
NtRp665
(dp666
g74
(dp667
sg83
g653
sg76
(lp668
g69
(g70
g71
NtRp669
(dp670
g74
(dp671
g82
I3
ssg83
g665
sg76
(lp672
S''
asbasbasbag69
(g85
g71
NtRp673
(dp674
g74
(dp675
sg83
g649
sg76
(lp676
g69
(g90
g71
NtRp677
(dp678
g74
(dp679
g94
g95
ssg83
g673
sg76
(lp680
g304
asbag69
(g90
g71
NtRp681
(dp682
g74
(dp683
g101
g102
ssg83
g673
sg76
(lp684
S':'
asbag69
(g90
g71
NtRp685
(dp686
g74
(dp687
sg83
g673
sg76
(lp688
g69
(g70
g71
NtRp689
(dp690
g74
(dp691
g82
I3
ssg83
g685
sg76
(lp692
S''
asbasbasbag69
(g85
g71
NtRp693
(dp694
g74
(dp695
sg83
g649
sg76
(lp696
g69
(g90
g71
NtRp697
(dp698
g74
(dp699
g94
g95
ssg83
g693
sg76
(lp700
g325
asbag69
(g90
g71
NtRp701
(dp702
g74
(dp703
g101
g102
ssg83
g693
sg76
(lp704
S':'
asbag69
(g90
g71
NtRp705
(dp706
g74
(dp707
sg83
g693
sg76
(lp708
g69
(g70
g71
NtRp709
(dp710
g74
(dp711
g82
I3
ssg83
g705
sg76
(lp712
S''
asbasbasbag69
(g85
g71
NtRp713
(dp714
g74
(dp715
sg83
g649
sg76
(lp716
g69
(g90
g71
NtRp717
(dp718
g74
(dp719
g94
g95
ssg83
g713
sg76
(lp720
g346
asbag69
(g90
g71
NtRp721
(dp722
g74
(dp723
g101
g102
ssg83
g713
sg76
(lp724
S':'
asbag69
(g90
g71
NtRp725
(dp726
g74
(dp727
sg83
g713
sg76
(lp728
g69
(g70
g71
NtRp729
(dp730
g74
(dp731
g82
I3
ssg83
g725
sg76
(lp732
S''
asbasbasbag69
(g85
g71
NtRp733
(dp734
g74
(dp735
sg83
g649
sg76
(lp736
g69
(g90
g71
NtRp737
(dp738
g74
(dp739
g94
g95
ssg83
g733
sg76
(lp740
g367
asbag69
(g90
g71
NtRp741
(dp742
g74
(dp743
g101
g102
ssg83
g733
sg76
(lp744
S':'
asbag69
(g90
g71
NtRp745
(dp746
g74
(dp747
sg83
g733
sg76
(lp748
g69
(g70
g71
NtRp749
(dp750
g74
(dp751
g82
I3
ssg83
g745
sg76
(lp752
S''
asbasbasbag69
(g85
g71
NtRp753
(dp754
g74
(dp755
sg83
g649
sg76
(lp756
g69
(g90
g71
NtRp757
(dp758
g74
(dp759
g94
g95
ssg83
g753
sg76
(lp760
g388
asbag69
(g90
g71
NtRp761
(dp762
g74
(dp763
g101
g102
ssg83
g753
sg76
(lp764
S':'
asbag69
(g90
g71
NtRp765
(dp766
g74
(dp767
sg83
g753
sg76
(lp768
g69
(g70
g71
NtRp769
(dp770
g74
(dp771
g82
I3
ssg83
g765
sg76
(lp772
S''
asbasbasbag69
(g85
g71
NtRp773
(dp774
g74
(dp775
sg83
g649
sg76
(lp776
g69
(g90
g71
NtRp777
(dp778
g74
(dp779
g94
g95
ssg83
g773
sg76
(lp780
g409
asbag69
(g90
g71
NtRp781
(dp782
g74
(dp783
g101
g102
ssg83
g773
sg76
(lp784
S':'
asbag69
(g90
g71
NtRp785
(dp786
g74
(dp787
sg83
g773
sg76
(lp788
g69
(g70
g71
NtRp789
(dp790
g74
(dp791
g82
I3
ssg83
g785
sg76
(lp792
S''
asbasbasbag69
(g85
g71
NtRp793
(dp794
g74
(dp795
sg83
g649
sg76
(lp796
g69
(g90
g71
NtRp797
(dp798
g74
(dp799
g94
g95
ssg83
g793
sg76
(lp800
g430
asbag69
(g90
g71
NtRp801
(dp802
g74
(dp803
g101
g102
ssg83
g793
sg76
(lp804
S':'
asbag69
(g90
g71
NtRp805
(dp806
g74
(dp807
sg83
g793
sg76
(lp808
g69
(g70
g71
NtRp809
(dp810
g74
(dp811
g82
I3
ssg83
g805
sg76
(lp812
S''
asbasbasbasbasbasbasbasbasbasbasbag69
(g85
g71
NtRp813
(dp814
g74
(dp815
sg83
g79
sg76
(lp816
g69
(g90
g71
NtRp817
(dp818
g74
(dp819
g94
g95
ssg83
g813
sg76
(lp820
S'env'
p821
asbag69
(g90
g71
NtRp822
(dp823
g74
(dp824
g101
g102
ssg83
g813
sg76
(lp825
S':'
asbag69
(g90
g71
NtRp826
(dp827
g74
(dp828
sg83
g813
sg76
(lp829
g69
(g70
g71
NtRp830
(dp831
g74
(dp832
g82
I5
ssg83
g826
sg76
(lp833
g69
(g78
g71
NtRp834
(dp835
g74
(dp836
g82
I4
ssg83
Nsg76
(lp837
g69
(g85
g71
NtRp838
(dp839
g74
(dp840
sg83
g834
sg76
(lp841
g69
(g90
g71
NtRp842
(dp843
g74
(dp844
g94
g95
ssg83
g838
sg76
(lp845
S'app_folders'
p846
asbag69
(g90
g71
NtRp847
(dp848
g74
(dp849
g101
g102
ssg83
g838
sg76
(lp850
S':'
asbag69
(g90
g71
NtRp851
(dp852
g74
(dp853
sg83
g838
sg76
(lp854
g69
(g70
g71
NtRp855
(dp856
g74
(dp857
g82
I4
ssg83
g851
sg76
(lp858
S"set(['/home/unic/web2py/applications/manager/', '/home/unic/web2py/applications/admin/', '/home/unic/web2py/applications/welcome/'])"
p859
asbasbasbag69
(g85
g71
NtRp860
(dp861
g74
(dp862
sg83
g834
sg76
(lp863
g69
(g90
g71
NtRp864
(dp865
g74
(dp866
g94
g95
ssg83
g860
sg76
(lp867
S'applications_parent'
p868
asbag69
(g90
g71
NtRp869
(dp870
g74
(dp871
g101
g102
ssg83
g860
sg76
(lp872
S':'
asbag69
(g90
g71
NtRp873
(dp874
g74
(dp875
sg83
g860
sg76
(lp876
g69
(g70
g71
NtRp877
(dp878
g74
(dp879
g82
I4
ssg83
g873
sg76
(lp880
S'/home/unic/web2py'
p881
asbasbasbag69
(g85
g71
NtRp882
(dp883
g74
(dp884
sg83
g834
sg76
(lp885
g69
(g90
g71
NtRp886
(dp887
g74
(dp888
g94
g95
ssg83
g882
sg76
(lp889
S'cmd_args'
p890
asbag69
(g90
g71
NtRp891
(dp892
g74
(dp893
g101
g102
ssg83
g882
sg76
(lp894
S':'
asbag69
(g90
g71
NtRp895
(dp896
g74
(dp897
sg83
g882
sg76
(lp898
g69
(g70
g71
NtRp899
(dp900
g74
(dp901
g82
I4
ssg83
g895
sg76
(lp902
g69
(g78
g71
NtRp903
(dp904
g74
(dp905
g82
I3
ssg83
Nsg76
(lp906
sbasbasbasbag69
(g85
g71
NtRp907
(dp908
g74
(dp909
sg83
g834
sg76
(lp910
g69
(g90
g71
NtRp911
(dp912
g74
(dp913
g94
g95
ssg83
g907
sg76
(lp914
S'cmd_options'
p915
asbag69
(g90
g71
NtRp916
(dp917
g74
(dp918
g101
g102
ssg83
g907
sg76
(lp919
S':'
asbag69
(g90
g71
NtRp920
(dp921
g74
(dp922
sg83
g907
sg76
(lp923
g69
(g70
g71
NtRp924
(dp925
g74
(dp926
g82
I4
ssg83
g920
sg76
(lp927
S"<Values at 0xa49080c: {'verbose': False, 'ip': '127.0.0.1', 'shutdown_timeout': 5, 'taskbar': False, 'port': 8000, 'maxthreads': None, 'softcron': False, 'server_name': 'unic-Inspiron-N5050', 'bpython': False, 'nogui': False, 'nocron': False, 'extcron': False, 'debuglevel': 30, 'test': None, 'folder': '/home/unic/web2py', 'config': '', 'import_models': False, 'winservice': '', 'shell': None, 'run': '', 'log_filename': 'httpserver.log', 'args': [''], 'socket_timeout': 1, 'profiler_filename': None, 'ssl_private_key': '', 'password': '<ask>', 'request_queue_size': 5, 'ssl_certificate': '', 'cronjob': False, 'plain': False, 'quiet': False, 'interfaces': None, 'minthreads': None, 'timeout': 10, 'numthreads': None, 'nobanner': False, 'pid_filename': 'httpserver.pid'}>"
p928
asbasbasbag69
(g85
g71
NtRp929
(dp930
g74
(dp931
sg83
g834
sg76
(lp932
g69
(g90
g71
NtRp933
(dp934
g74
(dp935
g94
g95
ssg83
g929
sg76
(lp936
S'db_sessions'
p937
asbag69
(g90
g71
NtRp938
(dp939
g74
(dp940
g101
g102
ssg83
g929
sg76
(lp941
S':'
asbag69
(g90
g71
NtRp942
(dp943
g74
(dp944
sg83
g929
sg76
(lp945
g69
(g70
g71
NtRp946
(dp947
g74
(dp948
g82
I4
ssg83
g942
sg76
(lp949
S'set([])'
p950
asbasbasbag69
(g85
g71
NtRp951
(dp952
g74
(dp953
sg83
g834
sg76
(lp954
g69
(g90
g71
NtRp955
(dp956
g74
(dp957
g94
g95
ssg83
g951
sg76
(lp958
S'debugging'
p959
asbag69
(g90
g71
NtRp960
(dp961
g74
(dp962
g101
g102
ssg83
g951
sg76
(lp963
S':'
asbag69
(g90
g71
NtRp964
(dp965
g74
(dp966
sg83
g951
sg76
(lp967
g69
(g70
g71
NtRp968
(dp969
g74
(dp970
g82
I4
ssg83
g964
sg76
(lp971
g112
asbasbasbag69
(g85
g71
NtRp972
(dp973
g74
(dp974
sg83
g834
sg76
(lp975
g69
(g90
g71
NtRp976
(dp977
g74
(dp978
g94
g95
ssg83
g972
sg76
(lp979
S'gluon_parent'
p980
asbag69
(g90
g71
NtRp981
(dp982
g74
(dp983
g101
g102
ssg83
g972
sg76
(lp984
S':'
asbag69
(g90
g71
NtRp985
(dp986
g74
(dp987
sg83
g972
sg76
(lp988
g69
(g70
g71
NtRp989
(dp990
g74
(dp991
g82
I4
ssg83
g985
sg76
(lp992
S'/usr/share/web2py'
p993
asbasbasbag69
(g85
g71
NtRp994
(dp995
g74
(dp996
sg83
g834
sg76
(lp997
g69
(g90
g71
NtRp998
(dp999
g74
(dp1000
g94
g95
ssg83
g994
sg76
(lp1001
S'http_accept'
p1002
asbag69
(g90
g71
NtRp1003
(dp1004
g74
(dp1005
g101
g102
ssg83
g994
sg76
(lp1006
S':'
asbag69
(g90
g71
NtRp1007
(dp1008
g74
(dp1009
sg83
g994
sg76
(lp1010
g69
(g70
g71
NtRp1011
(dp1012
g74
(dp1013
g82
I4
ssg83
g1007
sg76
(lp1014
S'text/html,application/xhtml+xml,application/xml;q=0.9,*/*;q=0.8'
p1015
asbasbasbag69
(g85
g71
NtRp1016
(dp1017
g74
(dp1018
sg83
g834
sg76
(lp1019
g69
(g90
g71
NtRp1020
(dp1021
g74
(dp1022
g94
g95
ssg83
g1016
sg76
(lp1023
S'http_accept_encoding'
p1024
asbag69
(g90
g71
NtRp1025
(dp1026
g74
(dp1027
g101
g102
ssg83
g1016
sg76
(lp1028
S':'
asbag69
(g90
g71
NtRp1029
(dp1030
g74
(dp1031
sg83
g1016
sg76
(lp1032
g69
(g70
g71
NtRp1033
(dp1034
g74
(dp1035
g82
I4
ssg83
g1029
sg76
(lp1036
S'gzip, deflate'
p1037
asbasbasbag69
(g85
g71
NtRp1038
(dp1039
g74
(dp1040
sg83
g834
sg76
(lp1041
g69
(g90
g71
NtRp1042
(dp1043
g74
(dp1044
g94
g95
ssg83
g1038
sg76
(lp1045
S'http_accept_language'
p1046
asbag69
(g90
g71
NtRp1047
(dp1048
g74
(dp1049
g101
g102
ssg83
g1038
sg76
(lp1050
S':'
asbag69
(g90
g71
NtRp1051
(dp1052
g74
(dp1053
sg83
g1038
sg76
(lp1054
g69
(g70
g71
NtRp1055
(dp1056
g74
(dp1057
g82
I4
ssg83
g1051
sg76
(lp1058
S'en-us,en;q=0.5'
p1059
asbasbasbag69
(g85
g71
NtRp1060
(dp1061
g74
(dp1062
sg83
g834
sg76
(lp1063
g69
(g90
g71
NtRp1064
(dp1065
g74
(dp1066
g94
g95
ssg83
g1060
sg76
(lp1067
S'http_connection'
p1068
asbag69
(g90
g71
NtRp1069
(dp1070
g74
(dp1071
g101
g102
ssg83
g1060
sg76
(lp1072
S':'
asbag69
(g90
g71
NtRp1073
(dp1074
g74
(dp1075
sg83
g1060
sg76
(lp1076
g69
(g70
g71
NtRp1077
(dp1078
g74
(dp1079
g82
I4
ssg83
g1073
sg76
(lp1080
S'keep-alive'
p1081
asbasbasbag69
(g85
g71
NtRp1082
(dp1083
g74
(dp1084
sg83
g834
sg76
(lp1085
g69
(g90
g71
NtRp1086
(dp1087
g74
(dp1088
g94
g95
ssg83
g1082
sg76
(lp1089
S'http_cookie'
p1090
asbag69
(g90
g71
NtRp1091
(dp1092
g74
(dp1093
g101
g102
ssg83
g1082
sg76
(lp1094
S':'
asbag69
(g90
g71
NtRp1095
(dp1096
g74
(dp1097
sg83
g1082
sg76
(lp1098
g69
(g70
g71
NtRp1099
(dp1100
g74
(dp1101
g82
I4
ssg83
g1095
sg76
(lp1102
S'session_id_welcome=127.0.0.1-dcd0cbc0-5d03-4cd5-bbba-23fba68436dc; session_id_admin=127.0.0.1-e2cb3487-6a06-4fc6-89b2-9ca3e21819c3; session_id_manager=127.0.0.1-7f7bcb65-bef9-473d-a481-a3eba18d03c3'
p1103
asbasbasbag69
(g85
g71
NtRp1104
(dp1105
g74
(dp1106
sg83
g834
sg76
(lp1107
g69
(g90
g71
NtRp1108
(dp1109
g74
(dp1110
g94
g95
ssg83
g1104
sg76
(lp1111
S'http_host'
p1112
asbag69
(g90
g71
NtRp1113
(dp1114
g74
(dp1115
g101
g102
ssg83
g1104
sg76
(lp1116
S':'
asbag69
(g90
g71
NtRp1117
(dp1118
g74
(dp1119
sg83
g1104
sg76
(lp1120
g69
(g70
g71
NtRp1121
(dp1122
g74
(dp1123
g82
I4
ssg83
g1117
sg76
(lp1124
S'127.0.0.1:8000'
p1125
asbasbasbag69
(g85
g71
NtRp1126
(dp1127
g74
(dp1128
sg83
g834
sg76
(lp1129
g69
(g90
g71
NtRp1130
(dp1131
g74
(dp1132
g94
g95
ssg83
g1126
sg76
(lp1133
S'http_referer'
p1134
asbag69
(g90
g71
NtRp1135
(dp1136
g74
(dp1137
g101
g102
ssg83
g1126
sg76
(lp1138
S':'
asbag69
(g90
g71
NtRp1139
(dp1140
g74
(dp1141
sg83
g1126
sg76
(lp1142
g69
(g70
g71
NtRp1143
(dp1144
g74
(dp1145
g82
I4
ssg83
g1139
sg76
(lp1146
S'http://127.0.0.1:8000/admin/default/design/manager'
p1147
asbasbasbag69
(g85
g71
NtRp1148
(dp1149
g74
(dp1150
sg83
g834
sg76
(lp1151
g69
(g90
g71
NtRp1152
(dp1153
g74
(dp1154
g94
g95
ssg83
g1148
sg76
(lp1155
S'http_user_agent'
p1156
asbag69
(g90
g71
NtRp1157
(dp1158
g74
(dp1159
g101
g102
ssg83
g1148
sg76
(lp1160
S':'
asbag69
(g90
g71
NtRp1161
(dp1162
g74
(dp1163
sg83
g1148
sg76
(lp1164
g69
(g70
g71
NtRp1165
(dp1166
g74
(dp1167
g82
I4
ssg83
g1161
sg76
(lp1168
S'Mozilla/5.0 (X11; Ubuntu; Linux i686; rv:14.0) Gecko/20100101 Firefox/14.0.1'
p1169
asbasbasbag69
(g85
g71
NtRp1170
(dp1171
g74
(dp1172
sg83
g834
sg76
(lp1173
g69
(g90
g71
NtRp1174
(dp1175
g74
(dp1176
g94
g95
ssg83
g1170
sg76
(lp1177
S'is_jython'
p1178
asbag69
(g90
g71
NtRp1179
(dp1180
g74
(dp1181
g101
g102
ssg83
g1170
sg76
(lp1182
S':'
asbag69
(g90
g71
NtRp1183
(dp1184
g74
(dp1185
sg83
g1170
sg76
(lp1186
g69
(g70
g71
NtRp1187
(dp1188
g74
(dp1189
g82
I4
ssg83
g1183
sg76
(lp1190
g112
asbasbasbag69
(g85
g71
NtRp1191
(dp1192
g74
(dp1193
sg83
g834
sg76
(lp1194
g69
(g90
g71
NtRp1195
(dp1196
g74
(dp1197
g94
g95
ssg83
g1191
sg76
(lp1198
S'is_pypy'
p1199
asbag69
(g90
g71
NtRp1200
(dp1201
g74
(dp1202
g101
g102
ssg83
g1191
sg76
(lp1203
S':'
asbag69
(g90
g71
NtRp1204
(dp1205
g74
(dp1206
sg83
g1191
sg76
(lp1207
g69
(g70
g71
NtRp1208
(dp1209
g74
(dp1210
g82
I4
ssg83
g1204
sg76
(lp1211
g112
asbasbasbag69
(g85
g71
NtRp1212
(dp1213
g74
(dp1214
sg83
g834
sg76
(lp1215
g69
(g90
g71
NtRp1216
(dp1217
g74
(dp1218
g94
g95
ssg83
g1212
sg76
(lp1219
S'path_info'
p1220
asbag69
(g90
g71
NtRp1221
(dp1222
g74
(dp1223
g101
g102
ssg83
g1212
sg76
(lp1224
S':'
asbag69
(g90
g71
NtRp1225
(dp1226
g74
(dp1227
sg83
g1212
sg76
(lp1228
g69
(g70
g71
NtRp1229
(dp1230
g74
(dp1231
g82
I4
ssg83
g1225
sg76
(lp1232
S'/manager/default/login'
p1233
asbasbasbag69
(g85
g71
NtRp1234
(dp1235
g74
(dp1236
sg83
g834
sg76
(lp1237
g69
(g90
g71
NtRp1238
(dp1239
g74
(dp1240
g94
g95
ssg83
g1234
sg76
(lp1241
S'query_string'
p1242
asbag69
(g90
g71
NtRp1243
(dp1244
g74
(dp1245
g101
g102
ssg83
g1234
sg76
(lp1246
S':'
asbag69
(g90
g71
NtRp1247
(dp1248
g74
(dp1249
sg83
g1234
sg76
(lp1250
g69
(g70
g71
NtRp1251
(dp1252
g74
(dp1253
g82
I4
ssg83
g1247
sg76
(lp1254
S'ticket=ST-74329-ZLFsloMeYWLCgYfb7ml7-cas'
p1255
asbasbasbag69
(g85
g71
NtRp1256
(dp1257
g74
(dp1258
sg83
g834
sg76
(lp1259
g69
(g90
g71
NtRp1260
(dp1261
g74
(dp1262
g94
g95
ssg83
g1256
sg76
(lp1263
S'remote_addr'
p1264
asbag69
(g90
g71
NtRp1265
(dp1266
g74
(dp1267
g101
g102
ssg83
g1256
sg76
(lp1268
S':'
asbag69
(g90
g71
NtRp1269
(dp1270
g74
(dp1271
sg83
g1256
sg76
(lp1272
g69
(g70
g71
NtRp1273
(dp1274
g74
(dp1275
g82
I4
ssg83
g1269
sg76
(lp1276
g202
asbasbasbag69
(g85
g71
NtRp1277
(dp1278
g74
(dp1279
sg83
g834
sg76
(lp1280
g69
(g90
g71
NtRp1281
(dp1282
g74
(dp1283
g94
g95
ssg83
g1277
sg76
(lp1284
S'remote_port'
p1285
asbag69
(g90
g71
NtRp1286
(dp1287
g74
(dp1288
g101
g102
ssg83
g1277
sg76
(lp1289
S':'
asbag69
(g90
g71
NtRp1290
(dp1291
g74
(dp1292
sg83
g1277
sg76
(lp1293
g69
(g70
g71
NtRp1294
(dp1295
g74
(dp1296
g82
I4
ssg83
g1290
sg76
(lp1297
S'36099'
p1298
asbasbasbag69
(g85
g71
NtRp1299
(dp1300
g74
(dp1301
sg83
g834
sg76
(lp1302
g69
(g90
g71
NtRp1303
(dp1304
g74
(dp1305
g94
g95
ssg83
g1299
sg76
(lp1306
S'request_method'
p1307
asbag69
(g90
g71
NtRp1308
(dp1309
g74
(dp1310
g101
g102
ssg83
g1299
sg76
(lp1311
S':'
asbag69
(g90
g71
NtRp1312
(dp1313
g74
(dp1314
sg83
g1299
sg76
(lp1315
g69
(g70
g71
NtRp1316
(dp1317
g74
(dp1318
g82
I4
ssg83
g1312
sg76
(lp1319
S'GET'
p1320
asbasbasbag69
(g85
g71
NtRp1321
(dp1322
g74
(dp1323
sg83
g834
sg76
(lp1324
g69
(g90
g71
NtRp1325
(dp1326
g74
(dp1327
g94
g95
ssg83
g1321
sg76
(lp1328
S'script_name'
p1329
asbag69
(g90
g71
NtRp1330
(dp1331
g74
(dp1332
g101
g102
ssg83
g1321
sg76
(lp1333
S':'
asbag69
(g90
g71
NtRp1334
(dp1335
g74
(dp1336
sg83
g1321
sg76
(lp1337
g69
(g70
g71
NtRp1338
(dp1339
g74
(dp1340
g82
I4
ssg83
g1334
sg76
(lp1341
S''
asbasbasbag69
(g85
g71
NtRp1342
(dp1343
g74
(dp1344
sg83
g834
sg76
(lp1345
g69
(g90
g71
NtRp1346
(dp1347
g74
(dp1348
g94
g95
ssg83
g1342
sg76
(lp1349
S'server_name'
p1350
asbag69
(g90
g71
NtRp1351
(dp1352
g74
(dp1353
g101
g102
ssg83
g1342
sg76
(lp1354
S':'
asbag69
(g90
g71
NtRp1355
(dp1356
g74
(dp1357
sg83
g1342
sg76
(lp1358
g69
(g70
g71
NtRp1359
(dp1360
g74
(dp1361
g82
I4
ssg83
g1355
sg76
(lp1362
S'unic-Inspiron-N5050'
p1363
asbasbasbag69
(g85
g71
NtRp1364
(dp1365
g74
(dp1366
sg83
g834
sg76
(lp1367
g69
(g90
g71
NtRp1368
(dp1369
g74
(dp1370
g94
g95
ssg83
g1364
sg76
(lp1371
S'server_port'
p1372
asbag69
(g90
g71
NtRp1373
(dp1374
g74
(dp1375
g101
g102
ssg83
g1364
sg76
(lp1376
S':'
asbag69
(g90
g71
NtRp1377
(dp1378
g74
(dp1379
sg83
g1364
sg76
(lp1380
g69
(g70
g71
NtRp1381
(dp1382
g74
(dp1383
g82
I4
ssg83
g1377
sg76
(lp1384
S'8000'
p1385
asbasbasbag69
(g85
g71
NtRp1386
(dp1387
g74
(dp1388
sg83
g834
sg76
(lp1389
g69
(g90
g71
NtRp1390
(dp1391
g74
(dp1392
g94
g95
ssg83
g1386
sg76
(lp1393
S'server_protocol'
p1394
asbag69
(g90
g71
NtRp1395
(dp1396
g74
(dp1397
g101
g102
ssg83
g1386
sg76
(lp1398
S':'
asbag69
(g90
g71
NtRp1399
(dp1400
g74
(dp1401
sg83
g1386
sg76
(lp1402
g69
(g70
g71
NtRp1403
(dp1404
g74
(dp1405
g82
I4
ssg83
g1399
sg76
(lp1406
S'HTTP/1.1'
p1407
asbasbasbag69
(g85
g71
NtRp1408
(dp1409
g74
(dp1410
sg83
g834
sg76
(lp1411
g69
(g90
g71
NtRp1412
(dp1413
g74
(dp1414
g94
g95
ssg83
g1408
sg76
(lp1415
S'server_software'
p1416
asbag69
(g90
g71
NtRp1417
(dp1418
g74
(dp1419
g101
g102
ssg83
g1408
sg76
(lp1420
S':'
asbag69
(g90
g71
NtRp1421
(dp1422
g74
(dp1423
sg83
g1408
sg76
(lp1424
g69
(g70
g71
NtRp1425
(dp1426
g74
(dp1427
g82
I4
ssg83
g1421
sg76
(lp1428
S'Rocket 1.2.4'
p1429
asbasbasbag69
(g85
g71
NtRp1430
(dp1431
g74
(dp1432
sg83
g834
sg76
(lp1433
g69
(g90
g71
NtRp1434
(dp1435
g74
(dp1436
g94
g95
ssg83
g1430
sg76
(lp1437
S'web2py_crontype'
p1438
asbag69
(g90
g71
NtRp1439
(dp1440
g74
(dp1441
g101
g102
ssg83
g1430
sg76
(lp1442
S':'
asbag69
(g90
g71
NtRp1443
(dp1444
g74
(dp1445
sg83
g1430
sg76
(lp1446
g69
(g70
g71
NtRp1447
(dp1448
g74
(dp1449
g82
I4
ssg83
g1443
sg76
(lp1450
S'hard'
p1451
asbasbasbag69
(g85
g71
NtRp1452
(dp1453
g74
(dp1454
sg83
g834
sg76
(lp1455
g69
(g90
g71
NtRp1456
(dp1457
g74
(dp1458
g94
g95
ssg83
g1452
sg76
(lp1459
S'web2py_path'
p1460
asbag69
(g90
g71
NtRp1461
(dp1462
g74
(dp1463
g101
g102
ssg83
g1452
sg76
(lp1464
S':'
asbag69
(g90
g71
NtRp1465
(dp1466
g74
(dp1467
sg83
g1452
sg76
(lp1468
g69
(g70
g71
NtRp1469
(dp1470
g74
(dp1471
g82
I4
ssg83
g1465
sg76
(lp1472
g881
asbasbasbag69
(g85
g71
NtRp1473
(dp1474
g74
(dp1475
sg83
g834
sg76
(lp1476
g69
(g90
g71
NtRp1477
(dp1478
g74
(dp1479
g94
g95
ssg83
g1473
sg76
(lp1480
S'web2py_version'
p1481
asbag69
(g90
g71
NtRp1482
(dp1483
g74
(dp1484
g101
g102
ssg83
g1473
sg76
(lp1485
S':'
asbag69
(g90
g71
NtRp1486
(dp1487
g74
(dp1488
sg83
g1473
sg76
(lp1489
g69
(g70
g71
NtRp1490
(dp1491
g74
(dp1492
g82
I4
ssg83
g1486
sg76
(lp1493
g69
(g78
g71
NtRp1494
(dp1495
g74
(dp1496
g82
I3
ssg83
Nsg76
(lp1497
g69
(g85
g71
NtRp1498
(dp1499
g74
(dp1500
sg83
g1494
sg76
(lp1501
g69
(g90
g71
NtRp1502
(dp1503
g74
(dp1504
sg83
g1498
sg76
(lp1505
g69
(g70
g71
NtRp1506
(dp1507
g74
(dp1508
g82
I3
ssg83
g1502
sg76
(lp1509
S'1'
asbasbasbag69
(g85
g71
NtRp1510
(dp1511
g74
(dp1512
sg83
g1494
sg76
(lp1513
g69
(g90
g71
NtRp1514
(dp1515
g74
(dp1516
sg83
g1510
sg76
(lp1517
g69
(g70
g71
NtRp1518
(dp1519
g74
(dp1520
g82
I3
ssg83
g1514
sg76
(lp1521
S'99'
p1522
asbasbasbag69
(g85
g71
NtRp1523
(dp1524
g74
(dp1525
sg83
g1494
sg76
(lp1526
g69
(g90
g71
NtRp1527
(dp1528
g74
(dp1529
sg83
g1523
sg76
(lp1530
g69
(g70
g71
NtRp1531
(dp1532
g74
(dp1533
g82
I3
ssg83
g1527
sg76
(lp1534
S'4'
asbasbasbag69
(g85
g71
NtRp1535
(dp1536
g74
(dp1537
sg83
g1494
sg76
(lp1538
g69
(g90
g71
NtRp1539
(dp1540
g74
(dp1541
sg83
g1535
sg76
(lp1542
g69
(g70
g71
NtRp1543
(dp1544
g74
(dp1545
g82
I3
ssg83
g1539
sg76
(lp1546
S'datetime.datetime(2011, 12, 14, 14, 46, 14)'
p1547
asbasbasbag69
(g85
g71
NtRp1548
(dp1549
g74
(dp1550
sg83
g1494
sg76
(lp1551
g69
(g90
g71
NtRp1552
(dp1553
g74
(dp1554
sg83
g1548
sg76
(lp1555
g69
(g70
g71
NtRp1556
(dp1557
g74
(dp1558
g82
I3
ssg83
g1552
sg76
(lp1559
S'stable'
p1560
asbasbasbasbasbasbasbag69
(g85
g71
NtRp1561
(dp1562
g74
(dp1563
sg83
g834
sg76
(lp1564
g69
(g90
g71
NtRp1565
(dp1566
g74
(dp1567
g94
g95
ssg83
g1561
sg76
(lp1568
S'wsgi_errors'
p1569
asbag69
(g90
g71
NtRp1570
(dp1571
g74
(dp1572
g101
g102
ssg83
g1561
sg76
(lp1573
S':'
asbag69
(g90
g71
NtRp1574
(dp1575
g74
(dp1576
sg83
g1561
sg76
(lp1577
g69
(g70
g71
NtRp1578
(dp1579
g74
(dp1580
g82
I4
ssg83
g1574
sg76
(lp1581
S"<open file '<stderr>', mode 'w' at 0xb72e50d0>"
p1582
asbasbasbag69
(g85
g71
NtRp1583
(dp1584
g74
(dp1585
sg83
g834
sg76
(lp1586
g69
(g90
g71
NtRp1587
(dp1588
g74
(dp1589
g94
g95
ssg83
g1583
sg76
(lp1590
S'wsgi_file_wrapper'
p1591
asbag69
(g90
g71
NtRp1592
(dp1593
g74
(dp1594
g101
g102
ssg83
g1583
sg76
(lp1595
S':'
asbag69
(g90
g71
NtRp1596
(dp1597
g74
(dp1598
sg83
g1583
sg76
(lp1599
g69
(g70
g71
NtRp1600
(dp1601
g74
(dp1602
g82
I4
ssg83
g1596
sg76
(lp1603
S'<class wsgiref.util.FileWrapper at 0xa43b4ac>'
p1604
asbasbasbag69
(g85
g71
NtRp1605
(dp1606
g74
(dp1607
sg83
g834
sg76
(lp1608
g69
(g90
g71
NtRp1609
(dp1610
g74
(dp1611
g94
g95
ssg83
g1605
sg76
(lp1612
S'wsgi_input'
p1613
asbag69
(g90
g71
NtRp1614
(dp1615
g74
(dp1616
g101
g102
ssg83
g1605
sg76
(lp1617
S':'
asbag69
(g90
g71
NtRp1618
(dp1619
g74
(dp1620
sg83
g1605
sg76
(lp1621
g69
(g70
g71
NtRp1622
(dp1623
g74
(dp1624
g82
I4
ssg83
g1618
sg76
(lp1625
S'<socket._fileobject object at 0xb49e01ec>'
p1626
asbasbasbag69
(g85
g71
NtRp1627
(dp1628
g74
(dp1629
sg83
g834
sg76
(lp1630
g69
(g90
g71
NtRp1631
(dp1632
g74
(dp1633
g94
g95
ssg83
g1627
sg76
(lp1634
S'wsgi_multiprocess'
p1635
asbag69
(g90
g71
NtRp1636
(dp1637
g74
(dp1638
g101
g102
ssg83
g1627
sg76
(lp1639
S':'
asbag69
(g90
g71
NtRp1640
(dp1641
g74
(dp1642
sg83
g1627
sg76
(lp1643
g69
(g70
g71
NtRp1644
(dp1645
g74
(dp1646
g82
I4
ssg83
g1640
sg76
(lp1647
g112
asbasbasbag69
(g85
g71
NtRp1648
(dp1649
g74
(dp1650
sg83
g834
sg76
(lp1651
g69
(g90
g71
NtRp1652
(dp1653
g74
(dp1654
g94
g95
ssg83
g1648
sg76
(lp1655
S'wsgi_multithread'
p1656
asbag69
(g90
g71
NtRp1657
(dp1658
g74
(dp1659
g101
g102
ssg83
g1648
sg76
(lp1660
S':'
asbag69
(g90
g71
NtRp1661
(dp1662
g74
(dp1663
sg83
g1648
sg76
(lp1664
g69
(g70
g71
NtRp1665
(dp1666
g74
(dp1667
g82
I4
ssg83
g1661
sg76
(lp1668
S'True'
p1669
asbasbasbag69
(g85
g71
NtRp1670
(dp1671
g74
(dp1672
sg83
g834
sg76
(lp1673
g69
(g90
g71
NtRp1674
(dp1675
g74
(dp1676
g94
g95
ssg83
g1670
sg76
(lp1677
S'wsgi_run_once'
p1678
asbag69
(g90
g71
NtRp1679
(dp1680
g74
(dp1681
g101
g102
ssg83
g1670
sg76
(lp1682
S':'
asbag69
(g90
g71
NtRp1683
(dp1684
g74
(dp1685
sg83
g1670
sg76
(lp1686
g69
(g70
g71
NtRp1687
(dp1688
g74
(dp1689
g82
I4
ssg83
g1683
sg76
(lp1690
g112
asbasbasbag69
(g85
g71
NtRp1691
(dp1692
g74
(dp1693
sg83
g834
sg76
(lp1694
g69
(g90
g71
NtRp1695
(dp1696
g74
(dp1697
g94
g95
ssg83
g1691
sg76
(lp1698
S'wsgi_url_scheme'
p1699
asbag69
(g90
g71
NtRp1700
(dp1701
g74
(dp1702
g101
g102
ssg83
g1691
sg76
(lp1703
S':'
asbag69
(g90
g71
NtRp1704
(dp1705
g74
(dp1706
sg83
g1691
sg76
(lp1707
g69
(g70
g71
NtRp1708
(dp1709
g74
(dp1710
g82
I4
ssg83
g1704
sg76
(lp1711
S'http'
p1712
asbasbasbag69
(g85
g71
NtRp1713
(dp1714
g74
(dp1715
sg83
g834
sg76
(lp1716
g69
(g90
g71
NtRp1717
(dp1718
g74
(dp1719
g94
g95
ssg83
g1713
sg76
(lp1720
S'wsgi_version'
p1721
asbag69
(g90
g71
NtRp1722
(dp1723
g74
(dp1724
g101
g102
ssg83
g1713
sg76
(lp1725
S':'
asbag69
(g90
g71
NtRp1726
(dp1727
g74
(dp1728
sg83
g1713
sg76
(lp1729
g69
(g70
g71
NtRp1730
(dp1731
g74
(dp1732
g82
I4
ssg83
g1726
sg76
(lp1733
g69
(g78
g71
NtRp1734
(dp1735
g74
(dp1736
g82
I3
ssg83
Nsg76
(lp1737
g69
(g85
g71
NtRp1738
(dp1739
g74
(dp1740
sg83
g1734
sg76
(lp1741
g69
(g90
g71
NtRp1742
(dp1743
g74
(dp1744
sg83
g1738
sg76
(lp1745
g69
(g70
g71
NtRp1746
(dp1747
g74
(dp1748
g82
I3
ssg83
g1742
sg76
(lp1749
S'1'
asbasbasbag69
(g85
g71
NtRp1750
(dp1751
g74
(dp1752
sg83
g1734
sg76
(lp1753
g69
(g90
g71
NtRp1754
(dp1755
g74
(dp1756
sg83
g1750
sg76
(lp1757
g69
(g70
g71
NtRp1758
(dp1759
g74
(dp1760
g82
I3
ssg83
g1754
sg76
(lp1761
S'0'
asbasbasbasbasbasbasbasbasbasbasbag69
(g85
g71
NtRp1762
(dp1763
g74
(dp1764
sg83
g79
sg76
(lp1765
g69
(g90
g71
NtRp1766
(dp1767
g74
(dp1768
g94
g95
ssg83
g1762
sg76
(lp1769
S'extension'
p1770
asbag69
(g90
g71
NtRp1771
(dp1772
g74
(dp1773
g101
g102
ssg83
g1762
sg76
(lp1774
S':'
asbag69
(g90
g71
NtRp1775
(dp1776
g74
(dp1777
sg83
g1762
sg76
(lp1778
g69
(g70
g71
NtRp1779
(dp1780
g74
(dp1781
g82
I5
ssg83
g1775
sg76
(lp1782
S'html'
p1783
asbasbasbag69
(g85
g71
NtRp1784
(dp1785
g74
(dp1786
sg83
g79
sg76
(lp1787
g69
(g90
g71
NtRp1788
(dp1789
g74
(dp1790
g94
g95
ssg83
g1784
sg76
(lp1791
S'folder'
p1792
asbag69
(g90
g71
NtRp1793
(dp1794
g74
(dp1795
g101
g102
ssg83
g1784
sg76
(lp1796
S':'
asbag69
(g90
g71
NtRp1797
(dp1798
g74
(dp1799
sg83
g1784
sg76
(lp1800
g69
(g70
g71
NtRp1801
(dp1802
g74
(dp1803
g82
I5
ssg83
g1797
sg76
(lp1804
S'/home/unic/web2py/applications/manager/'
p1805
asbasbasbag69
(g85
g71
NtRp1806
(dp1807
g74
(dp1808
sg83
g79
sg76
(lp1809
g69
(g90
g71
NtRp1810
(dp1811
g74
(dp1812
g94
g95
ssg83
g1806
sg76
(lp1813
S'function'
p1814
asbag69
(g90
g71
NtRp1815
(dp1816
g74
(dp1817
g101
g102
ssg83
g1806
sg76
(lp1818
S':'
asbag69
(g90
g71
NtRp1819
(dp1820
g74
(dp1821
sg83
g1806
sg76
(lp1822
g69
(g70
g71
NtRp1823
(dp1824
g74
(dp1825
g82
I5
ssg83
g1819
sg76
(lp1826
S'login'
p1827
asbasbasbag69
(g85
g71
NtRp1828
(dp1829
g74
(dp1830
sg83
g79
sg76
(lp1831
g69
(g90
g71
NtRp1832
(dp1833
g74
(dp1834
g94
g95
ssg83
g1828
sg76
(lp1835
S'get_vars'
p1836
asbag69
(g90
g71
NtRp1837
(dp1838
g74
(dp1839
g101
g102
ssg83
g1828
sg76
(lp1840
S':'
asbag69
(g90
g71
NtRp1841
(dp1842
g74
(dp1843
sg83
g1828
sg76
(lp1844
g69
(g70
g71
NtRp1845
(dp1846
g74
(dp1847
g82
I5
ssg83
g1841
sg76
(lp1848
g69
(g78
g71
NtRp1849
(dp1850
g74
(dp1851
g82
I4
ssg83
Nsg76
(lp1852
g69
(g85
g71
NtRp1853
(dp1854
g74
(dp1855
sg83
g1849
sg76
(lp1856
g69
(g90
g71
NtRp1857
(dp1858
g74
(dp1859
g94
g95
ssg83
g1853
sg76
(lp1860
S'ticket'
p1861
asbag69
(g90
g71
NtRp1862
(dp1863
g74
(dp1864
g101
g102
ssg83
g1853
sg76
(lp1865
S':'
asbag69
(g90
g71
NtRp1866
(dp1867
g74
(dp1868
sg83
g1853
sg76
(lp1869
g69
(g70
g71
NtRp1870
(dp1871
g74
(dp1872
g82
I4
ssg83
g1866
sg76
(lp1873
S'ST-74329-ZLFsloMeYWLCgYfb7ml7-cas'
p1874
asbasbasbasbasbasbasbag69
(g85
g71
NtRp1875
(dp1876
g74
(dp1877
sg83
g79
sg76
(lp1878
g69
(g90
g71
NtRp1879
(dp1880
g74
(dp1881
g94
g95
ssg83
g1875
sg76
(lp1882
S'global_settings'
p1883
asbag69
(g90
g71
NtRp1884
(dp1885
g74
(dp1886
g101
g102
ssg83
g1875
sg76
(lp1887
S':'
asbag69
(g90
g71
NtRp1888
(dp1889
g74
(dp1890
sg83
g1875
sg76
(lp1891
g69
(g70
g71
NtRp1892
(dp1893
g74
(dp1894
g82
I5
ssg83
g1888
sg76
(lp1895
g69
(g78
g71
NtRp1896
(dp1897
g74
(dp1898
g82
I4
ssg83
Nsg76
(lp1899
g69
(g85
g71
NtRp1900
(dp1901
g74
(dp1902
sg83
g1896
sg76
(lp1903
g69
(g90
g71
NtRp1904
(dp1905
g74
(dp1906
g94
g95
ssg83
g1900
sg76
(lp1907
g846
asbag69
(g90
g71
NtRp1908
(dp1909
g74
(dp1910
g101
g102
ssg83
g1900
sg76
(lp1911
S':'
asbag69
(g90
g71
NtRp1912
(dp1913
g74
(dp1914
sg83
g1900
sg76
(lp1915
g69
(g70
g71
NtRp1916
(dp1917
g74
(dp1918
g82
I4
ssg83
g1912
sg76
(lp1919
S"set(['/home/unic/web2py/applications/manager/', '/home/unic/web2py/applications/admin/', '/home/unic/web2py/applications/welcome/'])"
p1920
asbasbasbag69
(g85
g71
NtRp1921
(dp1922
g74
(dp1923
sg83
g1896
sg76
(lp1924
g69
(g90
g71
NtRp1925
(dp1926
g74
(dp1927
g94
g95
ssg83
g1921
sg76
(lp1928
g868
asbag69
(g90
g71
NtRp1929
(dp1930
g74
(dp1931
g101
g102
ssg83
g1921
sg76
(lp1932
S':'
asbag69
(g90
g71
NtRp1933
(dp1934
g74
(dp1935
sg83
g1921
sg76
(lp1936
g69
(g70
g71
NtRp1937
(dp1938
g74
(dp1939
g82
I4
ssg83
g1933
sg76
(lp1940
g881
asbasbasbag69
(g85
g71
NtRp1941
(dp1942
g74
(dp1943
sg83
g1896
sg76
(lp1944
g69
(g90
g71
NtRp1945
(dp1946
g74
(dp1947
g94
g95
ssg83
g1941
sg76
(lp1948
g890
asbag69
(g90
g71
NtRp1949
(dp1950
g74
(dp1951
g101
g102
ssg83
g1941
sg76
(lp1952
S':'
asbag69
(g90
g71
NtRp1953
(dp1954
g74
(dp1955
sg83
g1941
sg76
(lp1956
g69
(g70
g71
NtRp1957
(dp1958
g74
(dp1959
g82
I4
ssg83
g1953
sg76
(lp1960
g69
(g78
g71
NtRp1961
(dp1962
g74
(dp1963
g82
I3
ssg83
Nsg76
(lp1964
sbasbasbasbag69
(g85
g71
NtRp1965
(dp1966
g74
(dp1967
sg83
g1896
sg76
(lp1968
g69
(g90
g71
NtRp1969
(dp1970
g74
(dp1971
g94
g95
ssg83
g1965
sg76
(lp1972
g915
asbag69
(g90
g71
NtRp1973
(dp1974
g74
(dp1975
g101
g102
ssg83
g1965
sg76
(lp1976
S':'
asbag69
(g90
g71
NtRp1977
(dp1978
g74
(dp1979
sg83
g1965
sg76
(lp1980
g69
(g70
g71
NtRp1981
(dp1982
g74
(dp1983
g82
I4
ssg83
g1977
sg76
(lp1984
S"<Values at 0xa49080c: {'verbose': False, 'ip': '127.0.0.1', 'shutdown_timeout': 5, 'taskbar': False, 'port': 8000, 'maxthreads': None, 'softcron': False, 'server_name': 'unic-Inspiron-N5050', 'bpython': False, 'nogui': False, 'nocron': False, 'extcron': False, 'debuglevel': 30, 'test': None, 'folder': '/home/unic/web2py', 'config': '', 'import_models': False, 'winservice': '', 'shell': None, 'run': '', 'log_filename': 'httpserver.log', 'args': [''], 'socket_timeout': 1, 'profiler_filename': None, 'ssl_private_key': '', 'password': '<ask>', 'request_queue_size': 5, 'ssl_certificate': '', 'cronjob': False, 'plain': False, 'quiet': False, 'interfaces': None, 'minthreads': None, 'timeout': 10, 'numthreads': None, 'nobanner': False, 'pid_filename': 'httpserver.pid'}>"
p1985
asbasbasbag69
(g85
g71
NtRp1986
(dp1987
g74
(dp1988
sg83
g1896
sg76
(lp1989
g69
(g90
g71
NtRp1990
(dp1991
g74
(dp1992
g94
g95
ssg83
g1986
sg76
(lp1993
g937
asbag69
(g90
g71
NtRp1994
(dp1995
g74
(dp1996
g101
g102
ssg83
g1986
sg76
(lp1997
S':'
asbag69
(g90
g71
NtRp1998
(dp1999
g74
(dp2000
sg83
g1986
sg76
(lp2001
g69
(g70
g71
NtRp2002
(dp2003
g74
(dp2004
g82
I4
ssg83
g1998
sg76
(lp2005
S'set([])'
p2006
asbasbasbag69
(g85
g71
NtRp2007
(dp2008
g74
(dp2009
sg83
g1896
sg76
(lp2010
g69
(g90
g71
NtRp2011
(dp2012
g74
(dp2013
g94
g95
ssg83
g2007
sg76
(lp2014
g959
asbag69
(g90
g71
NtRp2015
(dp2016
g74
(dp2017
g101
g102
ssg83
g2007
sg76
(lp2018
S':'
asbag69
(g90
g71
NtRp2019
(dp2020
g74
(dp2021
sg83
g2007
sg76
(lp2022
g69
(g70
g71
NtRp2023
(dp2024
g74
(dp2025
g82
I4
ssg83
g2019
sg76
(lp2026
g112
asbasbasbag69
(g85
g71
NtRp2027
(dp2028
g74
(dp2029
sg83
g1896
sg76
(lp2030
g69
(g90
g71
NtRp2031
(dp2032
g74
(dp2033
g94
g95
ssg83
g2027
sg76
(lp2034
g980
asbag69
(g90
g71
NtRp2035
(dp2036
g74
(dp2037
g101
g102
ssg83
g2027
sg76
(lp2038
S':'
asbag69
(g90
g71
NtRp2039
(dp2040
g74
(dp2041
sg83
g2027
sg76
(lp2042
g69
(g70
g71
NtRp2043
(dp2044
g74
(dp2045
g82
I4
ssg83
g2039
sg76
(lp2046
g993
asbasbasbag69
(g85
g71
NtRp2047
(dp2048
g74
(dp2049
sg83
g1896
sg76
(lp2050
g69
(g90
g71
NtRp2051
(dp2052
g74
(dp2053
g94
g95
ssg83
g2047
sg76
(lp2054
g1178
asbag69
(g90
g71
NtRp2055
(dp2056
g74
(dp2057
g101
g102
ssg83
g2047
sg76
(lp2058
S':'
asbag69
(g90
g71
NtRp2059
(dp2060
g74
(dp2061
sg83
g2047
sg76
(lp2062
g69
(g70
g71
NtRp2063
(dp2064
g74
(dp2065
g82
I4
ssg83
g2059
sg76
(lp2066
g112
asbasbasbag69
(g85
g71
NtRp2067
(dp2068
g74
(dp2069
sg83
g1896
sg76
(lp2070
g69
(g90
g71
NtRp2071
(dp2072
g74
(dp2073
g94
g95
ssg83
g2067
sg76
(lp2074
g1199
asbag69
(g90
g71
NtRp2075
(dp2076
g74
(dp2077
g101
g102
ssg83
g2067
sg76
(lp2078
S':'
asbag69
(g90
g71
NtRp2079
(dp2080
g74
(dp2081
sg83
g2067
sg76
(lp2082
g69
(g70
g71
NtRp2083
(dp2084
g74
(dp2085
g82
I4
ssg83
g2079
sg76
(lp2086
g112
asbasbasbag69
(g85
g71
NtRp2087
(dp2088
g74
(dp2089
sg83
g1896
sg76
(lp2090
g69
(g90
g71
NtRp2091
(dp2092
g74
(dp2093
g94
g95
ssg83
g2087
sg76
(lp2094
g1438
asbag69
(g90
g71
NtRp2095
(dp2096
g74
(dp2097
g101
g102
ssg83
g2087
sg76
(lp2098
S':'
asbag69
(g90
g71
NtRp2099
(dp2100
g74
(dp2101
sg83
g2087
sg76
(lp2102
g69
(g70
g71
NtRp2103
(dp2104
g74
(dp2105
g82
I4
ssg83
g2099
sg76
(lp2106
g1451
asbasbasbag69
(g85
g71
NtRp2107
(dp2108
g74
(dp2109
sg83
g1896
sg76
(lp2110
g69
(g90
g71
NtRp2111
(dp2112
g74
(dp2113
g94
g95
ssg83
g2107
sg76
(lp2114
g1481
asbag69
(g90
g71
NtRp2115
(dp2116
g74
(dp2117
g101
g102
ssg83
g2107
sg76
(lp2118
S':'
asbag69
(g90
g71
NtRp2119
(dp2120
g74
(dp2121
sg83
g2107
sg76
(lp2122
g69
(g70
g71
NtRp2123
(dp2124
g74
(dp2125
g82
I4
ssg83
g2119
sg76
(lp2126
g69
(g78
g71
NtRp2127
(dp2128
g74
(dp2129
g82
I3
ssg83
Nsg76
(lp2130
g69
(g85
g71
NtRp2131
(dp2132
g74
(dp2133
sg83
g2127
sg76
(lp2134
g69
(g90
g71
NtRp2135
(dp2136
g74
(dp2137
sg83
g2131
sg76
(lp2138
g69
(g70
g71
NtRp2139
(dp2140
g74
(dp2141
g82
I3
ssg83
g2135
sg76
(lp2142
S'1'
asbasbasbag69
(g85
g71
NtRp2143
(dp2144
g74
(dp2145
sg83
g2127
sg76
(lp2146
g69
(g90
g71
NtRp2147
(dp2148
g74
(dp2149
sg83
g2143
sg76
(lp2150
g69
(g70
g71
NtRp2151
(dp2152
g74
(dp2153
g82
I3
ssg83
g2147
sg76
(lp2154
S'99'
p2155
asbasbasbag69
(g85
g71
NtRp2156
(dp2157
g74
(dp2158
sg83
g2127
sg76
(lp2159
g69
(g90
g71
NtRp2160
(dp2161
g74
(dp2162
sg83
g2156
sg76
(lp2163
g69
(g70
g71
NtRp2164
(dp2165
g74
(dp2166
g82
I3
ssg83
g2160
sg76
(lp2167
S'4'
asbasbasbag69
(g85
g71
NtRp2168
(dp2169
g74
(dp2170
sg83
g2127
sg76
(lp2171
g69
(g90
g71
NtRp2172
(dp2173
g74
(dp2174
sg83
g2168
sg76
(lp2175
g69
(g70
g71
NtRp2176
(dp2177
g74
(dp2178
g82
I3
ssg83
g2172
sg76
(lp2179
S'datetime.datetime(2011, 12, 14, 14, 46, 14)'
p2180
asbasbasbag69
(g85
g71
NtRp2181
(dp2182
g74
(dp2183
sg83
g2127
sg76
(lp2184
g69
(g90
g71
NtRp2185
(dp2186
g74
(dp2187
sg83
g2181
sg76
(lp2188
g69
(g70
g71
NtRp2189
(dp2190
g74
(dp2191
g82
I3
ssg83
g2185
sg76
(lp2192
g1560
asbasbasbasbasbasbasbasbasbasbasbag69
(g85
g71
NtRp2193
(dp2194
g74
(dp2195
sg83
g79
sg76
(lp2196
g69
(g90
g71
NtRp2197
(dp2198
g74
(dp2199
g94
g95
ssg83
g2193
sg76
(lp2200
S'is_https'
p2201
asbag69
(g90
g71
NtRp2202
(dp2203
g74
(dp2204
g101
g102
ssg83
g2193
sg76
(lp2205
S':'
asbag69
(g90
g71
NtRp2206
(dp2207
g74
(dp2208
sg83
g2193
sg76
(lp2209
g69
(g70
g71
NtRp2210
(dp2211
g74
(dp2212
g82
I5
ssg83
g2206
sg76
(lp2213
g112
asbasbasbag69
(g85
g71
NtRp2214
(dp2215
g74
(dp2216
sg83
g79
sg76
(lp2217
g69
(g90
g71
NtRp2218
(dp2219
g74
(dp2220
g94
g95
ssg83
g2214
sg76
(lp2221
S'is_local'
p2222
asbag69
(g90
g71
NtRp2223
(dp2224
g74
(dp2225
g101
g102
ssg83
g2214
sg76
(lp2226
S':'
asbag69
(g90
g71
NtRp2227
(dp2228
g74
(dp2229
sg83
g2214
sg76
(lp2230
g69
(g70
g71
NtRp2231
(dp2232
g74
(dp2233
g82
I5
ssg83
g2227
sg76
(lp2234
g1669
asbasbasbag69
(g85
g71
NtRp2235
(dp2236
g74
(dp2237
sg83
g79
sg76
(lp2238
g69
(g90
g71
NtRp2239
(dp2240
g74
(dp2241
g94
g95
ssg83
g2235
sg76
(lp2242
S'is_restful'
p2243
asbag69
(g90
g71
NtRp2244
(dp2245
g74
(dp2246
g101
g102
ssg83
g2235
sg76
(lp2247
S':'
asbag69
(g90
g71
NtRp2248
(dp2249
g74
(dp2250
sg83
g2235
sg76
(lp2251
g69
(g70
g71
NtRp2252
(dp2253
g74
(dp2254
g82
I5
ssg83
g2248
sg76
(lp2255
g112
asbasbasbag69
(g85
g71
NtRp2256
(dp2257
g74
(dp2258
sg83
g79
sg76
(lp2259
g69
(g90
g71
NtRp2260
(dp2261
g74
(dp2262
g94
g95
ssg83
g2256
sg76
(lp2263
S'now'
p2264
asbag69
(g90
g71
NtRp2265
(dp2266
g74
(dp2267
g101
g102
ssg83
g2256
sg76
(lp2268
S':'
asbag69
(g90
g71
NtRp2269
(dp2270
g74
(dp2271
sg83
g2256
sg76
(lp2272
g69
(g70
g71
NtRp2273
(dp2274
g74
(dp2275
g82
I5
ssg83
g2269
sg76
(lp2276
S'datetime.datetime(2012, 11, 11, 0, 54, 27, 866461)'
p2277
asbasbasbag69
(g85
g71
NtRp2278
(dp2279
g74
(dp2280
sg83
g79
sg76
(lp2281
g69
(g90
g71
NtRp2282
(dp2283
g74
(dp2284
g94
g95
ssg83
g2278
sg76
(lp2285
S'post_vars'
p2286
asbag69
(g90
g71
NtRp2287
(dp2288
g74
(dp2289
g101
g102
ssg83
g2278
sg76
(lp2290
S':'
asbag69
(g90
g71
NtRp2291
(dp2292
g74
(dp2293
sg83
g2278
sg76
(lp2294
g69
(g70
g71
NtRp2295
(dp2296
g74
(dp2297
g82
I5
ssg83
g2291
sg76
(lp2298
g69
(g78
g71
NtRp2299
(dp2300
g74
(dp2301
g82
I4
ssg83
Nsg76
(lp2302
sbasbasbasbag69
(g85
g71
NtRp2303
(dp2304
g74
(dp2305
sg83
g79
sg76
(lp2306
g69
(g90
g71
NtRp2307
(dp2308
g74
(dp2309
g94
g95
ssg83
g2303
sg76
(lp2310
S'url'
p2311
asbag69
(g90
g71
NtRp2312
(dp2313
g74
(dp2314
g101
g102
ssg83
g2303
sg76
(lp2315
S':'
asbag69
(g90
g71
NtRp2316
(dp2317
g74
(dp2318
sg83
g2303
sg76
(lp2319
g69
(g70
g71
NtRp2320
(dp2321
g74
(dp2322
g82
I5
ssg83
g2316
sg76
(lp2323
S'/manager/default/login'
p2324
asbasbasbag69
(g85
g71
NtRp2325
(dp2326
g74
(dp2327
sg83
g79
sg76
(lp2328
g69
(g90
g71
NtRp2329
(dp2330
g74
(dp2331
g94
g95
ssg83
g2325
sg76
(lp2332
S'utcnow'
p2333
asbag69
(g90
g71
NtRp2334
(dp2335
g74
(dp2336
g101
g102
ssg83
g2325
sg76
(lp2337
S':'
asbag69
(g90
g71
NtRp2338
(dp2339
g74
(dp2340
sg83
g2325
sg76
(lp2341
g69
(g70
g71
NtRp2342
(dp2343
g74
(dp2344
g82
I5
ssg83
g2338
sg76
(lp2345
S'datetime.datetime(2012, 11, 10, 19, 24, 27, 866476)'
p2346
asbasbasbag69
(g85
g71
NtRp2347
(dp2348
g74
(dp2349
sg83
g79
sg76
(lp2350
g69
(g90
g71
NtRp2351
(dp2352
g74
(dp2353
g94
g95
ssg83
g2347
sg76
(lp2354
S'uuid'
p2355
asbag69
(g90
g71
NtRp2356
(dp2357
g74
(dp2358
g101
g102
ssg83
g2347
sg76
(lp2359
S':'
asbag69
(g90
g71
NtRp2360
(dp2361
g74
(dp2362
sg83
g2347
sg76
(lp2363
g69
(g70
g71
NtRp2364
(dp2365
g74
(dp2366
g82
I5
ssg83
g2360
sg76
(lp2367
S'manager/127.0.0.1.2012-11-11.00-54-27.2525b92e-4c07-4f6d-8d61-1f0a995f2e54'
p2368
asbasbasbag69
(g85
g71
NtRp2369
(dp2370
g74
(dp2371
sg83
g79
sg76
(lp2372
g69
(g90
g71
NtRp2373
(dp2374
g74
(dp2375
g94
g95
ssg83
g2369
sg76
(lp2376
S'vars'
p2377
asbag69
(g90
g71
NtRp2378
(dp2379
g74
(dp2380
g101
g102
ssg83
g2369
sg76
(lp2381
S':'
asbag69
(g90
g71
NtRp2382
(dp2383
g74
(dp2384
sg83
g2369
sg76
(lp2385
g69
(g70
g71
NtRp2386
(dp2387
g74
(dp2388
g82
I5
ssg83
g2382
sg76
(lp2389
g69
(g78
g71
NtRp2390
(dp2391
g74
(dp2392
g82
I4
ssg83
Nsg76
(lp2393
g69
(g85
g71
NtRp2394
(dp2395
g74
(dp2396
sg83
g2390
sg76
(lp2397
g69
(g90
g71
NtRp2398
(dp2399
g74
(dp2400
g94
g95
ssg83
g2394
sg76
(lp2401
g1861
asbag69
(g90
g71
NtRp2402
(dp2403
g74
(dp2404
g101
g102
ssg83
g2394
sg76
(lp2405
S':'
asbag69
(g90
g71
NtRp2406
(dp2407
g74
(dp2408
sg83
g2394
sg76
(lp2409
g69
(g70
g71
NtRp2410
(dp2411
g74
(dp2412
g82
I4
ssg83
g2406
sg76
(lp2413
g1874
asbasbasbasbasbasbasbag69
(g85
g71
NtRp2414
(dp2415
g74
(dp2416
sg83
g79
sg76
(lp2417
g69
(g90
g71
NtRp2418
(dp2419
g74
(dp2420
g94
g95
ssg83
g2414
sg76
(lp2421
S'wsgi'
p2422
asbag69
(g90
g71
NtRp2423
(dp2424
g74
(dp2425
g101
g102
ssg83
g2414
sg76
(lp2426
S':'
asbag69
(g90
g71
NtRp2427
(dp2428
g74
(dp2429
sg83
g2414
sg76
(lp2430
g69
(g70
g71
NtRp2431
(dp2432
g74
(dp2433
g82
I5
ssg83
g2427
sg76
(lp2434
g69
(g78
g71
NtRp2435
(dp2436
g74
(dp2437
g82
I4
ssg83
Nsg76
(lp2438
g69
(g85
g71
NtRp2439
(dp2440
g74
(dp2441
sg83
g2435
sg76
(lp2442
g69
(g90
g71
NtRp2443
(dp2444
g74
(dp2445
g94
g95
ssg83
g2439
sg76
(lp2446
S'environ'
p2447
asbag69
(g90
g71
NtRp2448
(dp2449
g74
(dp2450
g101
g102
ssg83
g2439
sg76
(lp2451
S':'
asbag69
(g90
g71
NtRp2452
(dp2453
g74
(dp2454
sg83
g2439
sg76
(lp2455
g69
(g70
g71
NtRp2456
(dp2457
g74
(dp2458
g82
I4
ssg83
g2452
sg76
(lp2459
g69
(g78
g71
NtRp2460
(dp2461
g74
(dp2462
g82
I3
ssg83
Nsg76
(lp2463
g69
(g85
g71
NtRp2464
(dp2465
g74
(dp2466
sg83
g2460
sg76
(lp2467
g69
(g90
g71
NtRp2468
(dp2469
g74
(dp2470
g94
g95
ssg83
g2464
sg76
(lp2471
S'HTTP_ACCEPT'
p2472
asbag69
(g90
g71
NtRp2473
(dp2474
g74
(dp2475
g101
g102
ssg83
g2464
sg76
(lp2476
S':'
asbag69
(g90
g71
NtRp2477
(dp2478
g74
(dp2479
sg83
g2464
sg76
(lp2480
g69
(g70
g71
NtRp2481
(dp2482
g74
(dp2483
g82
I3
ssg83
g2477
sg76
(lp2484
g1015
asbasbasbag69
(g85
g71
NtRp2485
(dp2486
g74
(dp2487
sg83
g2460
sg76
(lp2488
g69
(g90
g71
NtRp2489
(dp2490
g74
(dp2491
g94
g95
ssg83
g2485
sg76
(lp2492
S'HTTP_ACCEPT_ENCODING'
p2493
asbag69
(g90
g71
NtRp2494
(dp2495
g74
(dp2496
g101
g102
ssg83
g2485
sg76
(lp2497
S':'
asbag69
(g90
g71
NtRp2498
(dp2499
g74
(dp2500
sg83
g2485
sg76
(lp2501
g69
(g70
g71
NtRp2502
(dp2503
g74
(dp2504
g82
I3
ssg83
g2498
sg76
(lp2505
g1037
asbasbasbag69
(g85
g71
NtRp2506
(dp2507
g74
(dp2508
sg83
g2460
sg76
(lp2509
g69
(g90
g71
NtRp2510
(dp2511
g74
(dp2512
g94
g95
ssg83
g2506
sg76
(lp2513
S'HTTP_ACCEPT_LANGUAGE'
p2514
asbag69
(g90
g71
NtRp2515
(dp2516
g74
(dp2517
g101
g102
ssg83
g2506
sg76
(lp2518
S':'
asbag69
(g90
g71
NtRp2519
(dp2520
g74
(dp2521
sg83
g2506
sg76
(lp2522
g69
(g70
g71
NtRp2523
(dp2524
g74
(dp2525
g82
I3
ssg83
g2519
sg76
(lp2526
g1059
asbasbasbag69
(g85
g71
NtRp2527
(dp2528
g74
(dp2529
sg83
g2460
sg76
(lp2530
g69
(g90
g71
NtRp2531
(dp2532
g74
(dp2533
g94
g95
ssg83
g2527
sg76
(lp2534
S'HTTP_CONNECTION'
p2535
asbag69
(g90
g71
NtRp2536
(dp2537
g74
(dp2538
g101
g102
ssg83
g2527
sg76
(lp2539
S':'
asbag69
(g90
g71
NtRp2540
(dp2541
g74
(dp2542
sg83
g2527
sg76
(lp2543
g69
(g70
g71
NtRp2544
(dp2545
g74
(dp2546
g82
I3
ssg83
g2540
sg76
(lp2547
g1081
asbasbasbag69
(g85
g71
NtRp2548
(dp2549
g74
(dp2550
sg83
g2460
sg76
(lp2551
g69
(g90
g71
NtRp2552
(dp2553
g74
(dp2554
g94
g95
ssg83
g2548
sg76
(lp2555
S'HTTP_COOKIE'
p2556
asbag69
(g90
g71
NtRp2557
(dp2558
g74
(dp2559
g101
g102
ssg83
g2548
sg76
(lp2560
S':'
asbag69
(g90
g71
NtRp2561
(dp2562
g74
(dp2563
sg83
g2548
sg76
(lp2564
g69
(g70
g71
NtRp2565
(dp2566
g74
(dp2567
g82
I3
ssg83
g2561
sg76
(lp2568
g1103
asbasbasbag69
(g85
g71
NtRp2569
(dp2570
g74
(dp2571
sg83
g2460
sg76
(lp2572
g69
(g90
g71
NtRp2573
(dp2574
g74
(dp2575
g94
g95
ssg83
g2569
sg76
(lp2576
S'HTTP_HOST'
p2577
asbag69
(g90
g71
NtRp2578
(dp2579
g74
(dp2580
g101
g102
ssg83
g2569
sg76
(lp2581
S':'
asbag69
(g90
g71
NtRp2582
(dp2583
g74
(dp2584
sg83
g2569
sg76
(lp2585
g69
(g70
g71
NtRp2586
(dp2587
g74
(dp2588
g82
I3
ssg83
g2582
sg76
(lp2589
g1125
asbasbasbag69
(g85
g71
NtRp2590
(dp2591
g74
(dp2592
sg83
g2460
sg76
(lp2593
g69
(g90
g71
NtRp2594
(dp2595
g74
(dp2596
g94
g95
ssg83
g2590
sg76
(lp2597
S'HTTP_REFERER'
p2598
asbag69
(g90
g71
NtRp2599
(dp2600
g74
(dp2601
g101
g102
ssg83
g2590
sg76
(lp2602
S':'
asbag69
(g90
g71
NtRp2603
(dp2604
g74
(dp2605
sg83
g2590
sg76
(lp2606
g69
(g70
g71
NtRp2607
(dp2608
g74
(dp2609
g82
I3
ssg83
g2603
sg76
(lp2610
g1147
asbasbasbag69
(g85
g71
NtRp2611
(dp2612
g74
(dp2613
sg83
g2460
sg76
(lp2614
g69
(g90
g71
NtRp2615
(dp2616
g74
(dp2617
g94
g95
ssg83
g2611
sg76
(lp2618
S'HTTP_USER_AGENT'
p2619
asbag69
(g90
g71
NtRp2620
(dp2621
g74
(dp2622
g101
g102
ssg83
g2611
sg76
(lp2623
S':'
asbag69
(g90
g71
NtRp2624
(dp2625
g74
(dp2626
sg83
g2611
sg76
(lp2627
g69
(g70
g71
NtRp2628
(dp2629
g74
(dp2630
g82
I3
ssg83
g2624
sg76
(lp2631
g1169
asbasbasbag69
(g85
g71
NtRp2632
(dp2633
g74
(dp2634
sg83
g2460
sg76
(lp2635
g69
(g90
g71
NtRp2636
(dp2637
g74
(dp2638
g94
g95
ssg83
g2632
sg76
(lp2639
S'PATH_INFO'
p2640
asbag69
(g90
g71
NtRp2641
(dp2642
g74
(dp2643
g101
g102
ssg83
g2632
sg76
(lp2644
S':'
asbag69
(g90
g71
NtRp2645
(dp2646
g74
(dp2647
sg83
g2632
sg76
(lp2648
g69
(g70
g71
NtRp2649
(dp2650
g74
(dp2651
g82
I3
ssg83
g2645
sg76
(lp2652
g1233
asbasbasbag69
(g85
g71
NtRp2653
(dp2654
g74
(dp2655
sg83
g2460
sg76
(lp2656
g69
(g90
g71
NtRp2657
(dp2658
g74
(dp2659
g94
g95
ssg83
g2653
sg76
(lp2660
S'QUERY_STRING'
p2661
asbag69
(g90
g71
NtRp2662
(dp2663
g74
(dp2664
g101
g102
ssg83
g2653
sg76
(lp2665
S':'
asbag69
(g90
g71
NtRp2666
(dp2667
g74
(dp2668
sg83
g2653
sg76
(lp2669
g69
(g70
g71
NtRp2670
(dp2671
g74
(dp2672
g82
I3
ssg83
g2666
sg76
(lp2673
g1255
asbasbasbag69
(g85
g71
NtRp2674
(dp2675
g74
(dp2676
sg83
g2460
sg76
(lp2677
g69
(g90
g71
NtRp2678
(dp2679
g74
(dp2680
g94
g95
ssg83
g2674
sg76
(lp2681
S'REMOTE_ADDR'
p2682
asbag69
(g90
g71
NtRp2683
(dp2684
g74
(dp2685
g101
g102
ssg83
g2674
sg76
(lp2686
S':'
asbag69
(g90
g71
NtRp2687
(dp2688
g74
(dp2689
sg83
g2674
sg76
(lp2690
g69
(g70
g71
NtRp2691
(dp2692
g74
(dp2693
g82
I3
ssg83
g2687
sg76
(lp2694
g202
asbasbasbag69
(g85
g71
NtRp2695
(dp2696
g74
(dp2697
sg83
g2460
sg76
(lp2698
g69
(g90
g71
NtRp2699
(dp2700
g74
(dp2701
g94
g95
ssg83
g2695
sg76
(lp2702
S'REMOTE_PORT'
p2703
asbag69
(g90
g71
NtRp2704
(dp2705
g74
(dp2706
g101
g102
ssg83
g2695
sg76
(lp2707
S':'
asbag69
(g90
g71
NtRp2708
(dp2709
g74
(dp2710
sg83
g2695
sg76
(lp2711
g69
(g70
g71
NtRp2712
(dp2713
g74
(dp2714
g82
I3
ssg83
g2708
sg76
(lp2715
g1298
asbasbasbag69
(g85
g71
NtRp2716
(dp2717
g74
(dp2718
sg83
g2460
sg76
(lp2719
g69
(g90
g71
NtRp2720
(dp2721
g74
(dp2722
g94
g95
ssg83
g2716
sg76
(lp2723
S'REQUEST_METHOD'
p2724
asbag69
(g90
g71
NtRp2725
(dp2726
g74
(dp2727
g101
g102
ssg83
g2716
sg76
(lp2728
S':'
asbag69
(g90
g71
NtRp2729
(dp2730
g74
(dp2731
sg83
g2716
sg76
(lp2732
g69
(g70
g71
NtRp2733
(dp2734
g74
(dp2735
g82
I3
ssg83
g2729
sg76
(lp2736
g1320
asbasbasbag69
(g85
g71
NtRp2737
(dp2738
g74
(dp2739
sg83
g2460
sg76
(lp2740
g69
(g90
g71
NtRp2741
(dp2742
g74
(dp2743
g94
g95
ssg83
g2737
sg76
(lp2744
S'SCRIPT_NAME'
p2745
asbag69
(g90
g71
NtRp2746
(dp2747
g74
(dp2748
g101
g102
ssg83
g2737
sg76
(lp2749
S':'
asbag69
(g90
g71
NtRp2750
(dp2751
g74
(dp2752
sg83
g2737
sg76
(lp2753
g69
(g70
g71
NtRp2754
(dp2755
g74
(dp2756
g82
I3
ssg83
g2750
sg76
(lp2757
S''
asbasbasbag69
(g85
g71
NtRp2758
(dp2759
g74
(dp2760
sg83
g2460
sg76
(lp2761
g69
(g90
g71
NtRp2762
(dp2763
g74
(dp2764
g94
g95
ssg83
g2758
sg76
(lp2765
S'SERVER_NAME'
p2766
asbag69
(g90
g71
NtRp2767
(dp2768
g74
(dp2769
g101
g102
ssg83
g2758
sg76
(lp2770
S':'
asbag69
(g90
g71
NtRp2771
(dp2772
g74
(dp2773
sg83
g2758
sg76
(lp2774
g69
(g70
g71
NtRp2775
(dp2776
g74
(dp2777
g82
I3
ssg83
g2771
sg76
(lp2778
g1363
asbasbasbag69
(g85
g71
NtRp2779
(dp2780
g74
(dp2781
sg83
g2460
sg76
(lp2782
g69
(g90
g71
NtRp2783
(dp2784
g74
(dp2785
g94
g95
ssg83
g2779
sg76
(lp2786
S'SERVER_PORT'
p2787
asbag69
(g90
g71
NtRp2788
(dp2789
g74
(dp2790
g101
g102
ssg83
g2779
sg76
(lp2791
S':'
asbag69
(g90
g71
NtRp2792
(dp2793
g74
(dp2794
sg83
g2779
sg76
(lp2795
g69
(g70
g71
NtRp2796
(dp2797
g74
(dp2798
g82
I3
ssg83
g2792
sg76
(lp2799
g1385
asbasbasbag69
(g85
g71
NtRp2800
(dp2801
g74
(dp2802
sg83
g2460
sg76
(lp2803
g69
(g90
g71
NtRp2804
(dp2805
g74
(dp2806
g94
g95
ssg83
g2800
sg76
(lp2807
S'SERVER_PROTOCOL'
p2808
asbag69
(g90
g71
NtRp2809
(dp2810
g74
(dp2811
g101
g102
ssg83
g2800
sg76
(lp2812
S':'
asbag69
(g90
g71
NtRp2813
(dp2814
g74
(dp2815
sg83
g2800
sg76
(lp2816
g69
(g70
g71
NtRp2817
(dp2818
g74
(dp2819
g82
I3
ssg83
g2813
sg76
(lp2820
g1407
asbasbasbag69
(g85
g71
NtRp2821
(dp2822
g74
(dp2823
sg83
g2460
sg76
(lp2824
g69
(g90
g71
NtRp2825
(dp2826
g74
(dp2827
g94
g95
ssg83
g2821
sg76
(lp2828
S'SERVER_SOFTWARE'
p2829
asbag69
(g90
g71
NtRp2830
(dp2831
g74
(dp2832
g101
g102
ssg83
g2821
sg76
(lp2833
S':'
asbag69
(g90
g71
NtRp2834
(dp2835
g74
(dp2836
sg83
g2821
sg76
(lp2837
g69
(g70
g71
NtRp2838
(dp2839
g74
(dp2840
g82
I3
ssg83
g2834
sg76
(lp2841
g1429
asbasbasbag69
(g85
g71
NtRp2842
(dp2843
g74
(dp2844
sg83
g2460
sg76
(lp2845
g69
(g90
g71
NtRp2846
(dp2847
g74
(dp2848
g94
g95
ssg83
g2842
sg76
(lp2849
S'wsgi.errors'
p2850
asbag69
(g90
g71
NtRp2851
(dp2852
g74
(dp2853
g101
g102
ssg83
g2842
sg76
(lp2854
S':'
asbag69
(g90
g71
NtRp2855
(dp2856
g74
(dp2857
sg83
g2842
sg76
(lp2858
g69
(g70
g71
NtRp2859
(dp2860
g74
(dp2861
g82
I3
ssg83
g2855
sg76
(lp2862
S"<open file '<stderr>', mode 'w' at 0xb72e50d0>"
p2863
asbasbasbag69
(g85
g71
NtRp2864
(dp2865
g74
(dp2866
sg83
g2460
sg76
(lp2867
g69
(g90
g71
NtRp2868
(dp2869
g74
(dp2870
g94
g95
ssg83
g2864
sg76
(lp2871
S'wsgi.file_wrapper'
p2872
asbag69
(g90
g71
NtRp2873
(dp2874
g74
(dp2875
g101
g102
ssg83
g2864
sg76
(lp2876
S':'
asbag69
(g90
g71
NtRp2877
(dp2878
g74
(dp2879
sg83
g2864
sg76
(lp2880
g69
(g70
g71
NtRp2881
(dp2882
g74
(dp2883
g82
I3
ssg83
g2877
sg76
(lp2884
S'<class wsgiref.util.FileWrapper at 0xa43b4ac>'
p2885
asbasbasbag69
(g85
g71
NtRp2886
(dp2887
g74
(dp2888
sg83
g2460
sg76
(lp2889
g69
(g90
g71
NtRp2890
(dp2891
g74
(dp2892
g94
g95
ssg83
g2886
sg76
(lp2893
S'wsgi.input'
p2894
asbag69
(g90
g71
NtRp2895
(dp2896
g74
(dp2897
g101
g102
ssg83
g2886
sg76
(lp2898
S':'
asbag69
(g90
g71
NtRp2899
(dp2900
g74
(dp2901
sg83
g2886
sg76
(lp2902
g69
(g70
g71
NtRp2903
(dp2904
g74
(dp2905
g82
I3
ssg83
g2899
sg76
(lp2906
S'<cStringIO.StringO object at 0xab160880>'
p2907
asbasbasbag69
(g85
g71
NtRp2908
(dp2909
g74
(dp2910
sg83
g2460
sg76
(lp2911
g69
(g90
g71
NtRp2912
(dp2913
g74
(dp2914
g94
g95
ssg83
g2908
sg76
(lp2915
S'wsgi.multiprocess'
p2916
asbag69
(g90
g71
NtRp2917
(dp2918
g74
(dp2919
g101
g102
ssg83
g2908
sg76
(lp2920
S':'
asbag69
(g90
g71
NtRp2921
(dp2922
g74
(dp2923
sg83
g2908
sg76
(lp2924
g69
(g70
g71
NtRp2925
(dp2926
g74
(dp2927
g82
I3
ssg83
g2921
sg76
(lp2928
g112
asbasbasbag69
(g85
g71
NtRp2929
(dp2930
g74
(dp2931
sg83
g2460
sg76
(lp2932
g69
(g90
g71
NtRp2933
(dp2934
g74
(dp2935
g94
g95
ssg83
g2929
sg76
(lp2936
S'wsgi.multithread'
p2937
asbag69
(g90
g71
NtRp2938
(dp2939
g74
(dp2940
g101
g102
ssg83
g2929
sg76
(lp2941
S':'
asbag69
(g90
g71
NtRp2942
(dp2943
g74
(dp2944
sg83
g2929
sg76
(lp2945
g69
(g70
g71
NtRp2946
(dp2947
g74
(dp2948
g82
I3
ssg83
g2942
sg76
(lp2949
g1669
asbasbasbag69
(g85
g71
NtRp2950
(dp2951
g74
(dp2952
sg83
g2460
sg76
(lp2953
g69
(g90
g71
NtRp2954
(dp2955
g74
(dp2956
g94
g95
ssg83
g2950
sg76
(lp2957
S'wsgi.run_once'
p2958
asbag69
(g90
g71
NtRp2959
(dp2960
g74
(dp2961
g101
g102
ssg83
g2950
sg76
(lp2962
S':'
asbag69
(g90
g71
NtRp2963
(dp2964
g74
(dp2965
sg83
g2950
sg76
(lp2966
g69
(g70
g71
NtRp2967
(dp2968
g74
(dp2969
g82
I3
ssg83
g2963
sg76
(lp2970
g112
asbasbasbag69
(g85
g71
NtRp2971
(dp2972
g74
(dp2973
sg83
g2460
sg76
(lp2974
g69
(g90
g71
NtRp2975
(dp2976
g74
(dp2977
g94
g95
ssg83
g2971
sg76
(lp2978
S'wsgi.url_scheme'
p2979
asbag69
(g90
g71
NtRp2980
(dp2981
g74
(dp2982
g101
g102
ssg83
g2971
sg76
(lp2983
S':'
asbag69
(g90
g71
NtRp2984
(dp2985
g74
(dp2986
sg83
g2971
sg76
(lp2987
g69
(g70
g71
NtRp2988
(dp2989
g74
(dp2990
g82
I3
ssg83
g2984
sg76
(lp2991
g1712
asbasbasbag69
(g85
g71
NtRp2992
(dp2993
g74
(dp2994
sg83
g2460
sg76
(lp2995
g69
(g90
g71
NtRp2996
(dp2997
g74
(dp2998
g94
g95
ssg83
g2992
sg76
(lp2999
S'wsgi.version'
p3000
asbag69
(g90
g71
NtRp3001
(dp3002
g74
(dp3003
g101
g102
ssg83
g2992
sg76
(lp3004
S':'
asbag69
(g90
g71
NtRp3005
(dp3006
g74
(dp3007
sg83
g2992
sg76
(lp3008
g69
(g70
g71
NtRp3009
(dp3010
g74
(dp3011
g82
I3
ssg83
g3005
sg76
(lp3012
S'1'
asbasbasbasbasbasbasbasbasbasbasbasbasbsS'frames'
p3013
(lp3014
(dp3015
S'file'
p3016
S'/usr/lib/pymodules/python2.7/gluon/restricted.py'
p3017
sS'dump'
p3018
(dp3019
S'code'
p3020
S'\'response.write(\\\'<!DOCTYPE html PUBLIC "-//W3C//D...v>\\\\n  </div>\\\\n </body>\\\\n</html>\\\\n\\\', escape=False)\''
p3021
sS'layer'
p3022
S"'/home/unic/web2py/applications/manager/views/default/login.html'"
p3023
sS'global compile2'
p3024
S'<function compile2>'
p3025
sS'ccode'
p3026
S'undefined'
p3027
ssS'lnum'
p3028
I203
sS'lines'
p3029
(dp3030
I198
S"    environment['__file__'] = layer"
p3031
sI199
S'    try:'
p3032
sI200
S'        if type(code) == types.CodeType:'
p3033
sI201
S'            ccode = code'
p3034
sI202
S'        else:'
p3035
sI203
S'            ccode = compile2(code,layer)'
p3036
sI204
S'        exec ccode in environment'
p3037
sI205
S'    except HTTP:'
p3038
sI206
S'        raise'
p3039
sI207
S'    except RestrictedError:'
p3040
ssS'call'
p3041
S'(code=\'response.write(\\\'<!DOCTYPE html PUBLIC "-//W3C//D...v>\\\\n  </div>\\\\n </body>\\\\n</html>\\\\n\\\', escape=False)\', environment={\'A\': <class \'gluon.html.A\'>, \'Auth\': <class \'gluon.tools.Auth\'>, \'B\': <class \'gluon.html.B\'>, \'BEAUTIFY\': <class \'gluon.html.BEAUTIFY\'>, \'BODY\': <class \'gluon.html.BODY\'>, \'BR\': <class \'gluon.html.BR\'>, \'BUTTON\': <class \'gluon.html.BUTTON\'>, \'CAS\': <Storage {\'check_url\': \'https://login.iiit.ac.in...: \'http://127.0.0.1:8000/manager/default/login\'}>, \'CAT\': <class \'gluon.html.CAT\'>, \'CENTER\': <class \'gluon.html.CENTER\'>, ...}, layer=\'/home/unic/web2py/applications/manager/views/default/login.html\')'
p3042
sS'func'
p3043
S'restricted'
p3044
sa(dp3045
g3016
S'/usr/lib/pymodules/python2.7/gluon/restricted.py'
p3046
sg3018
(dp3047
S'builtincompile'
p3048
S'<built-in function compile>'
p3049
sS'code'
p3050
S'\'response.write(\\\'<!DOCTYPE html PUBLIC "-//W3C//D...v>\\\\n  </div>\\\\n </body>\\\\n</html>\\\\n\\\', escape=False)\''
p3051
sS'code.rstrip'
p3052
S'<built-in method rstrip of str object>'
p3053
sS').replace'
p3054
g3027
sS'layer'
p3055
S"'/home/unic/web2py/applications/manager/views/default/login.html'"
p3056
ssg3028
I189
sg3029
(dp3057
I192
S'    """'
p3058
sI193
S'    runs code in environment and returns the output. if an exception occurs'
p3059
sI184
S''
sI185
S'def compile2(code,layer):'
p3060
sI186
S'    """'
p3061
sI187
S"    The +'\\n' is necessary else compile fails when code ends in a comment."
p3062
sI188
S'    """'
p3063
sI189
S"    return compile(code.rstrip().replace('\\r\\n','\\n')+'\\n', layer, 'exec')"
p3064
sI190
S''
sI191
S"def restricted(code, environment=None, layer='Unknown'):"
p3065
ssg3041
S'(code=\'response.write(\\\'<!DOCTYPE html PUBLIC "-//W3C//D...v>\\\\n  </div>\\\\n </body>\\\\n</html>\\\\n\\\', escape=False)\', layer=\'/home/unic/web2py/applications/manager/views/default/login.html\')'
p3066
sg3043
S'compile2'
p3067
sasS'pyver'
p3068
S'Python 2.7.3: /usr/bin/python'
p3069
sS'session'
p3070
g69
(g70
g71
NtRp3071
(dp3072
g74
(dp3073
sg76
(lp3074
g69
(g78
g71
NtRp3075
(dp3076
g74
(dp3077
g82
I5
ssg83
Nsg76
(lp3078
g69
(g85
g71
NtRp3079
(dp3080
g74
(dp3081
sg83
g3075
sg76
(lp3082
g69
(g90
g71
NtRp3083
(dp3084
g74
(dp3085
g94
g95
ssg83
g3079
sg76
(lp3086
S'LOGGEDIN'
p3087
asbag69
(g90
g71
NtRp3088
(dp3089
g74
(dp3090
g101
g102
ssg83
g3079
sg76
(lp3091
S':'
asbag69
(g90
g71
NtRp3092
(dp3093
g74
(dp3094
sg83
g3079
sg76
(lp3095
g69
(g70
g71
NtRp3096
(dp3097
g74
(dp3098
g82
I5
ssg83
g3092
sg76
(lp3099
S'0'
asbasbasbag69
(g85
g71
NtRp3100
(dp3101
g74
(dp3102
sg83
g3075
sg76
(lp3103
g69
(g90
g71
NtRp3104
(dp3105
g74
(dp3106
g94
g95
ssg83
g3100
sg76
(lp3107
S'login'
p3108
asbag69
(g90
g71
NtRp3109
(dp3110
g74
(dp3111
g101
g102
ssg83
g3100
sg76
(lp3112
S':'
asbag69
(g90
g71
NtRp3113
(dp3114
g74
(dp3115
sg83
g3100
sg76
(lp3116
g69
(g70
g71
NtRp3117
(dp3118
g74
(dp3119
g82
I5
ssg83
g3113
sg76
(lp3120
S'0'
asbasbasbag69
(g85
g71
NtRp3121
(dp3122
g74
(dp3123
sg83
g3075
sg76
(lp3124
g69
(g90
g71
NtRp3125
(dp3126
g74
(dp3127
g94
g95
ssg83
g3121
sg76
(lp3128
S'token'
p3129
asbag69
(g90
g71
NtRp3130
(dp3131
g74
(dp3132
g101
g102
ssg83
g3121
sg76
(lp3133
S':'
asbag69
(g90
g71
NtRp3134
(dp3135
g74
(dp3136
sg83
g3121
sg76
(lp3137
g69
(g70
g71
NtRp3138
(dp3139
g74
(dp3140
g82
I5
ssg83
g3134
sg76
(lp3141
S'neeharikak.v@students.iiit.ac.in'
p3142
asbasbasbasbasbsS'etype'
p3143
S"<type 'exceptions.SyntaxError'>"
p3144
sS'date'
p3145
S'Sun Nov 11 00:54:28 2012'
p3146
sS'response'
p3147
g69
(g70
g71
NtRp3148
(dp3149
g74
(dp3150
sg76
(lp3151
g69
(g78
g71
NtRp3152
(dp3153
g74
(dp3154
g82
I5
ssg83
Nsg76
(lp3155
g69
(g85
g71
NtRp3156
(dp3157
g74
(dp3158
sg83
g3152
sg76
(lp3159
g69
(g90
g71
NtRp3160
(dp3161
g74
(dp3162
g94
g95
ssg83
g3156
sg76
(lp3163
g167
asbag69
(g90
g71
NtRp3164
(dp3165
g74
(dp3166
g101
g102
ssg83
g3156
sg76
(lp3167
S':'
asbag69
(g90
g71
NtRp3168
(dp3169
g74
(dp3170
sg83
g3156
sg76
(lp3171
g69
(g70
g71
NtRp3172
(dp3173
g74
(dp3174
g82
I5
ssg83
g3168
sg76
(lp3175
S'<cStringIO.StringO object at 0xab4baf20>'
p3176
asbasbasbag69
(g85
g71
NtRp3177
(dp3178
g74
(dp3179
sg83
g3152
sg76
(lp3180
g69
(g90
g71
NtRp3181
(dp3182
g74
(dp3183
g94
g95
ssg83
g3177
sg76
(lp3184
g233
asbag69
(g90
g71
NtRp3185
(dp3186
g74
(dp3187
g101
g102
ssg83
g3177
sg76
(lp3188
S':'
asbag69
(g90
g71
NtRp3189
(dp3190
g74
(dp3191
sg83
g3177
sg76
(lp3192
g69
(g70
g71
NtRp3193
(dp3194
g74
(dp3195
g82
I5
ssg83
g3189
sg76
(lp3196
g69
(g78
g71
NtRp3197
(dp3198
g74
(dp3199
g82
I4
ssg83
Nsg76
(lp3200
g69
(g85
g71
NtRp3201
(dp3202
g74
(dp3203
sg83
g3197
sg76
(lp3204
g69
(g90
g71
NtRp3205
(dp3206
g74
(dp3207
g94
g95
ssg83
g3201
sg76
(lp3208
S'session_id_manager'
p3209
asbag69
(g90
g71
NtRp3210
(dp3211
g74
(dp3212
g101
g102
ssg83
g3201
sg76
(lp3213
S':'
asbag69
(g90
g71
NtRp3214
(dp3215
g74
(dp3216
sg83
g3201
sg76
(lp3217
g69
(g70
g71
NtRp3218
(dp3219
g74
(dp3220
g82
I4
ssg83
g3214
sg76
(lp3221
g69
(g78
g71
NtRp3222
(dp3223
g74
(dp3224
g82
I3
ssg83
Nsg76
(lp3225
g69
(g85
g71
NtRp3226
(dp3227
g74
(dp3228
sg83
g3222
sg76
(lp3229
g69
(g90
g71
NtRp3230
(dp3231
g74
(dp3232
g94
g95
ssg83
g3226
sg76
(lp3233
g283
asbag69
(g90
g71
NtRp3234
(dp3235
g74
(dp3236
g101
g102
ssg83
g3226
sg76
(lp3237
S':'
asbag69
(g90
g71
NtRp3238
(dp3239
g74
(dp3240
sg83
g3226
sg76
(lp3241
g69
(g70
g71
NtRp3242
(dp3243
g74
(dp3244
g82
I3
ssg83
g3238
sg76
(lp3245
S''
asbasbasbag69
(g85
g71
NtRp3246
(dp3247
g74
(dp3248
sg83
g3222
sg76
(lp3249
g69
(g90
g71
NtRp3250
(dp3251
g74
(dp3252
g94
g95
ssg83
g3246
sg76
(lp3253
g304
asbag69
(g90
g71
NtRp3254
(dp3255
g74
(dp3256
g101
g102
ssg83
g3246
sg76
(lp3257
S':'
asbag69
(g90
g71
NtRp3258
(dp3259
g74
(dp3260
sg83
g3246
sg76
(lp3261
g69
(g70
g71
NtRp3262
(dp3263
g74
(dp3264
g82
I3
ssg83
g3258
sg76
(lp3265
S''
asbasbasbag69
(g85
g71
NtRp3266
(dp3267
g74
(dp3268
sg83
g3222
sg76
(lp3269
g69
(g90
g71
NtRp3270
(dp3271
g74
(dp3272
g94
g95
ssg83
g3266
sg76
(lp3273
g325
asbag69
(g90
g71
NtRp3274
(dp3275
g74
(dp3276
g101
g102
ssg83
g3266
sg76
(lp3277
S':'
asbag69
(g90
g71
NtRp3278
(dp3279
g74
(dp3280
sg83
g3266
sg76
(lp3281
g69
(g70
g71
NtRp3282
(dp3283
g74
(dp3284
g82
I3
ssg83
g3278
sg76
(lp3285
S''
asbasbasbag69
(g85
g71
NtRp3286
(dp3287
g74
(dp3288
sg83
g3222
sg76
(lp3289
g69
(g90
g71
NtRp3290
(dp3291
g74
(dp3292
g94
g95
ssg83
g3286
sg76
(lp3293
g346
asbag69
(g90
g71
NtRp3294
(dp3295
g74
(dp3296
g101
g102
ssg83
g3286
sg76
(lp3297
S':'
asbag69
(g90
g71
NtRp3298
(dp3299
g74
(dp3300
sg83
g3286
sg76
(lp3301
g69
(g70
g71
NtRp3302
(dp3303
g74
(dp3304
g82
I3
ssg83
g3298
sg76
(lp3305
S''
asbasbasbag69
(g85
g71
NtRp3306
(dp3307
g74
(dp3308
sg83
g3222
sg76
(lp3309
g69
(g90
g71
NtRp3310
(dp3311
g74
(dp3312
g94
g95
ssg83
g3306
sg76
(lp3313
g367
asbag69
(g90
g71
NtRp3314
(dp3315
g74
(dp3316
g101
g102
ssg83
g3306
sg76
(lp3317
S':'
asbag69
(g90
g71
NtRp3318
(dp3319
g74
(dp3320
sg83
g3306
sg76
(lp3321
g69
(g70
g71
NtRp3322
(dp3323
g74
(dp3324
g82
I3
ssg83
g3318
sg76
(lp3325
S''
asbasbasbag69
(g85
g71
NtRp3326
(dp3327
g74
(dp3328
sg83
g3222
sg76
(lp3329
g69
(g90
g71
NtRp3330
(dp3331
g74
(dp3332
g94
g95
ssg83
g3326
sg76
(lp3333
g388
asbag69
(g90
g71
NtRp3334
(dp3335
g74
(dp3336
g101
g102
ssg83
g3326
sg76
(lp3337
S':'
asbag69
(g90
g71
NtRp3338
(dp3339
g74
(dp3340
sg83
g3326
sg76
(lp3341
g69
(g70
g71
NtRp3342
(dp3343
g74
(dp3344
g82
I3
ssg83
g3338
sg76
(lp3345
S'/'
asbasbasbag69
(g85
g71
NtRp3346
(dp3347
g74
(dp3348
sg83
g3222
sg76
(lp3349
g69
(g90
g71
NtRp3350
(dp3351
g74
(dp3352
g94
g95
ssg83
g3346
sg76
(lp3353
g409
asbag69
(g90
g71
NtRp3354
(dp3355
g74
(dp3356
g101
g102
ssg83
g3346
sg76
(lp3357
S':'
asbag69
(g90
g71
NtRp3358
(dp3359
g74
(dp3360
sg83
g3346
sg76
(lp3361
g69
(g70
g71
NtRp3362
(dp3363
g74
(dp3364
g82
I3
ssg83
g3358
sg76
(lp3365
S''
asbasbasbag69
(g85
g71
NtRp3366
(dp3367
g74
(dp3368
sg83
g3222
sg76
(lp3369
g69
(g90
g71
NtRp3370
(dp3371
g74
(dp3372
g94
g95
ssg83
g3366
sg76
(lp3373
g430
asbag69
(g90
g71
NtRp3374
(dp3375
g74
(dp3376
g101
g102
ssg83
g3366
sg76
(lp3377
S':'
asbag69
(g90
g71
NtRp3378
(dp3379
g74
(dp3380
sg83
g3366
sg76
(lp3381
g69
(g70
g71
NtRp3382
(dp3383
g74
(dp3384
g82
I3
ssg83
g3378
sg76
(lp3385
S''
asbasbasbasbasbasbasbasbasbasbasbag69
(g85
g71
NtRp3386
(dp3387
g74
(dp3388
sg83
g3152
sg76
(lp3389
g69
(g90
g71
NtRp3390
(dp3391
g74
(dp3392
g94
g95
ssg83
g3386
sg76
(lp3393
S'files'
p3394
asbag69
(g90
g71
NtRp3395
(dp3396
g74
(dp3397
g101
g102
ssg83
g3386
sg76
(lp3398
S':'
asbag69
(g90
g71
NtRp3399
(dp3400
g74
(dp3401
sg83
g3386
sg76
(lp3402
g69
(g70
g71
NtRp3403
(dp3404
g74
(dp3405
g82
I5
ssg83
g3399
sg76
(lp3406
g69
(g78
g71
NtRp3407
(dp3408
g74
(dp3409
g82
I4
ssg83
Nsg76
(lp3410
sbasbasbasbag69
(g85
g71
NtRp3411
(dp3412
g74
(dp3413
sg83
g3152
sg76
(lp3414
g69
(g90
g71
NtRp3415
(dp3416
g74
(dp3417
g94
g95
ssg83
g3411
sg76
(lp3418
S'flash'
p3419
asbag69
(g90
g71
NtRp3420
(dp3421
g74
(dp3422
g101
g102
ssg83
g3411
sg76
(lp3423
S':'
asbag69
(g90
g71
NtRp3424
(dp3425
g74
(dp3426
sg83
g3411
sg76
(lp3427
g69
(g70
g71
NtRp3428
(dp3429
g74
(dp3430
g82
I5
ssg83
g3424
sg76
(lp3431
S''
asbasbasbag69
(g85
g71
NtRp3432
(dp3433
g74
(dp3434
sg83
g3152
sg76
(lp3435
g69
(g90
g71
NtRp3436
(dp3437
g74
(dp3438
g94
g95
ssg83
g3432
sg76
(lp3439
S'generic_patterns'
p3440
asbag69
(g90
g71
NtRp3441
(dp3442
g74
(dp3443
g101
g102
ssg83
g3432
sg76
(lp3444
S':'
asbag69
(g90
g71
NtRp3445
(dp3446
g74
(dp3447
sg83
g3432
sg76
(lp3448
g69
(g70
g71
NtRp3449
(dp3450
g74
(dp3451
g82
I5
ssg83
g3445
sg76
(lp3452
g69
(g78
g71
NtRp3453
(dp3454
g74
(dp3455
g82
I4
ssg83
Nsg76
(lp3456
g69
(g85
g71
NtRp3457
(dp3458
g74
(dp3459
sg83
g3453
sg76
(lp3460
g69
(g90
g71
NtRp3461
(dp3462
g74
(dp3463
sg83
g3457
sg76
(lp3464
g69
(g70
g71
NtRp3465
(dp3466
g74
(dp3467
g82
I4
ssg83
g3461
sg76
(lp3468
S'*'
asbasbasbasbasbasbasbag69
(g85
g71
NtRp3469
(dp3470
g74
(dp3471
sg83
g3152
sg76
(lp3472
g69
(g90
g71
NtRp3473
(dp3474
g74
(dp3475
g94
g95
ssg83
g3469
sg76
(lp3476
S'headers'
p3477
asbag69
(g90
g71
NtRp3478
(dp3479
g74
(dp3480
g101
g102
ssg83
g3469
sg76
(lp3481
S':'
asbag69
(g90
g71
NtRp3482
(dp3483
g74
(dp3484
sg83
g3469
sg76
(lp3485
g69
(g70
g71
NtRp3486
(dp3487
g74
(dp3488
g82
I5
ssg83
g3482
sg76
(lp3489
g69
(g78
g71
NtRp3490
(dp3491
g74
(dp3492
g82
I4
ssg83
Nsg76
(lp3493
g69
(g85
g71
NtRp3494
(dp3495
g74
(dp3496
sg83
g3490
sg76
(lp3497
g69
(g90
g71
NtRp3498
(dp3499
g74
(dp3500
g94
g95
ssg83
g3494
sg76
(lp3501
S'Cache-Control'
p3502
asbag69
(g90
g71
NtRp3503
(dp3504
g74
(dp3505
g101
g102
ssg83
g3494
sg76
(lp3506
S':'
asbag69
(g90
g71
NtRp3507
(dp3508
g74
(dp3509
sg83
g3494
sg76
(lp3510
g69
(g70
g71
NtRp3511
(dp3512
g74
(dp3513
g82
I4
ssg83
g3507
sg76
(lp3514
S'no-store, no-cache, must-revalidate, post-check=0, pre-check=0'
p3515
asbasbasbag69
(g85
g71
NtRp3516
(dp3517
g74
(dp3518
sg83
g3490
sg76
(lp3519
g69
(g90
g71
NtRp3520
(dp3521
g74
(dp3522
g94
g95
ssg83
g3516
sg76
(lp3523
S'Content-Type'
p3524
asbag69
(g90
g71
NtRp3525
(dp3526
g74
(dp3527
g101
g102
ssg83
g3516
sg76
(lp3528
S':'
asbag69
(g90
g71
NtRp3529
(dp3530
g74
(dp3531
sg83
g3516
sg76
(lp3532
g69
(g70
g71
NtRp3533
(dp3534
g74
(dp3535
g82
I4
ssg83
g3529
sg76
(lp3536
S'text/html; charset=utf-8'
p3537
asbasbasbag69
(g85
g71
NtRp3538
(dp3539
g74
(dp3540
sg83
g3490
sg76
(lp3541
g69
(g90
g71
NtRp3542
(dp3543
g74
(dp3544
g94
g95
ssg83
g3538
sg76
(lp3545
S'Expires'
p3546
asbag69
(g90
g71
NtRp3547
(dp3548
g74
(dp3549
g101
g102
ssg83
g3538
sg76
(lp3550
S':'
asbag69
(g90
g71
NtRp3551
(dp3552
g74
(dp3553
sg83
g3538
sg76
(lp3554
g69
(g70
g71
NtRp3555
(dp3556
g74
(dp3557
g82
I4
ssg83
g3551
sg76
(lp3558
S'Sat, 10 Nov 2012 19:24:27 GMT'
p3559
asbasbasbag69
(g85
g71
NtRp3560
(dp3561
g74
(dp3562
sg83
g3490
sg76
(lp3563
g69
(g90
g71
NtRp3564
(dp3565
g74
(dp3566
g94
g95
ssg83
g3560
sg76
(lp3567
S'Pragma'
p3568
asbag69
(g90
g71
NtRp3569
(dp3570
g74
(dp3571
g101
g102
ssg83
g3560
sg76
(lp3572
S':'
asbag69
(g90
g71
NtRp3573
(dp3574
g74
(dp3575
sg83
g3560
sg76
(lp3576
g69
(g70
g71
NtRp3577
(dp3578
g74
(dp3579
g82
I4
ssg83
g3573
sg76
(lp3580
S'no-cache'
p3581
asbasbasbag69
(g85
g71
NtRp3582
(dp3583
g74
(dp3584
sg83
g3490
sg76
(lp3585
g69
(g90
g71
NtRp3586
(dp3587
g74
(dp3588
g94
g95
ssg83
g3582
sg76
(lp3589
S'X-Powered-By'
p3590
asbag69
(g90
g71
NtRp3591
(dp3592
g74
(dp3593
g101
g102
ssg83
g3582
sg76
(lp3594
S':'
asbag69
(g90
g71
NtRp3595
(dp3596
g74
(dp3597
sg83
g3582
sg76
(lp3598
g69
(g70
g71
NtRp3599
(dp3600
g74
(dp3601
g82
I4
ssg83
g3595
sg76
(lp3602
S'web2py'
p3603
asbasbasbasbasbasbasbag69
(g85
g71
NtRp3604
(dp3605
g74
(dp3606
sg83
g3152
sg76
(lp3607
g69
(g90
g71
NtRp3608
(dp3609
g74
(dp3610
g94
g95
ssg83
g3604
sg76
(lp3611
S'menu'
p3612
asbag69
(g90
g71
NtRp3613
(dp3614
g74
(dp3615
g101
g102
ssg83
g3604
sg76
(lp3616
S':'
asbag69
(g90
g71
NtRp3617
(dp3618
g74
(dp3619
sg83
g3604
sg76
(lp3620
g69
(g70
g71
NtRp3621
(dp3622
g74
(dp3623
g82
I5
ssg83
g3617
sg76
(lp3624
g69
(g78
g71
NtRp3625
(dp3626
g74
(dp3627
g82
I4
ssg83
Nsg76
(lp3628
g69
(g85
g71
NtRp3629
(dp3630
g74
(dp3631
sg83
g3625
sg76
(lp3632
g69
(g90
g71
NtRp3633
(dp3634
g74
(dp3635
sg83
g3629
sg76
(lp3636
g69
(g70
g71
NtRp3637
(dp3638
g74
(dp3639
g82
I4
ssg83
g3633
sg76
(lp3640
g69
(g78
g71
NtRp3641
(dp3642
g74
(dp3643
g82
I3
ssg83
Nsg76
(lp3644
g69
(g85
g71
NtRp3645
(dp3646
g74
(dp3647
sg83
g3641
sg76
(lp3648
g69
(g90
g71
NtRp3649
(dp3650
g74
(dp3651
sg83
g3645
sg76
(lp3652
g69
(g70
g71
NtRp3653
(dp3654
g74
(dp3655
g82
I3
ssg83
g3649
sg76
(lp3656
cgluon.languages
lazyT_unpickle
p3657
(S't\x04\x00\x00\x00Home'
tRp3658
asbasbasbag69
(g85
g71
NtRp3659
(dp3660
g74
(dp3661
sg83
g3641
sg76
(lp3662
g69
(g90
g71
NtRp3663
(dp3664
g74
(dp3665
sg83
g3659
sg76
(lp3666
g69
(g70
g71
NtRp3667
(dp3668
g74
(dp3669
g82
I3
ssg83
g3663
sg76
(lp3670
g112
asbasbasbag69
(g85
g71
NtRp3671
(dp3672
g74
(dp3673
sg83
g3641
sg76
(lp3674
g69
(g90
g71
NtRp3675
(dp3676
g74
(dp3677
sg83
g3671
sg76
(lp3678
g69
(g70
g71
NtRp3679
(dp3680
g74
(dp3681
g82
I3
ssg83
g3675
sg76
(lp3682
S'/manager/default/index'
p3683
asbasbasbasbasbasbasbag69
(g85
g71
NtRp3684
(dp3685
g74
(dp3686
sg83
g3625
sg76
(lp3687
g69
(g90
g71
NtRp3688
(dp3689
g74
(dp3690
sg83
g3684
sg76
(lp3691
g69
(g70
g71
NtRp3692
(dp3693
g74
(dp3694
g82
I4
ssg83
g3688
sg76
(lp3695
g69
(g78
g71
NtRp3696
(dp3697
g74
(dp3698
g82
I3
ssg83
Nsg76
(lp3699
g69
(g85
g71
NtRp3700
(dp3701
g74
(dp3702
sg83
g3696
sg76
(lp3703
g69
(g90
g71
NtRp3704
(dp3705
g74
(dp3706
sg83
g3700
sg76
(lp3707
g69
(g70
g71
NtRp3708
(dp3709
g74
(dp3710
g82
I3
ssg83
g3704
sg76
(lp3711
g3657
(S't\x06\x00\x00\x00logout'
tRp3712
asbasbasbag69
(g85
g71
NtRp3713
(dp3714
g74
(dp3715
sg83
g3696
sg76
(lp3716
g69
(g90
g71
NtRp3717
(dp3718
g74
(dp3719
sg83
g3713
sg76
(lp3720
g69
(g70
g71
NtRp3721
(dp3722
g74
(dp3723
g82
I3
ssg83
g3717
sg76
(lp3724
g112
asbasbasbag69
(g85
g71
NtRp3725
(dp3726
g74
(dp3727
sg83
g3696
sg76
(lp3728
g69
(g90
g71
NtRp3729
(dp3730
g74
(dp3731
sg83
g3725
sg76
(lp3732
g69
(g70
g71
NtRp3733
(dp3734
g74
(dp3735
g82
I3
ssg83
g3729
sg76
(lp3736
S'/manager/default/logout'
p3737
asbasbasbasbasbasbasbasbasbasbasbag69
(g85
g71
NtRp3738
(dp3739
g74
(dp3740
sg83
g3152
sg76
(lp3741
g69
(g90
g71
NtRp3742
(dp3743
g74
(dp3744
g94
g95
ssg83
g3738
sg76
(lp3745
S'meta'
p3746
asbag69
(g90
g71
NtRp3747
(dp3748
g74
(dp3749
g101
g102
ssg83
g3738
sg76
(lp3750
S':'
asbag69
(g90
g71
NtRp3751
(dp3752
g74
(dp3753
sg83
g3738
sg76
(lp3754
g69
(g70
g71
NtRp3755
(dp3756
g74
(dp3757
g82
I5
ssg83
g3751
sg76
(lp3758
g69
(g78
g71
NtRp3759
(dp3760
g74
(dp3761
g82
I4
ssg83
Nsg76
(lp3762
g69
(g85
g71
NtRp3763
(dp3764
g74
(dp3765
sg83
g3759
sg76
(lp3766
g69
(g90
g71
NtRp3767
(dp3768
g74
(dp3769
g94
g95
ssg83
g3763
sg76
(lp3770
S'author'
p3771
asbag69
(g90
g71
NtRp3772
(dp3773
g74
(dp3774
g101
g102
ssg83
g3763
sg76
(lp3775
S':'
asbag69
(g90
g71
NtRp3776
(dp3777
g74
(dp3778
sg83
g3763
sg76
(lp3779
g69
(g70
g71
NtRp3780
(dp3781
g74
(dp3782
g82
I4
ssg83
g3776
sg76
(lp3783
S'Your Name <you@example.com>'
p3784
asbasbasbag69
(g85
g71
NtRp3785
(dp3786
g74
(dp3787
sg83
g3759
sg76
(lp3788
g69
(g90
g71
NtRp3789
(dp3790
g74
(dp3791
g94
g95
ssg83
g3785
sg76
(lp3792
S'copyright'
p3793
asbag69
(g90
g71
NtRp3794
(dp3795
g74
(dp3796
g101
g102
ssg83
g3785
sg76
(lp3797
S':'
asbag69
(g90
g71
NtRp3798
(dp3799
g74
(dp3800
sg83
g3785
sg76
(lp3801
g69
(g70
g71
NtRp3802
(dp3803
g74
(dp3804
g82
I4
ssg83
g3798
sg76
(lp3805
S'Copyright 2011'
p3806
asbasbasbag69
(g85
g71
NtRp3807
(dp3808
g74
(dp3809
sg83
g3759
sg76
(lp3810
g69
(g90
g71
NtRp3811
(dp3812
g74
(dp3813
g94
g95
ssg83
g3807
sg76
(lp3814
S'description'
p3815
asbag69
(g90
g71
NtRp3816
(dp3817
g74
(dp3818
g101
g102
ssg83
g3807
sg76
(lp3819
S':'
asbag69
(g90
g71
NtRp3820
(dp3821
g74
(dp3822
sg83
g3807
sg76
(lp3823
g69
(g70
g71
NtRp3824
(dp3825
g74
(dp3826
g82
I4
ssg83
g3820
sg76
(lp3827
S'a cool new app'
p3828
asbasbasbag69
(g85
g71
NtRp3829
(dp3830
g74
(dp3831
sg83
g3759
sg76
(lp3832
g69
(g90
g71
NtRp3833
(dp3834
g74
(dp3835
g94
g95
ssg83
g3829
sg76
(lp3836
S'generator'
p3837
asbag69
(g90
g71
NtRp3838
(dp3839
g74
(dp3840
g101
g102
ssg83
g3829
sg76
(lp3841
S':'
asbag69
(g90
g71
NtRp3842
(dp3843
g74
(dp3844
sg83
g3829
sg76
(lp3845
g69
(g70
g71
NtRp3846
(dp3847
g74
(dp3848
g82
I4
ssg83
g3842
sg76
(lp3849
S'Web2py Web Framework'
p3850
asbasbasbag69
(g85
g71
NtRp3851
(dp3852
g74
(dp3853
sg83
g3759
sg76
(lp3854
g69
(g90
g71
NtRp3855
(dp3856
g74
(dp3857
g94
g95
ssg83
g3851
sg76
(lp3858
S'keywords'
p3859
asbag69
(g90
g71
NtRp3860
(dp3861
g74
(dp3862
g101
g102
ssg83
g3851
sg76
(lp3863
S':'
asbag69
(g90
g71
NtRp3864
(dp3865
g74
(dp3866
sg83
g3851
sg76
(lp3867
g69
(g70
g71
NtRp3868
(dp3869
g74
(dp3870
g82
I4
ssg83
g3864
sg76
(lp3871
S'web2py, python, framework'
p3872
asbasbasbasbasbasbasbag69
(g85
g71
NtRp3873
(dp3874
g74
(dp3875
sg83
g3152
sg76
(lp3876
g69
(g90
g71
NtRp3877
(dp3878
g74
(dp3879
g94
g95
ssg83
g3873
sg76
(lp3880
S'postprocessing'
p3881
asbag69
(g90
g71
NtRp3882
(dp3883
g74
(dp3884
g101
g102
ssg83
g3873
sg76
(lp3885
S':'
asbag69
(g90
g71
NtRp3886
(dp3887
g74
(dp3888
sg83
g3873
sg76
(lp3889
g69
(g70
g71
NtRp3890
(dp3891
g74
(dp3892
g82
I5
ssg83
g3886
sg76
(lp3893
g69
(g78
g71
NtRp3894
(dp3895
g74
(dp3896
g82
I4
ssg83
Nsg76
(lp3897
sbasbasbasbag69
(g85
g71
NtRp3898
(dp3899
g74
(dp3900
sg83
g3152
sg76
(lp3901
g69
(g90
g71
NtRp3902
(dp3903
g74
(dp3904
g94
g95
ssg83
g3898
sg76
(lp3905
S'session_file'
p3906
asbag69
(g90
g71
NtRp3907
(dp3908
g74
(dp3909
g101
g102
ssg83
g3898
sg76
(lp3910
S':'
asbag69
(g90
g71
NtRp3911
(dp3912
g74
(dp3913
sg83
g3898
sg76
(lp3914
g69
(g70
g71
NtRp3915
(dp3916
g74
(dp3917
g82
I5
ssg83
g3911
sg76
(lp3918
S"<open file '/home/unic/web2py/applications/manager/sessions/127.0.0.1-7f7bcb65-bef9-473d-a481-a3eba18d03c3', mode 'rb+' at 0xab42ede0>"
p3919
asbasbasbag69
(g85
g71
NtRp3920
(dp3921
g74
(dp3922
sg83
g3152
sg76
(lp3923
g69
(g90
g71
NtRp3924
(dp3925
g74
(dp3926
g94
g95
ssg83
g3920
sg76
(lp3927
S'session_filename'
p3928
asbag69
(g90
g71
NtRp3929
(dp3930
g74
(dp3931
g101
g102
ssg83
g3920
sg76
(lp3932
S':'
asbag69
(g90
g71
NtRp3933
(dp3934
g74
(dp3935
sg83
g3920
sg76
(lp3936
g69
(g70
g71
NtRp3937
(dp3938
g74
(dp3939
g82
I5
ssg83
g3933
sg76
(lp3940
S'/home/unic/web2py/applications/manager/sessions/127.0.0.1-7f7bcb65-bef9-473d-a481-a3eba18d03c3'
p3941
asbasbasbag69
(g85
g71
NtRp3942
(dp3943
g74
(dp3944
sg83
g3152
sg76
(lp3945
g69
(g90
g71
NtRp3946
(dp3947
g74
(dp3948
g94
g95
ssg83
g3942
sg76
(lp3949
S'session_id'
p3950
asbag69
(g90
g71
NtRp3951
(dp3952
g74
(dp3953
g101
g102
ssg83
g3942
sg76
(lp3954
S':'
asbag69
(g90
g71
NtRp3955
(dp3956
g74
(dp3957
sg83
g3942
sg76
(lp3958
g69
(g70
g71
NtRp3959
(dp3960
g74
(dp3961
g82
I5
ssg83
g3955
sg76
(lp3962
S'127.0.0.1-7f7bcb65-bef9-473d-a481-a3eba18d03c3'
p3963
asbasbasbag69
(g85
g71
NtRp3964
(dp3965
g74
(dp3966
sg83
g3152
sg76
(lp3967
g69
(g90
g71
NtRp3968
(dp3969
g74
(dp3970
g94
g95
ssg83
g3964
sg76
(lp3971
S'session_id_name'
p3972
asbag69
(g90
g71
NtRp3973
(dp3974
g74
(dp3975
g101
g102
ssg83
g3964
sg76
(lp3976
S':'
asbag69
(g90
g71
NtRp3977
(dp3978
g74
(dp3979
sg83
g3964
sg76
(lp3980
g69
(g70
g71
NtRp3981
(dp3982
g74
(dp3983
g82
I5
ssg83
g3977
sg76
(lp3984
g3209
asbasbasbag69
(g85
g71
NtRp3985
(dp3986
g74
(dp3987
sg83
g3152
sg76
(lp3988
g69
(g90
g71
NtRp3989
(dp3990
g74
(dp3991
g94
g95
ssg83
g3985
sg76
(lp3992
S'session_locked'
p3993
asbag69
(g90
g71
NtRp3994
(dp3995
g74
(dp3996
g101
g102
ssg83
g3985
sg76
(lp3997
S':'
asbag69
(g90
g71
NtRp3998
(dp3999
g74
(dp4000
sg83
g3985
sg76
(lp4001
g69
(g70
g71
NtRp4002
(dp4003
g74
(dp4004
g82
I5
ssg83
g3998
sg76
(lp4005
g1669
asbasbasbag69
(g85
g71
NtRp4006
(dp4007
g74
(dp4008
sg83
g3152
sg76
(lp4009
g69
(g90
g71
NtRp4010
(dp4011
g74
(dp4012
g94
g95
ssg83
g4006
sg76
(lp4013
S'session_new'
p4014
asbag69
(g90
g71
NtRp4015
(dp4016
g74
(dp4017
g101
g102
ssg83
g4006
sg76
(lp4018
S':'
asbag69
(g90
g71
NtRp4019
(dp4020
g74
(dp4021
sg83
g4006
sg76
(lp4022
g69
(g70
g71
NtRp4023
(dp4024
g74
(dp4025
g82
I5
ssg83
g4019
sg76
(lp4026
g112
asbasbasbag69
(g85
g71
NtRp4027
(dp4028
g74
(dp4029
sg83
g3152
sg76
(lp4030
g69
(g90
g71
NtRp4031
(dp4032
g74
(dp4033
g94
g95
ssg83
g4027
sg76
(lp4034
S'status'
p4035
asbag69
(g90
g71
NtRp4036
(dp4037
g74
(dp4038
g101
g102
ssg83
g4027
sg76
(lp4039
S':'
asbag69
(g90
g71
NtRp4040
(dp4041
g74
(dp4042
sg83
g4027
sg76
(lp4043
g69
(g70
g71
NtRp4044
(dp4045
g74
(dp4046
g82
I5
ssg83
g4040
sg76
(lp4047
S'200'
p4048
asbasbasbag69
(g85
g71
NtRp4049
(dp4050
g74
(dp4051
sg83
g3152
sg76
(lp4052
g69
(g90
g71
NtRp4053
(dp4054
g74
(dp4055
g94
g95
ssg83
g4049
sg76
(lp4056
S'subtitle'
p4057
asbag69
(g90
g71
NtRp4058
(dp4059
g74
(dp4060
g101
g102
ssg83
g4049
sg76
(lp4061
S':'
asbag69
(g90
g71
NtRp4062
(dp4063
g74
(dp4064
sg83
g4049
sg76
(lp4065
g69
(g70
g71
NtRp4066
(dp4067
g74
(dp4068
g82
I5
ssg83
g4062
sg76
(lp4069
g3657
(S's\r\x00\x00\x00customize me!'
tRp4070
asbasbasbag69
(g85
g71
NtRp4071
(dp4072
g74
(dp4073
sg83
g3152
sg76
(lp4074
g69
(g90
g71
NtRp4075
(dp4076
g74
(dp4077
g94
g95
ssg83
g4071
sg76
(lp4078
S'title'
p4079
asbag69
(g90
g71
NtRp4080
(dp4081
g74
(dp4082
g101
g102
ssg83
g4071
sg76
(lp4083
S':'
asbag69
(g90
g71
NtRp4084
(dp4085
g74
(dp4086
sg83
g4071
sg76
(lp4087
g69
(g70
g71
NtRp4088
(dp4089
g74
(dp4090
g82
I5
ssg83
g4084
sg76
(lp4091
S'Manager'
p4092
asbasbasbag69
(g85
g71
NtRp4093
(dp4094
g74
(dp4095
sg83
g3152
sg76
(lp4096
g69
(g90
g71
NtRp4097
(dp4098
g74
(dp4099
g94
g95
ssg83
g4093
sg76
(lp4100
g2355
asbag69
(g90
g71
NtRp4101
(dp4102
g74
(dp4103
g101
g102
ssg83
g4093
sg76
(lp4104
S':'
asbag69
(g90
g71
NtRp4105
(dp4106
g74
(dp4107
sg83
g4093
sg76
(lp4108
g69
(g70
g71
NtRp4109
(dp4110
g74
(dp4111
g82
I5
ssg83
g4105
sg76
(lp4112
g2368
asbasbasbag69
(g85
g71
NtRp4113
(dp4114
g74
(dp4115
sg83
g3152
sg76
(lp4116
g69
(g90
g71
NtRp4117
(dp4118
g74
(dp4119
g94
g95
ssg83
g4113
sg76
(lp4120
S'view'
p4121
asbag69
(g90
g71
NtRp4122
(dp4123
g74
(dp4124
g101
g102
ssg83
g4113
sg76
(lp4125
S':'
asbag69
(g90
g71
NtRp4126
(dp4127
g74
(dp4128
sg83
g4113
sg76
(lp4129
g69
(g70
g71
NtRp4130
(dp4131
g74
(dp4132
g82
I5
ssg83
g4126
sg76
(lp4133
S'default/login.html'
p4134
asbasbasbasbasbsS'locals'
p4135
(dp4136
g4
S"'/home/unic/web2py/applications/manager/views/default/login.html'"
p4137
sg6
S'\'response.write(\\\'<!DOCTYPE html PUBLIC "-//W3C//D...v>\\\\n  </div>\\\\n </body>\\\\n</html>\\\\n\\\', escape=False)\''
p4138
sssS'traceback'
p4139
S'Traceback (most recent call last):\n  File "/usr/lib/pymodules/python2.7/gluon/restricted.py", line 203, in restricted\n    ccode = compile2(code,layer)\n  File "/usr/lib/pymodules/python2.7/gluon/restricted.py", line 189, in compile2\n    return compile(code.rstrip().replace(\'\\r\\n\',\'\\n\')+\'\\n\', layer, \'exec\')\n  File "/home/unic/web2py/applications/manager/views/default/login.html", line 48\n    if len(id1) ==0 && session.token != "neeharikak.v@students.iiit.ac.in":\n                     ^\nSyntaxError: invalid syntax\n'
p4140
s.