(dp1
S'output'
p2
S"<type 'exceptions.SyntaxError'> invalid syntax (index.html, line 35)"
p3
sS'layer'
p4
S'/home/madhuri/Downloads/web2py/applications/manager/views/default/index.html'
p5
sS'code'
p6
S'response.write(\'<!DOCTYPE html PUBLIC "-//W3C//DTD XHTML 1.0 Transitional//EN" "http://www.w3.org/TR/xhtml1/DTD/xhtml1-transitional.dtd">\\n<!--\\nAuthor: Reality Software\\nWebsite: http://www.realitysoftware.ca\\nNote: This is a free template released under the Creative Commons Attribution 3.0 license, \\nwhich means you can use it in any way you want provided you keep links to the author intact.\\n-->\\n<html xmlns="http://www.w3.org/1999/xhtml">\\n <head>\\n  <title>\\n   \', escape=False)\nresponse.write(response.title or request.application)\nresponse.write(\'\\n  </title>\\n  \', escape=False)\nresponse.files.append(URL(request.application,\'static\',\'plugin_layouts/layouts/Papira/style.css\'))\nresponse.write(\'\\n  \', escape=False)\nresponse.files.append(URL(\'static\',\'plugin_layouts/superfish.js\'))\nresponse.write(\'\\n  \', escape=False)\nresponse.write(\'<script type="text/javascript"><!--\\n    // These variables are used by the web2py_ajax_init function in web2py_ajax.js (which is loaded below).\\n    var w2p_ajax_confirm_message = "\', escape=False)\nresponse.write(T(\'Are you sure you want to delete this object?\'))\nresponse.write(\'";\\n    var w2p_ajax_date_format = "\', escape=False)\nresponse.write(T(\'%Y-%m-%d\'))\nresponse.write(\'";\\n    var w2p_ajax_datetime_format = "\', escape=False)\nresponse.write(T(\'%Y-%m-%d %H:%M:%S\'))\nresponse.write(\'";\\n    //--></script>\\n\', escape=False)\nresponse.files.insert(0,URL(\'static\',\'js/jquery.js\'))\nresponse.files.insert(3,URL(\'static\',\'js/web2py.js\'))\nresponse.include_meta()\nresponse.include_files()\nresponse.write(\'\\n\', escape=False)\nresponse.write(\'\\n  <style>\\nul.web2py-menu-vertical { width: 150px; position: relative; top:1em; left:1em;  z-index:30; border:0; margin:0; padding: 0; list-style: none; text-decoration: none;}\\nul.web2py-menu-vertical li { margin:0; padding:0; border:0; width: 150px; background: black; text-align:left;}\\nul.web2py-menu-vertical li a { margin:0; padding: 1px 3px 1px 3px; border:0; width: 144px; color: white; font-size:12px;}\\ndiv.flash { position: fixed; float: right; padding: 10px; top: 10px; right: 30px; opacity: 0.75; margin: 10px 10px 10px 10px; text-align: center; clear: both; color: #fff; font-size: 11pt; text-align: center; vertical-align: middle; cursor: pointer; background: black; border: 2px solid #fff; -moz-border-radius: 5px; -webkit-border-radius: 5px; z-index: 2; }\\ndiv.error { background-color: red; color: white; padding: 3px; }\\n.auth_navbar { text-align:right; z-index:20; position: absolute; top: 2px; right:30px; border:0; padding:0 }\\n  </style>\\n </head>\\n <body>\\n\\n\\n  <div id="all">\\n   <div id="container">\\n    <!-- header -->\\n    <div id="logo">\\n     <a href="#">\\n      <span class="brown">\\n       <strong>\\n        Award\\n       </strong>\\n      </span>\\n      Manager\\n     </a>\\n    </div>\\n    <div id="menu">\\n        <a href="\', escape=False)\nresponse.write(URL(r = request, f = \'logout\'))\nresponse.write(\'">Logout</a>\\n       </div>\\n   \\n     \', escape=False)\nif session.token=="neeharikak.v@students.iiit.ac.in" :\n    response.write(\'\\n          <div id="sidebar">\\n        <br/><br/><br/>\\n     <table>\\n     <h2>\\n         <tr><td><b>&nbsp;&nbsp;&nbsp;&nbsp;&nbsp;&nbsp;&nbsp;&nbsp;&nbsp;&nbsp;&nbsp;&nbsp;&nbsp;<a href="\', escape=False)\n    response.write(URL(r = request, f = \'index\'))\n    response.write(\'">Home</a> </b></td></tr>\\n        \\n        \\n     <tr><td><b>&nbsp;&nbsp;&nbsp;&nbsp;&nbsp;&nbsp;&nbsp;&nbsp;&nbsp;&nbsp;&nbsp;&nbsp;&nbsp;<a href="\', escape=False)\n    response.write(URL(r = request, f = \'Admin\'))\n    response.write(\'">Amount</a></b></td></tr>\\n     <tr><td><b>&nbsp;&nbsp;&nbsp;&nbsp;&nbsp;&nbsp;&nbsp;&nbsp;&nbsp;&nbsp;&nbsp;&nbsp;&nbsp;<a href="\', escape=False)\n    response.write(URL(r = request, f = \'upload\'))\n    response.write(\'">Students List</a></b></td></tr>\\n         <tr><td>&nbsp;&nbsp;&nbsp;&nbsp;&nbsp;&nbsp;&nbsp;&nbsp;&nbsp;&nbsp;&nbsp;&nbsp;&nbsp;<b><a href="\', escape=False)\n    response.write(URL(r = request, f = \'upload1\'))\n    response.write(\'">Book List</a></b></td></tr>\\n     <tr><td>&nbsp;&nbsp;&nbsp;&nbsp;&nbsp;&nbsp;&nbsp;&nbsp;&nbsp;&nbsp;&nbsp;&nbsp;&nbsp;<b><a href="\', escape=False)\n    response.write(URL(r = request, f = \'choose\'))\n    response.write(\'">Allot</a></b></td></tr>\\n         \', escape=False)\n    if !award:\n        response.write(\'\\n     <tr><td><b>&nbsp;&nbsp;&nbsp;&nbsp;&nbsp;&nbsp;&nbsp;&nbsp;&nbsp;&nbsp;&nbsp;&nbsp;&nbsp;<a href="\', escape=False)\n        response.write(URL(r = request, f = \'total\'))\n        response.write(\'">Output</a></b></td></tr>\\n         \', escape=False)\n        pass\n    response.write(\'\\n          \', escape=False)\n    if award:\n        response.write(\'\\n     <tr><td><b>&nbsp;&nbsp;&nbsp;&nbsp;&nbsp;&nbsp;&nbsp;&nbsp;&nbsp;&nbsp;&nbsp;&nbsp;&nbsp;<a href="\', escape=False)\n        response.write(URL(r = request, f = \'error\'))\n        response.write(\'">Output</a></b></td></tr>\\n         \', escape=False)\n        pass\n    response.write(\'\\n         \\n         <tr><td><b>&nbsp;&nbsp;&nbsp;&nbsp;&nbsp;&nbsp;&nbsp;&nbsp;&nbsp;&nbsp;&nbsp;&nbsp;&nbsp;<a href="\', escape=False)\n    response.write(URL(r = request, f = \'alloted\'))\n    response.write(\'">Alloted_students</a></b><td></tr>\\n     <tr><td><b>&nbsp;&nbsp;&nbsp;&nbsp;&nbsp;&nbsp;&nbsp;&nbsp;&nbsp;&nbsp;&nbsp;&nbsp;&nbsp;<a href="\', escape=False)\n    response.write(URL(r = request, f = \'label\'))\n    response.write(\'">Get_labels</a></b></td></tr>\\n     <tr><td><b>&nbsp;&nbsp;&nbsp;&nbsp;&nbsp;&nbsp;&nbsp;&nbsp;&nbsp;&nbsp;&nbsp;&nbsp;&nbsp;<a href="\', escape=False)\n    response.write(URL(r = request, f = \'drop1m\'))\n    response.write(\'">Done</a></b></td></tr>\\n      <tr><td><b>&nbsp;&nbsp;&nbsp;&nbsp;&nbsp;&nbsp;&nbsp;&nbsp;&nbsp;&nbsp;&nbsp;&nbsp;&nbsp;<a href="\', escape=False)\n    response.write(URL(r = request, f = \'logout\'))\n    response.write(\'">Logout</a></b></td></tr>\\n      </h2>\\n         </table>\\n         </div>\\n      \', escape=False)\n    pass\nresponse.write(\'\\n         \\n         \\n         \', escape=False)\nif session.token!="neeharikak.v@students.iiit.ac.in" :\n    response.write(\'\\n         <div id="sidebar">\\n         <table>\\n         <h2>\\n             <br/><br/><br/>\\n             <tr><td>&nbsp;&nbsp;&nbsp;&nbsp;&nbsp;&nbsp;&nbsp;&nbsp;&nbsp;&nbsp;&nbsp;&nbsp;&nbsp;<b><a href="\', escape=False)\n    response.write(URL(r = request, f = \'index\'))\n    response.write(\'">HOME</a></b></td></tr>\\n             <tr><td>&nbsp;&nbsp;&nbsp;&nbsp;&nbsp;&nbsp;&nbsp;&nbsp;&nbsp;&nbsp;&nbsp;&nbsp;&nbsp;<b><a href="\', escape=False)\n    response.write(URL(r = request, f = \'choose1\'))\n    response.write(\'">BOOKS</a></b></td></tr>\\n             \\n         <tr><td>&nbsp;&nbsp;&nbsp;&nbsp;&nbsp;&nbsp;&nbsp;&nbsp;&nbsp;&nbsp;&nbsp;&nbsp;&nbsp;<b><a href="\', escape=False)\n    response.write(URL(r = request, f = \'preference\'))\n    response.write(\'">LANGUAGE </a></b></td></tr>\\n         \\n        \\n          </h2>\\n    </table>\\n      \\n       </div>\\n         \', escape=False)\n    pass\nresponse.write(\'\\n        \\n    <script>\\n      jQuery(document).ready(function(){jQuery(\\\'ul.web2py-menu\\\').superfish({delay:400});});\\n    </script>\\n    </div>\\n    <!--end header -->\\n    <!-- main -->\\n    <div id="main">\\n     <div class="flash">\', escape=False)\nresponse.write(response.flash or \'\')\nresponse.write(\'</div>\\n     \', escape=False)\nresponse.write(\'\\n\', escape=False)\nif session.token == "neeharikak.v@students.iiit.ac.in":\n    response.write(\'\\n<h2>WELCOME</h2><br/>\\n<h2>Instructions</h2>\\n<ul>\\n<li><h3>Click on amount to set the award amounts</h3></li>\\n<li><h3>Click on students list to upload the list of students</h3></li>\\n<li><h3>Click on book list to upload the list of books</h3></li>\\n<li><h3>Click on allot to go the allotment procedure</h3></li>\\n<li><h3>Click on output to generate the output lists</h3></li>\\n<li><h3>Click on alloted_students to get the student names whose allotment is done</h3></li>\\n<li><h3>Click on get_labels to generate labels of students</h3></li>\\n<li><h3>Click on Done only if the allotment for a particular year is done </h3></li>\\n\\n    <h3> If u have entered anything wrong in the input .Click on the following button </h3>\\n    <a href="\', escape=False)\n    response.write(URL(\'dropm\', args=[]))\n    response.write(\'"><button>RE-ENTER</button></a>\\n    \\n</ul>\\n\', escape=False)\n    pass\nresponse.write(\'\\n\\n<!--\', escape=False)\nif session.token != "neeharikak.v@students.iiit.ac.in":\n    response.write(\'\\n<a href="\', escape=False)\n    response.write(URL(r = request, f = \'logout\'))\n    response.write(\'">Logout</a>\\n <ul>\\n     <li><h2>You are logged in as \', escape=False)\n    response.write(t)\n    response.write(\'<br /></h2></li>\\n<h3><li>This portal allows you to fill your preferences. Follow instructions carefully.</li>\\n<li><h2>Instructions</h2></li>\\n     <li><h3>1. This portal accepts a maximum of 10 preferences.<br /></h3></li>\\n<li>2.After giving 10 preferences you can enter a preference only if you unselect any of your previous preference.<br /></li>\\n<li>3.You need not submit your preferences explicitly, selection will suffice.<br /></li>\\n</h3>\\n<hr \\\\>\\n</ul>\\n\', escape=False)\n    pass\nresponse.write(\'-->\\n\', escape=False)\nif session.token!= "neeharikak.v@students.iiit.ac.in":\n    response.write(\'\\n<h2>WELCOME</h2><br/>\\n<h3>You are logged in as \', escape=False)\n    response.write(t)\n    response.write(\'<br /></h3>\\n<h2>Instructions</h2>\\n<ul>\\n<li><h3>Click on amount to set the award amounts</h3></li>\\n<li><h3>Click on students list to upload the list of students</h3></li>\\n<li><h3>Click on book list to upload the list of books</h3></li>\\n<li><h3>Click on allot to go the allotment procedure</h3></li>\\n<li><h3>Click on output to generate the output lists</h3></li>\\n<li><h3>Click on alloted_students to get the student names whose allotment is done</h3></li>\\n<li><h3>Click on get_labels to generate labels of students</h3></li>\\n<li><h3>Click on Done only if the allotment for a particular year is done </h3></li>\\n\\n \\n</ul>\\n\', escape=False)\n    pass\nresponse.write(\'\\n\', escape=False)\nresponse.write(\'\\n    </div>\\n    <!-- end main -->\\n    <!-- footer -->\\n    <div id="footer">\\n     <div id="left_footer">\\n      &copy; Copyright 2008 Your website\\n     </div>\\n     <div id="right_footer">\\n      <!-- Please do not change or delete this links. Read the license! Thanks. :-) -->\\n      <a href="http://www.realitysoftware.ca/website-design.html">\\n       Website design\\n      </a>\\n      by\\n      <a href="http://www.realitysoftware.ca">\\n       Reality Software\\n      </a>\\n     </div>\\n    </div>\\n    <!-- end footer -->\\n   </div>\\n  </div>\\n </body>\\n</html>\\n\', escape=False)'
p7
sS'snapshot'
p8
(dp9
S'exception'
p10
(dp11
S'__getslice__'
p12
S"<method-wrapper '__getslice__' of exceptions.SyntaxError object>"
p13
sS'text'
p14
S"'    if !award:\\n'"
p15
sS'__str__'
p16
S"<method-wrapper '__str__' of exceptions.SyntaxError object>"
p17
sS'__reduce__'
p18
S'<built-in method __reduce__ of exceptions.SyntaxError object>'
p19
sS'__dict__'
p20
S'{}'
p21
sS'__sizeof__'
p22
S'<built-in method __sizeof__ of exceptions.SyntaxError object>'
p23
sS'__init__'
p24
S"<method-wrapper '__init__' of exceptions.SyntaxError object>"
p25
sS'__setattr__'
p26
S"<method-wrapper '__setattr__' of exceptions.SyntaxError object>"
p27
sS'__reduce_ex__'
p28
S'<built-in method __reduce_ex__ of exceptions.SyntaxError object>'
p29
sS'__new__'
p30
S'<built-in method __new__ of type object>'
p31
sS'__format__'
p32
S'<built-in method __format__ of exceptions.SyntaxError object>'
p33
sS'__class__'
p34
S"<type 'exceptions.SyntaxError'>"
p35
sS'filename'
p36
S"'/home/madhuri/Downloads/web2py/applications/manager/views/default/index.html'"
p37
sS'lineno'
p38
S'35'
p39
sS'msg'
p40
S"'invalid syntax'"
p41
sS'__doc__'
p42
S"'Invalid syntax.'"
p43
sS'__getitem__'
p44
S"<method-wrapper '__getitem__' of exceptions.SyntaxError object>"
p45
sS'__setstate__'
p46
S'<built-in method __setstate__ of exceptions.SyntaxError object>'
p47
sS'__getattribute__'
p48
S"<method-wrapper '__getattribute__' of exceptions.SyntaxError object>"
p49
sS'print_file_and_line'
p50
S'None'
p51
sS'args'
p52
S"('invalid syntax', ('/home/madhuri/Downloads/web2py/applications/manager/views/default/index.html', 35, 8, '    if !award:\\n'))"
p53
sS'__subclasshook__'
p54
S'<built-in method __subclasshook__ of type object>'
p55
sS'offset'
p56
S'8'
sS'__unicode__'
p57
S'<built-in method __unicode__ of exceptions.SyntaxError object>'
p58
sS'__delattr__'
p59
S"<method-wrapper '__delattr__' of exceptions.SyntaxError object>"
p60
sS'__repr__'
p61
S"<method-wrapper '__repr__' of exceptions.SyntaxError object>"
p62
sS'__hash__'
p63
S"<method-wrapper '__hash__' of exceptions.SyntaxError object>"
p64
ssS'evalue'
p65
S'invalid syntax (index.html, line 35)'
p66
sS'request'
p67
ccopy_reg
_reconstructor
p68
(cgluon.html
BEAUTIFY
p69
c__builtin__
object
p70
NtRp71
(dp72
S'attributes'
p73
(dp74
sS'components'
p75
(lp76
g68
(cgluon.html
TABLE
p77
g70
NtRp78
(dp79
g73
(dp80
S'level'
p81
I5
ssS'parent'
p82
Nsg75
(lp83
g68
(cgluon.html
TR
p84
g70
NtRp85
(dp86
g73
(dp87
sg82
g78
sg75
(lp88
g68
(cgluon.html
TD
p89
g70
NtRp90
(dp91
g73
(dp92
S'_style'
p93
S'font-weight:bold;vertical-align:top'
p94
ssg82
g85
sg75
(lp95
S'ajax'
p96
asbag68
(g89
g70
NtRp97
(dp98
g73
(dp99
S'_valign'
p100
S'top'
p101
ssg82
g85
sg75
(lp102
S':'
asbag68
(g89
g70
NtRp103
(dp104
g73
(dp105
sg82
g85
sg75
(lp106
g68
(g69
g70
NtRp107
(dp108
g73
(dp109
g81
I5
ssg82
g103
sg75
(lp110
S'False'
p111
asbasbasbag68
(g84
g70
NtRp112
(dp113
g73
(dp114
sg82
g78
sg75
(lp115
g68
(g89
g70
NtRp116
(dp117
g73
(dp118
g93
g94
ssg82
g112
sg75
(lp119
S'application'
p120
asbag68
(g89
g70
NtRp121
(dp122
g73
(dp123
g100
g101
ssg82
g112
sg75
(lp124
S':'
asbag68
(g89
g70
NtRp125
(dp126
g73
(dp127
sg82
g112
sg75
(lp128
g68
(g69
g70
NtRp129
(dp130
g73
(dp131
g81
I5
ssg82
g125
sg75
(lp132
S'manager'
p133
asbasbasbag68
(g84
g70
NtRp134
(dp135
g73
(dp136
sg82
g78
sg75
(lp137
g68
(g89
g70
NtRp138
(dp139
g73
(dp140
g93
g94
ssg82
g134
sg75
(lp141
g52
asbag68
(g89
g70
NtRp142
(dp143
g73
(dp144
g100
g101
ssg82
g134
sg75
(lp145
S':'
asbag68
(g89
g70
NtRp146
(dp147
g73
(dp148
sg82
g134
sg75
(lp149
g68
(g69
g70
NtRp150
(dp151
g73
(dp152
g81
I5
ssg82
g146
sg75
(lp153
g68
(g77
g70
NtRp154
(dp155
g73
(dp156
g81
I4
ssg82
Nsg75
(lp157
sbasbasbasbag68
(g84
g70
NtRp158
(dp159
g73
(dp160
sg82
g78
sg75
(lp161
g68
(g89
g70
NtRp162
(dp163
g73
(dp164
g93
g94
ssg82
g158
sg75
(lp165
S'body'
p166
asbag68
(g89
g70
NtRp167
(dp168
g73
(dp169
g100
g101
ssg82
g158
sg75
(lp170
S':'
asbag68
(g89
g70
NtRp171
(dp172
g73
(dp173
sg82
g158
sg75
(lp174
g68
(g69
g70
NtRp175
(dp176
g73
(dp177
g81
I5
ssg82
g171
sg75
(lp178
S'<cStringIO.StringO object at 0x7f1da82483b0>'
p179
asbasbasbag68
(g84
g70
NtRp180
(dp181
g73
(dp182
sg82
g78
sg75
(lp183
g68
(g89
g70
NtRp184
(dp185
g73
(dp186
g93
g94
ssg82
g180
sg75
(lp187
S'cid'
p188
asbag68
(g89
g70
NtRp189
(dp190
g73
(dp191
g100
g101
ssg82
g180
sg75
(lp192
S':'
asbag68
(g89
g70
NtRp193
(dp194
g73
(dp195
sg82
g180
sg75
(lp196
g68
(g69
g70
NtRp197
(dp198
g73
(dp199
g81
I5
ssg82
g193
sg75
(lp200
S'None'
p201
asbasbasbag68
(g84
g70
NtRp202
(dp203
g73
(dp204
sg82
g78
sg75
(lp205
g68
(g89
g70
NtRp206
(dp207
g73
(dp208
g93
g94
ssg82
g202
sg75
(lp209
S'client'
p210
asbag68
(g89
g70
NtRp211
(dp212
g73
(dp213
g100
g101
ssg82
g202
sg75
(lp214
S':'
asbag68
(g89
g70
NtRp215
(dp216
g73
(dp217
sg82
g202
sg75
(lp218
g68
(g69
g70
NtRp219
(dp220
g73
(dp221
g81
I5
ssg82
g215
sg75
(lp222
S'127.0.0.1'
p223
asbasbasbag68
(g84
g70
NtRp224
(dp225
g73
(dp226
sg82
g78
sg75
(lp227
g68
(g89
g70
NtRp228
(dp229
g73
(dp230
g93
g94
ssg82
g224
sg75
(lp231
S'controller'
p232
asbag68
(g89
g70
NtRp233
(dp234
g73
(dp235
g100
g101
ssg82
g224
sg75
(lp236
S':'
asbag68
(g89
g70
NtRp237
(dp238
g73
(dp239
sg82
g224
sg75
(lp240
g68
(g69
g70
NtRp241
(dp242
g73
(dp243
g81
I5
ssg82
g237
sg75
(lp244
S'default'
p245
asbasbasbag68
(g84
g70
NtRp246
(dp247
g73
(dp248
sg82
g78
sg75
(lp249
g68
(g89
g70
NtRp250
(dp251
g73
(dp252
g93
g94
ssg82
g246
sg75
(lp253
S'cookies'
p254
asbag68
(g89
g70
NtRp255
(dp256
g73
(dp257
g100
g101
ssg82
g246
sg75
(lp258
S':'
asbag68
(g89
g70
NtRp259
(dp260
g73
(dp261
sg82
g246
sg75
(lp262
g68
(g69
g70
NtRp263
(dp264
g73
(dp265
g81
I5
ssg82
g259
sg75
(lp266
g68
(g77
g70
NtRp267
(dp268
g73
(dp269
g81
I4
ssg82
Nsg75
(lp270
g68
(g84
g70
NtRp271
(dp272
g73
(dp273
sg82
g267
sg75
(lp274
g68
(g89
g70
NtRp275
(dp276
g73
(dp277
g93
g94
ssg82
g271
sg75
(lp278
S'session_id_admin'
p279
asbag68
(g89
g70
NtRp280
(dp281
g73
(dp282
g100
g101
ssg82
g271
sg75
(lp283
S':'
asbag68
(g89
g70
NtRp284
(dp285
g73
(dp286
sg82
g271
sg75
(lp287
g68
(g69
g70
NtRp288
(dp289
g73
(dp290
g81
I4
ssg82
g284
sg75
(lp291
S'127.0.0.1-5397ac8a-431d-4526-b620-53d2814c64d9'
p292
ag68
(g77
g70
NtRp293
(dp294
g73
(dp295
g81
I3
ssg82
Nsg75
(lp296
g68
(g84
g70
NtRp297
(dp298
g73
(dp299
sg82
g293
sg75
(lp300
g68
(g89
g70
NtRp301
(dp302
g73
(dp303
g93
g94
ssg82
g297
sg75
(lp304
S'comment'
p305
asbag68
(g89
g70
NtRp306
(dp307
g73
(dp308
g100
g101
ssg82
g297
sg75
(lp309
S':'
asbag68
(g89
g70
NtRp310
(dp311
g73
(dp312
sg82
g297
sg75
(lp313
g68
(g69
g70
NtRp314
(dp315
g73
(dp316
g81
I3
ssg82
g310
sg75
(lp317
S''
asbasbasbag68
(g84
g70
NtRp318
(dp319
g73
(dp320
sg82
g293
sg75
(lp321
g68
(g89
g70
NtRp322
(dp323
g73
(dp324
g93
g94
ssg82
g318
sg75
(lp325
S'domain'
p326
asbag68
(g89
g70
NtRp327
(dp328
g73
(dp329
g100
g101
ssg82
g318
sg75
(lp330
S':'
asbag68
(g89
g70
NtRp331
(dp332
g73
(dp333
sg82
g318
sg75
(lp334
g68
(g69
g70
NtRp335
(dp336
g73
(dp337
g81
I3
ssg82
g331
sg75
(lp338
S''
asbasbasbag68
(g84
g70
NtRp339
(dp340
g73
(dp341
sg82
g293
sg75
(lp342
g68
(g89
g70
NtRp343
(dp344
g73
(dp345
g93
g94
ssg82
g339
sg75
(lp346
S'expires'
p347
asbag68
(g89
g70
NtRp348
(dp349
g73
(dp350
g100
g101
ssg82
g339
sg75
(lp351
S':'
asbag68
(g89
g70
NtRp352
(dp353
g73
(dp354
sg82
g339
sg75
(lp355
g68
(g69
g70
NtRp356
(dp357
g73
(dp358
g81
I3
ssg82
g352
sg75
(lp359
S''
asbasbasbag68
(g84
g70
NtRp360
(dp361
g73
(dp362
sg82
g293
sg75
(lp363
g68
(g89
g70
NtRp364
(dp365
g73
(dp366
g93
g94
ssg82
g360
sg75
(lp367
S'httponly'
p368
asbag68
(g89
g70
NtRp369
(dp370
g73
(dp371
g100
g101
ssg82
g360
sg75
(lp372
S':'
asbag68
(g89
g70
NtRp373
(dp374
g73
(dp375
sg82
g360
sg75
(lp376
g68
(g69
g70
NtRp377
(dp378
g73
(dp379
g81
I3
ssg82
g373
sg75
(lp380
S''
asbasbasbag68
(g84
g70
NtRp381
(dp382
g73
(dp383
sg82
g293
sg75
(lp384
g68
(g89
g70
NtRp385
(dp386
g73
(dp387
g93
g94
ssg82
g381
sg75
(lp388
S'max-age'
p389
asbag68
(g89
g70
NtRp390
(dp391
g73
(dp392
g100
g101
ssg82
g381
sg75
(lp393
S':'
asbag68
(g89
g70
NtRp394
(dp395
g73
(dp396
sg82
g381
sg75
(lp397
g68
(g69
g70
NtRp398
(dp399
g73
(dp400
g81
I3
ssg82
g394
sg75
(lp401
S''
asbasbasbag68
(g84
g70
NtRp402
(dp403
g73
(dp404
sg82
g293
sg75
(lp405
g68
(g89
g70
NtRp406
(dp407
g73
(dp408
g93
g94
ssg82
g402
sg75
(lp409
S'path'
p410
asbag68
(g89
g70
NtRp411
(dp412
g73
(dp413
g100
g101
ssg82
g402
sg75
(lp414
S':'
asbag68
(g89
g70
NtRp415
(dp416
g73
(dp417
sg82
g402
sg75
(lp418
g68
(g69
g70
NtRp419
(dp420
g73
(dp421
g81
I3
ssg82
g415
sg75
(lp422
S''
asbasbasbag68
(g84
g70
NtRp423
(dp424
g73
(dp425
sg82
g293
sg75
(lp426
g68
(g89
g70
NtRp427
(dp428
g73
(dp429
g93
g94
ssg82
g423
sg75
(lp430
S'secure'
p431
asbag68
(g89
g70
NtRp432
(dp433
g73
(dp434
g100
g101
ssg82
g423
sg75
(lp435
S':'
asbag68
(g89
g70
NtRp436
(dp437
g73
(dp438
sg82
g423
sg75
(lp439
g68
(g69
g70
NtRp440
(dp441
g73
(dp442
g81
I3
ssg82
g436
sg75
(lp443
S''
asbasbasbag68
(g84
g70
NtRp444
(dp445
g73
(dp446
sg82
g293
sg75
(lp447
g68
(g89
g70
NtRp448
(dp449
g73
(dp450
g93
g94
ssg82
g444
sg75
(lp451
S'version'
p452
asbag68
(g89
g70
NtRp453
(dp454
g73
(dp455
g100
g101
ssg82
g444
sg75
(lp456
S':'
asbag68
(g89
g70
NtRp457
(dp458
g73
(dp459
sg82
g444
sg75
(lp460
g68
(g69
g70
NtRp461
(dp462
g73
(dp463
g81
I3
ssg82
g457
sg75
(lp464
S''
asbasbasbasbasbasbasbag68
(g84
g70
NtRp465
(dp466
g73
(dp467
sg82
g267
sg75
(lp468
g68
(g89
g70
NtRp469
(dp470
g73
(dp471
g93
g94
ssg82
g465
sg75
(lp472
S'session_id_manager'
p473
asbag68
(g89
g70
NtRp474
(dp475
g73
(dp476
g100
g101
ssg82
g465
sg75
(lp477
S':'
asbag68
(g89
g70
NtRp478
(dp479
g73
(dp480
sg82
g465
sg75
(lp481
g68
(g69
g70
NtRp482
(dp483
g73
(dp484
g81
I4
ssg82
g478
sg75
(lp485
S'127.0.0.1-6f272149-6c92-44cc-85ba-c8ea1e4f1e04'
p486
ag68
(g77
g70
NtRp487
(dp488
g73
(dp489
g81
I3
ssg82
Nsg75
(lp490
g68
(g84
g70
NtRp491
(dp492
g73
(dp493
sg82
g487
sg75
(lp494
g68
(g89
g70
NtRp495
(dp496
g73
(dp497
g93
g94
ssg82
g491
sg75
(lp498
g305
asbag68
(g89
g70
NtRp499
(dp500
g73
(dp501
g100
g101
ssg82
g491
sg75
(lp502
S':'
asbag68
(g89
g70
NtRp503
(dp504
g73
(dp505
sg82
g491
sg75
(lp506
g68
(g69
g70
NtRp507
(dp508
g73
(dp509
g81
I3
ssg82
g503
sg75
(lp510
S''
asbasbasbag68
(g84
g70
NtRp511
(dp512
g73
(dp513
sg82
g487
sg75
(lp514
g68
(g89
g70
NtRp515
(dp516
g73
(dp517
g93
g94
ssg82
g511
sg75
(lp518
g326
asbag68
(g89
g70
NtRp519
(dp520
g73
(dp521
g100
g101
ssg82
g511
sg75
(lp522
S':'
asbag68
(g89
g70
NtRp523
(dp524
g73
(dp525
sg82
g511
sg75
(lp526
g68
(g69
g70
NtRp527
(dp528
g73
(dp529
g81
I3
ssg82
g523
sg75
(lp530
S''
asbasbasbag68
(g84
g70
NtRp531
(dp532
g73
(dp533
sg82
g487
sg75
(lp534
g68
(g89
g70
NtRp535
(dp536
g73
(dp537
g93
g94
ssg82
g531
sg75
(lp538
g347
asbag68
(g89
g70
NtRp539
(dp540
g73
(dp541
g100
g101
ssg82
g531
sg75
(lp542
S':'
asbag68
(g89
g70
NtRp543
(dp544
g73
(dp545
sg82
g531
sg75
(lp546
g68
(g69
g70
NtRp547
(dp548
g73
(dp549
g81
I3
ssg82
g543
sg75
(lp550
S''
asbasbasbag68
(g84
g70
NtRp551
(dp552
g73
(dp553
sg82
g487
sg75
(lp554
g68
(g89
g70
NtRp555
(dp556
g73
(dp557
g93
g94
ssg82
g551
sg75
(lp558
g368
asbag68
(g89
g70
NtRp559
(dp560
g73
(dp561
g100
g101
ssg82
g551
sg75
(lp562
S':'
asbag68
(g89
g70
NtRp563
(dp564
g73
(dp565
sg82
g551
sg75
(lp566
g68
(g69
g70
NtRp567
(dp568
g73
(dp569
g81
I3
ssg82
g563
sg75
(lp570
S''
asbasbasbag68
(g84
g70
NtRp571
(dp572
g73
(dp573
sg82
g487
sg75
(lp574
g68
(g89
g70
NtRp575
(dp576
g73
(dp577
g93
g94
ssg82
g571
sg75
(lp578
g389
asbag68
(g89
g70
NtRp579
(dp580
g73
(dp581
g100
g101
ssg82
g571
sg75
(lp582
S':'
asbag68
(g89
g70
NtRp583
(dp584
g73
(dp585
sg82
g571
sg75
(lp586
g68
(g69
g70
NtRp587
(dp588
g73
(dp589
g81
I3
ssg82
g583
sg75
(lp590
S''
asbasbasbag68
(g84
g70
NtRp591
(dp592
g73
(dp593
sg82
g487
sg75
(lp594
g68
(g89
g70
NtRp595
(dp596
g73
(dp597
g93
g94
ssg82
g591
sg75
(lp598
g410
asbag68
(g89
g70
NtRp599
(dp600
g73
(dp601
g100
g101
ssg82
g591
sg75
(lp602
S':'
asbag68
(g89
g70
NtRp603
(dp604
g73
(dp605
sg82
g591
sg75
(lp606
g68
(g69
g70
NtRp607
(dp608
g73
(dp609
g81
I3
ssg82
g603
sg75
(lp610
S''
asbasbasbag68
(g84
g70
NtRp611
(dp612
g73
(dp613
sg82
g487
sg75
(lp614
g68
(g89
g70
NtRp615
(dp616
g73
(dp617
g93
g94
ssg82
g611
sg75
(lp618
g431
asbag68
(g89
g70
NtRp619
(dp620
g73
(dp621
g100
g101
ssg82
g611
sg75
(lp622
S':'
asbag68
(g89
g70
NtRp623
(dp624
g73
(dp625
sg82
g611
sg75
(lp626
g68
(g69
g70
NtRp627
(dp628
g73
(dp629
g81
I3
ssg82
g623
sg75
(lp630
S''
asbasbasbag68
(g84
g70
NtRp631
(dp632
g73
(dp633
sg82
g487
sg75
(lp634
g68
(g89
g70
NtRp635
(dp636
g73
(dp637
g93
g94
ssg82
g631
sg75
(lp638
g452
asbag68
(g89
g70
NtRp639
(dp640
g73
(dp641
g100
g101
ssg82
g631
sg75
(lp642
S':'
asbag68
(g89
g70
NtRp643
(dp644
g73
(dp645
sg82
g631
sg75
(lp646
g68
(g69
g70
NtRp647
(dp648
g73
(dp649
g81
I3
ssg82
g643
sg75
(lp650
S''
asbasbasbasbasbasbasbag68
(g84
g70
NtRp651
(dp652
g73
(dp653
sg82
g267
sg75
(lp654
g68
(g89
g70
NtRp655
(dp656
g73
(dp657
g93
g94
ssg82
g651
sg75
(lp658
S'session_id_welcome'
p659
asbag68
(g89
g70
NtRp660
(dp661
g73
(dp662
g100
g101
ssg82
g651
sg75
(lp663
S':'
asbag68
(g89
g70
NtRp664
(dp665
g73
(dp666
sg82
g651
sg75
(lp667
g68
(g69
g70
NtRp668
(dp669
g73
(dp670
g81
I4
ssg82
g664
sg75
(lp671
S'127.0.0.1-41848e09-37fe-4fe9-b4ff-4803b97c2ae3'
p672
ag68
(g77
g70
NtRp673
(dp674
g73
(dp675
g81
I3
ssg82
Nsg75
(lp676
g68
(g84
g70
NtRp677
(dp678
g73
(dp679
sg82
g673
sg75
(lp680
g68
(g89
g70
NtRp681
(dp682
g73
(dp683
g93
g94
ssg82
g677
sg75
(lp684
g305
asbag68
(g89
g70
NtRp685
(dp686
g73
(dp687
g100
g101
ssg82
g677
sg75
(lp688
S':'
asbag68
(g89
g70
NtRp689
(dp690
g73
(dp691
sg82
g677
sg75
(lp692
g68
(g69
g70
NtRp693
(dp694
g73
(dp695
g81
I3
ssg82
g689
sg75
(lp696
S''
asbasbasbag68
(g84
g70
NtRp697
(dp698
g73
(dp699
sg82
g673
sg75
(lp700
g68
(g89
g70
NtRp701
(dp702
g73
(dp703
g93
g94
ssg82
g697
sg75
(lp704
g326
asbag68
(g89
g70
NtRp705
(dp706
g73
(dp707
g100
g101
ssg82
g697
sg75
(lp708
S':'
asbag68
(g89
g70
NtRp709
(dp710
g73
(dp711
sg82
g697
sg75
(lp712
g68
(g69
g70
NtRp713
(dp714
g73
(dp715
g81
I3
ssg82
g709
sg75
(lp716
S''
asbasbasbag68
(g84
g70
NtRp717
(dp718
g73
(dp719
sg82
g673
sg75
(lp720
g68
(g89
g70
NtRp721
(dp722
g73
(dp723
g93
g94
ssg82
g717
sg75
(lp724
g347
asbag68
(g89
g70
NtRp725
(dp726
g73
(dp727
g100
g101
ssg82
g717
sg75
(lp728
S':'
asbag68
(g89
g70
NtRp729
(dp730
g73
(dp731
sg82
g717
sg75
(lp732
g68
(g69
g70
NtRp733
(dp734
g73
(dp735
g81
I3
ssg82
g729
sg75
(lp736
S''
asbasbasbag68
(g84
g70
NtRp737
(dp738
g73
(dp739
sg82
g673
sg75
(lp740
g68
(g89
g70
NtRp741
(dp742
g73
(dp743
g93
g94
ssg82
g737
sg75
(lp744
g368
asbag68
(g89
g70
NtRp745
(dp746
g73
(dp747
g100
g101
ssg82
g737
sg75
(lp748
S':'
asbag68
(g89
g70
NtRp749
(dp750
g73
(dp751
sg82
g737
sg75
(lp752
g68
(g69
g70
NtRp753
(dp754
g73
(dp755
g81
I3
ssg82
g749
sg75
(lp756
S''
asbasbasbag68
(g84
g70
NtRp757
(dp758
g73
(dp759
sg82
g673
sg75
(lp760
g68
(g89
g70
NtRp761
(dp762
g73
(dp763
g93
g94
ssg82
g757
sg75
(lp764
g389
asbag68
(g89
g70
NtRp765
(dp766
g73
(dp767
g100
g101
ssg82
g757
sg75
(lp768
S':'
asbag68
(g89
g70
NtRp769
(dp770
g73
(dp771
sg82
g757
sg75
(lp772
g68
(g69
g70
NtRp773
(dp774
g73
(dp775
g81
I3
ssg82
g769
sg75
(lp776
S''
asbasbasbag68
(g84
g70
NtRp777
(dp778
g73
(dp779
sg82
g673
sg75
(lp780
g68
(g89
g70
NtRp781
(dp782
g73
(dp783
g93
g94
ssg82
g777
sg75
(lp784
g410
asbag68
(g89
g70
NtRp785
(dp786
g73
(dp787
g100
g101
ssg82
g777
sg75
(lp788
S':'
asbag68
(g89
g70
NtRp789
(dp790
g73
(dp791
sg82
g777
sg75
(lp792
g68
(g69
g70
NtRp793
(dp794
g73
(dp795
g81
I3
ssg82
g789
sg75
(lp796
S''
asbasbasbag68
(g84
g70
NtRp797
(dp798
g73
(dp799
sg82
g673
sg75
(lp800
g68
(g89
g70
NtRp801
(dp802
g73
(dp803
g93
g94
ssg82
g797
sg75
(lp804
g431
asbag68
(g89
g70
NtRp805
(dp806
g73
(dp807
g100
g101
ssg82
g797
sg75
(lp808
S':'
asbag68
(g89
g70
NtRp809
(dp810
g73
(dp811
sg82
g797
sg75
(lp812
g68
(g69
g70
NtRp813
(dp814
g73
(dp815
g81
I3
ssg82
g809
sg75
(lp816
S''
asbasbasbag68
(g84
g70
NtRp817
(dp818
g73
(dp819
sg82
g673
sg75
(lp820
g68
(g89
g70
NtRp821
(dp822
g73
(dp823
g93
g94
ssg82
g817
sg75
(lp824
g452
asbag68
(g89
g70
NtRp825
(dp826
g73
(dp827
g100
g101
ssg82
g817
sg75
(lp828
S':'
asbag68
(g89
g70
NtRp829
(dp830
g73
(dp831
sg82
g817
sg75
(lp832
g68
(g69
g70
NtRp833
(dp834
g73
(dp835
g81
I3
ssg82
g829
sg75
(lp836
S''
asbasbasbasbasbasbasbasbasbasbasbag68
(g84
g70
NtRp837
(dp838
g73
(dp839
sg82
g78
sg75
(lp840
g68
(g89
g70
NtRp841
(dp842
g73
(dp843
g93
g94
ssg82
g837
sg75
(lp844
S'env'
p845
asbag68
(g89
g70
NtRp846
(dp847
g73
(dp848
g100
g101
ssg82
g837
sg75
(lp849
S':'
asbag68
(g89
g70
NtRp850
(dp851
g73
(dp852
sg82
g837
sg75
(lp853
g68
(g69
g70
NtRp854
(dp855
g73
(dp856
g81
I5
ssg82
g850
sg75
(lp857
g68
(g77
g70
NtRp858
(dp859
g73
(dp860
g81
I4
ssg82
Nsg75
(lp861
g68
(g84
g70
NtRp862
(dp863
g73
(dp864
sg82
g858
sg75
(lp865
g68
(g89
g70
NtRp866
(dp867
g73
(dp868
g93
g94
ssg82
g862
sg75
(lp869
S'app_folders'
p870
asbag68
(g89
g70
NtRp871
(dp872
g73
(dp873
g100
g101
ssg82
g862
sg75
(lp874
S':'
asbag68
(g89
g70
NtRp875
(dp876
g73
(dp877
sg82
g862
sg75
(lp878
g68
(g69
g70
NtRp879
(dp880
g73
(dp881
g81
I4
ssg82
g875
sg75
(lp882
S"set(['/home/madhuri/Downloads/web2py/applications/admin/', '/home/madhuri/Downloads/web2py/applications/manager/', '/home/madhuri/Downloads/web2py/applications/welcome/'])"
p883
asbasbasbag68
(g84
g70
NtRp884
(dp885
g73
(dp886
sg82
g858
sg75
(lp887
g68
(g89
g70
NtRp888
(dp889
g73
(dp890
g93
g94
ssg82
g884
sg75
(lp891
S'applications_parent'
p892
asbag68
(g89
g70
NtRp893
(dp894
g73
(dp895
g100
g101
ssg82
g884
sg75
(lp896
S':'
asbag68
(g89
g70
NtRp897
(dp898
g73
(dp899
sg82
g884
sg75
(lp900
g68
(g69
g70
NtRp901
(dp902
g73
(dp903
g81
I4
ssg82
g897
sg75
(lp904
S'/home/madhuri/Downloads/web2py'
p905
asbasbasbag68
(g84
g70
NtRp906
(dp907
g73
(dp908
sg82
g858
sg75
(lp909
g68
(g89
g70
NtRp910
(dp911
g73
(dp912
g93
g94
ssg82
g906
sg75
(lp913
S'cmd_args'
p914
asbag68
(g89
g70
NtRp915
(dp916
g73
(dp917
g100
g101
ssg82
g906
sg75
(lp918
S':'
asbag68
(g89
g70
NtRp919
(dp920
g73
(dp921
sg82
g906
sg75
(lp922
g68
(g69
g70
NtRp923
(dp924
g73
(dp925
g81
I4
ssg82
g919
sg75
(lp926
g68
(g77
g70
NtRp927
(dp928
g73
(dp929
g81
I3
ssg82
Nsg75
(lp930
sbasbasbasbag68
(g84
g70
NtRp931
(dp932
g73
(dp933
sg82
g858
sg75
(lp934
g68
(g89
g70
NtRp935
(dp936
g73
(dp937
g93
g94
ssg82
g931
sg75
(lp938
S'cmd_options'
p939
asbag68
(g89
g70
NtRp940
(dp941
g73
(dp942
g100
g101
ssg82
g931
sg75
(lp943
S':'
asbag68
(g89
g70
NtRp944
(dp945
g73
(dp946
sg82
g931
sg75
(lp947
g68
(g69
g70
NtRp948
(dp949
g73
(dp950
g81
I4
ssg82
g944
sg75
(lp951
S"<Values at 0x190b8c0: {'verbose': False, 'ip': '127.0.0.1', 'with_scheduler': False, 'ips': ['127.0.1.1'], 'shutdown_timeout': 5, 'taskbar': False, 'port': 8000, 'maxthreads': None, 'softcron': False, 'server_name': 'ubuntu', 'bpython': False, 'nogui': False, 'nocron': False, 'extcron': False, 'run_system_tests': False, 'test': None, 'folder': '/home/madhuri/Downloads/web2py', 'config': '', 'import_models': False, 'winservice': '', 'shell': None, 'run': '', 'log_filename': 'httpserver.log', 'debuglevel': 30, 'args': [''], 'socket_timeout': 5, 'ssl_ca_certificate': None, 'scheduler': None, 'profiler_filename': None, 'ssl_private_key': '', 'scheduler_groups': None, 'password': '1', 'request_queue_size': 5, 'ssl_certificate': '', 'cronjob': False, 'numthreads': None, 'quiet': False, 'interfaces': None, 'minthreads': None, 'timeout': 10, 'plain': False, 'nobanner': False, 'pid_filename': 'httpserver.pid'}>"
p952
asbasbasbag68
(g84
g70
NtRp953
(dp954
g73
(dp955
sg82
g858
sg75
(lp956
g68
(g89
g70
NtRp957
(dp958
g73
(dp959
g93
g94
ssg82
g953
sg75
(lp960
S'db_sessions'
p961
asbag68
(g89
g70
NtRp962
(dp963
g73
(dp964
g100
g101
ssg82
g953
sg75
(lp965
S':'
asbag68
(g89
g70
NtRp966
(dp967
g73
(dp968
sg82
g953
sg75
(lp969
g68
(g69
g70
NtRp970
(dp971
g73
(dp972
g81
I4
ssg82
g966
sg75
(lp973
S'set([])'
p974
asbasbasbag68
(g84
g70
NtRp975
(dp976
g73
(dp977
sg82
g858
sg75
(lp978
g68
(g89
g70
NtRp979
(dp980
g73
(dp981
g93
g94
ssg82
g975
sg75
(lp982
S'debugging'
p983
asbag68
(g89
g70
NtRp984
(dp985
g73
(dp986
g100
g101
ssg82
g975
sg75
(lp987
S':'
asbag68
(g89
g70
NtRp988
(dp989
g73
(dp990
sg82
g975
sg75
(lp991
g68
(g69
g70
NtRp992
(dp993
g73
(dp994
g81
I4
ssg82
g988
sg75
(lp995
g111
asbasbasbag68
(g84
g70
NtRp996
(dp997
g73
(dp998
sg82
g858
sg75
(lp999
g68
(g89
g70
NtRp1000
(dp1001
g73
(dp1002
g93
g94
ssg82
g996
sg75
(lp1003
S'gluon_parent'
p1004
asbag68
(g89
g70
NtRp1005
(dp1006
g73
(dp1007
g100
g101
ssg82
g996
sg75
(lp1008
S':'
asbag68
(g89
g70
NtRp1009
(dp1010
g73
(dp1011
sg82
g996
sg75
(lp1012
g68
(g69
g70
NtRp1013
(dp1014
g73
(dp1015
g81
I4
ssg82
g1009
sg75
(lp1016
S'/home/madhuri/Downloads/web2py'
p1017
asbasbasbag68
(g84
g70
NtRp1018
(dp1019
g73
(dp1020
sg82
g858
sg75
(lp1021
g68
(g89
g70
NtRp1022
(dp1023
g73
(dp1024
g93
g94
ssg82
g1018
sg75
(lp1025
S'http_accept'
p1026
asbag68
(g89
g70
NtRp1027
(dp1028
g73
(dp1029
g100
g101
ssg82
g1018
sg75
(lp1030
S':'
asbag68
(g89
g70
NtRp1031
(dp1032
g73
(dp1033
sg82
g1018
sg75
(lp1034
g68
(g69
g70
NtRp1035
(dp1036
g73
(dp1037
g81
I4
ssg82
g1031
sg75
(lp1038
S'text/html,application/xhtml+xml,application/xml;q=0.9,*/*;q=0.8'
p1039
asbasbasbag68
(g84
g70
NtRp1040
(dp1041
g73
(dp1042
sg82
g858
sg75
(lp1043
g68
(g89
g70
NtRp1044
(dp1045
g73
(dp1046
g93
g94
ssg82
g1040
sg75
(lp1047
S'http_accept_encoding'
p1048
asbag68
(g89
g70
NtRp1049
(dp1050
g73
(dp1051
g100
g101
ssg82
g1040
sg75
(lp1052
S':'
asbag68
(g89
g70
NtRp1053
(dp1054
g73
(dp1055
sg82
g1040
sg75
(lp1056
g68
(g69
g70
NtRp1057
(dp1058
g73
(dp1059
g81
I4
ssg82
g1053
sg75
(lp1060
S'gzip, deflate'
p1061
asbasbasbag68
(g84
g70
NtRp1062
(dp1063
g73
(dp1064
sg82
g858
sg75
(lp1065
g68
(g89
g70
NtRp1066
(dp1067
g73
(dp1068
g93
g94
ssg82
g1062
sg75
(lp1069
S'http_accept_language'
p1070
asbag68
(g89
g70
NtRp1071
(dp1072
g73
(dp1073
g100
g101
ssg82
g1062
sg75
(lp1074
S':'
asbag68
(g89
g70
NtRp1075
(dp1076
g73
(dp1077
sg82
g1062
sg75
(lp1078
g68
(g69
g70
NtRp1079
(dp1080
g73
(dp1081
g81
I4
ssg82
g1075
sg75
(lp1082
S'en-us,en;q=0.5'
p1083
asbasbasbag68
(g84
g70
NtRp1084
(dp1085
g73
(dp1086
sg82
g858
sg75
(lp1087
g68
(g89
g70
NtRp1088
(dp1089
g73
(dp1090
g93
g94
ssg82
g1084
sg75
(lp1091
S'http_connection'
p1092
asbag68
(g89
g70
NtRp1093
(dp1094
g73
(dp1095
g100
g101
ssg82
g1084
sg75
(lp1096
S':'
asbag68
(g89
g70
NtRp1097
(dp1098
g73
(dp1099
sg82
g1084
sg75
(lp1100
g68
(g69
g70
NtRp1101
(dp1102
g73
(dp1103
g81
I4
ssg82
g1097
sg75
(lp1104
S'keep-alive'
p1105
asbasbasbag68
(g84
g70
NtRp1106
(dp1107
g73
(dp1108
sg82
g858
sg75
(lp1109
g68
(g89
g70
NtRp1110
(dp1111
g73
(dp1112
g93
g94
ssg82
g1106
sg75
(lp1113
S'http_cookie'
p1114
asbag68
(g89
g70
NtRp1115
(dp1116
g73
(dp1117
g100
g101
ssg82
g1106
sg75
(lp1118
S':'
asbag68
(g89
g70
NtRp1119
(dp1120
g73
(dp1121
sg82
g1106
sg75
(lp1122
g68
(g69
g70
NtRp1123
(dp1124
g73
(dp1125
g81
I4
ssg82
g1119
sg75
(lp1126
S'session_id_welcome=127.0.0.1-41848e09-37fe-4fe9-b4ff-4803b97c2ae3; session_id_admin=127.0.0.1-5397ac8a-431d-4526-b620-53d2814c64d9; session_id_manager=127.0.0.1-6f272149-6c92-44cc-85ba-c8ea1e4f1e04'
p1127
asbasbasbag68
(g84
g70
NtRp1128
(dp1129
g73
(dp1130
sg82
g858
sg75
(lp1131
g68
(g89
g70
NtRp1132
(dp1133
g73
(dp1134
g93
g94
ssg82
g1128
sg75
(lp1135
S'http_host'
p1136
asbag68
(g89
g70
NtRp1137
(dp1138
g73
(dp1139
g100
g101
ssg82
g1128
sg75
(lp1140
S':'
asbag68
(g89
g70
NtRp1141
(dp1142
g73
(dp1143
sg82
g1128
sg75
(lp1144
g68
(g69
g70
NtRp1145
(dp1146
g73
(dp1147
g81
I4
ssg82
g1141
sg75
(lp1148
S'127.0.0.1:8000'
p1149
asbasbasbag68
(g84
g70
NtRp1150
(dp1151
g73
(dp1152
sg82
g858
sg75
(lp1153
g68
(g89
g70
NtRp1154
(dp1155
g73
(dp1156
g93
g94
ssg82
g1150
sg75
(lp1157
S'http_referer'
p1158
asbag68
(g89
g70
NtRp1159
(dp1160
g73
(dp1161
g100
g101
ssg82
g1150
sg75
(lp1162
S':'
asbag68
(g89
g70
NtRp1163
(dp1164
g73
(dp1165
sg82
g1150
sg75
(lp1166
g68
(g69
g70
NtRp1167
(dp1168
g73
(dp1169
g81
I4
ssg82
g1163
sg75
(lp1170
S'http://127.0.0.1:8000/admin/default/design/manager'
p1171
asbasbasbag68
(g84
g70
NtRp1172
(dp1173
g73
(dp1174
sg82
g858
sg75
(lp1175
g68
(g89
g70
NtRp1176
(dp1177
g73
(dp1178
g93
g94
ssg82
g1172
sg75
(lp1179
S'http_user_agent'
p1180
asbag68
(g89
g70
NtRp1181
(dp1182
g73
(dp1183
g100
g101
ssg82
g1172
sg75
(lp1184
S':'
asbag68
(g89
g70
NtRp1185
(dp1186
g73
(dp1187
sg82
g1172
sg75
(lp1188
g68
(g69
g70
NtRp1189
(dp1190
g73
(dp1191
g81
I4
ssg82
g1185
sg75
(lp1192
S'Mozilla/5.0 (X11; Ubuntu; Linux x86_64; rv:14.0) Gecko/20100101 Firefox/14.0.1'
p1193
asbasbasbag68
(g84
g70
NtRp1194
(dp1195
g73
(dp1196
sg82
g858
sg75
(lp1197
g68
(g89
g70
NtRp1198
(dp1199
g73
(dp1200
g93
g94
ssg82
g1194
sg75
(lp1201
S'is_jython'
p1202
asbag68
(g89
g70
NtRp1203
(dp1204
g73
(dp1205
g100
g101
ssg82
g1194
sg75
(lp1206
S':'
asbag68
(g89
g70
NtRp1207
(dp1208
g73
(dp1209
sg82
g1194
sg75
(lp1210
g68
(g69
g70
NtRp1211
(dp1212
g73
(dp1213
g81
I4
ssg82
g1207
sg75
(lp1214
g111
asbasbasbag68
(g84
g70
NtRp1215
(dp1216
g73
(dp1217
sg82
g858
sg75
(lp1218
g68
(g89
g70
NtRp1219
(dp1220
g73
(dp1221
g93
g94
ssg82
g1215
sg75
(lp1222
S'is_pypy'
p1223
asbag68
(g89
g70
NtRp1224
(dp1225
g73
(dp1226
g100
g101
ssg82
g1215
sg75
(lp1227
S':'
asbag68
(g89
g70
NtRp1228
(dp1229
g73
(dp1230
sg82
g1215
sg75
(lp1231
g68
(g69
g70
NtRp1232
(dp1233
g73
(dp1234
g81
I4
ssg82
g1228
sg75
(lp1235
g111
asbasbasbag68
(g84
g70
NtRp1236
(dp1237
g73
(dp1238
sg82
g858
sg75
(lp1239
g68
(g89
g70
NtRp1240
(dp1241
g73
(dp1242
g93
g94
ssg82
g1236
sg75
(lp1243
S'path_info'
p1244
asbag68
(g89
g70
NtRp1245
(dp1246
g73
(dp1247
g100
g101
ssg82
g1236
sg75
(lp1248
S':'
asbag68
(g89
g70
NtRp1249
(dp1250
g73
(dp1251
sg82
g1236
sg75
(lp1252
g68
(g69
g70
NtRp1253
(dp1254
g73
(dp1255
g81
I4
ssg82
g1249
sg75
(lp1256
S'/manager/default/index'
p1257
asbasbasbag68
(g84
g70
NtRp1258
(dp1259
g73
(dp1260
sg82
g858
sg75
(lp1261
g68
(g89
g70
NtRp1262
(dp1263
g73
(dp1264
g93
g94
ssg82
g1258
sg75
(lp1265
S'query_string'
p1266
asbag68
(g89
g70
NtRp1267
(dp1268
g73
(dp1269
g100
g101
ssg82
g1258
sg75
(lp1270
S':'
asbag68
(g89
g70
NtRp1271
(dp1272
g73
(dp1273
sg82
g1258
sg75
(lp1274
g68
(g69
g70
NtRp1275
(dp1276
g73
(dp1277
g81
I4
ssg82
g1271
sg75
(lp1278
S''
asbasbasbag68
(g84
g70
NtRp1279
(dp1280
g73
(dp1281
sg82
g858
sg75
(lp1282
g68
(g89
g70
NtRp1283
(dp1284
g73
(dp1285
g93
g94
ssg82
g1279
sg75
(lp1286
S'remote_addr'
p1287
asbag68
(g89
g70
NtRp1288
(dp1289
g73
(dp1290
g100
g101
ssg82
g1279
sg75
(lp1291
S':'
asbag68
(g89
g70
NtRp1292
(dp1293
g73
(dp1294
sg82
g1279
sg75
(lp1295
g68
(g69
g70
NtRp1296
(dp1297
g73
(dp1298
g81
I4
ssg82
g1292
sg75
(lp1299
g223
asbasbasbag68
(g84
g70
NtRp1300
(dp1301
g73
(dp1302
sg82
g858
sg75
(lp1303
g68
(g89
g70
NtRp1304
(dp1305
g73
(dp1306
g93
g94
ssg82
g1300
sg75
(lp1307
S'remote_port'
p1308
asbag68
(g89
g70
NtRp1309
(dp1310
g73
(dp1311
g100
g101
ssg82
g1300
sg75
(lp1312
S':'
asbag68
(g89
g70
NtRp1313
(dp1314
g73
(dp1315
sg82
g1300
sg75
(lp1316
g68
(g69
g70
NtRp1317
(dp1318
g73
(dp1319
g81
I4
ssg82
g1313
sg75
(lp1320
S'48019'
p1321
asbasbasbag68
(g84
g70
NtRp1322
(dp1323
g73
(dp1324
sg82
g858
sg75
(lp1325
g68
(g89
g70
NtRp1326
(dp1327
g73
(dp1328
g93
g94
ssg82
g1322
sg75
(lp1329
S'request_method'
p1330
asbag68
(g89
g70
NtRp1331
(dp1332
g73
(dp1333
g100
g101
ssg82
g1322
sg75
(lp1334
S':'
asbag68
(g89
g70
NtRp1335
(dp1336
g73
(dp1337
sg82
g1322
sg75
(lp1338
g68
(g69
g70
NtRp1339
(dp1340
g73
(dp1341
g81
I4
ssg82
g1335
sg75
(lp1342
S'GET'
p1343
asbasbasbag68
(g84
g70
NtRp1344
(dp1345
g73
(dp1346
sg82
g858
sg75
(lp1347
g68
(g89
g70
NtRp1348
(dp1349
g73
(dp1350
g93
g94
ssg82
g1344
sg75
(lp1351
S'request_uri'
p1352
asbag68
(g89
g70
NtRp1353
(dp1354
g73
(dp1355
g100
g101
ssg82
g1344
sg75
(lp1356
S':'
asbag68
(g89
g70
NtRp1357
(dp1358
g73
(dp1359
sg82
g1344
sg75
(lp1360
g68
(g69
g70
NtRp1361
(dp1362
g73
(dp1363
g81
I4
ssg82
g1357
sg75
(lp1364
g1257
asbasbasbag68
(g84
g70
NtRp1365
(dp1366
g73
(dp1367
sg82
g858
sg75
(lp1368
g68
(g89
g70
NtRp1369
(dp1370
g73
(dp1371
g93
g94
ssg82
g1365
sg75
(lp1372
S'script_name'
p1373
asbag68
(g89
g70
NtRp1374
(dp1375
g73
(dp1376
g100
g101
ssg82
g1365
sg75
(lp1377
S':'
asbag68
(g89
g70
NtRp1378
(dp1379
g73
(dp1380
sg82
g1365
sg75
(lp1381
g68
(g69
g70
NtRp1382
(dp1383
g73
(dp1384
g81
I4
ssg82
g1378
sg75
(lp1385
S''
asbasbasbag68
(g84
g70
NtRp1386
(dp1387
g73
(dp1388
sg82
g858
sg75
(lp1389
g68
(g89
g70
NtRp1390
(dp1391
g73
(dp1392
g93
g94
ssg82
g1386
sg75
(lp1393
S'server_name'
p1394
asbag68
(g89
g70
NtRp1395
(dp1396
g73
(dp1397
g100
g101
ssg82
g1386
sg75
(lp1398
S':'
asbag68
(g89
g70
NtRp1399
(dp1400
g73
(dp1401
sg82
g1386
sg75
(lp1402
g68
(g69
g70
NtRp1403
(dp1404
g73
(dp1405
g81
I4
ssg82
g1399
sg75
(lp1406
S'ubuntu'
p1407
asbasbasbag68
(g84
g70
NtRp1408
(dp1409
g73
(dp1410
sg82
g858
sg75
(lp1411
g68
(g89
g70
NtRp1412
(dp1413
g73
(dp1414
g93
g94
ssg82
g1408
sg75
(lp1415
S'server_port'
p1416
asbag68
(g89
g70
NtRp1417
(dp1418
g73
(dp1419
g100
g101
ssg82
g1408
sg75
(lp1420
S':'
asbag68
(g89
g70
NtRp1421
(dp1422
g73
(dp1423
sg82
g1408
sg75
(lp1424
g68
(g69
g70
NtRp1425
(dp1426
g73
(dp1427
g81
I4
ssg82
g1421
sg75
(lp1428
S'8000'
p1429
asbasbasbag68
(g84
g70
NtRp1430
(dp1431
g73
(dp1432
sg82
g858
sg75
(lp1433
g68
(g89
g70
NtRp1434
(dp1435
g73
(dp1436
g93
g94
ssg82
g1430
sg75
(lp1437
S'server_protocol'
p1438
asbag68
(g89
g70
NtRp1439
(dp1440
g73
(dp1441
g100
g101
ssg82
g1430
sg75
(lp1442
S':'
asbag68
(g89
g70
NtRp1443
(dp1444
g73
(dp1445
sg82
g1430
sg75
(lp1446
g68
(g69
g70
NtRp1447
(dp1448
g73
(dp1449
g81
I4
ssg82
g1443
sg75
(lp1450
S'HTTP/1.1'
p1451
asbasbasbag68
(g84
g70
NtRp1452
(dp1453
g73
(dp1454
sg82
g858
sg75
(lp1455
g68
(g89
g70
NtRp1456
(dp1457
g73
(dp1458
g93
g94
ssg82
g1452
sg75
(lp1459
S'server_software'
p1460
asbag68
(g89
g70
NtRp1461
(dp1462
g73
(dp1463
g100
g101
ssg82
g1452
sg75
(lp1464
S':'
asbag68
(g89
g70
NtRp1465
(dp1466
g73
(dp1467
sg82
g1452
sg75
(lp1468
g68
(g69
g70
NtRp1469
(dp1470
g73
(dp1471
g81
I4
ssg82
g1465
sg75
(lp1472
S'Rocket 1.2.4'
p1473
asbasbasbag68
(g84
g70
NtRp1474
(dp1475
g73
(dp1476
sg82
g858
sg75
(lp1477
g68
(g89
g70
NtRp1478
(dp1479
g73
(dp1480
g93
g94
ssg82
g1474
sg75
(lp1481
S'web2py_crontype'
p1482
asbag68
(g89
g70
NtRp1483
(dp1484
g73
(dp1485
g100
g101
ssg82
g1474
sg75
(lp1486
S':'
asbag68
(g89
g70
NtRp1487
(dp1488
g73
(dp1489
sg82
g1474
sg75
(lp1490
g68
(g69
g70
NtRp1491
(dp1492
g73
(dp1493
g81
I4
ssg82
g1487
sg75
(lp1494
S'hard'
p1495
asbasbasbag68
(g84
g70
NtRp1496
(dp1497
g73
(dp1498
sg82
g858
sg75
(lp1499
g68
(g89
g70
NtRp1500
(dp1501
g73
(dp1502
g93
g94
ssg82
g1496
sg75
(lp1503
S'web2py_path'
p1504
asbag68
(g89
g70
NtRp1505
(dp1506
g73
(dp1507
g100
g101
ssg82
g1496
sg75
(lp1508
S':'
asbag68
(g89
g70
NtRp1509
(dp1510
g73
(dp1511
sg82
g1496
sg75
(lp1512
g68
(g69
g70
NtRp1513
(dp1514
g73
(dp1515
g81
I4
ssg82
g1509
sg75
(lp1516
g905
asbasbasbag68
(g84
g70
NtRp1517
(dp1518
g73
(dp1519
sg82
g858
sg75
(lp1520
g68
(g89
g70
NtRp1521
(dp1522
g73
(dp1523
g93
g94
ssg82
g1517
sg75
(lp1524
S'web2py_version'
p1525
asbag68
(g89
g70
NtRp1526
(dp1527
g73
(dp1528
g100
g101
ssg82
g1517
sg75
(lp1529
S':'
asbag68
(g89
g70
NtRp1530
(dp1531
g73
(dp1532
sg82
g1517
sg75
(lp1533
g68
(g69
g70
NtRp1534
(dp1535
g73
(dp1536
g81
I4
ssg82
g1530
sg75
(lp1537
g68
(g77
g70
NtRp1538
(dp1539
g73
(dp1540
g81
I3
ssg82
Nsg75
(lp1541
g68
(g84
g70
NtRp1542
(dp1543
g73
(dp1544
sg82
g1538
sg75
(lp1545
g68
(g89
g70
NtRp1546
(dp1547
g73
(dp1548
sg82
g1542
sg75
(lp1549
g68
(g69
g70
NtRp1550
(dp1551
g73
(dp1552
g81
I3
ssg82
g1546
sg75
(lp1553
S'2'
asbasbasbag68
(g84
g70
NtRp1554
(dp1555
g73
(dp1556
sg82
g1538
sg75
(lp1557
g68
(g89
g70
NtRp1558
(dp1559
g73
(dp1560
sg82
g1554
sg75
(lp1561
g68
(g69
g70
NtRp1562
(dp1563
g73
(dp1564
g81
I3
ssg82
g1558
sg75
(lp1565
S'0'
asbasbasbag68
(g84
g70
NtRp1566
(dp1567
g73
(dp1568
sg82
g1538
sg75
(lp1569
g68
(g89
g70
NtRp1570
(dp1571
g73
(dp1572
sg82
g1566
sg75
(lp1573
g68
(g69
g70
NtRp1574
(dp1575
g73
(dp1576
g81
I3
ssg82
g1570
sg75
(lp1577
S'9'
asbasbasbag68
(g84
g70
NtRp1578
(dp1579
g73
(dp1580
sg82
g1538
sg75
(lp1581
g68
(g89
g70
NtRp1582
(dp1583
g73
(dp1584
sg82
g1578
sg75
(lp1585
g68
(g69
g70
NtRp1586
(dp1587
g73
(dp1588
g81
I3
ssg82
g1582
sg75
(lp1589
S'datetime.datetime(2012, 9, 13, 23, 51, 30)'
p1590
asbasbasbag68
(g84
g70
NtRp1591
(dp1592
g73
(dp1593
sg82
g1538
sg75
(lp1594
g68
(g89
g70
NtRp1595
(dp1596
g73
(dp1597
sg82
g1591
sg75
(lp1598
g68
(g69
g70
NtRp1599
(dp1600
g73
(dp1601
g81
I3
ssg82
g1595
sg75
(lp1602
S'stable'
p1603
asbasbasbasbasbasbasbag68
(g84
g70
NtRp1604
(dp1605
g73
(dp1606
sg82
g858
sg75
(lp1607
g68
(g89
g70
NtRp1608
(dp1609
g73
(dp1610
g93
g94
ssg82
g1604
sg75
(lp1611
S'wsgi_errors'
p1612
asbag68
(g89
g70
NtRp1613
(dp1614
g73
(dp1615
g100
g101
ssg82
g1604
sg75
(lp1616
S':'
asbag68
(g89
g70
NtRp1617
(dp1618
g73
(dp1619
sg82
g1604
sg75
(lp1620
g68
(g69
g70
NtRp1621
(dp1622
g73
(dp1623
g81
I4
ssg82
g1617
sg75
(lp1624
S"<open file '<stderr>', mode 'w' at 0x7f1dd399e270>"
p1625
asbasbasbag68
(g84
g70
NtRp1626
(dp1627
g73
(dp1628
sg82
g858
sg75
(lp1629
g68
(g89
g70
NtRp1630
(dp1631
g73
(dp1632
g93
g94
ssg82
g1626
sg75
(lp1633
S'wsgi_file_wrapper'
p1634
asbag68
(g89
g70
NtRp1635
(dp1636
g73
(dp1637
g100
g101
ssg82
g1626
sg75
(lp1638
S':'
asbag68
(g89
g70
NtRp1639
(dp1640
g73
(dp1641
sg82
g1626
sg75
(lp1642
g68
(g69
g70
NtRp1643
(dp1644
g73
(dp1645
g81
I4
ssg82
g1639
sg75
(lp1646
S'<class wsgiref.util.FileWrapper at 0x1b5aa78>'
p1647
asbasbasbag68
(g84
g70
NtRp1648
(dp1649
g73
(dp1650
sg82
g858
sg75
(lp1651
g68
(g89
g70
NtRp1652
(dp1653
g73
(dp1654
g93
g94
ssg82
g1648
sg75
(lp1655
S'wsgi_input'
p1656
asbag68
(g89
g70
NtRp1657
(dp1658
g73
(dp1659
g100
g101
ssg82
g1648
sg75
(lp1660
S':'
asbag68
(g89
g70
NtRp1661
(dp1662
g73
(dp1663
sg82
g1648
sg75
(lp1664
g68
(g69
g70
NtRp1665
(dp1666
g73
(dp1667
g81
I4
ssg82
g1661
sg75
(lp1668
S'<socket._fileobject object at 0x7f1dc43ee850>'
p1669
asbasbasbag68
(g84
g70
NtRp1670
(dp1671
g73
(dp1672
sg82
g858
sg75
(lp1673
g68
(g89
g70
NtRp1674
(dp1675
g73
(dp1676
g93
g94
ssg82
g1670
sg75
(lp1677
S'wsgi_multiprocess'
p1678
asbag68
(g89
g70
NtRp1679
(dp1680
g73
(dp1681
g100
g101
ssg82
g1670
sg75
(lp1682
S':'
asbag68
(g89
g70
NtRp1683
(dp1684
g73
(dp1685
sg82
g1670
sg75
(lp1686
g68
(g69
g70
NtRp1687
(dp1688
g73
(dp1689
g81
I4
ssg82
g1683
sg75
(lp1690
g111
asbasbasbag68
(g84
g70
NtRp1691
(dp1692
g73
(dp1693
sg82
g858
sg75
(lp1694
g68
(g89
g70
NtRp1695
(dp1696
g73
(dp1697
g93
g94
ssg82
g1691
sg75
(lp1698
S'wsgi_multithread'
p1699
asbag68
(g89
g70
NtRp1700
(dp1701
g73
(dp1702
g100
g101
ssg82
g1691
sg75
(lp1703
S':'
asbag68
(g89
g70
NtRp1704
(dp1705
g73
(dp1706
sg82
g1691
sg75
(lp1707
g68
(g69
g70
NtRp1708
(dp1709
g73
(dp1710
g81
I4
ssg82
g1704
sg75
(lp1711
S'True'
p1712
asbasbasbag68
(g84
g70
NtRp1713
(dp1714
g73
(dp1715
sg82
g858
sg75
(lp1716
g68
(g89
g70
NtRp1717
(dp1718
g73
(dp1719
g93
g94
ssg82
g1713
sg75
(lp1720
S'wsgi_run_once'
p1721
asbag68
(g89
g70
NtRp1722
(dp1723
g73
(dp1724
g100
g101
ssg82
g1713
sg75
(lp1725
S':'
asbag68
(g89
g70
NtRp1726
(dp1727
g73
(dp1728
sg82
g1713
sg75
(lp1729
g68
(g69
g70
NtRp1730
(dp1731
g73
(dp1732
g81
I4
ssg82
g1726
sg75
(lp1733
g111
asbasbasbag68
(g84
g70
NtRp1734
(dp1735
g73
(dp1736
sg82
g858
sg75
(lp1737
g68
(g89
g70
NtRp1738
(dp1739
g73
(dp1740
g93
g94
ssg82
g1734
sg75
(lp1741
S'wsgi_url_scheme'
p1742
asbag68
(g89
g70
NtRp1743
(dp1744
g73
(dp1745
g100
g101
ssg82
g1734
sg75
(lp1746
S':'
asbag68
(g89
g70
NtRp1747
(dp1748
g73
(dp1749
sg82
g1734
sg75
(lp1750
g68
(g69
g70
NtRp1751
(dp1752
g73
(dp1753
g81
I4
ssg82
g1747
sg75
(lp1754
S'http'
p1755
asbasbasbag68
(g84
g70
NtRp1756
(dp1757
g73
(dp1758
sg82
g858
sg75
(lp1759
g68
(g89
g70
NtRp1760
(dp1761
g73
(dp1762
g93
g94
ssg82
g1756
sg75
(lp1763
S'wsgi_version'
p1764
asbag68
(g89
g70
NtRp1765
(dp1766
g73
(dp1767
g100
g101
ssg82
g1756
sg75
(lp1768
S':'
asbag68
(g89
g70
NtRp1769
(dp1770
g73
(dp1771
sg82
g1756
sg75
(lp1772
g68
(g69
g70
NtRp1773
(dp1774
g73
(dp1775
g81
I4
ssg82
g1769
sg75
(lp1776
g68
(g77
g70
NtRp1777
(dp1778
g73
(dp1779
g81
I3
ssg82
Nsg75
(lp1780
g68
(g84
g70
NtRp1781
(dp1782
g73
(dp1783
sg82
g1777
sg75
(lp1784
g68
(g89
g70
NtRp1785
(dp1786
g73
(dp1787
sg82
g1781
sg75
(lp1788
g68
(g69
g70
NtRp1789
(dp1790
g73
(dp1791
g81
I3
ssg82
g1785
sg75
(lp1792
S'1'
asbasbasbag68
(g84
g70
NtRp1793
(dp1794
g73
(dp1795
sg82
g1777
sg75
(lp1796
g68
(g89
g70
NtRp1797
(dp1798
g73
(dp1799
sg82
g1793
sg75
(lp1800
g68
(g69
g70
NtRp1801
(dp1802
g73
(dp1803
g81
I3
ssg82
g1797
sg75
(lp1804
S'0'
asbasbasbasbasbasbasbasbasbasbasbag68
(g84
g70
NtRp1805
(dp1806
g73
(dp1807
sg82
g78
sg75
(lp1808
g68
(g89
g70
NtRp1809
(dp1810
g73
(dp1811
g93
g94
ssg82
g1805
sg75
(lp1812
S'extension'
p1813
asbag68
(g89
g70
NtRp1814
(dp1815
g73
(dp1816
g100
g101
ssg82
g1805
sg75
(lp1817
S':'
asbag68
(g89
g70
NtRp1818
(dp1819
g73
(dp1820
sg82
g1805
sg75
(lp1821
g68
(g69
g70
NtRp1822
(dp1823
g73
(dp1824
g81
I5
ssg82
g1818
sg75
(lp1825
S'html'
p1826
asbasbasbag68
(g84
g70
NtRp1827
(dp1828
g73
(dp1829
sg82
g78
sg75
(lp1830
g68
(g89
g70
NtRp1831
(dp1832
g73
(dp1833
g93
g94
ssg82
g1827
sg75
(lp1834
S'folder'
p1835
asbag68
(g89
g70
NtRp1836
(dp1837
g73
(dp1838
g100
g101
ssg82
g1827
sg75
(lp1839
S':'
asbag68
(g89
g70
NtRp1840
(dp1841
g73
(dp1842
sg82
g1827
sg75
(lp1843
g68
(g69
g70
NtRp1844
(dp1845
g73
(dp1846
g81
I5
ssg82
g1840
sg75
(lp1847
S'/home/madhuri/Downloads/web2py/applications/manager/'
p1848
asbasbasbag68
(g84
g70
NtRp1849
(dp1850
g73
(dp1851
sg82
g78
sg75
(lp1852
g68
(g89
g70
NtRp1853
(dp1854
g73
(dp1855
g93
g94
ssg82
g1849
sg75
(lp1856
S'function'
p1857
asbag68
(g89
g70
NtRp1858
(dp1859
g73
(dp1860
g100
g101
ssg82
g1849
sg75
(lp1861
S':'
asbag68
(g89
g70
NtRp1862
(dp1863
g73
(dp1864
sg82
g1849
sg75
(lp1865
g68
(g69
g70
NtRp1866
(dp1867
g73
(dp1868
g81
I5
ssg82
g1862
sg75
(lp1869
S'index'
p1870
asbasbasbag68
(g84
g70
NtRp1871
(dp1872
g73
(dp1873
sg82
g78
sg75
(lp1874
g68
(g89
g70
NtRp1875
(dp1876
g73
(dp1877
g93
g94
ssg82
g1871
sg75
(lp1878
S'get_vars'
p1879
asbag68
(g89
g70
NtRp1880
(dp1881
g73
(dp1882
g100
g101
ssg82
g1871
sg75
(lp1883
S':'
asbag68
(g89
g70
NtRp1884
(dp1885
g73
(dp1886
sg82
g1871
sg75
(lp1887
g68
(g69
g70
NtRp1888
(dp1889
g73
(dp1890
g81
I5
ssg82
g1884
sg75
(lp1891
g68
(g77
g70
NtRp1892
(dp1893
g73
(dp1894
g81
I4
ssg82
Nsg75
(lp1895
sbasbasbasbag68
(g84
g70
NtRp1896
(dp1897
g73
(dp1898
sg82
g78
sg75
(lp1899
g68
(g89
g70
NtRp1900
(dp1901
g73
(dp1902
g93
g94
ssg82
g1896
sg75
(lp1903
S'global_settings'
p1904
asbag68
(g89
g70
NtRp1905
(dp1906
g73
(dp1907
g100
g101
ssg82
g1896
sg75
(lp1908
S':'
asbag68
(g89
g70
NtRp1909
(dp1910
g73
(dp1911
sg82
g1896
sg75
(lp1912
g68
(g69
g70
NtRp1913
(dp1914
g73
(dp1915
g81
I5
ssg82
g1909
sg75
(lp1916
g68
(g77
g70
NtRp1917
(dp1918
g73
(dp1919
g81
I4
ssg82
Nsg75
(lp1920
g68
(g84
g70
NtRp1921
(dp1922
g73
(dp1923
sg82
g1917
sg75
(lp1924
g68
(g89
g70
NtRp1925
(dp1926
g73
(dp1927
g93
g94
ssg82
g1921
sg75
(lp1928
g870
asbag68
(g89
g70
NtRp1929
(dp1930
g73
(dp1931
g100
g101
ssg82
g1921
sg75
(lp1932
S':'
asbag68
(g89
g70
NtRp1933
(dp1934
g73
(dp1935
sg82
g1921
sg75
(lp1936
g68
(g69
g70
NtRp1937
(dp1938
g73
(dp1939
g81
I4
ssg82
g1933
sg75
(lp1940
S"set(['/home/madhuri/Downloads/web2py/applications/admin/', '/home/madhuri/Downloads/web2py/applications/manager/', '/home/madhuri/Downloads/web2py/applications/welcome/'])"
p1941
asbasbasbag68
(g84
g70
NtRp1942
(dp1943
g73
(dp1944
sg82
g1917
sg75
(lp1945
g68
(g89
g70
NtRp1946
(dp1947
g73
(dp1948
g93
g94
ssg82
g1942
sg75
(lp1949
g892
asbag68
(g89
g70
NtRp1950
(dp1951
g73
(dp1952
g100
g101
ssg82
g1942
sg75
(lp1953
S':'
asbag68
(g89
g70
NtRp1954
(dp1955
g73
(dp1956
sg82
g1942
sg75
(lp1957
g68
(g69
g70
NtRp1958
(dp1959
g73
(dp1960
g81
I4
ssg82
g1954
sg75
(lp1961
g905
asbasbasbag68
(g84
g70
NtRp1962
(dp1963
g73
(dp1964
sg82
g1917
sg75
(lp1965
g68
(g89
g70
NtRp1966
(dp1967
g73
(dp1968
g93
g94
ssg82
g1962
sg75
(lp1969
g914
asbag68
(g89
g70
NtRp1970
(dp1971
g73
(dp1972
g100
g101
ssg82
g1962
sg75
(lp1973
S':'
asbag68
(g89
g70
NtRp1974
(dp1975
g73
(dp1976
sg82
g1962
sg75
(lp1977
g68
(g69
g70
NtRp1978
(dp1979
g73
(dp1980
g81
I4
ssg82
g1974
sg75
(lp1981
g68
(g77
g70
NtRp1982
(dp1983
g73
(dp1984
g81
I3
ssg82
Nsg75
(lp1985
sbasbasbasbag68
(g84
g70
NtRp1986
(dp1987
g73
(dp1988
sg82
g1917
sg75
(lp1989
g68
(g89
g70
NtRp1990
(dp1991
g73
(dp1992
g93
g94
ssg82
g1986
sg75
(lp1993
g939
asbag68
(g89
g70
NtRp1994
(dp1995
g73
(dp1996
g100
g101
ssg82
g1986
sg75
(lp1997
S':'
asbag68
(g89
g70
NtRp1998
(dp1999
g73
(dp2000
sg82
g1986
sg75
(lp2001
g68
(g69
g70
NtRp2002
(dp2003
g73
(dp2004
g81
I4
ssg82
g1998
sg75
(lp2005
S"<Values at 0x190b8c0: {'verbose': False, 'ip': '127.0.0.1', 'with_scheduler': False, 'ips': ['127.0.1.1'], 'shutdown_timeout': 5, 'taskbar': False, 'port': 8000, 'maxthreads': None, 'softcron': False, 'server_name': 'ubuntu', 'bpython': False, 'nogui': False, 'nocron': False, 'extcron': False, 'run_system_tests': False, 'test': None, 'folder': '/home/madhuri/Downloads/web2py', 'config': '', 'import_models': False, 'winservice': '', 'shell': None, 'run': '', 'log_filename': 'httpserver.log', 'debuglevel': 30, 'args': [''], 'socket_timeout': 5, 'ssl_ca_certificate': None, 'scheduler': None, 'profiler_filename': None, 'ssl_private_key': '', 'scheduler_groups': None, 'password': '1', 'request_queue_size': 5, 'ssl_certificate': '', 'cronjob': False, 'numthreads': None, 'quiet': False, 'interfaces': None, 'minthreads': None, 'timeout': 10, 'plain': False, 'nobanner': False, 'pid_filename': 'httpserver.pid'}>"
p2006
asbasbasbag68
(g84
g70
NtRp2007
(dp2008
g73
(dp2009
sg82
g1917
sg75
(lp2010
g68
(g89
g70
NtRp2011
(dp2012
g73
(dp2013
g93
g94
ssg82
g2007
sg75
(lp2014
g961
asbag68
(g89
g70
NtRp2015
(dp2016
g73
(dp2017
g100
g101
ssg82
g2007
sg75
(lp2018
S':'
asbag68
(g89
g70
NtRp2019
(dp2020
g73
(dp2021
sg82
g2007
sg75
(lp2022
g68
(g69
g70
NtRp2023
(dp2024
g73
(dp2025
g81
I4
ssg82
g2019
sg75
(lp2026
S'set([])'
p2027
asbasbasbag68
(g84
g70
NtRp2028
(dp2029
g73
(dp2030
sg82
g1917
sg75
(lp2031
g68
(g89
g70
NtRp2032
(dp2033
g73
(dp2034
g93
g94
ssg82
g2028
sg75
(lp2035
g983
asbag68
(g89
g70
NtRp2036
(dp2037
g73
(dp2038
g100
g101
ssg82
g2028
sg75
(lp2039
S':'
asbag68
(g89
g70
NtRp2040
(dp2041
g73
(dp2042
sg82
g2028
sg75
(lp2043
g68
(g69
g70
NtRp2044
(dp2045
g73
(dp2046
g81
I4
ssg82
g2040
sg75
(lp2047
g111
asbasbasbag68
(g84
g70
NtRp2048
(dp2049
g73
(dp2050
sg82
g1917
sg75
(lp2051
g68
(g89
g70
NtRp2052
(dp2053
g73
(dp2054
g93
g94
ssg82
g2048
sg75
(lp2055
g1004
asbag68
(g89
g70
NtRp2056
(dp2057
g73
(dp2058
g100
g101
ssg82
g2048
sg75
(lp2059
S':'
asbag68
(g89
g70
NtRp2060
(dp2061
g73
(dp2062
sg82
g2048
sg75
(lp2063
g68
(g69
g70
NtRp2064
(dp2065
g73
(dp2066
g81
I4
ssg82
g2060
sg75
(lp2067
g1017
asbasbasbag68
(g84
g70
NtRp2068
(dp2069
g73
(dp2070
sg82
g1917
sg75
(lp2071
g68
(g89
g70
NtRp2072
(dp2073
g73
(dp2074
g93
g94
ssg82
g2068
sg75
(lp2075
g1202
asbag68
(g89
g70
NtRp2076
(dp2077
g73
(dp2078
g100
g101
ssg82
g2068
sg75
(lp2079
S':'
asbag68
(g89
g70
NtRp2080
(dp2081
g73
(dp2082
sg82
g2068
sg75
(lp2083
g68
(g69
g70
NtRp2084
(dp2085
g73
(dp2086
g81
I4
ssg82
g2080
sg75
(lp2087
g111
asbasbasbag68
(g84
g70
NtRp2088
(dp2089
g73
(dp2090
sg82
g1917
sg75
(lp2091
g68
(g89
g70
NtRp2092
(dp2093
g73
(dp2094
g93
g94
ssg82
g2088
sg75
(lp2095
g1223
asbag68
(g89
g70
NtRp2096
(dp2097
g73
(dp2098
g100
g101
ssg82
g2088
sg75
(lp2099
S':'
asbag68
(g89
g70
NtRp2100
(dp2101
g73
(dp2102
sg82
g2088
sg75
(lp2103
g68
(g69
g70
NtRp2104
(dp2105
g73
(dp2106
g81
I4
ssg82
g2100
sg75
(lp2107
g111
asbasbasbag68
(g84
g70
NtRp2108
(dp2109
g73
(dp2110
sg82
g1917
sg75
(lp2111
g68
(g89
g70
NtRp2112
(dp2113
g73
(dp2114
g93
g94
ssg82
g2108
sg75
(lp2115
g1482
asbag68
(g89
g70
NtRp2116
(dp2117
g73
(dp2118
g100
g101
ssg82
g2108
sg75
(lp2119
S':'
asbag68
(g89
g70
NtRp2120
(dp2121
g73
(dp2122
sg82
g2108
sg75
(lp2123
g68
(g69
g70
NtRp2124
(dp2125
g73
(dp2126
g81
I4
ssg82
g2120
sg75
(lp2127
g1495
asbasbasbag68
(g84
g70
NtRp2128
(dp2129
g73
(dp2130
sg82
g1917
sg75
(lp2131
g68
(g89
g70
NtRp2132
(dp2133
g73
(dp2134
g93
g94
ssg82
g2128
sg75
(lp2135
g1525
asbag68
(g89
g70
NtRp2136
(dp2137
g73
(dp2138
g100
g101
ssg82
g2128
sg75
(lp2139
S':'
asbag68
(g89
g70
NtRp2140
(dp2141
g73
(dp2142
sg82
g2128
sg75
(lp2143
g68
(g69
g70
NtRp2144
(dp2145
g73
(dp2146
g81
I4
ssg82
g2140
sg75
(lp2147
g68
(g77
g70
NtRp2148
(dp2149
g73
(dp2150
g81
I3
ssg82
Nsg75
(lp2151
g68
(g84
g70
NtRp2152
(dp2153
g73
(dp2154
sg82
g2148
sg75
(lp2155
g68
(g89
g70
NtRp2156
(dp2157
g73
(dp2158
sg82
g2152
sg75
(lp2159
g68
(g69
g70
NtRp2160
(dp2161
g73
(dp2162
g81
I3
ssg82
g2156
sg75
(lp2163
S'2'
asbasbasbag68
(g84
g70
NtRp2164
(dp2165
g73
(dp2166
sg82
g2148
sg75
(lp2167
g68
(g89
g70
NtRp2168
(dp2169
g73
(dp2170
sg82
g2164
sg75
(lp2171
g68
(g69
g70
NtRp2172
(dp2173
g73
(dp2174
g81
I3
ssg82
g2168
sg75
(lp2175
S'0'
asbasbasbag68
(g84
g70
NtRp2176
(dp2177
g73
(dp2178
sg82
g2148
sg75
(lp2179
g68
(g89
g70
NtRp2180
(dp2181
g73
(dp2182
sg82
g2176
sg75
(lp2183
g68
(g69
g70
NtRp2184
(dp2185
g73
(dp2186
g81
I3
ssg82
g2180
sg75
(lp2187
S'9'
asbasbasbag68
(g84
g70
NtRp2188
(dp2189
g73
(dp2190
sg82
g2148
sg75
(lp2191
g68
(g89
g70
NtRp2192
(dp2193
g73
(dp2194
sg82
g2188
sg75
(lp2195
g68
(g69
g70
NtRp2196
(dp2197
g73
(dp2198
g81
I3
ssg82
g2192
sg75
(lp2199
S'datetime.datetime(2012, 9, 13, 23, 51, 30)'
p2200
asbasbasbag68
(g84
g70
NtRp2201
(dp2202
g73
(dp2203
sg82
g2148
sg75
(lp2204
g68
(g89
g70
NtRp2205
(dp2206
g73
(dp2207
sg82
g2201
sg75
(lp2208
g68
(g69
g70
NtRp2209
(dp2210
g73
(dp2211
g81
I3
ssg82
g2205
sg75
(lp2212
g1603
asbasbasbasbasbasbasbasbasbasbasbag68
(g84
g70
NtRp2213
(dp2214
g73
(dp2215
sg82
g78
sg75
(lp2216
g68
(g89
g70
NtRp2217
(dp2218
g73
(dp2219
g93
g94
ssg82
g2213
sg75
(lp2220
S'is_https'
p2221
asbag68
(g89
g70
NtRp2222
(dp2223
g73
(dp2224
g100
g101
ssg82
g2213
sg75
(lp2225
S':'
asbag68
(g89
g70
NtRp2226
(dp2227
g73
(dp2228
sg82
g2213
sg75
(lp2229
g68
(g69
g70
NtRp2230
(dp2231
g73
(dp2232
g81
I5
ssg82
g2226
sg75
(lp2233
g111
asbasbasbag68
(g84
g70
NtRp2234
(dp2235
g73
(dp2236
sg82
g78
sg75
(lp2237
g68
(g89
g70
NtRp2238
(dp2239
g73
(dp2240
g93
g94
ssg82
g2234
sg75
(lp2241
S'is_local'
p2242
asbag68
(g89
g70
NtRp2243
(dp2244
g73
(dp2245
g100
g101
ssg82
g2234
sg75
(lp2246
S':'
asbag68
(g89
g70
NtRp2247
(dp2248
g73
(dp2249
sg82
g2234
sg75
(lp2250
g68
(g69
g70
NtRp2251
(dp2252
g73
(dp2253
g81
I5
ssg82
g2247
sg75
(lp2254
g1712
asbasbasbag68
(g84
g70
NtRp2255
(dp2256
g73
(dp2257
sg82
g78
sg75
(lp2258
g68
(g89
g70
NtRp2259
(dp2260
g73
(dp2261
g93
g94
ssg82
g2255
sg75
(lp2262
S'is_restful'
p2263
asbag68
(g89
g70
NtRp2264
(dp2265
g73
(dp2266
g100
g101
ssg82
g2255
sg75
(lp2267
S':'
asbag68
(g89
g70
NtRp2268
(dp2269
g73
(dp2270
sg82
g2255
sg75
(lp2271
g68
(g69
g70
NtRp2272
(dp2273
g73
(dp2274
g81
I5
ssg82
g2268
sg75
(lp2275
g111
asbasbasbag68
(g84
g70
NtRp2276
(dp2277
g73
(dp2278
sg82
g78
sg75
(lp2279
g68
(g89
g70
NtRp2280
(dp2281
g73
(dp2282
g93
g94
ssg82
g2276
sg75
(lp2283
S'now'
p2284
asbag68
(g89
g70
NtRp2285
(dp2286
g73
(dp2287
g100
g101
ssg82
g2276
sg75
(lp2288
S':'
asbag68
(g89
g70
NtRp2289
(dp2290
g73
(dp2291
sg82
g2276
sg75
(lp2292
g68
(g69
g70
NtRp2293
(dp2294
g73
(dp2295
g81
I5
ssg82
g2289
sg75
(lp2296
S'datetime.datetime(2012, 11, 12, 1, 34, 42, 930406)'
p2297
asbasbasbag68
(g84
g70
NtRp2298
(dp2299
g73
(dp2300
sg82
g78
sg75
(lp2301
g68
(g89
g70
NtRp2302
(dp2303
g73
(dp2304
g93
g94
ssg82
g2298
sg75
(lp2305
S'post_vars'
p2306
asbag68
(g89
g70
NtRp2307
(dp2308
g73
(dp2309
g100
g101
ssg82
g2298
sg75
(lp2310
S':'
asbag68
(g89
g70
NtRp2311
(dp2312
g73
(dp2313
sg82
g2298
sg75
(lp2314
g68
(g69
g70
NtRp2315
(dp2316
g73
(dp2317
g81
I5
ssg82
g2311
sg75
(lp2318
g68
(g77
g70
NtRp2319
(dp2320
g73
(dp2321
g81
I4
ssg82
Nsg75
(lp2322
sbasbasbasbag68
(g84
g70
NtRp2323
(dp2324
g73
(dp2325
sg82
g78
sg75
(lp2326
g68
(g89
g70
NtRp2327
(dp2328
g73
(dp2329
g93
g94
ssg82
g2323
sg75
(lp2330
S'raw_args'
p2331
asbag68
(g89
g70
NtRp2332
(dp2333
g73
(dp2334
g100
g101
ssg82
g2323
sg75
(lp2335
S':'
asbag68
(g89
g70
NtRp2336
(dp2337
g73
(dp2338
sg82
g2323
sg75
(lp2339
g68
(g69
g70
NtRp2340
(dp2341
g73
(dp2342
g81
I5
ssg82
g2336
sg75
(lp2343
S'None'
p2344
asbasbasbag68
(g84
g70
NtRp2345
(dp2346
g73
(dp2347
sg82
g78
sg75
(lp2348
g68
(g89
g70
NtRp2349
(dp2350
g73
(dp2351
g93
g94
ssg82
g2345
sg75
(lp2352
S'raw_extension'
p2353
asbag68
(g89
g70
NtRp2354
(dp2355
g73
(dp2356
g100
g101
ssg82
g2345
sg75
(lp2357
S':'
asbag68
(g89
g70
NtRp2358
(dp2359
g73
(dp2360
sg82
g2345
sg75
(lp2361
g68
(g69
g70
NtRp2362
(dp2363
g73
(dp2364
g81
I5
ssg82
g2358
sg75
(lp2365
S'None'
p2366
asbasbasbag68
(g84
g70
NtRp2367
(dp2368
g73
(dp2369
sg82
g78
sg75
(lp2370
g68
(g89
g70
NtRp2371
(dp2372
g73
(dp2373
g93
g94
ssg82
g2367
sg75
(lp2374
S'url'
p2375
asbag68
(g89
g70
NtRp2376
(dp2377
g73
(dp2378
g100
g101
ssg82
g2367
sg75
(lp2379
S':'
asbag68
(g89
g70
NtRp2380
(dp2381
g73
(dp2382
sg82
g2367
sg75
(lp2383
g68
(g69
g70
NtRp2384
(dp2385
g73
(dp2386
g81
I5
ssg82
g2380
sg75
(lp2387
g1257
asbasbasbag68
(g84
g70
NtRp2388
(dp2389
g73
(dp2390
sg82
g78
sg75
(lp2391
g68
(g89
g70
NtRp2392
(dp2393
g73
(dp2394
g93
g94
ssg82
g2388
sg75
(lp2395
S'utcnow'
p2396
asbag68
(g89
g70
NtRp2397
(dp2398
g73
(dp2399
g100
g101
ssg82
g2388
sg75
(lp2400
S':'
asbag68
(g89
g70
NtRp2401
(dp2402
g73
(dp2403
sg82
g2388
sg75
(lp2404
g68
(g69
g70
NtRp2405
(dp2406
g73
(dp2407
g81
I5
ssg82
g2401
sg75
(lp2408
S'datetime.datetime(2012, 11, 11, 20, 4, 42, 930458)'
p2409
asbasbasbag68
(g84
g70
NtRp2410
(dp2411
g73
(dp2412
sg82
g78
sg75
(lp2413
g68
(g89
g70
NtRp2414
(dp2415
g73
(dp2416
g93
g94
ssg82
g2410
sg75
(lp2417
S'uuid'
p2418
asbag68
(g89
g70
NtRp2419
(dp2420
g73
(dp2421
g100
g101
ssg82
g2410
sg75
(lp2422
S':'
asbag68
(g89
g70
NtRp2423
(dp2424
g73
(dp2425
sg82
g2410
sg75
(lp2426
g68
(g69
g70
NtRp2427
(dp2428
g73
(dp2429
g81
I5
ssg82
g2423
sg75
(lp2430
S'manager/127.0.0.1.2012-11-12.01-34-42.97ecc071-0a66-4d93-916f-b4e6970cd050'
p2431
asbasbasbag68
(g84
g70
NtRp2432
(dp2433
g73
(dp2434
sg82
g78
sg75
(lp2435
g68
(g89
g70
NtRp2436
(dp2437
g73
(dp2438
g93
g94
ssg82
g2432
sg75
(lp2439
S'vars'
p2440
asbag68
(g89
g70
NtRp2441
(dp2442
g73
(dp2443
g100
g101
ssg82
g2432
sg75
(lp2444
S':'
asbag68
(g89
g70
NtRp2445
(dp2446
g73
(dp2447
sg82
g2432
sg75
(lp2448
g68
(g69
g70
NtRp2449
(dp2450
g73
(dp2451
g81
I5
ssg82
g2445
sg75
(lp2452
g68
(g77
g70
NtRp2453
(dp2454
g73
(dp2455
g81
I4
ssg82
Nsg75
(lp2456
sbasbasbasbag68
(g84
g70
NtRp2457
(dp2458
g73
(dp2459
sg82
g78
sg75
(lp2460
g68
(g89
g70
NtRp2461
(dp2462
g73
(dp2463
g93
g94
ssg82
g2457
sg75
(lp2464
S'wsgi'
p2465
asbag68
(g89
g70
NtRp2466
(dp2467
g73
(dp2468
g100
g101
ssg82
g2457
sg75
(lp2469
S':'
asbag68
(g89
g70
NtRp2470
(dp2471
g73
(dp2472
sg82
g2457
sg75
(lp2473
g68
(g69
g70
NtRp2474
(dp2475
g73
(dp2476
g81
I5
ssg82
g2470
sg75
(lp2477
g68
(g77
g70
NtRp2478
(dp2479
g73
(dp2480
g81
I4
ssg82
Nsg75
(lp2481
g68
(g84
g70
NtRp2482
(dp2483
g73
(dp2484
sg82
g2478
sg75
(lp2485
g68
(g89
g70
NtRp2486
(dp2487
g73
(dp2488
g93
g94
ssg82
g2482
sg75
(lp2489
S'environ'
p2490
asbag68
(g89
g70
NtRp2491
(dp2492
g73
(dp2493
g100
g101
ssg82
g2482
sg75
(lp2494
S':'
asbag68
(g89
g70
NtRp2495
(dp2496
g73
(dp2497
sg82
g2482
sg75
(lp2498
g68
(g69
g70
NtRp2499
(dp2500
g73
(dp2501
g81
I4
ssg82
g2495
sg75
(lp2502
g68
(g77
g70
NtRp2503
(dp2504
g73
(dp2505
g81
I3
ssg82
Nsg75
(lp2506
g68
(g84
g70
NtRp2507
(dp2508
g73
(dp2509
sg82
g2503
sg75
(lp2510
g68
(g89
g70
NtRp2511
(dp2512
g73
(dp2513
g93
g94
ssg82
g2507
sg75
(lp2514
S'HTTP_ACCEPT'
p2515
asbag68
(g89
g70
NtRp2516
(dp2517
g73
(dp2518
g100
g101
ssg82
g2507
sg75
(lp2519
S':'
asbag68
(g89
g70
NtRp2520
(dp2521
g73
(dp2522
sg82
g2507
sg75
(lp2523
g68
(g69
g70
NtRp2524
(dp2525
g73
(dp2526
g81
I3
ssg82
g2520
sg75
(lp2527
g1039
asbasbasbag68
(g84
g70
NtRp2528
(dp2529
g73
(dp2530
sg82
g2503
sg75
(lp2531
g68
(g89
g70
NtRp2532
(dp2533
g73
(dp2534
g93
g94
ssg82
g2528
sg75
(lp2535
S'HTTP_ACCEPT_ENCODING'
p2536
asbag68
(g89
g70
NtRp2537
(dp2538
g73
(dp2539
g100
g101
ssg82
g2528
sg75
(lp2540
S':'
asbag68
(g89
g70
NtRp2541
(dp2542
g73
(dp2543
sg82
g2528
sg75
(lp2544
g68
(g69
g70
NtRp2545
(dp2546
g73
(dp2547
g81
I3
ssg82
g2541
sg75
(lp2548
g1061
asbasbasbag68
(g84
g70
NtRp2549
(dp2550
g73
(dp2551
sg82
g2503
sg75
(lp2552
g68
(g89
g70
NtRp2553
(dp2554
g73
(dp2555
g93
g94
ssg82
g2549
sg75
(lp2556
S'HTTP_ACCEPT_LANGUAGE'
p2557
asbag68
(g89
g70
NtRp2558
(dp2559
g73
(dp2560
g100
g101
ssg82
g2549
sg75
(lp2561
S':'
asbag68
(g89
g70
NtRp2562
(dp2563
g73
(dp2564
sg82
g2549
sg75
(lp2565
g68
(g69
g70
NtRp2566
(dp2567
g73
(dp2568
g81
I3
ssg82
g2562
sg75
(lp2569
g1083
asbasbasbag68
(g84
g70
NtRp2570
(dp2571
g73
(dp2572
sg82
g2503
sg75
(lp2573
g68
(g89
g70
NtRp2574
(dp2575
g73
(dp2576
g93
g94
ssg82
g2570
sg75
(lp2577
S'HTTP_CONNECTION'
p2578
asbag68
(g89
g70
NtRp2579
(dp2580
g73
(dp2581
g100
g101
ssg82
g2570
sg75
(lp2582
S':'
asbag68
(g89
g70
NtRp2583
(dp2584
g73
(dp2585
sg82
g2570
sg75
(lp2586
g68
(g69
g70
NtRp2587
(dp2588
g73
(dp2589
g81
I3
ssg82
g2583
sg75
(lp2590
g1105
asbasbasbag68
(g84
g70
NtRp2591
(dp2592
g73
(dp2593
sg82
g2503
sg75
(lp2594
g68
(g89
g70
NtRp2595
(dp2596
g73
(dp2597
g93
g94
ssg82
g2591
sg75
(lp2598
S'HTTP_COOKIE'
p2599
asbag68
(g89
g70
NtRp2600
(dp2601
g73
(dp2602
g100
g101
ssg82
g2591
sg75
(lp2603
S':'
asbag68
(g89
g70
NtRp2604
(dp2605
g73
(dp2606
sg82
g2591
sg75
(lp2607
g68
(g69
g70
NtRp2608
(dp2609
g73
(dp2610
g81
I3
ssg82
g2604
sg75
(lp2611
g1127
asbasbasbag68
(g84
g70
NtRp2612
(dp2613
g73
(dp2614
sg82
g2503
sg75
(lp2615
g68
(g89
g70
NtRp2616
(dp2617
g73
(dp2618
g93
g94
ssg82
g2612
sg75
(lp2619
S'HTTP_HOST'
p2620
asbag68
(g89
g70
NtRp2621
(dp2622
g73
(dp2623
g100
g101
ssg82
g2612
sg75
(lp2624
S':'
asbag68
(g89
g70
NtRp2625
(dp2626
g73
(dp2627
sg82
g2612
sg75
(lp2628
g68
(g69
g70
NtRp2629
(dp2630
g73
(dp2631
g81
I3
ssg82
g2625
sg75
(lp2632
g1149
asbasbasbag68
(g84
g70
NtRp2633
(dp2634
g73
(dp2635
sg82
g2503
sg75
(lp2636
g68
(g89
g70
NtRp2637
(dp2638
g73
(dp2639
g93
g94
ssg82
g2633
sg75
(lp2640
S'HTTP_REFERER'
p2641
asbag68
(g89
g70
NtRp2642
(dp2643
g73
(dp2644
g100
g101
ssg82
g2633
sg75
(lp2645
S':'
asbag68
(g89
g70
NtRp2646
(dp2647
g73
(dp2648
sg82
g2633
sg75
(lp2649
g68
(g69
g70
NtRp2650
(dp2651
g73
(dp2652
g81
I3
ssg82
g2646
sg75
(lp2653
g1171
asbasbasbag68
(g84
g70
NtRp2654
(dp2655
g73
(dp2656
sg82
g2503
sg75
(lp2657
g68
(g89
g70
NtRp2658
(dp2659
g73
(dp2660
g93
g94
ssg82
g2654
sg75
(lp2661
S'HTTP_USER_AGENT'
p2662
asbag68
(g89
g70
NtRp2663
(dp2664
g73
(dp2665
g100
g101
ssg82
g2654
sg75
(lp2666
S':'
asbag68
(g89
g70
NtRp2667
(dp2668
g73
(dp2669
sg82
g2654
sg75
(lp2670
g68
(g69
g70
NtRp2671
(dp2672
g73
(dp2673
g81
I3
ssg82
g2667
sg75
(lp2674
g1193
asbasbasbag68
(g84
g70
NtRp2675
(dp2676
g73
(dp2677
sg82
g2503
sg75
(lp2678
g68
(g89
g70
NtRp2679
(dp2680
g73
(dp2681
g93
g94
ssg82
g2675
sg75
(lp2682
S'PATH_INFO'
p2683
asbag68
(g89
g70
NtRp2684
(dp2685
g73
(dp2686
g100
g101
ssg82
g2675
sg75
(lp2687
S':'
asbag68
(g89
g70
NtRp2688
(dp2689
g73
(dp2690
sg82
g2675
sg75
(lp2691
g68
(g69
g70
NtRp2692
(dp2693
g73
(dp2694
g81
I3
ssg82
g2688
sg75
(lp2695
g1257
asbasbasbag68
(g84
g70
NtRp2696
(dp2697
g73
(dp2698
sg82
g2503
sg75
(lp2699
g68
(g89
g70
NtRp2700
(dp2701
g73
(dp2702
g93
g94
ssg82
g2696
sg75
(lp2703
S'QUERY_STRING'
p2704
asbag68
(g89
g70
NtRp2705
(dp2706
g73
(dp2707
g100
g101
ssg82
g2696
sg75
(lp2708
S':'
asbag68
(g89
g70
NtRp2709
(dp2710
g73
(dp2711
sg82
g2696
sg75
(lp2712
g68
(g69
g70
NtRp2713
(dp2714
g73
(dp2715
g81
I3
ssg82
g2709
sg75
(lp2716
S''
asbasbasbag68
(g84
g70
NtRp2717
(dp2718
g73
(dp2719
sg82
g2503
sg75
(lp2720
g68
(g89
g70
NtRp2721
(dp2722
g73
(dp2723
g93
g94
ssg82
g2717
sg75
(lp2724
S'REMOTE_ADDR'
p2725
asbag68
(g89
g70
NtRp2726
(dp2727
g73
(dp2728
g100
g101
ssg82
g2717
sg75
(lp2729
S':'
asbag68
(g89
g70
NtRp2730
(dp2731
g73
(dp2732
sg82
g2717
sg75
(lp2733
g68
(g69
g70
NtRp2734
(dp2735
g73
(dp2736
g81
I3
ssg82
g2730
sg75
(lp2737
g223
asbasbasbag68
(g84
g70
NtRp2738
(dp2739
g73
(dp2740
sg82
g2503
sg75
(lp2741
g68
(g89
g70
NtRp2742
(dp2743
g73
(dp2744
g93
g94
ssg82
g2738
sg75
(lp2745
S'REMOTE_PORT'
p2746
asbag68
(g89
g70
NtRp2747
(dp2748
g73
(dp2749
g100
g101
ssg82
g2738
sg75
(lp2750
S':'
asbag68
(g89
g70
NtRp2751
(dp2752
g73
(dp2753
sg82
g2738
sg75
(lp2754
g68
(g69
g70
NtRp2755
(dp2756
g73
(dp2757
g81
I3
ssg82
g2751
sg75
(lp2758
g1321
asbasbasbag68
(g84
g70
NtRp2759
(dp2760
g73
(dp2761
sg82
g2503
sg75
(lp2762
g68
(g89
g70
NtRp2763
(dp2764
g73
(dp2765
g93
g94
ssg82
g2759
sg75
(lp2766
S'REQUEST_METHOD'
p2767
asbag68
(g89
g70
NtRp2768
(dp2769
g73
(dp2770
g100
g101
ssg82
g2759
sg75
(lp2771
S':'
asbag68
(g89
g70
NtRp2772
(dp2773
g73
(dp2774
sg82
g2759
sg75
(lp2775
g68
(g69
g70
NtRp2776
(dp2777
g73
(dp2778
g81
I3
ssg82
g2772
sg75
(lp2779
g1343
asbasbasbag68
(g84
g70
NtRp2780
(dp2781
g73
(dp2782
sg82
g2503
sg75
(lp2783
g68
(g89
g70
NtRp2784
(dp2785
g73
(dp2786
g93
g94
ssg82
g2780
sg75
(lp2787
S'REQUEST_URI'
p2788
asbag68
(g89
g70
NtRp2789
(dp2790
g73
(dp2791
g100
g101
ssg82
g2780
sg75
(lp2792
S':'
asbag68
(g89
g70
NtRp2793
(dp2794
g73
(dp2795
sg82
g2780
sg75
(lp2796
g68
(g69
g70
NtRp2797
(dp2798
g73
(dp2799
g81
I3
ssg82
g2793
sg75
(lp2800
g1257
asbasbasbag68
(g84
g70
NtRp2801
(dp2802
g73
(dp2803
sg82
g2503
sg75
(lp2804
g68
(g89
g70
NtRp2805
(dp2806
g73
(dp2807
g93
g94
ssg82
g2801
sg75
(lp2808
S'SCRIPT_NAME'
p2809
asbag68
(g89
g70
NtRp2810
(dp2811
g73
(dp2812
g100
g101
ssg82
g2801
sg75
(lp2813
S':'
asbag68
(g89
g70
NtRp2814
(dp2815
g73
(dp2816
sg82
g2801
sg75
(lp2817
g68
(g69
g70
NtRp2818
(dp2819
g73
(dp2820
g81
I3
ssg82
g2814
sg75
(lp2821
S''
asbasbasbag68
(g84
g70
NtRp2822
(dp2823
g73
(dp2824
sg82
g2503
sg75
(lp2825
g68
(g89
g70
NtRp2826
(dp2827
g73
(dp2828
g93
g94
ssg82
g2822
sg75
(lp2829
S'SERVER_NAME'
p2830
asbag68
(g89
g70
NtRp2831
(dp2832
g73
(dp2833
g100
g101
ssg82
g2822
sg75
(lp2834
S':'
asbag68
(g89
g70
NtRp2835
(dp2836
g73
(dp2837
sg82
g2822
sg75
(lp2838
g68
(g69
g70
NtRp2839
(dp2840
g73
(dp2841
g81
I3
ssg82
g2835
sg75
(lp2842
g1407
asbasbasbag68
(g84
g70
NtRp2843
(dp2844
g73
(dp2845
sg82
g2503
sg75
(lp2846
g68
(g89
g70
NtRp2847
(dp2848
g73
(dp2849
g93
g94
ssg82
g2843
sg75
(lp2850
S'SERVER_PORT'
p2851
asbag68
(g89
g70
NtRp2852
(dp2853
g73
(dp2854
g100
g101
ssg82
g2843
sg75
(lp2855
S':'
asbag68
(g89
g70
NtRp2856
(dp2857
g73
(dp2858
sg82
g2843
sg75
(lp2859
g68
(g69
g70
NtRp2860
(dp2861
g73
(dp2862
g81
I3
ssg82
g2856
sg75
(lp2863
g1429
asbasbasbag68
(g84
g70
NtRp2864
(dp2865
g73
(dp2866
sg82
g2503
sg75
(lp2867
g68
(g89
g70
NtRp2868
(dp2869
g73
(dp2870
g93
g94
ssg82
g2864
sg75
(lp2871
S'SERVER_PROTOCOL'
p2872
asbag68
(g89
g70
NtRp2873
(dp2874
g73
(dp2875
g100
g101
ssg82
g2864
sg75
(lp2876
S':'
asbag68
(g89
g70
NtRp2877
(dp2878
g73
(dp2879
sg82
g2864
sg75
(lp2880
g68
(g69
g70
NtRp2881
(dp2882
g73
(dp2883
g81
I3
ssg82
g2877
sg75
(lp2884
g1451
asbasbasbag68
(g84
g70
NtRp2885
(dp2886
g73
(dp2887
sg82
g2503
sg75
(lp2888
g68
(g89
g70
NtRp2889
(dp2890
g73
(dp2891
g93
g94
ssg82
g2885
sg75
(lp2892
S'SERVER_SOFTWARE'
p2893
asbag68
(g89
g70
NtRp2894
(dp2895
g73
(dp2896
g100
g101
ssg82
g2885
sg75
(lp2897
S':'
asbag68
(g89
g70
NtRp2898
(dp2899
g73
(dp2900
sg82
g2885
sg75
(lp2901
g68
(g69
g70
NtRp2902
(dp2903
g73
(dp2904
g81
I3
ssg82
g2898
sg75
(lp2905
g1473
asbasbasbag68
(g84
g70
NtRp2906
(dp2907
g73
(dp2908
sg82
g2503
sg75
(lp2909
g68
(g89
g70
NtRp2910
(dp2911
g73
(dp2912
g93
g94
ssg82
g2906
sg75
(lp2913
S'wsgi.errors'
p2914
asbag68
(g89
g70
NtRp2915
(dp2916
g73
(dp2917
g100
g101
ssg82
g2906
sg75
(lp2918
S':'
asbag68
(g89
g70
NtRp2919
(dp2920
g73
(dp2921
sg82
g2906
sg75
(lp2922
g68
(g69
g70
NtRp2923
(dp2924
g73
(dp2925
g81
I3
ssg82
g2919
sg75
(lp2926
S"<open file '<stderr>', mode 'w' at 0x7f1dd399e270>"
p2927
asbasbasbag68
(g84
g70
NtRp2928
(dp2929
g73
(dp2930
sg82
g2503
sg75
(lp2931
g68
(g89
g70
NtRp2932
(dp2933
g73
(dp2934
g93
g94
ssg82
g2928
sg75
(lp2935
S'wsgi.file_wrapper'
p2936
asbag68
(g89
g70
NtRp2937
(dp2938
g73
(dp2939
g100
g101
ssg82
g2928
sg75
(lp2940
S':'
asbag68
(g89
g70
NtRp2941
(dp2942
g73
(dp2943
sg82
g2928
sg75
(lp2944
g68
(g69
g70
NtRp2945
(dp2946
g73
(dp2947
g81
I3
ssg82
g2941
sg75
(lp2948
S'<class wsgiref.util.FileWrapper at 0x1b5aa78>'
p2949
asbasbasbag68
(g84
g70
NtRp2950
(dp2951
g73
(dp2952
sg82
g2503
sg75
(lp2953
g68
(g89
g70
NtRp2954
(dp2955
g73
(dp2956
g93
g94
ssg82
g2950
sg75
(lp2957
S'wsgi.input'
p2958
asbag68
(g89
g70
NtRp2959
(dp2960
g73
(dp2961
g100
g101
ssg82
g2950
sg75
(lp2962
S':'
asbag68
(g89
g70
NtRp2963
(dp2964
g73
(dp2965
sg82
g2950
sg75
(lp2966
g68
(g69
g70
NtRp2967
(dp2968
g73
(dp2969
g81
I3
ssg82
g2963
sg75
(lp2970
S'<cStringIO.StringO object at 0x7f1da82483b0>'
p2971
asbasbasbag68
(g84
g70
NtRp2972
(dp2973
g73
(dp2974
sg82
g2503
sg75
(lp2975
g68
(g89
g70
NtRp2976
(dp2977
g73
(dp2978
g93
g94
ssg82
g2972
sg75
(lp2979
S'wsgi.multiprocess'
p2980
asbag68
(g89
g70
NtRp2981
(dp2982
g73
(dp2983
g100
g101
ssg82
g2972
sg75
(lp2984
S':'
asbag68
(g89
g70
NtRp2985
(dp2986
g73
(dp2987
sg82
g2972
sg75
(lp2988
g68
(g69
g70
NtRp2989
(dp2990
g73
(dp2991
g81
I3
ssg82
g2985
sg75
(lp2992
g111
asbasbasbag68
(g84
g70
NtRp2993
(dp2994
g73
(dp2995
sg82
g2503
sg75
(lp2996
g68
(g89
g70
NtRp2997
(dp2998
g73
(dp2999
g93
g94
ssg82
g2993
sg75
(lp3000
S'wsgi.multithread'
p3001
asbag68
(g89
g70
NtRp3002
(dp3003
g73
(dp3004
g100
g101
ssg82
g2993
sg75
(lp3005
S':'
asbag68
(g89
g70
NtRp3006
(dp3007
g73
(dp3008
sg82
g2993
sg75
(lp3009
g68
(g69
g70
NtRp3010
(dp3011
g73
(dp3012
g81
I3
ssg82
g3006
sg75
(lp3013
g1712
asbasbasbag68
(g84
g70
NtRp3014
(dp3015
g73
(dp3016
sg82
g2503
sg75
(lp3017
g68
(g89
g70
NtRp3018
(dp3019
g73
(dp3020
g93
g94
ssg82
g3014
sg75
(lp3021
S'wsgi.run_once'
p3022
asbag68
(g89
g70
NtRp3023
(dp3024
g73
(dp3025
g100
g101
ssg82
g3014
sg75
(lp3026
S':'
asbag68
(g89
g70
NtRp3027
(dp3028
g73
(dp3029
sg82
g3014
sg75
(lp3030
g68
(g69
g70
NtRp3031
(dp3032
g73
(dp3033
g81
I3
ssg82
g3027
sg75
(lp3034
g111
asbasbasbag68
(g84
g70
NtRp3035
(dp3036
g73
(dp3037
sg82
g2503
sg75
(lp3038
g68
(g89
g70
NtRp3039
(dp3040
g73
(dp3041
g93
g94
ssg82
g3035
sg75
(lp3042
S'wsgi.url_scheme'
p3043
asbag68
(g89
g70
NtRp3044
(dp3045
g73
(dp3046
g100
g101
ssg82
g3035
sg75
(lp3047
S':'
asbag68
(g89
g70
NtRp3048
(dp3049
g73
(dp3050
sg82
g3035
sg75
(lp3051
g68
(g69
g70
NtRp3052
(dp3053
g73
(dp3054
g81
I3
ssg82
g3048
sg75
(lp3055
g1755
asbasbasbag68
(g84
g70
NtRp3056
(dp3057
g73
(dp3058
sg82
g2503
sg75
(lp3059
g68
(g89
g70
NtRp3060
(dp3061
g73
(dp3062
g93
g94
ssg82
g3056
sg75
(lp3063
S'wsgi.version'
p3064
asbag68
(g89
g70
NtRp3065
(dp3066
g73
(dp3067
g100
g101
ssg82
g3056
sg75
(lp3068
S':'
asbag68
(g89
g70
NtRp3069
(dp3070
g73
(dp3071
sg82
g3056
sg75
(lp3072
g68
(g69
g70
NtRp3073
(dp3074
g73
(dp3075
g81
I3
ssg82
g3069
sg75
(lp3076
S'1'
asbasbasbasbasbasbasbasbasbasbasbasbasbsS'frames'
p3077
(lp3078
(dp3079
S'file'
p3080
S'/home/madhuri/Downloads/web2py/gluon/restricted.py'
p3081
sS'dump'
p3082
(dp3083
S'code'
p3084
S'\'response.write(\\\'<!DOCTYPE html PUBLIC "-//W3C//D...v>\\\\n  </div>\\\\n </body>\\\\n</html>\\\\n\\\', escape=False)\''
p3085
sS'layer'
p3086
S"'/home/madhuri/Downloads/web2py/applications/manager/views/default/index.html'"
p3087
sS'global compile2'
p3088
S'<function compile2>'
p3089
sS'ccode'
p3090
S'undefined'
p3091
ssS'lnum'
p3092
I208
sS'lines'
p3093
(dp3094
I203
S"    environment['__name__'] = '__restricted__'"
p3095
sI204
S'    try:'
p3096
sI205
S'        if type(code) == types.CodeType:'
p3097
sI206
S'            ccode = code'
p3098
sI207
S'        else:'
p3099
sI208
S'            ccode = compile2(code,layer)'
p3100
sI209
S'        exec ccode in environment'
p3101
sI210
S'    except HTTP:'
p3102
sI211
S'        raise'
p3103
sI212
S'    except RestrictedError:'
p3104
ssS'call'
p3105
S'(code=\'response.write(\\\'<!DOCTYPE html PUBLIC "-//W3C//D...v>\\\\n  </div>\\\\n </body>\\\\n</html>\\\\n\\\', escape=False)\', environment={\'A\': <class \'gluon.html.A\'>, \'Auth\': <class \'gluon.tools.Auth\'>, \'B\': <class \'gluon.html.B\'>, \'BEAUTIFY\': <class \'gluon.html.BEAUTIFY\'>, \'BODY\': <class \'gluon.html.BODY\'>, \'BR\': <class \'gluon.html.BR\'>, \'BUTTON\': <class \'gluon.html.BUTTON\'>, \'CAS\': <Storage {\'check_url\': \'https://login.iiit.ac.in...: \'http://127.0.0.1:8000/manager/default/login\'}>, \'CAT\': <class \'gluon.html.CAT\'>, \'CENTER\': <class \'gluon.html.CENTER\'>, ...}, layer=\'/home/madhuri/Downloads/web2py/applications/manager/views/default/index.html\')'
p3106
sS'func'
p3107
S'restricted'
p3108
sa(dp3109
g3080
S'/home/madhuri/Downloads/web2py/gluon/restricted.py'
p3110
sg3082
(dp3111
S'builtincompile'
p3112
S'<built-in function compile>'
p3113
sS'code'
p3114
S'\'response.write(\\\'<!DOCTYPE html PUBLIC "-//W3C//D...v>\\\\n  </div>\\\\n </body>\\\\n</html>\\\\n\\\', escape=False)\''
p3115
sS'code.rstrip'
p3116
S'<built-in method rstrip of str object>'
p3117
sS').replace'
p3118
g3091
sS'layer'
p3119
S"'/home/madhuri/Downloads/web2py/applications/manager/views/default/index.html'"
p3120
ssg3092
I193
sg3093
(dp3121
I192
S'    """'
p3122
sI193
S"    return compile(code.rstrip().replace('\\r\\n','\\n')+'\\n', layer, 'exec')"
p3123
sI194
S''
sI195
S"def restricted(code, environment=None, layer='Unknown'):"
p3124
sI196
S'    """'
p3125
sI197
S'    runs code in environment and returns the output. if an exception occurs'
p3126
sI188
S''
sI189
S'def compile2(code,layer):'
p3127
sI190
S'    """'
p3128
sI191
S"    The +'\\n' is necessary else compile fails when code ends in a comment."
p3129
ssg3105
S'(code=\'response.write(\\\'<!DOCTYPE html PUBLIC "-//W3C//D...v>\\\\n  </div>\\\\n </body>\\\\n</html>\\\\n\\\', escape=False)\', layer=\'/home/madhuri/Downloads/web2py/applications/manager/views/default/index.html\')'
p3130
sg3107
S'compile2'
p3131
sasS'pyver'
p3132
S'Python 2.7.3: /usr/bin/python'
p3133
sS'session'
p3134
g68
(g69
g70
NtRp3135
(dp3136
g73
(dp3137
sg75
(lp3138
g68
(g77
g70
NtRp3139
(dp3140
g73
(dp3141
g81
I5
ssg82
Nsg75
(lp3142
g68
(g84
g70
NtRp3143
(dp3144
g73
(dp3145
sg82
g3139
sg75
(lp3146
g68
(g89
g70
NtRp3147
(dp3148
g73
(dp3149
g93
g94
ssg82
g3143
sg75
(lp3150
S'LOGGEDIN'
p3151
asbag68
(g89
g70
NtRp3152
(dp3153
g73
(dp3154
g100
g101
ssg82
g3143
sg75
(lp3155
S':'
asbag68
(g89
g70
NtRp3156
(dp3157
g73
(dp3158
sg82
g3143
sg75
(lp3159
g68
(g69
g70
NtRp3160
(dp3161
g73
(dp3162
g81
I5
ssg82
g3156
sg75
(lp3163
S'0'
asbasbasbag68
(g84
g70
NtRp3164
(dp3165
g73
(dp3166
sg82
g3139
sg75
(lp3167
g68
(g89
g70
NtRp3168
(dp3169
g73
(dp3170
g93
g94
ssg82
g3164
sg75
(lp3171
S'auth'
p3172
asbag68
(g89
g70
NtRp3173
(dp3174
g73
(dp3175
g100
g101
ssg82
g3164
sg75
(lp3176
S':'
asbag68
(g89
g70
NtRp3177
(dp3178
g73
(dp3179
sg82
g3164
sg75
(lp3180
g68
(g69
g70
NtRp3181
(dp3182
g73
(dp3183
g81
I5
ssg82
g3177
sg75
(lp3184
S'None'
p3185
asbasbasbag68
(g84
g70
NtRp3186
(dp3187
g73
(dp3188
sg82
g3139
sg75
(lp3189
g68
(g89
g70
NtRp3190
(dp3191
g73
(dp3192
g93
g94
ssg82
g3186
sg75
(lp3193
S'flash'
p3194
asbag68
(g89
g70
NtRp3195
(dp3196
g73
(dp3197
g100
g101
ssg82
g3186
sg75
(lp3198
S':'
asbag68
(g89
g70
NtRp3199
(dp3200
g73
(dp3201
sg82
g3186
sg75
(lp3202
g68
(g69
g70
NtRp3203
(dp3204
g73
(dp3205
g81
I5
ssg82
g3199
sg75
(lp3206
S'None'
p3207
asbasbasbag68
(g84
g70
NtRp3208
(dp3209
g73
(dp3210
sg82
g3139
sg75
(lp3211
g68
(g89
g70
NtRp3212
(dp3213
g73
(dp3214
g93
g94
ssg82
g3208
sg75
(lp3215
S'last_orderby'
p3216
asbag68
(g89
g70
NtRp3217
(dp3218
g73
(dp3219
g100
g101
ssg82
g3208
sg75
(lp3220
S':'
asbag68
(g89
g70
NtRp3221
(dp3222
g73
(dp3223
sg82
g3208
sg75
(lp3224
g68
(g69
g70
NtRp3225
(dp3226
g73
(dp3227
g81
I5
ssg82
g3221
sg75
(lp3228
S'None'
p3229
asbasbasbag68
(g84
g70
NtRp3230
(dp3231
g73
(dp3232
sg82
g3139
sg75
(lp3233
g68
(g89
g70
NtRp3234
(dp3235
g73
(dp3236
g93
g94
ssg82
g3230
sg75
(lp3237
S'last_query'
p3238
asbag68
(g89
g70
NtRp3239
(dp3240
g73
(dp3241
g100
g101
ssg82
g3230
sg75
(lp3242
S':'
asbag68
(g89
g70
NtRp3243
(dp3244
g73
(dp3245
sg82
g3230
sg75
(lp3246
g68
(g69
g70
NtRp3247
(dp3248
g73
(dp3249
g81
I5
ssg82
g3243
sg75
(lp3250
S'db.Book.id>0'
p3251
asbasbasbag68
(g84
g70
NtRp3252
(dp3253
g73
(dp3254
sg82
g3139
sg75
(lp3255
g68
(g89
g70
NtRp3256
(dp3257
g73
(dp3258
g93
g94
ssg82
g3252
sg75
(lp3259
S'login'
p3260
asbag68
(g89
g70
NtRp3261
(dp3262
g73
(dp3263
g100
g101
ssg82
g3252
sg75
(lp3264
S':'
asbag68
(g89
g70
NtRp3265
(dp3266
g73
(dp3267
sg82
g3252
sg75
(lp3268
g68
(g69
g70
NtRp3269
(dp3270
g73
(dp3271
g81
I5
ssg82
g3265
sg75
(lp3272
S'0'
asbasbasbag68
(g84
g70
NtRp3273
(dp3274
g73
(dp3275
sg82
g3139
sg75
(lp3276
g68
(g89
g70
NtRp3277
(dp3278
g73
(dp3279
g93
g94
ssg82
g3273
sg75
(lp3280
S'token'
p3281
asbag68
(g89
g70
NtRp3282
(dp3283
g73
(dp3284
g100
g101
ssg82
g3273
sg75
(lp3285
S':'
asbag68
(g89
g70
NtRp3286
(dp3287
g73
(dp3288
sg82
g3273
sg75
(lp3289
g68
(g69
g70
NtRp3290
(dp3291
g73
(dp3292
g81
I5
ssg82
g3286
sg75
(lp3293
S'neeharikak.v@students.iiit.ac.in'
p3294
asbasbasbasbasbsS'etype'
p3295
S"<type 'exceptions.SyntaxError'>"
p3296
sS'date'
p3297
S'Mon Nov 12 01:34:42 2012'
p3298
sS'response'
p3299
g68
(g69
g70
NtRp3300
(dp3301
g73
(dp3302
sg75
(lp3303
g68
(g77
g70
NtRp3304
(dp3305
g73
(dp3306
g81
I5
ssg82
Nsg75
(lp3307
g68
(g84
g70
NtRp3308
(dp3309
g73
(dp3310
sg82
g3304
sg75
(lp3311
g68
(g89
g70
NtRp3312
(dp3313
g73
(dp3314
g93
g94
ssg82
g3308
sg75
(lp3315
g166
asbag68
(g89
g70
NtRp3316
(dp3317
g73
(dp3318
g100
g101
ssg82
g3308
sg75
(lp3319
S':'
asbag68
(g89
g70
NtRp3320
(dp3321
g73
(dp3322
sg82
g3308
sg75
(lp3323
g68
(g69
g70
NtRp3324
(dp3325
g73
(dp3326
g81
I5
ssg82
g3320
sg75
(lp3327
S'<cStringIO.StringO object at 0x1f7ece0>'
p3328
asbasbasbag68
(g84
g70
NtRp3329
(dp3330
g73
(dp3331
sg82
g3304
sg75
(lp3332
g68
(g89
g70
NtRp3333
(dp3334
g73
(dp3335
g93
g94
ssg82
g3329
sg75
(lp3336
g254
asbag68
(g89
g70
NtRp3337
(dp3338
g73
(dp3339
g100
g101
ssg82
g3329
sg75
(lp3340
S':'
asbag68
(g89
g70
NtRp3341
(dp3342
g73
(dp3343
sg82
g3329
sg75
(lp3344
g68
(g69
g70
NtRp3345
(dp3346
g73
(dp3347
g81
I5
ssg82
g3341
sg75
(lp3348
g68
(g77
g70
NtRp3349
(dp3350
g73
(dp3351
g81
I4
ssg82
Nsg75
(lp3352
g68
(g84
g70
NtRp3353
(dp3354
g73
(dp3355
sg82
g3349
sg75
(lp3356
g68
(g89
g70
NtRp3357
(dp3358
g73
(dp3359
g93
g94
ssg82
g3353
sg75
(lp3360
S'session_id_manager'
p3361
asbag68
(g89
g70
NtRp3362
(dp3363
g73
(dp3364
g100
g101
ssg82
g3353
sg75
(lp3365
S':'
asbag68
(g89
g70
NtRp3366
(dp3367
g73
(dp3368
sg82
g3353
sg75
(lp3369
g68
(g69
g70
NtRp3370
(dp3371
g73
(dp3372
g81
I4
ssg82
g3366
sg75
(lp3373
g486
ag68
(g77
g70
NtRp3374
(dp3375
g73
(dp3376
g81
I3
ssg82
Nsg75
(lp3377
g68
(g84
g70
NtRp3378
(dp3379
g73
(dp3380
sg82
g3374
sg75
(lp3381
g68
(g89
g70
NtRp3382
(dp3383
g73
(dp3384
g93
g94
ssg82
g3378
sg75
(lp3385
g305
asbag68
(g89
g70
NtRp3386
(dp3387
g73
(dp3388
g100
g101
ssg82
g3378
sg75
(lp3389
S':'
asbag68
(g89
g70
NtRp3390
(dp3391
g73
(dp3392
sg82
g3378
sg75
(lp3393
g68
(g69
g70
NtRp3394
(dp3395
g73
(dp3396
g81
I3
ssg82
g3390
sg75
(lp3397
S''
asbasbasbag68
(g84
g70
NtRp3398
(dp3399
g73
(dp3400
sg82
g3374
sg75
(lp3401
g68
(g89
g70
NtRp3402
(dp3403
g73
(dp3404
g93
g94
ssg82
g3398
sg75
(lp3405
g326
asbag68
(g89
g70
NtRp3406
(dp3407
g73
(dp3408
g100
g101
ssg82
g3398
sg75
(lp3409
S':'
asbag68
(g89
g70
NtRp3410
(dp3411
g73
(dp3412
sg82
g3398
sg75
(lp3413
g68
(g69
g70
NtRp3414
(dp3415
g73
(dp3416
g81
I3
ssg82
g3410
sg75
(lp3417
S''
asbasbasbag68
(g84
g70
NtRp3418
(dp3419
g73
(dp3420
sg82
g3374
sg75
(lp3421
g68
(g89
g70
NtRp3422
(dp3423
g73
(dp3424
g93
g94
ssg82
g3418
sg75
(lp3425
g347
asbag68
(g89
g70
NtRp3426
(dp3427
g73
(dp3428
g100
g101
ssg82
g3418
sg75
(lp3429
S':'
asbag68
(g89
g70
NtRp3430
(dp3431
g73
(dp3432
sg82
g3418
sg75
(lp3433
g68
(g69
g70
NtRp3434
(dp3435
g73
(dp3436
g81
I3
ssg82
g3430
sg75
(lp3437
S''
asbasbasbag68
(g84
g70
NtRp3438
(dp3439
g73
(dp3440
sg82
g3374
sg75
(lp3441
g68
(g89
g70
NtRp3442
(dp3443
g73
(dp3444
g93
g94
ssg82
g3438
sg75
(lp3445
g368
asbag68
(g89
g70
NtRp3446
(dp3447
g73
(dp3448
g100
g101
ssg82
g3438
sg75
(lp3449
S':'
asbag68
(g89
g70
NtRp3450
(dp3451
g73
(dp3452
sg82
g3438
sg75
(lp3453
g68
(g69
g70
NtRp3454
(dp3455
g73
(dp3456
g81
I3
ssg82
g3450
sg75
(lp3457
S''
asbasbasbag68
(g84
g70
NtRp3458
(dp3459
g73
(dp3460
sg82
g3374
sg75
(lp3461
g68
(g89
g70
NtRp3462
(dp3463
g73
(dp3464
g93
g94
ssg82
g3458
sg75
(lp3465
g389
asbag68
(g89
g70
NtRp3466
(dp3467
g73
(dp3468
g100
g101
ssg82
g3458
sg75
(lp3469
S':'
asbag68
(g89
g70
NtRp3470
(dp3471
g73
(dp3472
sg82
g3458
sg75
(lp3473
g68
(g69
g70
NtRp3474
(dp3475
g73
(dp3476
g81
I3
ssg82
g3470
sg75
(lp3477
S''
asbasbasbag68
(g84
g70
NtRp3478
(dp3479
g73
(dp3480
sg82
g3374
sg75
(lp3481
g68
(g89
g70
NtRp3482
(dp3483
g73
(dp3484
g93
g94
ssg82
g3478
sg75
(lp3485
g410
asbag68
(g89
g70
NtRp3486
(dp3487
g73
(dp3488
g100
g101
ssg82
g3478
sg75
(lp3489
S':'
asbag68
(g89
g70
NtRp3490
(dp3491
g73
(dp3492
sg82
g3478
sg75
(lp3493
g68
(g69
g70
NtRp3494
(dp3495
g73
(dp3496
g81
I3
ssg82
g3490
sg75
(lp3497
S'/'
asbasbasbag68
(g84
g70
NtRp3498
(dp3499
g73
(dp3500
sg82
g3374
sg75
(lp3501
g68
(g89
g70
NtRp3502
(dp3503
g73
(dp3504
g93
g94
ssg82
g3498
sg75
(lp3505
g431
asbag68
(g89
g70
NtRp3506
(dp3507
g73
(dp3508
g100
g101
ssg82
g3498
sg75
(lp3509
S':'
asbag68
(g89
g70
NtRp3510
(dp3511
g73
(dp3512
sg82
g3498
sg75
(lp3513
g68
(g69
g70
NtRp3514
(dp3515
g73
(dp3516
g81
I3
ssg82
g3510
sg75
(lp3517
S''
asbasbasbag68
(g84
g70
NtRp3518
(dp3519
g73
(dp3520
sg82
g3374
sg75
(lp3521
g68
(g89
g70
NtRp3522
(dp3523
g73
(dp3524
g93
g94
ssg82
g3518
sg75
(lp3525
g452
asbag68
(g89
g70
NtRp3526
(dp3527
g73
(dp3528
g100
g101
ssg82
g3518
sg75
(lp3529
S':'
asbag68
(g89
g70
NtRp3530
(dp3531
g73
(dp3532
sg82
g3518
sg75
(lp3533
g68
(g69
g70
NtRp3534
(dp3535
g73
(dp3536
g81
I3
ssg82
g3530
sg75
(lp3537
S''
asbasbasbasbasbasbasbasbasbasbasbag68
(g84
g70
NtRp3538
(dp3539
g73
(dp3540
sg82
g3304
sg75
(lp3541
g68
(g89
g70
NtRp3542
(dp3543
g73
(dp3544
g93
g94
ssg82
g3538
sg75
(lp3545
S'delimiters'
p3546
asbag68
(g89
g70
NtRp3547
(dp3548
g73
(dp3549
g100
g101
ssg82
g3538
sg75
(lp3550
S':'
asbag68
(g89
g70
NtRp3551
(dp3552
g73
(dp3553
sg82
g3538
sg75
(lp3554
g68
(g69
g70
NtRp3555
(dp3556
g73
(dp3557
g81
I5
ssg82
g3551
sg75
(lp3558
g68
(g77
g70
NtRp3559
(dp3560
g73
(dp3561
g81
I4
ssg82
Nsg75
(lp3562
g68
(g84
g70
NtRp3563
(dp3564
g73
(dp3565
sg82
g3559
sg75
(lp3566
g68
(g89
g70
NtRp3567
(dp3568
g73
(dp3569
sg82
g3563
sg75
(lp3570
g68
(g69
g70
NtRp3571
(dp3572
g73
(dp3573
g81
I4
ssg82
g3567
sg75
(lp3574
S'{{'
p3575
asbasbasbag68
(g84
g70
NtRp3576
(dp3577
g73
(dp3578
sg82
g3559
sg75
(lp3579
g68
(g89
g70
NtRp3580
(dp3581
g73
(dp3582
sg82
g3576
sg75
(lp3583
g68
(g69
g70
NtRp3584
(dp3585
g73
(dp3586
g81
I4
ssg82
g3580
sg75
(lp3587
S'}}'
p3588
asbasbasbasbasbasbasbag68
(g84
g70
NtRp3589
(dp3590
g73
(dp3591
sg82
g3304
sg75
(lp3592
g68
(g89
g70
NtRp3593
(dp3594
g73
(dp3595
g93
g94
ssg82
g3589
sg75
(lp3596
S'files'
p3597
asbag68
(g89
g70
NtRp3598
(dp3599
g73
(dp3600
g100
g101
ssg82
g3589
sg75
(lp3601
S':'
asbag68
(g89
g70
NtRp3602
(dp3603
g73
(dp3604
sg82
g3589
sg75
(lp3605
g68
(g69
g70
NtRp3606
(dp3607
g73
(dp3608
g81
I5
ssg82
g3602
sg75
(lp3609
g68
(g77
g70
NtRp3610
(dp3611
g73
(dp3612
g81
I4
ssg82
Nsg75
(lp3613
sbasbasbasbag68
(g84
g70
NtRp3614
(dp3615
g73
(dp3616
sg82
g3304
sg75
(lp3617
g68
(g89
g70
NtRp3618
(dp3619
g73
(dp3620
g93
g94
ssg82
g3614
sg75
(lp3621
S'flash'
p3622
asbag68
(g89
g70
NtRp3623
(dp3624
g73
(dp3625
g100
g101
ssg82
g3614
sg75
(lp3626
S':'
asbag68
(g89
g70
NtRp3627
(dp3628
g73
(dp3629
sg82
g3614
sg75
(lp3630
g68
(g69
g70
NtRp3631
(dp3632
g73
(dp3633
g81
I5
ssg82
g3627
sg75
(lp3634
S''
asbasbasbag68
(g84
g70
NtRp3635
(dp3636
g73
(dp3637
sg82
g3304
sg75
(lp3638
g68
(g89
g70
NtRp3639
(dp3640
g73
(dp3641
g93
g94
ssg82
g3635
sg75
(lp3642
S'generic_patterns'
p3643
asbag68
(g89
g70
NtRp3644
(dp3645
g73
(dp3646
g100
g101
ssg82
g3635
sg75
(lp3647
S':'
asbag68
(g89
g70
NtRp3648
(dp3649
g73
(dp3650
sg82
g3635
sg75
(lp3651
g68
(g69
g70
NtRp3652
(dp3653
g73
(dp3654
g81
I5
ssg82
g3648
sg75
(lp3655
g68
(g77
g70
NtRp3656
(dp3657
g73
(dp3658
g81
I4
ssg82
Nsg75
(lp3659
g68
(g84
g70
NtRp3660
(dp3661
g73
(dp3662
sg82
g3656
sg75
(lp3663
g68
(g89
g70
NtRp3664
(dp3665
g73
(dp3666
sg82
g3660
sg75
(lp3667
g68
(g69
g70
NtRp3668
(dp3669
g73
(dp3670
g81
I4
ssg82
g3664
sg75
(lp3671
S'*'
asbasbasbasbasbasbasbag68
(g84
g70
NtRp3672
(dp3673
g73
(dp3674
sg82
g3304
sg75
(lp3675
g68
(g89
g70
NtRp3676
(dp3677
g73
(dp3678
g93
g94
ssg82
g3672
sg75
(lp3679
S'google_analytics_id'
p3680
asbag68
(g89
g70
NtRp3681
(dp3682
g73
(dp3683
g100
g101
ssg82
g3672
sg75
(lp3684
S':'
asbag68
(g89
g70
NtRp3685
(dp3686
g73
(dp3687
sg82
g3672
sg75
(lp3688
g68
(g69
g70
NtRp3689
(dp3690
g73
(dp3691
g81
I5
ssg82
g3685
sg75
(lp3692
S'None'
p3693
asbasbasbag68
(g84
g70
NtRp3694
(dp3695
g73
(dp3696
sg82
g3304
sg75
(lp3697
g68
(g89
g70
NtRp3698
(dp3699
g73
(dp3700
g93
g94
ssg82
g3694
sg75
(lp3701
S'headers'
p3702
asbag68
(g89
g70
NtRp3703
(dp3704
g73
(dp3705
g100
g101
ssg82
g3694
sg75
(lp3706
S':'
asbag68
(g89
g70
NtRp3707
(dp3708
g73
(dp3709
sg82
g3694
sg75
(lp3710
g68
(g69
g70
NtRp3711
(dp3712
g73
(dp3713
g81
I5
ssg82
g3707
sg75
(lp3714
g68
(g77
g70
NtRp3715
(dp3716
g73
(dp3717
g81
I4
ssg82
Nsg75
(lp3718
g68
(g84
g70
NtRp3719
(dp3720
g73
(dp3721
sg82
g3715
sg75
(lp3722
g68
(g89
g70
NtRp3723
(dp3724
g73
(dp3725
g93
g94
ssg82
g3719
sg75
(lp3726
S'X-Powered-By'
p3727
asbag68
(g89
g70
NtRp3728
(dp3729
g73
(dp3730
g100
g101
ssg82
g3719
sg75
(lp3731
S':'
asbag68
(g89
g70
NtRp3732
(dp3733
g73
(dp3734
sg82
g3719
sg75
(lp3735
g68
(g69
g70
NtRp3736
(dp3737
g73
(dp3738
g81
I4
ssg82
g3732
sg75
(lp3739
S'web2py'
p3740
asbasbasbasbasbasbasbag68
(g84
g70
NtRp3741
(dp3742
g73
(dp3743
sg82
g3304
sg75
(lp3744
g68
(g89
g70
NtRp3745
(dp3746
g73
(dp3747
g93
g94
ssg82
g3741
sg75
(lp3748
S'menu'
p3749
asbag68
(g89
g70
NtRp3750
(dp3751
g73
(dp3752
g100
g101
ssg82
g3741
sg75
(lp3753
S':'
asbag68
(g89
g70
NtRp3754
(dp3755
g73
(dp3756
sg82
g3741
sg75
(lp3757
g68
(g69
g70
NtRp3758
(dp3759
g73
(dp3760
g81
I5
ssg82
g3754
sg75
(lp3761
g68
(g77
g70
NtRp3762
(dp3763
g73
(dp3764
g81
I4
ssg82
Nsg75
(lp3765
g68
(g84
g70
NtRp3766
(dp3767
g73
(dp3768
sg82
g3762
sg75
(lp3769
g68
(g89
g70
NtRp3770
(dp3771
g73
(dp3772
sg82
g3766
sg75
(lp3773
g68
(g69
g70
NtRp3774
(dp3775
g73
(dp3776
g81
I4
ssg82
g3770
sg75
(lp3777
g68
(g77
g70
NtRp3778
(dp3779
g73
(dp3780
g81
I3
ssg82
Nsg75
(lp3781
g68
(g84
g70
NtRp3782
(dp3783
g73
(dp3784
sg82
g3778
sg75
(lp3785
g68
(g89
g70
NtRp3786
(dp3787
g73
(dp3788
sg82
g3782
sg75
(lp3789
g68
(g69
g70
NtRp3790
(dp3791
g73
(dp3792
g81
I3
ssg82
g3786
sg75
(lp3793
cgluon.languages
lazyT_unpickle
p3794
(S't\x04\x00\x00\x00Home'
tRp3795
asbasbasbag68
(g84
g70
NtRp3796
(dp3797
g73
(dp3798
sg82
g3778
sg75
(lp3799
g68
(g89
g70
NtRp3800
(dp3801
g73
(dp3802
sg82
g3796
sg75
(lp3803
g68
(g69
g70
NtRp3804
(dp3805
g73
(dp3806
g81
I3
ssg82
g3800
sg75
(lp3807
g111
asbasbasbag68
(g84
g70
NtRp3808
(dp3809
g73
(dp3810
sg82
g3778
sg75
(lp3811
g68
(g89
g70
NtRp3812
(dp3813
g73
(dp3814
sg82
g3808
sg75
(lp3815
g68
(g69
g70
NtRp3816
(dp3817
g73
(dp3818
g81
I3
ssg82
g3812
sg75
(lp3819
S'/manager/default/index'
p3820
asbasbasbasbasbasbasbag68
(g84
g70
NtRp3821
(dp3822
g73
(dp3823
sg82
g3762
sg75
(lp3824
g68
(g89
g70
NtRp3825
(dp3826
g73
(dp3827
sg82
g3821
sg75
(lp3828
g68
(g69
g70
NtRp3829
(dp3830
g73
(dp3831
g81
I4
ssg82
g3825
sg75
(lp3832
g68
(g77
g70
NtRp3833
(dp3834
g73
(dp3835
g81
I3
ssg82
Nsg75
(lp3836
g68
(g84
g70
NtRp3837
(dp3838
g73
(dp3839
sg82
g3833
sg75
(lp3840
g68
(g89
g70
NtRp3841
(dp3842
g73
(dp3843
sg82
g3837
sg75
(lp3844
g68
(g69
g70
NtRp3845
(dp3846
g73
(dp3847
g81
I3
ssg82
g3841
sg75
(lp3848
g3794
(S't\x06\x00\x00\x00logout'
tRp3849
asbasbasbag68
(g84
g70
NtRp3850
(dp3851
g73
(dp3852
sg82
g3833
sg75
(lp3853
g68
(g89
g70
NtRp3854
(dp3855
g73
(dp3856
sg82
g3850
sg75
(lp3857
g68
(g69
g70
NtRp3858
(dp3859
g73
(dp3860
g81
I3
ssg82
g3854
sg75
(lp3861
g111
asbasbasbag68
(g84
g70
NtRp3862
(dp3863
g73
(dp3864
sg82
g3833
sg75
(lp3865
g68
(g89
g70
NtRp3866
(dp3867
g73
(dp3868
sg82
g3862
sg75
(lp3869
g68
(g69
g70
NtRp3870
(dp3871
g73
(dp3872
g81
I3
ssg82
g3866
sg75
(lp3873
S'/manager/default/logout'
p3874
asbasbasbasbasbasbasbasbasbasbasbag68
(g84
g70
NtRp3875
(dp3876
g73
(dp3877
sg82
g3304
sg75
(lp3878
g68
(g89
g70
NtRp3879
(dp3880
g73
(dp3881
g93
g94
ssg82
g3875
sg75
(lp3882
S'meta'
p3883
asbag68
(g89
g70
NtRp3884
(dp3885
g73
(dp3886
g100
g101
ssg82
g3875
sg75
(lp3887
S':'
asbag68
(g89
g70
NtRp3888
(dp3889
g73
(dp3890
sg82
g3875
sg75
(lp3891
g68
(g69
g70
NtRp3892
(dp3893
g73
(dp3894
g81
I5
ssg82
g3888
sg75
(lp3895
g68
(g77
g70
NtRp3896
(dp3897
g73
(dp3898
g81
I4
ssg82
Nsg75
(lp3899
g68
(g84
g70
NtRp3900
(dp3901
g73
(dp3902
sg82
g3896
sg75
(lp3903
g68
(g89
g70
NtRp3904
(dp3905
g73
(dp3906
g93
g94
ssg82
g3900
sg75
(lp3907
S'author'
p3908
asbag68
(g89
g70
NtRp3909
(dp3910
g73
(dp3911
g100
g101
ssg82
g3900
sg75
(lp3912
S':'
asbag68
(g89
g70
NtRp3913
(dp3914
g73
(dp3915
sg82
g3900
sg75
(lp3916
g68
(g69
g70
NtRp3917
(dp3918
g73
(dp3919
g81
I4
ssg82
g3913
sg75
(lp3920
S'Your Name <you@example.com>'
p3921
asbasbasbag68
(g84
g70
NtRp3922
(dp3923
g73
(dp3924
sg82
g3896
sg75
(lp3925
g68
(g89
g70
NtRp3926
(dp3927
g73
(dp3928
g93
g94
ssg82
g3922
sg75
(lp3929
S'copyright'
p3930
asbag68
(g89
g70
NtRp3931
(dp3932
g73
(dp3933
g100
g101
ssg82
g3922
sg75
(lp3934
S':'
asbag68
(g89
g70
NtRp3935
(dp3936
g73
(dp3937
sg82
g3922
sg75
(lp3938
g68
(g69
g70
NtRp3939
(dp3940
g73
(dp3941
g81
I4
ssg82
g3935
sg75
(lp3942
S'Copyright 2011'
p3943
asbasbasbag68
(g84
g70
NtRp3944
(dp3945
g73
(dp3946
sg82
g3896
sg75
(lp3947
g68
(g89
g70
NtRp3948
(dp3949
g73
(dp3950
g93
g94
ssg82
g3944
sg75
(lp3951
S'description'
p3952
asbag68
(g89
g70
NtRp3953
(dp3954
g73
(dp3955
g100
g101
ssg82
g3944
sg75
(lp3956
S':'
asbag68
(g89
g70
NtRp3957
(dp3958
g73
(dp3959
sg82
g3944
sg75
(lp3960
g68
(g69
g70
NtRp3961
(dp3962
g73
(dp3963
g81
I4
ssg82
g3957
sg75
(lp3964
S'a cool new app'
p3965
asbasbasbag68
(g84
g70
NtRp3966
(dp3967
g73
(dp3968
sg82
g3896
sg75
(lp3969
g68
(g89
g70
NtRp3970
(dp3971
g73
(dp3972
g93
g94
ssg82
g3966
sg75
(lp3973
S'generator'
p3974
asbag68
(g89
g70
NtRp3975
(dp3976
g73
(dp3977
g100
g101
ssg82
g3966
sg75
(lp3978
S':'
asbag68
(g89
g70
NtRp3979
(dp3980
g73
(dp3981
sg82
g3966
sg75
(lp3982
g68
(g69
g70
NtRp3983
(dp3984
g73
(dp3985
g81
I4
ssg82
g3979
sg75
(lp3986
S'Web2py Web Framework'
p3987
asbasbasbag68
(g84
g70
NtRp3988
(dp3989
g73
(dp3990
sg82
g3896
sg75
(lp3991
g68
(g89
g70
NtRp3992
(dp3993
g73
(dp3994
g93
g94
ssg82
g3988
sg75
(lp3995
S'keywords'
p3996
asbag68
(g89
g70
NtRp3997
(dp3998
g73
(dp3999
g100
g101
ssg82
g3988
sg75
(lp4000
S':'
asbag68
(g89
g70
NtRp4001
(dp4002
g73
(dp4003
sg82
g3988
sg75
(lp4004
g68
(g69
g70
NtRp4005
(dp4006
g73
(dp4007
g81
I4
ssg82
g4001
sg75
(lp4008
S'web2py, python, framework'
p4009
asbasbasbasbasbasbasbag68
(g84
g70
NtRp4010
(dp4011
g73
(dp4012
sg82
g3304
sg75
(lp4013
g68
(g89
g70
NtRp4014
(dp4015
g73
(dp4016
g93
g94
ssg82
g4010
sg75
(lp4017
S'models_to_run'
p4018
asbag68
(g89
g70
NtRp4019
(dp4020
g73
(dp4021
g100
g101
ssg82
g4010
sg75
(lp4022
S':'
asbag68
(g89
g70
NtRp4023
(dp4024
g73
(dp4025
sg82
g4010
sg75
(lp4026
g68
(g69
g70
NtRp4027
(dp4028
g73
(dp4029
g81
I5
ssg82
g4023
sg75
(lp4030
g68
(g77
g70
NtRp4031
(dp4032
g73
(dp4033
g81
I4
ssg82
Nsg75
(lp4034
g68
(g84
g70
NtRp4035
(dp4036
g73
(dp4037
sg82
g4031
sg75
(lp4038
g68
(g89
g70
NtRp4039
(dp4040
g73
(dp4041
sg82
g4035
sg75
(lp4042
g68
(g69
g70
NtRp4043
(dp4044
g73
(dp4045
g81
I4
ssg82
g4039
sg75
(lp4046
S'^\\w+\\.py$'
p4047
asbasbasbag68
(g84
g70
NtRp4048
(dp4049
g73
(dp4050
sg82
g4031
sg75
(lp4051
g68
(g89
g70
NtRp4052
(dp4053
g73
(dp4054
sg82
g4048
sg75
(lp4055
g68
(g69
g70
NtRp4056
(dp4057
g73
(dp4058
g81
I4
ssg82
g4052
sg75
(lp4059
S'^default/\\w+\\.py$'
p4060
asbasbasbag68
(g84
g70
NtRp4061
(dp4062
g73
(dp4063
sg82
g4031
sg75
(lp4064
g68
(g89
g70
NtRp4065
(dp4066
g73
(dp4067
sg82
g4061
sg75
(lp4068
g68
(g69
g70
NtRp4069
(dp4070
g73
(dp4071
g81
I4
ssg82
g4065
sg75
(lp4072
S'^default/index/\\w+\\.py$'
p4073
asbasbasbasbasbasbasbag68
(g84
g70
NtRp4074
(dp4075
g73
(dp4076
sg82
g3304
sg75
(lp4077
g68
(g89
g70
NtRp4078
(dp4079
g73
(dp4080
g93
g94
ssg82
g4074
sg75
(lp4081
S'postprocessing'
p4082
asbag68
(g89
g70
NtRp4083
(dp4084
g73
(dp4085
g100
g101
ssg82
g4074
sg75
(lp4086
S':'
asbag68
(g89
g70
NtRp4087
(dp4088
g73
(dp4089
sg82
g4074
sg75
(lp4090
g68
(g69
g70
NtRp4091
(dp4092
g73
(dp4093
g81
I5
ssg82
g4087
sg75
(lp4094
g68
(g77
g70
NtRp4095
(dp4096
g73
(dp4097
g81
I4
ssg82
Nsg75
(lp4098
sbasbasbasbag68
(g84
g70
NtRp4099
(dp4100
g73
(dp4101
sg82
g3304
sg75
(lp4102
g68
(g89
g70
NtRp4103
(dp4104
g73
(dp4105
g93
g94
ssg82
g4099
sg75
(lp4106
S'session_file'
p4107
asbag68
(g89
g70
NtRp4108
(dp4109
g73
(dp4110
g100
g101
ssg82
g4099
sg75
(lp4111
S':'
asbag68
(g89
g70
NtRp4112
(dp4113
g73
(dp4114
sg82
g4099
sg75
(lp4115
g68
(g69
g70
NtRp4116
(dp4117
g73
(dp4118
g81
I5
ssg82
g4112
sg75
(lp4119
S"<open file '/home/madhuri/Downloads/web2py/applications/manager/sessions/127.0.0.1-6f272149-6c92-44cc-85ba-c8ea1e4f1e04', mode 'rb+' at 0x7f1dc04c1e40>"
p4120
asbasbasbag68
(g84
g70
NtRp4121
(dp4122
g73
(dp4123
sg82
g3304
sg75
(lp4124
g68
(g89
g70
NtRp4125
(dp4126
g73
(dp4127
g93
g94
ssg82
g4121
sg75
(lp4128
S'session_filename'
p4129
asbag68
(g89
g70
NtRp4130
(dp4131
g73
(dp4132
g100
g101
ssg82
g4121
sg75
(lp4133
S':'
asbag68
(g89
g70
NtRp4134
(dp4135
g73
(dp4136
sg82
g4121
sg75
(lp4137
g68
(g69
g70
NtRp4138
(dp4139
g73
(dp4140
g81
I5
ssg82
g4134
sg75
(lp4141
S'/home/madhuri/Downloads/web2py/applications/manager/sessions/127.0.0.1-6f272149-6c92-44cc-85ba-c8ea1e4f1e04'
p4142
asbasbasbag68
(g84
g70
NtRp4143
(dp4144
g73
(dp4145
sg82
g3304
sg75
(lp4146
g68
(g89
g70
NtRp4147
(dp4148
g73
(dp4149
g93
g94
ssg82
g4143
sg75
(lp4150
S'session_id'
p4151
asbag68
(g89
g70
NtRp4152
(dp4153
g73
(dp4154
g100
g101
ssg82
g4143
sg75
(lp4155
S':'
asbag68
(g89
g70
NtRp4156
(dp4157
g73
(dp4158
sg82
g4143
sg75
(lp4159
g68
(g69
g70
NtRp4160
(dp4161
g73
(dp4162
g81
I5
ssg82
g4156
sg75
(lp4163
g486
asbasbasbag68
(g84
g70
NtRp4164
(dp4165
g73
(dp4166
sg82
g3304
sg75
(lp4167
g68
(g89
g70
NtRp4168
(dp4169
g73
(dp4170
g93
g94
ssg82
g4164
sg75
(lp4171
S'session_id_name'
p4172
asbag68
(g89
g70
NtRp4173
(dp4174
g73
(dp4175
g100
g101
ssg82
g4164
sg75
(lp4176
S':'
asbag68
(g89
g70
NtRp4177
(dp4178
g73
(dp4179
sg82
g4164
sg75
(lp4180
g68
(g69
g70
NtRp4181
(dp4182
g73
(dp4183
g81
I5
ssg82
g4177
sg75
(lp4184
g3361
asbasbasbag68
(g84
g70
NtRp4185
(dp4186
g73
(dp4187
sg82
g3304
sg75
(lp4188
g68
(g89
g70
NtRp4189
(dp4190
g73
(dp4191
g93
g94
ssg82
g4185
sg75
(lp4192
S'session_locked'
p4193
asbag68
(g89
g70
NtRp4194
(dp4195
g73
(dp4196
g100
g101
ssg82
g4185
sg75
(lp4197
S':'
asbag68
(g89
g70
NtRp4198
(dp4199
g73
(dp4200
sg82
g4185
sg75
(lp4201
g68
(g69
g70
NtRp4202
(dp4203
g73
(dp4204
g81
I5
ssg82
g4198
sg75
(lp4205
g1712
asbasbasbag68
(g84
g70
NtRp4206
(dp4207
g73
(dp4208
sg82
g3304
sg75
(lp4209
g68
(g89
g70
NtRp4210
(dp4211
g73
(dp4212
g93
g94
ssg82
g4206
sg75
(lp4213
S'session_new'
p4214
asbag68
(g89
g70
NtRp4215
(dp4216
g73
(dp4217
g100
g101
ssg82
g4206
sg75
(lp4218
S':'
asbag68
(g89
g70
NtRp4219
(dp4220
g73
(dp4221
sg82
g4206
sg75
(lp4222
g68
(g69
g70
NtRp4223
(dp4224
g73
(dp4225
g81
I5
ssg82
g4219
sg75
(lp4226
g111
asbasbasbag68
(g84
g70
NtRp4227
(dp4228
g73
(dp4229
sg82
g3304
sg75
(lp4230
g68
(g89
g70
NtRp4231
(dp4232
g73
(dp4233
g93
g94
ssg82
g4227
sg75
(lp4234
S'status'
p4235
asbag68
(g89
g70
NtRp4236
(dp4237
g73
(dp4238
g100
g101
ssg82
g4227
sg75
(lp4239
S':'
asbag68
(g89
g70
NtRp4240
(dp4241
g73
(dp4242
sg82
g4227
sg75
(lp4243
g68
(g69
g70
NtRp4244
(dp4245
g73
(dp4246
g81
I5
ssg82
g4240
sg75
(lp4247
S'200'
p4248
asbasbasbag68
(g84
g70
NtRp4249
(dp4250
g73
(dp4251
sg82
g3304
sg75
(lp4252
g68
(g89
g70
NtRp4253
(dp4254
g73
(dp4255
g93
g94
ssg82
g4249
sg75
(lp4256
S'subtitle'
p4257
asbag68
(g89
g70
NtRp4258
(dp4259
g73
(dp4260
g100
g101
ssg82
g4249
sg75
(lp4261
S':'
asbag68
(g89
g70
NtRp4262
(dp4263
g73
(dp4264
sg82
g4249
sg75
(lp4265
g68
(g69
g70
NtRp4266
(dp4267
g73
(dp4268
g81
I5
ssg82
g4262
sg75
(lp4269
g3794
(S's\r\x00\x00\x00customize me!'
tRp4270
asbasbasbag68
(g84
g70
NtRp4271
(dp4272
g73
(dp4273
sg82
g3304
sg75
(lp4274
g68
(g89
g70
NtRp4275
(dp4276
g73
(dp4277
g93
g94
ssg82
g4271
sg75
(lp4278
S'title'
p4279
asbag68
(g89
g70
NtRp4280
(dp4281
g73
(dp4282
g100
g101
ssg82
g4271
sg75
(lp4283
S':'
asbag68
(g89
g70
NtRp4284
(dp4285
g73
(dp4286
sg82
g4271
sg75
(lp4287
g68
(g69
g70
NtRp4288
(dp4289
g73
(dp4290
g81
I5
ssg82
g4284
sg75
(lp4291
S'Manager'
p4292
asbasbasbag68
(g84
g70
NtRp4293
(dp4294
g73
(dp4295
sg82
g3304
sg75
(lp4296
g68
(g89
g70
NtRp4297
(dp4298
g73
(dp4299
g93
g94
ssg82
g4293
sg75
(lp4300
S'view'
p4301
asbag68
(g89
g70
NtRp4302
(dp4303
g73
(dp4304
g100
g101
ssg82
g4293
sg75
(lp4305
S':'
asbag68
(g89
g70
NtRp4306
(dp4307
g73
(dp4308
sg82
g4293
sg75
(lp4309
g68
(g69
g70
NtRp4310
(dp4311
g73
(dp4312
g81
I5
ssg82
g4306
sg75
(lp4313
S'default/index.html'
p4314
asbasbasbasbasbsS'locals'
p4315
(dp4316
g4
S"'/home/madhuri/Downloads/web2py/applications/manager/views/default/index.html'"
p4317
sg6
S'\'response.write(\\\'<!DOCTYPE html PUBLIC "-//W3C//D...v>\\\\n  </div>\\\\n </body>\\\\n</html>\\\\n\\\', escape=False)\''
p4318
sssS'traceback'
p4319
S'Traceback (most recent call last):\n  File "/home/madhuri/Downloads/web2py/gluon/restricted.py", line 208, in restricted\n    ccode = compile2(code,layer)\n  File "/home/madhuri/Downloads/web2py/gluon/restricted.py", line 193, in compile2\n    return compile(code.rstrip().replace(\'\\r\\n\',\'\\n\')+\'\\n\', layer, \'exec\')\n  File "/home/madhuri/Downloads/web2py/applications/manager/views/default/index.html", line 35\n    if !award:\n       ^\nSyntaxError: invalid syntax\n'
p4320
s.