(dp1
S'output'
p2
S"<type 'exceptions.NameError'> global name 'Name' is not defined"
p3
sS'layer'
p4
S'/home/unic/web2py/applications/manager/controllers/default.py'
p5
sS'code'
p6
S'#########################################################################\n# Coding done by Madhuri,Neeharika,Abhishek\n# \n#########################################################################\nfrom gluon.sqlhtml import form_factory\nimport socket\n\n#define the Login,Logout,Redirecting URL\'s here\nCAS.login_url=\'https://login.iiit.ac.in/cas/login\'\nCAS.check_url=\'https://login.iiit.ac.in/cas/validate\'\nCAS.logout_url=\'https://login.iiit.ac.in/cas/logout\'\nCAS.my_url=\'http://127.0.0.1:8000/manager/default/login\'\n#if not logged in redirect to login page\nif not session.token and not request.function==\'login\':\n    redirect(URL(r=request, f=\'login\'))\n#--------Abhishek---------#\n#define the session.login to distinguish between different users\n#get the session.token\ndef login():   #function for login \n    session.login = 0 \n    session.token = CAS.login(request)\n    return dict()\n    \n      \ndef logout():   #function for logout\n    session.token=None\n    CAS.logout()\n    \ndef index():   #function returns the variables required for the first page of the student portal.\n  """\n  example action using the internationalization operator T and flash\n  rendered by views/default/index.html or views/generic.html\n  """\n  name=session.token.split(\'@\')[0]        #get the firstname.lastname from email\n  first_name=name.split(\'.\')[0]           #get the first name\n  last_name=name.split(\'.\')[1]            #get ethe last name\n  test1 = db(db.auth_user.email == session.token).select()            #select the user whose email is the one logged in\n  if(len(test1)==0):                                                  #if not already in database then store it for further use\n        db.auth_user.insert(\n        first_name=first_name,\n        last_name=last_name,\n        email=session.token)\n  session.login = 0\n  session.LOGGEDIN = 0\n  users1 = db().select(db.Lpref.ALL)   \n  users2 = db().select(db.Lpref.ALL)\n  for i in users1:                   #This part of the code enables the consideration of the recently filled language preferences of the student. Therefore the students can change their language preferences , and the most recently filled ones are considered.\n      for j in users2:\n          if i.id > j.id:\n              if i.E == j.E:\n                  db(db.Lpref.id == j.id).delete()\n  images=db().select(db.Book.ALL)\n #   return dict(message=T(\'Hello World\'))\n  award = db(db.Admin.id > 0).select().first()\n  return dict(images=images,t=session.token,award=award)\ndef edit():\n   users = db().select(db.Book.ALL, orderby=db.Book.Name)\n   return dict(users=users)\ndef drop():       #This function drops the student table and the UPBook table to re-enter the input incase the admin has entered the input wrong.\n  db(db.User.id > 0).delete() \n  db(db.UPBook.id > 0).delete() \n  db(db.Admin.id > 0).delete()\n  form2 = crud.create(db.Admin,\n         next=URL("index"))\n  award = db(db.Admin.id > 0).select().first()\n  return dict(form2=form2,award=award)\ndef errorstu():  #This fuction redirects back to the upload (upload students list) page to enable the admin to append students to the list.\n   if request.vars.csvfile != None:\n        table = db[request.vars.table]\n        file = request.vars.csvfile.file\n        table.import_from_csv_file(file) #Import from the csv file\n        award = db(db.Admin.id > 0).select().first()                                         \n        #query = db.stlist.flag==""\n        #db(query).update(flag="1")         \n        for k in db(db.User.Award=="D1").select():\n            k.Total=award.D1                                                        #The cost of D1 is given to the \'Total\' field of the user table\n            k.update_record()\n        for k in db(db.User.Award=="D2").select():                                  #The cost of D2 is given to the \'Total\' field of the user table\n            k.Total=award.D2                                                        \n            k.update_record()\n        for k in db(db.User.Award=="D3").select():\n            k.Total=award.D3                                                       #The cost of D3 is given to the \'Total\' field of the user table\n            k.update_record()\n        for k in db(db.User.Award=="ML").select():\n            k.Total=award.ML                                                       #The cost of ML is given to the \'Total\' field of the user table\n            k.update_record()\n        #db(db.stlist.Award==k).update(total="1200")\n        #response.flash = \'Students List uploaded\'\n        users1 = db().select(db.User.ALL, orderby=db.User.Name)\n        users2 = db().select(db.User.ALL, orderby=db.User.Name)\n        for i in users1:\n         for j in users2:\n           if i.id < j.id:\n              if i.RollNo == j.RollNo:\n                  db(db.User.id == i.id).update(Total=i.Total+j.Total)            #(removes duplicates)If a student gets more than one award , then the total amount will the sum of the cost of individual awards.\n                  db(db.User.id == i.id).update(Award1=j.Award)\n                  db(db.User.id == j.id).delete()  \n \n        \n   return dict()\ndef errorbook():#This fuction redirects back to the upload1 (upload book list) page to enable the admin to append books to the list.\n   if request.vars.csvfile != None:\n        table = db[request.vars.table]\n        file = request.vars.csvfile.file\n        table.import_from_csv_file(file)                                          #Import from the csv file\n        response.flash = \'Books List uploaded\'\n   return dict()\n\ndef dropstu():#This fuction redirects back to the upload (upload students list) page after deleting the contents of the User table to enable the admin to re-enter the list.\n   db(db.User.id > 0).delete() \n   if request.vars.csvfile != None:\n        table = db[request.vars.table]\n        file = request.vars.csvfile.file\n        table.import_from_csv_file(file) #Import from the csv file\n        award = db(db.Admin.id > 0).select().first()                                         \n        #query = db.stlist.flag==""\n        #db(query).update(flag="1")         \n        for k in db(db.User.Award=="D1").select():\n            k.Total=award.D1                                                         #The cost of D1 is given to the \'Total\' field of the user table\n            k.update_record()\n        for k in db(db.User.Award=="D2").select():\n            k.Total=award.D2                                                         #The cost of D2 is given to the \'Total\' field of the user table\n            k.update_record()\n        for k in db(db.User.Award=="D3").select():\n            k.Total=award.D3                                                        #The cost of D3 is given to the \'Total\' field of the user table\n            k.update_record()\n        for k in db(db.User.Award=="ML").select():\n            k.Total=award.ML                                                        #The cost of ML is given to the \'Total\' field of the user table\n            k.update_record()\n        #db(db.stlist.Award==k).update(total="1200")\n        #response.flash = \'Students List uploaded\'\n        users1 = db().select(db.User.ALL, orderby=db.User.Name)\n        users2 = db().select(db.User.ALL, orderby=db.User.Name)\n        for i in users1:\n         for j in users2:\n           if i.id < j.id:\n              if i.RollNo == j.RollNo:\n                  db(db.User.id == i.id).update(Total=i.Total+j.Total)            #If a student gets more than one award , then the total amount will the sum of the cost of individual awards.\n                  db(db.User.id == i.id).update(Award1=j.Award)\n                  db(db.User.id == j.id).delete()  \n \n        \n   return dict()\ndef dropbook():#This fuction redirects back to the upload1 (upload book list) page after deleting the contents of the Book table to enable the admin to re-enter the list.\n   db(db.Book.id > 0).delete() \n   if request.vars.csvfile != None:\n        table = db[request.vars.table]\n        file = request.vars.csvfile.file\n        table.import_from_csv_file(file)                                          #Import from the csv file\n        response.flash = \'Books List uploaded\'\n   return dict()\n\ndef drop1m():\n  return dict() \ndef error():\n  return dict() \ndef drop1(): #This function deletes the contents of all the tables , to start the entire process afresh for the next academic year.\n  db(db.User.id > 0).delete() \n  db(db.Book.id > 0).delete() \n  db(db.UPBook.id > 0).delete() \n  \n  db(db.Lpref.id>0).delete()\n  db(db.prebook.id>0).delete()\n  db(db.auth_user.id>0).delete()\n  award = db(db.Admin.id > 0).select().first()#selects the first entry.\n  db(db.Admin.id > 0).delete()\n  return dict(award=award)\ndef label(): #This function returns the User and UPBook tables to print the labels for all the students.\n   users = users = db().select(db.User.ALL, orderby=db.User.Name)\n   books = books = db().select(db.UPBook.ALL, orderby=db.UPBook.usd)\n   return dict(users=users,books=books)\ndef admin():#This returns the variables required for the first page of the admin.\n    award = db(db.Admin.id > 0).select().first()\n    return dict(award=award)\ndef user():\n    """\n    exposes:\n    http://..../[app]/default/user/login\n    http://..../[app]/default/user/logout\n    http://..../[app]/default/user/register\n    http://..../[app]/default/user/profile\n    http://..../[app]/default/user/retrieve_password\n    http://..../[app]/default/user/change_password\n    use @auth.requires_login()\n        @auth.requires_membership(\'group name\')\n        @auth.requires_permission(\'read\',\'table name\',record_id)\n    to decorate functions that need access control\n    """\n    return dict(form=auth())\n#@auth.requires_login()\ndef choose():  #Removes the duplicates and returns the variables to print the names of all the students with hyperlinks.\n  users1 = db().select(db.User.ALL, orderby=db.User.Name)\n  users2 = db().select(db.User.ALL, orderby=db.User.Name)\n  for i in users1:\n      for j in users2:\n          if i.id < j.id:\n              if i.RollNo == j.RollNo:    \n                  db(db.User.id == i.id).update(Total=i.Total+j.Total) #(removes duplicates)If a student gets more than one award , then the total amount will the sum of the cost of individual awards.\n                  db(db.User.id == i.id).update(Award1=j.Award)\n                  db(db.User.id == j.id).delete()\n  users = db().select(db.User.ALL, orderby=db.User.Name)\n  return dict(users=users)\ndef nedit():#Allows the admin to edit the book list.\n Book = db.Book(request.args(0)) or redirect(URL(\'edit\'))\n books = db(db.Book.id==request.args(0)).select()\n \n #db.Book.id.default=books.id\n db.Book.Name.default=books[Name]\n db.Book.Language.default=books[Language]\n db.Book.Cost.default=books[Cost]\n db.Book.Copies.default=books[Copies]\n db.Book.Type.default=books[Type]\n form3 = crud.create(db.Book,\n         next=URL("edit"))\n return dict(books=books,form3=form3)\n \ndef show():# This function returns the variables required to display the list of available books and the books selected by the admin for each student.\n User = db.User(request.args(0)) or redirect(URL(\'choose\'))\n Books = db().select(db.Book.ALL, orderby=db.Book.Name)\n UPBooks = db(db.UPBook.usd==User.RollNo).select()\n upbooks1 = db(db.UPBook.usd==User.RollNo).select()\n upbooks = db(db.UPBook.usd==User.RollNo).select()\n \n for i in upbooks:            #This part of the code implements the function to disable multiple selections of the same book to a student by the admin.\n      for j in upbooks1:\n          if i.id < j.id:\n              if i.Bid == j.Bid:\n                 db(db.UPBook.Bid == j.Bid).delete()\n langu = db().select(db.Lpref.ALL)\n lang = db().select(db.lang.ALL)\n return dict(User=User,UPBooks=UPBooks,Books=Books,langu=langu,lang=lang)\ndef alloted():#This function returns the variables required to display the set of students whose allotment is final.\n  users = db().select(db.User.ALL, orderby=db.User.Name)\n  return dict(users=users)\ndef preference():#This function creates a form in which student can fill in his language preferences.\n  for rows in db(db.auth_user.email == session.token).select(db.auth_user.email):\n   id1=rows.email\n  db.Lpref.E.default=id1\n  form1 = crud.create(db.Lpref,\n         next=URL("index"))\n  users1 = db().select(db.Lpref.ALL)\n  users2 = db().select(db.Lpref.ALL)\n  for i in users1:\n      for j in users2:\n          if i.id > j.id:       #This part of the code deletes all the previous language preferences and stores only the recent one. \n              if i.E == j.E:\n                  db(db.Lpref.id == j.id).delete()\n  return dict(form1=form1)\ndef total(): #This function returns the variables required for the output generation.\n   users = db().select(db.User.ALL, orderby=db.User.Name)\n  # award = db().select(db.Admin.ALL).first()\n   award = db(db.Admin.id > 0).select().first()\n   return dict(users=users,award=award)\n \ndef Admin():  #This function creates a form to fill the input i.e the academic year and the award money by the admin.\n  form2 = crud.create(db.Admin,\n         next=URL("index"))\n  award = db(db.Admin.id > 0).select().first()\n  return dict(form2=form2,award=award)\ndef submit():#Implements the functionality where the student\'s name disappers from the initial list of students once the allotment to that student is final.\n db(request.args(0) == db.User.id).update(flag = 1)\n users = db().select(db.User.ALL, orderby=db.User.Name)\n return dict(users=users)\ndef upload():#This function enables the admin to upload the csv file of students list\n    if request.vars.csvfile != None:\n        table = db[request.vars.table]\n        file = request.vars.csvfile.file\n        table.import_from_csv_file(file) #Import from the csv file\n        award = db(db.Admin.id > 0).select().first()                                         \n        #query = db.stlist.flag==""\n        #db(query).update(flag="1")         \n        for k in db(db.User.Award=="D1").select():\n            k.Total=award.D1                                                       #The cost of D1 is given to the \'Total\'\n            k.update_record()\n        for k in db(db.User.Award=="D2").select():\n            k.Total=award.D2                                                       #The cost of D2 is given to the \'Total\'\n            k.update_record()\n        for k in db(db.User.Award=="D3").select():\n            k.Total=award.D3                                                       #The cost of D3 is given to the \'Total\'\n            k.update_record()\n        for k in db(db.User.Award=="ML").select():\n            k.Total=award.ML                                                       #The cost of ML is given to the \'Total\'\n            k.update_record()\n        #db(db.stlist.Award==k).update(total="1200")\n        #response.flash = \'Students List uploaded\'\n    users1 = db().select(db.User.ALL, orderby=db.User.Name)\n    users2 = db().select(db.User.ALL, orderby=db.User.Name)\n    for i in users1:\n         for j in users2:\n           if i.id < j.id:\n              if i.RollNo == j.RollNo:\n                  db(db.User.id == i.id).update(Total=i.Total+j.Total)#(removes duplicates)If a student gets more than one award , then the total amount will the sum of the cost of individual awards.\n                  db(db.User.id == i.id).update(Award1=j.Award)\n                  db(db.User.id == j.id).delete()  \n \n        \n    return dict()\n#@auth.requires_membership(\'Administrator\')\ndef upload1():#This function enables the admin to upload the csv file of books list\n     if request.vars.csvfile != None:\n        table = db[request.vars.table]\n        file = request.vars.csvfile.file\n        table.import_from_csv_file(file)                                          #Import from the csv file\n        response.flash = \'Books List uploaded\'\n     return dict()\ndef update(): #This function inserts into the UPBook table when the admin selects a book to a student.        \n  db.UPBook.insert(Stu_name=request.args(0),usd=request.args(1),Name=request.args(2),Language=request.args(3),Bid=request.args(7),Copies=request.args(8),Cost=request.args(5),Type=request.args(9)) \n  db(db.User.id ==request.args(4)).update(Uptotal=int(int(request.args(6))+int(request.args(5))))\n  db(db.Book.id ==request.args(7)).update(Copies=int(int(request.args(8))-1))\n  User = db.User(request.args(4)) or redirect(URL(\'choose\'))\n  upbooks1 = db(db.UPBook.usd==User.RollNo).select()\n  upbooks = db(db.UPBook.usd==User.RollNo).select()\n  \n  for i in upbooks:\n      for j in upbooks1:\n          if i.id < j.id:\n              if i.Bid == j.Bid:#Ensures no multiple selection of the same book.\n                 \n                  db(db.UPBook.id == j.id).delete()\n  \n  UPBooks = db(db.UPBook.usd==request.args(1)).select()\n  langu = db().select(db.Lpref.ALL)\n  lang = db().select(db.lang.ALL)\n  Books = db().select(db.Book.ALL, orderby=db.Book.Name)\n  return dict(User=User,UPBooks=UPBooks,Books=Books,lang=lang,langu=langu)\ndef delete():#This function deletes a entry from the UPBook table when the admin unselects a book for a particular student.\n  db(db.UPBook.id == request.args(2)).delete()\n  db(db.User.id ==request.args(0)).update(Uptotal=int(int(request.args(1))-int(request.args(6))))\n  db(db.Book.id ==request.args(4)).update(Copies=int(int(request.args(3))))\n  User = db.User(request.args(0)) or redirect(URL(\'choose\'))\n  UPBooks = db(db.UPBook.usd==request.args(5)).select()\n  Books = db().select(db.Book.ALL, orderby=db.Book.Name)\n  langu = db().select(db.Lpref.ALL)\n  lang = db().select(db.lang.ALL)\n  return dict(User=User,UPBooks=UPBooks,Books=Books,langu=langu,lang=lang)\ndef choose1():# This function returns the variables required to display the list of available books and the preferred books of each student.\n for rows in db(db.auth_user.email == session.token).select(db.auth_user.id):\n  id1=rows.id\n prebooks = db(db.prebook.usd == id1).select()\n Books = db().select(db.Book.ALL, orderby=db.Book.Name)\n return dict(prebooks=prebooks,Books=Books)\n\ndef update1():#This function inserts into the prebook table when the student selects a book as his preference.  \n  db.prebook.insert(usd=request.args(0),Name=request.args(1),Language=request.args(2),Bid=request.args(3),Stu_name=request.args(4),Type=request.args(6))\n  db(db.prebook.Stu_name == \'static\').delete()\n \n  prebooks2 = db(db.prebook.usd ==request.args(0)).select()\n  prebooks1 = db(db.prebook.usd ==request.args(0)).select()\n  \n  for i in prebooks2:\n      for j in prebooks1:\n          if i.id < j.id:                 #Ensures no multiple selection of the same book.\n              if i.Bid == j.Bid:\n                 \n                  db(db.prebook.id == j.id).delete()\n  prebooks = db(db.prebook.usd ==request.args(0)).select()\n  Books = db().select(db.Book.ALL, orderby=db.Book.Name)\n  return dict(prebooks=prebooks,Books=Books)\ndef delete1():#This function deletes a entry from the prebook table when the student unselects a book.\n  db(db.prebook.id == request.args(1)).delete()\n  \n  prebooks = db(db.prebook.usd == request.args(0)).select()\n  Books = db().select(db.Book.ALL, orderby=db.Book.Name)\n  return dict(prebooks=prebooks,Books=Books)\ndef download():\n    """\n    allows downloading of uploaded files\n    http://..../[app]/default/download/[filename]\n    """\n    return response.download(request,db)\n\n\ndef call():\n    """\n    exposes services. for example:\n    http://..../[app]/default/call/jsonrpc\n    decorate with @services.jsonrpc the functions to expose\n    supports xml, json, xmlrpc, jsonrpc, amfrpc, rss, csv\n    """\n    return service()\n\n\n@auth.requires_signature()\ndef data():\n    """\n    http://..../[app]/default/data/tables\n    http://..../[app]/default/data/create/[table]\n    http://..../[app]/default/data/read/[table]/[id]\n    http://..../[app]/default/data/update/[table]/[id]\n    http://..../[app]/default/data/delete/[table]/[id]\n    http://..../[app]/default/data/select/[table]\n    http://..../[app]/default/data/search/[table]\n    but URLs must be signed, i.e. linked with\n      A(\'table\',_href=URL(\'data/tables\',user_signature=True))\n    or with the signed load operator\n      LOAD(\'default\',\'data.load\',args=\'tables\',ajax=True,user_signature=True)\n    """\n    return dict(form=crud())\n\nresponse._vars=response._caller(nedit)\n'
p7
sS'snapshot'
p8
(dp9
S'exception'
p10
(dp11
S'__hash__'
p12
S"<method-wrapper '__hash__' of exceptions.NameError object>"
p13
sS'__setattr__'
p14
S"<method-wrapper '__setattr__' of exceptions.NameError object>"
p15
sS'__reduce_ex__'
p16
S'<built-in method __reduce_ex__ of exceptions.NameError object>'
p17
sS'__getslice__'
p18
S"<method-wrapper '__getslice__' of exceptions.NameError object>"
p19
sS'__getitem__'
p20
S"<method-wrapper '__getitem__' of exceptions.NameError object>"
p21
sS'__setstate__'
p22
S'<built-in method __setstate__ of exceptions.NameError object>'
p23
sS'__reduce__'
p24
S'<built-in method __reduce__ of exceptions.NameError object>'
p25
sS'__str__'
p26
S"<method-wrapper '__str__' of exceptions.NameError object>"
p27
sS'__format__'
p28
S'<built-in method __format__ of exceptions.NameError object>'
p29
sS'__getattribute__'
p30
S"<method-wrapper '__getattribute__' of exceptions.NameError object>"
p31
sS'__class__'
p32
S"<type 'exceptions.NameError'>"
p33
sS'__unicode__'
p34
S'<built-in method __unicode__ of exceptions.NameError object>'
p35
sS'__delattr__'
p36
S"<method-wrapper '__delattr__' of exceptions.NameError object>"
p37
sS'__subclasshook__'
p38
S'<built-in method __subclasshook__ of type object>'
p39
sS'__repr__'
p40
S"<method-wrapper '__repr__' of exceptions.NameError object>"
p41
sS'args'
p42
S'("global name \'Name\' is not defined",)'
p43
sS'__dict__'
p44
S'{}'
p45
sS'__sizeof__'
p46
S'<built-in method __sizeof__ of exceptions.NameError object>'
p47
sS'__doc__'
p48
S"'Name not found globally.'"
p49
sS'__init__'
p50
S"<method-wrapper '__init__' of exceptions.NameError object>"
p51
sS'__new__'
p52
S'<built-in method __new__ of type object>'
p53
ssS'evalue'
p54
S"global name 'Name' is not defined"
p55
sS'request'
p56
ccopy_reg
_reconstructor
p57
(cgluon.html
BEAUTIFY
p58
c__builtin__
object
p59
NtRp60
(dp61
S'attributes'
p62
(dp63
sS'components'
p64
(lp65
g57
(cgluon.html
TABLE
p66
g59
NtRp67
(dp68
g62
(dp69
S'level'
p70
I5
ssS'parent'
p71
Nsg64
(lp72
g57
(cgluon.html
TR
p73
g59
NtRp74
(dp75
g62
(dp76
sg71
g67
sg64
(lp77
g57
(cgluon.html
TD
p78
g59
NtRp79
(dp80
g62
(dp81
S'_style'
p82
S'font-weight:bold;vertical-align:top'
p83
ssg71
g74
sg64
(lp84
S'ajax'
p85
asbag57
(g78
g59
NtRp86
(dp87
g62
(dp88
S'_valign'
p89
S'top'
p90
ssg71
g74
sg64
(lp91
S':'
asbag57
(g78
g59
NtRp92
(dp93
g62
(dp94
sg71
g74
sg64
(lp95
g57
(g58
g59
NtRp96
(dp97
g62
(dp98
g70
I5
ssg71
g92
sg64
(lp99
S'False'
p100
asbasbasbag57
(g73
g59
NtRp101
(dp102
g62
(dp103
sg71
g67
sg64
(lp104
g57
(g78
g59
NtRp105
(dp106
g62
(dp107
g82
g83
ssg71
g101
sg64
(lp108
S'application'
p109
asbag57
(g78
g59
NtRp110
(dp111
g62
(dp112
g89
g90
ssg71
g101
sg64
(lp113
S':'
asbag57
(g78
g59
NtRp114
(dp115
g62
(dp116
sg71
g101
sg64
(lp117
g57
(g58
g59
NtRp118
(dp119
g62
(dp120
g70
I5
ssg71
g114
sg64
(lp121
S'manager'
p122
asbasbasbag57
(g73
g59
NtRp123
(dp124
g62
(dp125
sg71
g67
sg64
(lp126
g57
(g78
g59
NtRp127
(dp128
g62
(dp129
g82
g83
ssg71
g123
sg64
(lp130
g42
asbag57
(g78
g59
NtRp131
(dp132
g62
(dp133
g89
g90
ssg71
g123
sg64
(lp134
S':'
asbag57
(g78
g59
NtRp135
(dp136
g62
(dp137
sg71
g123
sg64
(lp138
g57
(g58
g59
NtRp139
(dp140
g62
(dp141
g70
I5
ssg71
g135
sg64
(lp142
g57
(g66
g59
NtRp143
(dp144
g62
(dp145
g70
I4
ssg71
Nsg64
(lp146
g57
(g73
g59
NtRp147
(dp148
g62
(dp149
sg71
g143
sg64
(lp150
g57
(g78
g59
NtRp151
(dp152
g62
(dp153
sg71
g147
sg64
(lp154
g57
(g58
g59
NtRp155
(dp156
g62
(dp157
g70
I4
ssg71
g151
sg64
(lp158
S'842'
p159
asbasbasbasbasbasbasbag57
(g73
g59
NtRp160
(dp161
g62
(dp162
sg71
g67
sg64
(lp163
g57
(g78
g59
NtRp164
(dp165
g62
(dp166
g82
g83
ssg71
g160
sg64
(lp167
S'body'
p168
asbag57
(g78
g59
NtRp169
(dp170
g62
(dp171
g89
g90
ssg71
g160
sg64
(lp172
S':'
asbag57
(g78
g59
NtRp173
(dp174
g62
(dp175
sg71
g160
sg64
(lp176
g57
(g58
g59
NtRp177
(dp178
g62
(dp179
g70
I5
ssg71
g173
sg64
(lp180
S'<cStringIO.StringO object at 0xaa6191a0>'
p181
asbasbasbag57
(g73
g59
NtRp182
(dp183
g62
(dp184
sg71
g67
sg64
(lp185
g57
(g78
g59
NtRp186
(dp187
g62
(dp188
g82
g83
ssg71
g182
sg64
(lp189
S'client'
p190
asbag57
(g78
g59
NtRp191
(dp192
g62
(dp193
g89
g90
ssg71
g182
sg64
(lp194
S':'
asbag57
(g78
g59
NtRp195
(dp196
g62
(dp197
sg71
g182
sg64
(lp198
g57
(g58
g59
NtRp199
(dp200
g62
(dp201
g70
I5
ssg71
g195
sg64
(lp202
S'127.0.0.1'
p203
asbasbasbag57
(g73
g59
NtRp204
(dp205
g62
(dp206
sg71
g67
sg64
(lp207
g57
(g78
g59
NtRp208
(dp209
g62
(dp210
g82
g83
ssg71
g204
sg64
(lp211
S'controller'
p212
asbag57
(g78
g59
NtRp213
(dp214
g62
(dp215
g89
g90
ssg71
g204
sg64
(lp216
S':'
asbag57
(g78
g59
NtRp217
(dp218
g62
(dp219
sg71
g204
sg64
(lp220
g57
(g58
g59
NtRp221
(dp222
g62
(dp223
g70
I5
ssg71
g217
sg64
(lp224
S'default'
p225
asbasbasbag57
(g73
g59
NtRp226
(dp227
g62
(dp228
sg71
g67
sg64
(lp229
g57
(g78
g59
NtRp230
(dp231
g62
(dp232
g82
g83
ssg71
g226
sg64
(lp233
S'cookies'
p234
asbag57
(g78
g59
NtRp235
(dp236
g62
(dp237
g89
g90
ssg71
g226
sg64
(lp238
S':'
asbag57
(g78
g59
NtRp239
(dp240
g62
(dp241
sg71
g226
sg64
(lp242
g57
(g58
g59
NtRp243
(dp244
g62
(dp245
g70
I5
ssg71
g239
sg64
(lp246
g57
(g66
g59
NtRp247
(dp248
g62
(dp249
g70
I4
ssg71
Nsg64
(lp250
g57
(g73
g59
NtRp251
(dp252
g62
(dp253
sg71
g247
sg64
(lp254
g57
(g78
g59
NtRp255
(dp256
g62
(dp257
g82
g83
ssg71
g251
sg64
(lp258
S'session_id_admin'
p259
asbag57
(g78
g59
NtRp260
(dp261
g62
(dp262
g89
g90
ssg71
g251
sg64
(lp263
S':'
asbag57
(g78
g59
NtRp264
(dp265
g62
(dp266
sg71
g251
sg64
(lp267
g57
(g58
g59
NtRp268
(dp269
g62
(dp270
g70
I4
ssg71
g264
sg64
(lp271
g57
(g66
g59
NtRp272
(dp273
g62
(dp274
g70
I3
ssg71
Nsg64
(lp275
g57
(g73
g59
NtRp276
(dp277
g62
(dp278
sg71
g272
sg64
(lp279
g57
(g78
g59
NtRp280
(dp281
g62
(dp282
g82
g83
ssg71
g276
sg64
(lp283
S'comment'
p284
asbag57
(g78
g59
NtRp285
(dp286
g62
(dp287
g89
g90
ssg71
g276
sg64
(lp288
S':'
asbag57
(g78
g59
NtRp289
(dp290
g62
(dp291
sg71
g276
sg64
(lp292
g57
(g58
g59
NtRp293
(dp294
g62
(dp295
g70
I3
ssg71
g289
sg64
(lp296
S''
asbasbasbag57
(g73
g59
NtRp297
(dp298
g62
(dp299
sg71
g272
sg64
(lp300
g57
(g78
g59
NtRp301
(dp302
g62
(dp303
g82
g83
ssg71
g297
sg64
(lp304
S'domain'
p305
asbag57
(g78
g59
NtRp306
(dp307
g62
(dp308
g89
g90
ssg71
g297
sg64
(lp309
S':'
asbag57
(g78
g59
NtRp310
(dp311
g62
(dp312
sg71
g297
sg64
(lp313
g57
(g58
g59
NtRp314
(dp315
g62
(dp316
g70
I3
ssg71
g310
sg64
(lp317
S''
asbasbasbag57
(g73
g59
NtRp318
(dp319
g62
(dp320
sg71
g272
sg64
(lp321
g57
(g78
g59
NtRp322
(dp323
g62
(dp324
g82
g83
ssg71
g318
sg64
(lp325
S'expires'
p326
asbag57
(g78
g59
NtRp327
(dp328
g62
(dp329
g89
g90
ssg71
g318
sg64
(lp330
S':'
asbag57
(g78
g59
NtRp331
(dp332
g62
(dp333
sg71
g318
sg64
(lp334
g57
(g58
g59
NtRp335
(dp336
g62
(dp337
g70
I3
ssg71
g331
sg64
(lp338
S''
asbasbasbag57
(g73
g59
NtRp339
(dp340
g62
(dp341
sg71
g272
sg64
(lp342
g57
(g78
g59
NtRp343
(dp344
g62
(dp345
g82
g83
ssg71
g339
sg64
(lp346
S'httponly'
p347
asbag57
(g78
g59
NtRp348
(dp349
g62
(dp350
g89
g90
ssg71
g339
sg64
(lp351
S':'
asbag57
(g78
g59
NtRp352
(dp353
g62
(dp354
sg71
g339
sg64
(lp355
g57
(g58
g59
NtRp356
(dp357
g62
(dp358
g70
I3
ssg71
g352
sg64
(lp359
S''
asbasbasbag57
(g73
g59
NtRp360
(dp361
g62
(dp362
sg71
g272
sg64
(lp363
g57
(g78
g59
NtRp364
(dp365
g62
(dp366
g82
g83
ssg71
g360
sg64
(lp367
S'max-age'
p368
asbag57
(g78
g59
NtRp369
(dp370
g62
(dp371
g89
g90
ssg71
g360
sg64
(lp372
S':'
asbag57
(g78
g59
NtRp373
(dp374
g62
(dp375
sg71
g360
sg64
(lp376
g57
(g58
g59
NtRp377
(dp378
g62
(dp379
g70
I3
ssg71
g373
sg64
(lp380
S''
asbasbasbag57
(g73
g59
NtRp381
(dp382
g62
(dp383
sg71
g272
sg64
(lp384
g57
(g78
g59
NtRp385
(dp386
g62
(dp387
g82
g83
ssg71
g381
sg64
(lp388
S'path'
p389
asbag57
(g78
g59
NtRp390
(dp391
g62
(dp392
g89
g90
ssg71
g381
sg64
(lp393
S':'
asbag57
(g78
g59
NtRp394
(dp395
g62
(dp396
sg71
g381
sg64
(lp397
g57
(g58
g59
NtRp398
(dp399
g62
(dp400
g70
I3
ssg71
g394
sg64
(lp401
S''
asbasbasbag57
(g73
g59
NtRp402
(dp403
g62
(dp404
sg71
g272
sg64
(lp405
g57
(g78
g59
NtRp406
(dp407
g62
(dp408
g82
g83
ssg71
g402
sg64
(lp409
S'secure'
p410
asbag57
(g78
g59
NtRp411
(dp412
g62
(dp413
g89
g90
ssg71
g402
sg64
(lp414
S':'
asbag57
(g78
g59
NtRp415
(dp416
g62
(dp417
sg71
g402
sg64
(lp418
g57
(g58
g59
NtRp419
(dp420
g62
(dp421
g70
I3
ssg71
g415
sg64
(lp422
S''
asbasbasbag57
(g73
g59
NtRp423
(dp424
g62
(dp425
sg71
g272
sg64
(lp426
g57
(g78
g59
NtRp427
(dp428
g62
(dp429
g82
g83
ssg71
g423
sg64
(lp430
S'version'
p431
asbag57
(g78
g59
NtRp432
(dp433
g62
(dp434
g89
g90
ssg71
g423
sg64
(lp435
S':'
asbag57
(g78
g59
NtRp436
(dp437
g62
(dp438
sg71
g423
sg64
(lp439
g57
(g58
g59
NtRp440
(dp441
g62
(dp442
g70
I3
ssg71
g436
sg64
(lp443
S''
asbasbasbasbasbasbasbag57
(g73
g59
NtRp444
(dp445
g62
(dp446
sg71
g247
sg64
(lp447
g57
(g78
g59
NtRp448
(dp449
g62
(dp450
g82
g83
ssg71
g444
sg64
(lp451
S'session_id_manager'
p452
asbag57
(g78
g59
NtRp453
(dp454
g62
(dp455
g89
g90
ssg71
g444
sg64
(lp456
S':'
asbag57
(g78
g59
NtRp457
(dp458
g62
(dp459
sg71
g444
sg64
(lp460
g57
(g58
g59
NtRp461
(dp462
g62
(dp463
g70
I4
ssg71
g457
sg64
(lp464
g57
(g66
g59
NtRp465
(dp466
g62
(dp467
g70
I3
ssg71
Nsg64
(lp468
g57
(g73
g59
NtRp469
(dp470
g62
(dp471
sg71
g465
sg64
(lp472
g57
(g78
g59
NtRp473
(dp474
g62
(dp475
g82
g83
ssg71
g469
sg64
(lp476
g284
asbag57
(g78
g59
NtRp477
(dp478
g62
(dp479
g89
g90
ssg71
g469
sg64
(lp480
S':'
asbag57
(g78
g59
NtRp481
(dp482
g62
(dp483
sg71
g469
sg64
(lp484
g57
(g58
g59
NtRp485
(dp486
g62
(dp487
g70
I3
ssg71
g481
sg64
(lp488
S''
asbasbasbag57
(g73
g59
NtRp489
(dp490
g62
(dp491
sg71
g465
sg64
(lp492
g57
(g78
g59
NtRp493
(dp494
g62
(dp495
g82
g83
ssg71
g489
sg64
(lp496
g305
asbag57
(g78
g59
NtRp497
(dp498
g62
(dp499
g89
g90
ssg71
g489
sg64
(lp500
S':'
asbag57
(g78
g59
NtRp501
(dp502
g62
(dp503
sg71
g489
sg64
(lp504
g57
(g58
g59
NtRp505
(dp506
g62
(dp507
g70
I3
ssg71
g501
sg64
(lp508
S''
asbasbasbag57
(g73
g59
NtRp509
(dp510
g62
(dp511
sg71
g465
sg64
(lp512
g57
(g78
g59
NtRp513
(dp514
g62
(dp515
g82
g83
ssg71
g509
sg64
(lp516
g326
asbag57
(g78
g59
NtRp517
(dp518
g62
(dp519
g89
g90
ssg71
g509
sg64
(lp520
S':'
asbag57
(g78
g59
NtRp521
(dp522
g62
(dp523
sg71
g509
sg64
(lp524
g57
(g58
g59
NtRp525
(dp526
g62
(dp527
g70
I3
ssg71
g521
sg64
(lp528
S''
asbasbasbag57
(g73
g59
NtRp529
(dp530
g62
(dp531
sg71
g465
sg64
(lp532
g57
(g78
g59
NtRp533
(dp534
g62
(dp535
g82
g83
ssg71
g529
sg64
(lp536
g347
asbag57
(g78
g59
NtRp537
(dp538
g62
(dp539
g89
g90
ssg71
g529
sg64
(lp540
S':'
asbag57
(g78
g59
NtRp541
(dp542
g62
(dp543
sg71
g529
sg64
(lp544
g57
(g58
g59
NtRp545
(dp546
g62
(dp547
g70
I3
ssg71
g541
sg64
(lp548
S''
asbasbasbag57
(g73
g59
NtRp549
(dp550
g62
(dp551
sg71
g465
sg64
(lp552
g57
(g78
g59
NtRp553
(dp554
g62
(dp555
g82
g83
ssg71
g549
sg64
(lp556
g368
asbag57
(g78
g59
NtRp557
(dp558
g62
(dp559
g89
g90
ssg71
g549
sg64
(lp560
S':'
asbag57
(g78
g59
NtRp561
(dp562
g62
(dp563
sg71
g549
sg64
(lp564
g57
(g58
g59
NtRp565
(dp566
g62
(dp567
g70
I3
ssg71
g561
sg64
(lp568
S''
asbasbasbag57
(g73
g59
NtRp569
(dp570
g62
(dp571
sg71
g465
sg64
(lp572
g57
(g78
g59
NtRp573
(dp574
g62
(dp575
g82
g83
ssg71
g569
sg64
(lp576
g389
asbag57
(g78
g59
NtRp577
(dp578
g62
(dp579
g89
g90
ssg71
g569
sg64
(lp580
S':'
asbag57
(g78
g59
NtRp581
(dp582
g62
(dp583
sg71
g569
sg64
(lp584
g57
(g58
g59
NtRp585
(dp586
g62
(dp587
g70
I3
ssg71
g581
sg64
(lp588
S''
asbasbasbag57
(g73
g59
NtRp589
(dp590
g62
(dp591
sg71
g465
sg64
(lp592
g57
(g78
g59
NtRp593
(dp594
g62
(dp595
g82
g83
ssg71
g589
sg64
(lp596
g410
asbag57
(g78
g59
NtRp597
(dp598
g62
(dp599
g89
g90
ssg71
g589
sg64
(lp600
S':'
asbag57
(g78
g59
NtRp601
(dp602
g62
(dp603
sg71
g589
sg64
(lp604
g57
(g58
g59
NtRp605
(dp606
g62
(dp607
g70
I3
ssg71
g601
sg64
(lp608
S''
asbasbasbag57
(g73
g59
NtRp609
(dp610
g62
(dp611
sg71
g465
sg64
(lp612
g57
(g78
g59
NtRp613
(dp614
g62
(dp615
g82
g83
ssg71
g609
sg64
(lp616
g431
asbag57
(g78
g59
NtRp617
(dp618
g62
(dp619
g89
g90
ssg71
g609
sg64
(lp620
S':'
asbag57
(g78
g59
NtRp621
(dp622
g62
(dp623
sg71
g609
sg64
(lp624
g57
(g58
g59
NtRp625
(dp626
g62
(dp627
g70
I3
ssg71
g621
sg64
(lp628
S''
asbasbasbasbasbasbasbag57
(g73
g59
NtRp629
(dp630
g62
(dp631
sg71
g247
sg64
(lp632
g57
(g78
g59
NtRp633
(dp634
g62
(dp635
g82
g83
ssg71
g629
sg64
(lp636
S'session_id_managerold'
p637
asbag57
(g78
g59
NtRp638
(dp639
g62
(dp640
g89
g90
ssg71
g629
sg64
(lp641
S':'
asbag57
(g78
g59
NtRp642
(dp643
g62
(dp644
sg71
g629
sg64
(lp645
g57
(g58
g59
NtRp646
(dp647
g62
(dp648
g70
I4
ssg71
g642
sg64
(lp649
g57
(g66
g59
NtRp650
(dp651
g62
(dp652
g70
I3
ssg71
Nsg64
(lp653
g57
(g73
g59
NtRp654
(dp655
g62
(dp656
sg71
g650
sg64
(lp657
g57
(g78
g59
NtRp658
(dp659
g62
(dp660
g82
g83
ssg71
g654
sg64
(lp661
g284
asbag57
(g78
g59
NtRp662
(dp663
g62
(dp664
g89
g90
ssg71
g654
sg64
(lp665
S':'
asbag57
(g78
g59
NtRp666
(dp667
g62
(dp668
sg71
g654
sg64
(lp669
g57
(g58
g59
NtRp670
(dp671
g62
(dp672
g70
I3
ssg71
g666
sg64
(lp673
S''
asbasbasbag57
(g73
g59
NtRp674
(dp675
g62
(dp676
sg71
g650
sg64
(lp677
g57
(g78
g59
NtRp678
(dp679
g62
(dp680
g82
g83
ssg71
g674
sg64
(lp681
g305
asbag57
(g78
g59
NtRp682
(dp683
g62
(dp684
g89
g90
ssg71
g674
sg64
(lp685
S':'
asbag57
(g78
g59
NtRp686
(dp687
g62
(dp688
sg71
g674
sg64
(lp689
g57
(g58
g59
NtRp690
(dp691
g62
(dp692
g70
I3
ssg71
g686
sg64
(lp693
S''
asbasbasbag57
(g73
g59
NtRp694
(dp695
g62
(dp696
sg71
g650
sg64
(lp697
g57
(g78
g59
NtRp698
(dp699
g62
(dp700
g82
g83
ssg71
g694
sg64
(lp701
g326
asbag57
(g78
g59
NtRp702
(dp703
g62
(dp704
g89
g90
ssg71
g694
sg64
(lp705
S':'
asbag57
(g78
g59
NtRp706
(dp707
g62
(dp708
sg71
g694
sg64
(lp709
g57
(g58
g59
NtRp710
(dp711
g62
(dp712
g70
I3
ssg71
g706
sg64
(lp713
S''
asbasbasbag57
(g73
g59
NtRp714
(dp715
g62
(dp716
sg71
g650
sg64
(lp717
g57
(g78
g59
NtRp718
(dp719
g62
(dp720
g82
g83
ssg71
g714
sg64
(lp721
g347
asbag57
(g78
g59
NtRp722
(dp723
g62
(dp724
g89
g90
ssg71
g714
sg64
(lp725
S':'
asbag57
(g78
g59
NtRp726
(dp727
g62
(dp728
sg71
g714
sg64
(lp729
g57
(g58
g59
NtRp730
(dp731
g62
(dp732
g70
I3
ssg71
g726
sg64
(lp733
S''
asbasbasbag57
(g73
g59
NtRp734
(dp735
g62
(dp736
sg71
g650
sg64
(lp737
g57
(g78
g59
NtRp738
(dp739
g62
(dp740
g82
g83
ssg71
g734
sg64
(lp741
g368
asbag57
(g78
g59
NtRp742
(dp743
g62
(dp744
g89
g90
ssg71
g734
sg64
(lp745
S':'
asbag57
(g78
g59
NtRp746
(dp747
g62
(dp748
sg71
g734
sg64
(lp749
g57
(g58
g59
NtRp750
(dp751
g62
(dp752
g70
I3
ssg71
g746
sg64
(lp753
S''
asbasbasbag57
(g73
g59
NtRp754
(dp755
g62
(dp756
sg71
g650
sg64
(lp757
g57
(g78
g59
NtRp758
(dp759
g62
(dp760
g82
g83
ssg71
g754
sg64
(lp761
g389
asbag57
(g78
g59
NtRp762
(dp763
g62
(dp764
g89
g90
ssg71
g754
sg64
(lp765
S':'
asbag57
(g78
g59
NtRp766
(dp767
g62
(dp768
sg71
g754
sg64
(lp769
g57
(g58
g59
NtRp770
(dp771
g62
(dp772
g70
I3
ssg71
g766
sg64
(lp773
S''
asbasbasbag57
(g73
g59
NtRp774
(dp775
g62
(dp776
sg71
g650
sg64
(lp777
g57
(g78
g59
NtRp778
(dp779
g62
(dp780
g82
g83
ssg71
g774
sg64
(lp781
g410
asbag57
(g78
g59
NtRp782
(dp783
g62
(dp784
g89
g90
ssg71
g774
sg64
(lp785
S':'
asbag57
(g78
g59
NtRp786
(dp787
g62
(dp788
sg71
g774
sg64
(lp789
g57
(g58
g59
NtRp790
(dp791
g62
(dp792
g70
I3
ssg71
g786
sg64
(lp793
S''
asbasbasbag57
(g73
g59
NtRp794
(dp795
g62
(dp796
sg71
g650
sg64
(lp797
g57
(g78
g59
NtRp798
(dp799
g62
(dp800
g82
g83
ssg71
g794
sg64
(lp801
g431
asbag57
(g78
g59
NtRp802
(dp803
g62
(dp804
g89
g90
ssg71
g794
sg64
(lp805
S':'
asbag57
(g78
g59
NtRp806
(dp807
g62
(dp808
sg71
g794
sg64
(lp809
g57
(g58
g59
NtRp810
(dp811
g62
(dp812
g70
I3
ssg71
g806
sg64
(lp813
S''
asbasbasbasbasbasbasbag57
(g73
g59
NtRp814
(dp815
g62
(dp816
sg71
g247
sg64
(lp817
g57
(g78
g59
NtRp818
(dp819
g62
(dp820
g82
g83
ssg71
g814
sg64
(lp821
S'session_id_welcome'
p822
asbag57
(g78
g59
NtRp823
(dp824
g62
(dp825
g89
g90
ssg71
g814
sg64
(lp826
S':'
asbag57
(g78
g59
NtRp827
(dp828
g62
(dp829
sg71
g814
sg64
(lp830
g57
(g58
g59
NtRp831
(dp832
g62
(dp833
g70
I4
ssg71
g827
sg64
(lp834
g57
(g66
g59
NtRp835
(dp836
g62
(dp837
g70
I3
ssg71
Nsg64
(lp838
g57
(g73
g59
NtRp839
(dp840
g62
(dp841
sg71
g835
sg64
(lp842
g57
(g78
g59
NtRp843
(dp844
g62
(dp845
g82
g83
ssg71
g839
sg64
(lp846
g284
asbag57
(g78
g59
NtRp847
(dp848
g62
(dp849
g89
g90
ssg71
g839
sg64
(lp850
S':'
asbag57
(g78
g59
NtRp851
(dp852
g62
(dp853
sg71
g839
sg64
(lp854
g57
(g58
g59
NtRp855
(dp856
g62
(dp857
g70
I3
ssg71
g851
sg64
(lp858
S''
asbasbasbag57
(g73
g59
NtRp859
(dp860
g62
(dp861
sg71
g835
sg64
(lp862
g57
(g78
g59
NtRp863
(dp864
g62
(dp865
g82
g83
ssg71
g859
sg64
(lp866
g305
asbag57
(g78
g59
NtRp867
(dp868
g62
(dp869
g89
g90
ssg71
g859
sg64
(lp870
S':'
asbag57
(g78
g59
NtRp871
(dp872
g62
(dp873
sg71
g859
sg64
(lp874
g57
(g58
g59
NtRp875
(dp876
g62
(dp877
g70
I3
ssg71
g871
sg64
(lp878
S''
asbasbasbag57
(g73
g59
NtRp879
(dp880
g62
(dp881
sg71
g835
sg64
(lp882
g57
(g78
g59
NtRp883
(dp884
g62
(dp885
g82
g83
ssg71
g879
sg64
(lp886
g326
asbag57
(g78
g59
NtRp887
(dp888
g62
(dp889
g89
g90
ssg71
g879
sg64
(lp890
S':'
asbag57
(g78
g59
NtRp891
(dp892
g62
(dp893
sg71
g879
sg64
(lp894
g57
(g58
g59
NtRp895
(dp896
g62
(dp897
g70
I3
ssg71
g891
sg64
(lp898
S''
asbasbasbag57
(g73
g59
NtRp899
(dp900
g62
(dp901
sg71
g835
sg64
(lp902
g57
(g78
g59
NtRp903
(dp904
g62
(dp905
g82
g83
ssg71
g899
sg64
(lp906
g347
asbag57
(g78
g59
NtRp907
(dp908
g62
(dp909
g89
g90
ssg71
g899
sg64
(lp910
S':'
asbag57
(g78
g59
NtRp911
(dp912
g62
(dp913
sg71
g899
sg64
(lp914
g57
(g58
g59
NtRp915
(dp916
g62
(dp917
g70
I3
ssg71
g911
sg64
(lp918
S''
asbasbasbag57
(g73
g59
NtRp919
(dp920
g62
(dp921
sg71
g835
sg64
(lp922
g57
(g78
g59
NtRp923
(dp924
g62
(dp925
g82
g83
ssg71
g919
sg64
(lp926
g368
asbag57
(g78
g59
NtRp927
(dp928
g62
(dp929
g89
g90
ssg71
g919
sg64
(lp930
S':'
asbag57
(g78
g59
NtRp931
(dp932
g62
(dp933
sg71
g919
sg64
(lp934
g57
(g58
g59
NtRp935
(dp936
g62
(dp937
g70
I3
ssg71
g931
sg64
(lp938
S''
asbasbasbag57
(g73
g59
NtRp939
(dp940
g62
(dp941
sg71
g835
sg64
(lp942
g57
(g78
g59
NtRp943
(dp944
g62
(dp945
g82
g83
ssg71
g939
sg64
(lp946
g389
asbag57
(g78
g59
NtRp947
(dp948
g62
(dp949
g89
g90
ssg71
g939
sg64
(lp950
S':'
asbag57
(g78
g59
NtRp951
(dp952
g62
(dp953
sg71
g939
sg64
(lp954
g57
(g58
g59
NtRp955
(dp956
g62
(dp957
g70
I3
ssg71
g951
sg64
(lp958
S''
asbasbasbag57
(g73
g59
NtRp959
(dp960
g62
(dp961
sg71
g835
sg64
(lp962
g57
(g78
g59
NtRp963
(dp964
g62
(dp965
g82
g83
ssg71
g959
sg64
(lp966
g410
asbag57
(g78
g59
NtRp967
(dp968
g62
(dp969
g89
g90
ssg71
g959
sg64
(lp970
S':'
asbag57
(g78
g59
NtRp971
(dp972
g62
(dp973
sg71
g959
sg64
(lp974
g57
(g58
g59
NtRp975
(dp976
g62
(dp977
g70
I3
ssg71
g971
sg64
(lp978
S''
asbasbasbag57
(g73
g59
NtRp979
(dp980
g62
(dp981
sg71
g835
sg64
(lp982
g57
(g78
g59
NtRp983
(dp984
g62
(dp985
g82
g83
ssg71
g979
sg64
(lp986
g431
asbag57
(g78
g59
NtRp987
(dp988
g62
(dp989
g89
g90
ssg71
g979
sg64
(lp990
S':'
asbag57
(g78
g59
NtRp991
(dp992
g62
(dp993
sg71
g979
sg64
(lp994
g57
(g58
g59
NtRp995
(dp996
g62
(dp997
g70
I3
ssg71
g991
sg64
(lp998
S''
asbasbasbasbasbasbasbasbasbasbasbag57
(g73
g59
NtRp999
(dp1000
g62
(dp1001
sg71
g67
sg64
(lp1002
g57
(g78
g59
NtRp1003
(dp1004
g62
(dp1005
g82
g83
ssg71
g999
sg64
(lp1006
S'env'
p1007
asbag57
(g78
g59
NtRp1008
(dp1009
g62
(dp1010
g89
g90
ssg71
g999
sg64
(lp1011
S':'
asbag57
(g78
g59
NtRp1012
(dp1013
g62
(dp1014
sg71
g999
sg64
(lp1015
g57
(g58
g59
NtRp1016
(dp1017
g62
(dp1018
g70
I5
ssg71
g1012
sg64
(lp1019
g57
(g66
g59
NtRp1020
(dp1021
g62
(dp1022
g70
I4
ssg71
Nsg64
(lp1023
g57
(g73
g59
NtRp1024
(dp1025
g62
(dp1026
sg71
g1020
sg64
(lp1027
g57
(g78
g59
NtRp1028
(dp1029
g62
(dp1030
g82
g83
ssg71
g1024
sg64
(lp1031
S'app_folders'
p1032
asbag57
(g78
g59
NtRp1033
(dp1034
g62
(dp1035
g89
g90
ssg71
g1024
sg64
(lp1036
S':'
asbag57
(g78
g59
NtRp1037
(dp1038
g62
(dp1039
sg71
g1024
sg64
(lp1040
g57
(g58
g59
NtRp1041
(dp1042
g62
(dp1043
g70
I4
ssg71
g1037
sg64
(lp1044
S"set(['/home/unic/web2py/applications/manager/', '/home/unic/web2py/applications/managerold/', '/home/unic/web2py/applications/admin/', '/home/unic/web2py/applications/welcome/'])"
p1045
asbasbasbag57
(g73
g59
NtRp1046
(dp1047
g62
(dp1048
sg71
g1020
sg64
(lp1049
g57
(g78
g59
NtRp1050
(dp1051
g62
(dp1052
g82
g83
ssg71
g1046
sg64
(lp1053
S'applications_parent'
p1054
asbag57
(g78
g59
NtRp1055
(dp1056
g62
(dp1057
g89
g90
ssg71
g1046
sg64
(lp1058
S':'
asbag57
(g78
g59
NtRp1059
(dp1060
g62
(dp1061
sg71
g1046
sg64
(lp1062
g57
(g58
g59
NtRp1063
(dp1064
g62
(dp1065
g70
I4
ssg71
g1059
sg64
(lp1066
S'/home/unic/web2py'
p1067
asbasbasbag57
(g73
g59
NtRp1068
(dp1069
g62
(dp1070
sg71
g1020
sg64
(lp1071
g57
(g78
g59
NtRp1072
(dp1073
g62
(dp1074
g82
g83
ssg71
g1068
sg64
(lp1075
S'cmd_args'
p1076
asbag57
(g78
g59
NtRp1077
(dp1078
g62
(dp1079
g89
g90
ssg71
g1068
sg64
(lp1080
S':'
asbag57
(g78
g59
NtRp1081
(dp1082
g62
(dp1083
sg71
g1068
sg64
(lp1084
g57
(g58
g59
NtRp1085
(dp1086
g62
(dp1087
g70
I4
ssg71
g1081
sg64
(lp1088
g57
(g66
g59
NtRp1089
(dp1090
g62
(dp1091
g70
I3
ssg71
Nsg64
(lp1092
sbasbasbasbag57
(g73
g59
NtRp1093
(dp1094
g62
(dp1095
sg71
g1020
sg64
(lp1096
g57
(g78
g59
NtRp1097
(dp1098
g62
(dp1099
g82
g83
ssg71
g1093
sg64
(lp1100
S'cmd_options'
p1101
asbag57
(g78
g59
NtRp1102
(dp1103
g62
(dp1104
g89
g90
ssg71
g1093
sg64
(lp1105
S':'
asbag57
(g78
g59
NtRp1106
(dp1107
g62
(dp1108
sg71
g1093
sg64
(lp1109
g57
(g58
g59
NtRp1110
(dp1111
g62
(dp1112
g70
I4
ssg71
g1106
sg64
(lp1113
S"<Values at 0x955280c: {'verbose': False, 'ip': '127.0.0.1', 'shutdown_timeout': 5, 'taskbar': False, 'port': 8000, 'maxthreads': None, 'softcron': False, 'server_name': 'unic-Inspiron-N5050', 'bpython': False, 'nogui': False, 'nocron': False, 'extcron': False, 'debuglevel': 30, 'test': None, 'folder': '/home/unic/web2py', 'config': '', 'import_models': False, 'winservice': '', 'shell': None, 'run': '', 'log_filename': 'httpserver.log', 'args': [''], 'socket_timeout': 1, 'profiler_filename': None, 'ssl_private_key': '', 'password': '<ask>', 'request_queue_size': 5, 'ssl_certificate': '', 'cronjob': False, 'plain': False, 'quiet': False, 'interfaces': None, 'minthreads': None, 'timeout': 10, 'numthreads': None, 'nobanner': False, 'pid_filename': 'httpserver.pid'}>"
p1114
asbasbasbag57
(g73
g59
NtRp1115
(dp1116
g62
(dp1117
sg71
g1020
sg64
(lp1118
g57
(g78
g59
NtRp1119
(dp1120
g62
(dp1121
g82
g83
ssg71
g1115
sg64
(lp1122
S'db_sessions'
p1123
asbag57
(g78
g59
NtRp1124
(dp1125
g62
(dp1126
g89
g90
ssg71
g1115
sg64
(lp1127
S':'
asbag57
(g78
g59
NtRp1128
(dp1129
g62
(dp1130
sg71
g1115
sg64
(lp1131
g57
(g58
g59
NtRp1132
(dp1133
g62
(dp1134
g70
I4
ssg71
g1128
sg64
(lp1135
S'set([])'
p1136
asbasbasbag57
(g73
g59
NtRp1137
(dp1138
g62
(dp1139
sg71
g1020
sg64
(lp1140
g57
(g78
g59
NtRp1141
(dp1142
g62
(dp1143
g82
g83
ssg71
g1137
sg64
(lp1144
S'debugging'
p1145
asbag57
(g78
g59
NtRp1146
(dp1147
g62
(dp1148
g89
g90
ssg71
g1137
sg64
(lp1149
S':'
asbag57
(g78
g59
NtRp1150
(dp1151
g62
(dp1152
sg71
g1137
sg64
(lp1153
g57
(g58
g59
NtRp1154
(dp1155
g62
(dp1156
g70
I4
ssg71
g1150
sg64
(lp1157
g100
asbasbasbag57
(g73
g59
NtRp1158
(dp1159
g62
(dp1160
sg71
g1020
sg64
(lp1161
g57
(g78
g59
NtRp1162
(dp1163
g62
(dp1164
g82
g83
ssg71
g1158
sg64
(lp1165
S'gluon_parent'
p1166
asbag57
(g78
g59
NtRp1167
(dp1168
g62
(dp1169
g89
g90
ssg71
g1158
sg64
(lp1170
S':'
asbag57
(g78
g59
NtRp1171
(dp1172
g62
(dp1173
sg71
g1158
sg64
(lp1174
g57
(g58
g59
NtRp1175
(dp1176
g62
(dp1177
g70
I4
ssg71
g1171
sg64
(lp1178
S'/usr/share/web2py'
p1179
asbasbasbag57
(g73
g59
NtRp1180
(dp1181
g62
(dp1182
sg71
g1020
sg64
(lp1183
g57
(g78
g59
NtRp1184
(dp1185
g62
(dp1186
g82
g83
ssg71
g1180
sg64
(lp1187
S'http_accept'
p1188
asbag57
(g78
g59
NtRp1189
(dp1190
g62
(dp1191
g89
g90
ssg71
g1180
sg64
(lp1192
S':'
asbag57
(g78
g59
NtRp1193
(dp1194
g62
(dp1195
sg71
g1180
sg64
(lp1196
g57
(g58
g59
NtRp1197
(dp1198
g62
(dp1199
g70
I4
ssg71
g1193
sg64
(lp1200
S'text/html,application/xhtml+xml,application/xml;q=0.9,*/*;q=0.8'
p1201
asbasbasbag57
(g73
g59
NtRp1202
(dp1203
g62
(dp1204
sg71
g1020
sg64
(lp1205
g57
(g78
g59
NtRp1206
(dp1207
g62
(dp1208
g82
g83
ssg71
g1202
sg64
(lp1209
S'http_accept_encoding'
p1210
asbag57
(g78
g59
NtRp1211
(dp1212
g62
(dp1213
g89
g90
ssg71
g1202
sg64
(lp1214
S':'
asbag57
(g78
g59
NtRp1215
(dp1216
g62
(dp1217
sg71
g1202
sg64
(lp1218
g57
(g58
g59
NtRp1219
(dp1220
g62
(dp1221
g70
I4
ssg71
g1215
sg64
(lp1222
S'gzip, deflate'
p1223
asbasbasbag57
(g73
g59
NtRp1224
(dp1225
g62
(dp1226
sg71
g1020
sg64
(lp1227
g57
(g78
g59
NtRp1228
(dp1229
g62
(dp1230
g82
g83
ssg71
g1224
sg64
(lp1231
S'http_accept_language'
p1232
asbag57
(g78
g59
NtRp1233
(dp1234
g62
(dp1235
g89
g90
ssg71
g1224
sg64
(lp1236
S':'
asbag57
(g78
g59
NtRp1237
(dp1238
g62
(dp1239
sg71
g1224
sg64
(lp1240
g57
(g58
g59
NtRp1241
(dp1242
g62
(dp1243
g70
I4
ssg71
g1237
sg64
(lp1244
S'en-us,en;q=0.5'
p1245
asbasbasbag57
(g73
g59
NtRp1246
(dp1247
g62
(dp1248
sg71
g1020
sg64
(lp1249
g57
(g78
g59
NtRp1250
(dp1251
g62
(dp1252
g82
g83
ssg71
g1246
sg64
(lp1253
S'http_connection'
p1254
asbag57
(g78
g59
NtRp1255
(dp1256
g62
(dp1257
g89
g90
ssg71
g1246
sg64
(lp1258
S':'
asbag57
(g78
g59
NtRp1259
(dp1260
g62
(dp1261
sg71
g1246
sg64
(lp1262
g57
(g58
g59
NtRp1263
(dp1264
g62
(dp1265
g70
I4
ssg71
g1259
sg64
(lp1266
S'keep-alive'
p1267
asbasbasbag57
(g73
g59
NtRp1268
(dp1269
g62
(dp1270
sg71
g1020
sg64
(lp1271
g57
(g78
g59
NtRp1272
(dp1273
g62
(dp1274
g82
g83
ssg71
g1268
sg64
(lp1275
S'http_cookie'
p1276
asbag57
(g78
g59
NtRp1277
(dp1278
g62
(dp1279
g89
g90
ssg71
g1268
sg64
(lp1280
S':'
asbag57
(g78
g59
NtRp1281
(dp1282
g62
(dp1283
sg71
g1268
sg64
(lp1284
g57
(g58
g59
NtRp1285
(dp1286
g62
(dp1287
g70
I4
ssg71
g1281
sg64
(lp1288
S'session_id_welcome=127.0.0.1-c761915d-b2ec-45f7-816d-33b669eb24bf; session_id_admin=127.0.0.1-4c6378b6-76f7-4935-8b02-824504518b8b; session_id_manager=127.0.0.1-9680a272-d22f-48db-9899-03542bdb9e98; session_id_managerold=127.0.0.1-e7a9f8ab-f73b-4ba5-99c7-7af84382aa04'
p1289
asbasbasbag57
(g73
g59
NtRp1290
(dp1291
g62
(dp1292
sg71
g1020
sg64
(lp1293
g57
(g78
g59
NtRp1294
(dp1295
g62
(dp1296
g82
g83
ssg71
g1290
sg64
(lp1297
S'http_host'
p1298
asbag57
(g78
g59
NtRp1299
(dp1300
g62
(dp1301
g89
g90
ssg71
g1290
sg64
(lp1302
S':'
asbag57
(g78
g59
NtRp1303
(dp1304
g62
(dp1305
sg71
g1290
sg64
(lp1306
g57
(g58
g59
NtRp1307
(dp1308
g62
(dp1309
g70
I4
ssg71
g1303
sg64
(lp1310
S'127.0.0.1:8000'
p1311
asbasbasbag57
(g73
g59
NtRp1312
(dp1313
g62
(dp1314
sg71
g1020
sg64
(lp1315
g57
(g78
g59
NtRp1316
(dp1317
g62
(dp1318
g82
g83
ssg71
g1312
sg64
(lp1319
S'http_referer'
p1320
asbag57
(g78
g59
NtRp1321
(dp1322
g62
(dp1323
g89
g90
ssg71
g1312
sg64
(lp1324
S':'
asbag57
(g78
g59
NtRp1325
(dp1326
g62
(dp1327
sg71
g1312
sg64
(lp1328
g57
(g58
g59
NtRp1329
(dp1330
g62
(dp1331
g70
I4
ssg71
g1325
sg64
(lp1332
S'http://127.0.0.1:8000/manager/default/edit'
p1333
asbasbasbag57
(g73
g59
NtRp1334
(dp1335
g62
(dp1336
sg71
g1020
sg64
(lp1337
g57
(g78
g59
NtRp1338
(dp1339
g62
(dp1340
g82
g83
ssg71
g1334
sg64
(lp1341
S'http_user_agent'
p1342
asbag57
(g78
g59
NtRp1343
(dp1344
g62
(dp1345
g89
g90
ssg71
g1334
sg64
(lp1346
S':'
asbag57
(g78
g59
NtRp1347
(dp1348
g62
(dp1349
sg71
g1334
sg64
(lp1350
g57
(g58
g59
NtRp1351
(dp1352
g62
(dp1353
g70
I4
ssg71
g1347
sg64
(lp1354
S'Mozilla/5.0 (X11; Ubuntu; Linux i686; rv:14.0) Gecko/20100101 Firefox/14.0.1'
p1355
asbasbasbag57
(g73
g59
NtRp1356
(dp1357
g62
(dp1358
sg71
g1020
sg64
(lp1359
g57
(g78
g59
NtRp1360
(dp1361
g62
(dp1362
g82
g83
ssg71
g1356
sg64
(lp1363
S'is_jython'
p1364
asbag57
(g78
g59
NtRp1365
(dp1366
g62
(dp1367
g89
g90
ssg71
g1356
sg64
(lp1368
S':'
asbag57
(g78
g59
NtRp1369
(dp1370
g62
(dp1371
sg71
g1356
sg64
(lp1372
g57
(g58
g59
NtRp1373
(dp1374
g62
(dp1375
g70
I4
ssg71
g1369
sg64
(lp1376
g100
asbasbasbag57
(g73
g59
NtRp1377
(dp1378
g62
(dp1379
sg71
g1020
sg64
(lp1380
g57
(g78
g59
NtRp1381
(dp1382
g62
(dp1383
g82
g83
ssg71
g1377
sg64
(lp1384
S'is_pypy'
p1385
asbag57
(g78
g59
NtRp1386
(dp1387
g62
(dp1388
g89
g90
ssg71
g1377
sg64
(lp1389
S':'
asbag57
(g78
g59
NtRp1390
(dp1391
g62
(dp1392
sg71
g1377
sg64
(lp1393
g57
(g58
g59
NtRp1394
(dp1395
g62
(dp1396
g70
I4
ssg71
g1390
sg64
(lp1397
g100
asbasbasbag57
(g73
g59
NtRp1398
(dp1399
g62
(dp1400
sg71
g1020
sg64
(lp1401
g57
(g78
g59
NtRp1402
(dp1403
g62
(dp1404
g82
g83
ssg71
g1398
sg64
(lp1405
S'path_info'
p1406
asbag57
(g78
g59
NtRp1407
(dp1408
g62
(dp1409
g89
g90
ssg71
g1398
sg64
(lp1410
S':'
asbag57
(g78
g59
NtRp1411
(dp1412
g62
(dp1413
sg71
g1398
sg64
(lp1414
g57
(g58
g59
NtRp1415
(dp1416
g62
(dp1417
g70
I4
ssg71
g1411
sg64
(lp1418
S'/manager/default/nedit/842'
p1419
asbasbasbag57
(g73
g59
NtRp1420
(dp1421
g62
(dp1422
sg71
g1020
sg64
(lp1423
g57
(g78
g59
NtRp1424
(dp1425
g62
(dp1426
g82
g83
ssg71
g1420
sg64
(lp1427
S'query_string'
p1428
asbag57
(g78
g59
NtRp1429
(dp1430
g62
(dp1431
g89
g90
ssg71
g1420
sg64
(lp1432
S':'
asbag57
(g78
g59
NtRp1433
(dp1434
g62
(dp1435
sg71
g1420
sg64
(lp1436
g57
(g58
g59
NtRp1437
(dp1438
g62
(dp1439
g70
I4
ssg71
g1433
sg64
(lp1440
S''
asbasbasbag57
(g73
g59
NtRp1441
(dp1442
g62
(dp1443
sg71
g1020
sg64
(lp1444
g57
(g78
g59
NtRp1445
(dp1446
g62
(dp1447
g82
g83
ssg71
g1441
sg64
(lp1448
S'remote_addr'
p1449
asbag57
(g78
g59
NtRp1450
(dp1451
g62
(dp1452
g89
g90
ssg71
g1441
sg64
(lp1453
S':'
asbag57
(g78
g59
NtRp1454
(dp1455
g62
(dp1456
sg71
g1441
sg64
(lp1457
g57
(g58
g59
NtRp1458
(dp1459
g62
(dp1460
g70
I4
ssg71
g1454
sg64
(lp1461
g203
asbasbasbag57
(g73
g59
NtRp1462
(dp1463
g62
(dp1464
sg71
g1020
sg64
(lp1465
g57
(g78
g59
NtRp1466
(dp1467
g62
(dp1468
g82
g83
ssg71
g1462
sg64
(lp1469
S'remote_port'
p1470
asbag57
(g78
g59
NtRp1471
(dp1472
g62
(dp1473
g89
g90
ssg71
g1462
sg64
(lp1474
S':'
asbag57
(g78
g59
NtRp1475
(dp1476
g62
(dp1477
sg71
g1462
sg64
(lp1478
g57
(g58
g59
NtRp1479
(dp1480
g62
(dp1481
g70
I4
ssg71
g1475
sg64
(lp1482
S'38746'
p1483
asbasbasbag57
(g73
g59
NtRp1484
(dp1485
g62
(dp1486
sg71
g1020
sg64
(lp1487
g57
(g78
g59
NtRp1488
(dp1489
g62
(dp1490
g82
g83
ssg71
g1484
sg64
(lp1491
S'request_method'
p1492
asbag57
(g78
g59
NtRp1493
(dp1494
g62
(dp1495
g89
g90
ssg71
g1484
sg64
(lp1496
S':'
asbag57
(g78
g59
NtRp1497
(dp1498
g62
(dp1499
sg71
g1484
sg64
(lp1500
g57
(g58
g59
NtRp1501
(dp1502
g62
(dp1503
g70
I4
ssg71
g1497
sg64
(lp1504
S'GET'
p1505
asbasbasbag57
(g73
g59
NtRp1506
(dp1507
g62
(dp1508
sg71
g1020
sg64
(lp1509
g57
(g78
g59
NtRp1510
(dp1511
g62
(dp1512
g82
g83
ssg71
g1506
sg64
(lp1513
S'script_name'
p1514
asbag57
(g78
g59
NtRp1515
(dp1516
g62
(dp1517
g89
g90
ssg71
g1506
sg64
(lp1518
S':'
asbag57
(g78
g59
NtRp1519
(dp1520
g62
(dp1521
sg71
g1506
sg64
(lp1522
g57
(g58
g59
NtRp1523
(dp1524
g62
(dp1525
g70
I4
ssg71
g1519
sg64
(lp1526
S''
asbasbasbag57
(g73
g59
NtRp1527
(dp1528
g62
(dp1529
sg71
g1020
sg64
(lp1530
g57
(g78
g59
NtRp1531
(dp1532
g62
(dp1533
g82
g83
ssg71
g1527
sg64
(lp1534
S'server_name'
p1535
asbag57
(g78
g59
NtRp1536
(dp1537
g62
(dp1538
g89
g90
ssg71
g1527
sg64
(lp1539
S':'
asbag57
(g78
g59
NtRp1540
(dp1541
g62
(dp1542
sg71
g1527
sg64
(lp1543
g57
(g58
g59
NtRp1544
(dp1545
g62
(dp1546
g70
I4
ssg71
g1540
sg64
(lp1547
S'unic-Inspiron-N5050'
p1548
asbasbasbag57
(g73
g59
NtRp1549
(dp1550
g62
(dp1551
sg71
g1020
sg64
(lp1552
g57
(g78
g59
NtRp1553
(dp1554
g62
(dp1555
g82
g83
ssg71
g1549
sg64
(lp1556
S'server_port'
p1557
asbag57
(g78
g59
NtRp1558
(dp1559
g62
(dp1560
g89
g90
ssg71
g1549
sg64
(lp1561
S':'
asbag57
(g78
g59
NtRp1562
(dp1563
g62
(dp1564
sg71
g1549
sg64
(lp1565
g57
(g58
g59
NtRp1566
(dp1567
g62
(dp1568
g70
I4
ssg71
g1562
sg64
(lp1569
S'8000'
p1570
asbasbasbag57
(g73
g59
NtRp1571
(dp1572
g62
(dp1573
sg71
g1020
sg64
(lp1574
g57
(g78
g59
NtRp1575
(dp1576
g62
(dp1577
g82
g83
ssg71
g1571
sg64
(lp1578
S'server_protocol'
p1579
asbag57
(g78
g59
NtRp1580
(dp1581
g62
(dp1582
g89
g90
ssg71
g1571
sg64
(lp1583
S':'
asbag57
(g78
g59
NtRp1584
(dp1585
g62
(dp1586
sg71
g1571
sg64
(lp1587
g57
(g58
g59
NtRp1588
(dp1589
g62
(dp1590
g70
I4
ssg71
g1584
sg64
(lp1591
S'HTTP/1.1'
p1592
asbasbasbag57
(g73
g59
NtRp1593
(dp1594
g62
(dp1595
sg71
g1020
sg64
(lp1596
g57
(g78
g59
NtRp1597
(dp1598
g62
(dp1599
g82
g83
ssg71
g1593
sg64
(lp1600
S'server_software'
p1601
asbag57
(g78
g59
NtRp1602
(dp1603
g62
(dp1604
g89
g90
ssg71
g1593
sg64
(lp1605
S':'
asbag57
(g78
g59
NtRp1606
(dp1607
g62
(dp1608
sg71
g1593
sg64
(lp1609
g57
(g58
g59
NtRp1610
(dp1611
g62
(dp1612
g70
I4
ssg71
g1606
sg64
(lp1613
S'Rocket 1.2.4'
p1614
asbasbasbag57
(g73
g59
NtRp1615
(dp1616
g62
(dp1617
sg71
g1020
sg64
(lp1618
g57
(g78
g59
NtRp1619
(dp1620
g62
(dp1621
g82
g83
ssg71
g1615
sg64
(lp1622
S'web2py_crontype'
p1623
asbag57
(g78
g59
NtRp1624
(dp1625
g62
(dp1626
g89
g90
ssg71
g1615
sg64
(lp1627
S':'
asbag57
(g78
g59
NtRp1628
(dp1629
g62
(dp1630
sg71
g1615
sg64
(lp1631
g57
(g58
g59
NtRp1632
(dp1633
g62
(dp1634
g70
I4
ssg71
g1628
sg64
(lp1635
S'hard'
p1636
asbasbasbag57
(g73
g59
NtRp1637
(dp1638
g62
(dp1639
sg71
g1020
sg64
(lp1640
g57
(g78
g59
NtRp1641
(dp1642
g62
(dp1643
g82
g83
ssg71
g1637
sg64
(lp1644
S'web2py_path'
p1645
asbag57
(g78
g59
NtRp1646
(dp1647
g62
(dp1648
g89
g90
ssg71
g1637
sg64
(lp1649
S':'
asbag57
(g78
g59
NtRp1650
(dp1651
g62
(dp1652
sg71
g1637
sg64
(lp1653
g57
(g58
g59
NtRp1654
(dp1655
g62
(dp1656
g70
I4
ssg71
g1650
sg64
(lp1657
g1067
asbasbasbag57
(g73
g59
NtRp1658
(dp1659
g62
(dp1660
sg71
g1020
sg64
(lp1661
g57
(g78
g59
NtRp1662
(dp1663
g62
(dp1664
g82
g83
ssg71
g1658
sg64
(lp1665
S'web2py_version'
p1666
asbag57
(g78
g59
NtRp1667
(dp1668
g62
(dp1669
g89
g90
ssg71
g1658
sg64
(lp1670
S':'
asbag57
(g78
g59
NtRp1671
(dp1672
g62
(dp1673
sg71
g1658
sg64
(lp1674
g57
(g58
g59
NtRp1675
(dp1676
g62
(dp1677
g70
I4
ssg71
g1671
sg64
(lp1678
g57
(g66
g59
NtRp1679
(dp1680
g62
(dp1681
g70
I3
ssg71
Nsg64
(lp1682
g57
(g73
g59
NtRp1683
(dp1684
g62
(dp1685
sg71
g1679
sg64
(lp1686
g57
(g78
g59
NtRp1687
(dp1688
g62
(dp1689
sg71
g1683
sg64
(lp1690
g57
(g58
g59
NtRp1691
(dp1692
g62
(dp1693
g70
I3
ssg71
g1687
sg64
(lp1694
S'1'
asbasbasbag57
(g73
g59
NtRp1695
(dp1696
g62
(dp1697
sg71
g1679
sg64
(lp1698
g57
(g78
g59
NtRp1699
(dp1700
g62
(dp1701
sg71
g1695
sg64
(lp1702
g57
(g58
g59
NtRp1703
(dp1704
g62
(dp1705
g70
I3
ssg71
g1699
sg64
(lp1706
S'99'
p1707
asbasbasbag57
(g73
g59
NtRp1708
(dp1709
g62
(dp1710
sg71
g1679
sg64
(lp1711
g57
(g78
g59
NtRp1712
(dp1713
g62
(dp1714
sg71
g1708
sg64
(lp1715
g57
(g58
g59
NtRp1716
(dp1717
g62
(dp1718
g70
I3
ssg71
g1712
sg64
(lp1719
S'4'
asbasbasbag57
(g73
g59
NtRp1720
(dp1721
g62
(dp1722
sg71
g1679
sg64
(lp1723
g57
(g78
g59
NtRp1724
(dp1725
g62
(dp1726
sg71
g1720
sg64
(lp1727
g57
(g58
g59
NtRp1728
(dp1729
g62
(dp1730
g70
I3
ssg71
g1724
sg64
(lp1731
S'datetime.datetime(2011, 12, 14, 14, 46, 14)'
p1732
asbasbasbag57
(g73
g59
NtRp1733
(dp1734
g62
(dp1735
sg71
g1679
sg64
(lp1736
g57
(g78
g59
NtRp1737
(dp1738
g62
(dp1739
sg71
g1733
sg64
(lp1740
g57
(g58
g59
NtRp1741
(dp1742
g62
(dp1743
g70
I3
ssg71
g1737
sg64
(lp1744
S'stable'
p1745
asbasbasbasbasbasbasbag57
(g73
g59
NtRp1746
(dp1747
g62
(dp1748
sg71
g1020
sg64
(lp1749
g57
(g78
g59
NtRp1750
(dp1751
g62
(dp1752
g82
g83
ssg71
g1746
sg64
(lp1753
S'wsgi_errors'
p1754
asbag57
(g78
g59
NtRp1755
(dp1756
g62
(dp1757
g89
g90
ssg71
g1746
sg64
(lp1758
S':'
asbag57
(g78
g59
NtRp1759
(dp1760
g62
(dp1761
sg71
g1746
sg64
(lp1762
g57
(g58
g59
NtRp1763
(dp1764
g62
(dp1765
g70
I4
ssg71
g1759
sg64
(lp1766
S"<open file '<stderr>', mode 'w' at 0xb73370d0>"
p1767
asbasbasbag57
(g73
g59
NtRp1768
(dp1769
g62
(dp1770
sg71
g1020
sg64
(lp1771
g57
(g78
g59
NtRp1772
(dp1773
g62
(dp1774
g82
g83
ssg71
g1768
sg64
(lp1775
S'wsgi_file_wrapper'
p1776
asbag57
(g78
g59
NtRp1777
(dp1778
g62
(dp1779
g89
g90
ssg71
g1768
sg64
(lp1780
S':'
asbag57
(g78
g59
NtRp1781
(dp1782
g62
(dp1783
sg71
g1768
sg64
(lp1784
g57
(g58
g59
NtRp1785
(dp1786
g62
(dp1787
g70
I4
ssg71
g1781
sg64
(lp1788
S'<class wsgiref.util.FileWrapper at 0x94fd4ac>'
p1789
asbasbasbag57
(g73
g59
NtRp1790
(dp1791
g62
(dp1792
sg71
g1020
sg64
(lp1793
g57
(g78
g59
NtRp1794
(dp1795
g62
(dp1796
g82
g83
ssg71
g1790
sg64
(lp1797
S'wsgi_input'
p1798
asbag57
(g78
g59
NtRp1799
(dp1800
g62
(dp1801
g89
g90
ssg71
g1790
sg64
(lp1802
S':'
asbag57
(g78
g59
NtRp1803
(dp1804
g62
(dp1805
sg71
g1790
sg64
(lp1806
g57
(g58
g59
NtRp1807
(dp1808
g62
(dp1809
g70
I4
ssg71
g1803
sg64
(lp1810
S'<socket._fileobject object at 0x9e89cec>'
p1811
asbasbasbag57
(g73
g59
NtRp1812
(dp1813
g62
(dp1814
sg71
g1020
sg64
(lp1815
g57
(g78
g59
NtRp1816
(dp1817
g62
(dp1818
g82
g83
ssg71
g1812
sg64
(lp1819
S'wsgi_multiprocess'
p1820
asbag57
(g78
g59
NtRp1821
(dp1822
g62
(dp1823
g89
g90
ssg71
g1812
sg64
(lp1824
S':'
asbag57
(g78
g59
NtRp1825
(dp1826
g62
(dp1827
sg71
g1812
sg64
(lp1828
g57
(g58
g59
NtRp1829
(dp1830
g62
(dp1831
g70
I4
ssg71
g1825
sg64
(lp1832
g100
asbasbasbag57
(g73
g59
NtRp1833
(dp1834
g62
(dp1835
sg71
g1020
sg64
(lp1836
g57
(g78
g59
NtRp1837
(dp1838
g62
(dp1839
g82
g83
ssg71
g1833
sg64
(lp1840
S'wsgi_multithread'
p1841
asbag57
(g78
g59
NtRp1842
(dp1843
g62
(dp1844
g89
g90
ssg71
g1833
sg64
(lp1845
S':'
asbag57
(g78
g59
NtRp1846
(dp1847
g62
(dp1848
sg71
g1833
sg64
(lp1849
g57
(g58
g59
NtRp1850
(dp1851
g62
(dp1852
g70
I4
ssg71
g1846
sg64
(lp1853
S'True'
p1854
asbasbasbag57
(g73
g59
NtRp1855
(dp1856
g62
(dp1857
sg71
g1020
sg64
(lp1858
g57
(g78
g59
NtRp1859
(dp1860
g62
(dp1861
g82
g83
ssg71
g1855
sg64
(lp1862
S'wsgi_run_once'
p1863
asbag57
(g78
g59
NtRp1864
(dp1865
g62
(dp1866
g89
g90
ssg71
g1855
sg64
(lp1867
S':'
asbag57
(g78
g59
NtRp1868
(dp1869
g62
(dp1870
sg71
g1855
sg64
(lp1871
g57
(g58
g59
NtRp1872
(dp1873
g62
(dp1874
g70
I4
ssg71
g1868
sg64
(lp1875
g100
asbasbasbag57
(g73
g59
NtRp1876
(dp1877
g62
(dp1878
sg71
g1020
sg64
(lp1879
g57
(g78
g59
NtRp1880
(dp1881
g62
(dp1882
g82
g83
ssg71
g1876
sg64
(lp1883
S'wsgi_url_scheme'
p1884
asbag57
(g78
g59
NtRp1885
(dp1886
g62
(dp1887
g89
g90
ssg71
g1876
sg64
(lp1888
S':'
asbag57
(g78
g59
NtRp1889
(dp1890
g62
(dp1891
sg71
g1876
sg64
(lp1892
g57
(g58
g59
NtRp1893
(dp1894
g62
(dp1895
g70
I4
ssg71
g1889
sg64
(lp1896
S'http'
p1897
asbasbasbag57
(g73
g59
NtRp1898
(dp1899
g62
(dp1900
sg71
g1020
sg64
(lp1901
g57
(g78
g59
NtRp1902
(dp1903
g62
(dp1904
g82
g83
ssg71
g1898
sg64
(lp1905
S'wsgi_version'
p1906
asbag57
(g78
g59
NtRp1907
(dp1908
g62
(dp1909
g89
g90
ssg71
g1898
sg64
(lp1910
S':'
asbag57
(g78
g59
NtRp1911
(dp1912
g62
(dp1913
sg71
g1898
sg64
(lp1914
g57
(g58
g59
NtRp1915
(dp1916
g62
(dp1917
g70
I4
ssg71
g1911
sg64
(lp1918
g57
(g66
g59
NtRp1919
(dp1920
g62
(dp1921
g70
I3
ssg71
Nsg64
(lp1922
g57
(g73
g59
NtRp1923
(dp1924
g62
(dp1925
sg71
g1919
sg64
(lp1926
g57
(g78
g59
NtRp1927
(dp1928
g62
(dp1929
sg71
g1923
sg64
(lp1930
g57
(g58
g59
NtRp1931
(dp1932
g62
(dp1933
g70
I3
ssg71
g1927
sg64
(lp1934
S'1'
asbasbasbag57
(g73
g59
NtRp1935
(dp1936
g62
(dp1937
sg71
g1919
sg64
(lp1938
g57
(g78
g59
NtRp1939
(dp1940
g62
(dp1941
sg71
g1935
sg64
(lp1942
g57
(g58
g59
NtRp1943
(dp1944
g62
(dp1945
g70
I3
ssg71
g1939
sg64
(lp1946
S'0'
asbasbasbasbasbasbasbasbasbasbasbag57
(g73
g59
NtRp1947
(dp1948
g62
(dp1949
sg71
g67
sg64
(lp1950
g57
(g78
g59
NtRp1951
(dp1952
g62
(dp1953
g82
g83
ssg71
g1947
sg64
(lp1954
S'extension'
p1955
asbag57
(g78
g59
NtRp1956
(dp1957
g62
(dp1958
g89
g90
ssg71
g1947
sg64
(lp1959
S':'
asbag57
(g78
g59
NtRp1960
(dp1961
g62
(dp1962
sg71
g1947
sg64
(lp1963
g57
(g58
g59
NtRp1964
(dp1965
g62
(dp1966
g70
I5
ssg71
g1960
sg64
(lp1967
S'html'
p1968
asbasbasbag57
(g73
g59
NtRp1969
(dp1970
g62
(dp1971
sg71
g67
sg64
(lp1972
g57
(g78
g59
NtRp1973
(dp1974
g62
(dp1975
g82
g83
ssg71
g1969
sg64
(lp1976
S'folder'
p1977
asbag57
(g78
g59
NtRp1978
(dp1979
g62
(dp1980
g89
g90
ssg71
g1969
sg64
(lp1981
S':'
asbag57
(g78
g59
NtRp1982
(dp1983
g62
(dp1984
sg71
g1969
sg64
(lp1985
g57
(g58
g59
NtRp1986
(dp1987
g62
(dp1988
g70
I5
ssg71
g1982
sg64
(lp1989
S'/home/unic/web2py/applications/manager/'
p1990
asbasbasbag57
(g73
g59
NtRp1991
(dp1992
g62
(dp1993
sg71
g67
sg64
(lp1994
g57
(g78
g59
NtRp1995
(dp1996
g62
(dp1997
g82
g83
ssg71
g1991
sg64
(lp1998
S'function'
p1999
asbag57
(g78
g59
NtRp2000
(dp2001
g62
(dp2002
g89
g90
ssg71
g1991
sg64
(lp2003
S':'
asbag57
(g78
g59
NtRp2004
(dp2005
g62
(dp2006
sg71
g1991
sg64
(lp2007
g57
(g58
g59
NtRp2008
(dp2009
g62
(dp2010
g70
I5
ssg71
g2004
sg64
(lp2011
S'nedit'
p2012
asbasbasbag57
(g73
g59
NtRp2013
(dp2014
g62
(dp2015
sg71
g67
sg64
(lp2016
g57
(g78
g59
NtRp2017
(dp2018
g62
(dp2019
g82
g83
ssg71
g2013
sg64
(lp2020
S'get_vars'
p2021
asbag57
(g78
g59
NtRp2022
(dp2023
g62
(dp2024
g89
g90
ssg71
g2013
sg64
(lp2025
S':'
asbag57
(g78
g59
NtRp2026
(dp2027
g62
(dp2028
sg71
g2013
sg64
(lp2029
g57
(g58
g59
NtRp2030
(dp2031
g62
(dp2032
g70
I5
ssg71
g2026
sg64
(lp2033
g57
(g66
g59
NtRp2034
(dp2035
g62
(dp2036
g70
I4
ssg71
Nsg64
(lp2037
sbasbasbasbag57
(g73
g59
NtRp2038
(dp2039
g62
(dp2040
sg71
g67
sg64
(lp2041
g57
(g78
g59
NtRp2042
(dp2043
g62
(dp2044
g82
g83
ssg71
g2038
sg64
(lp2045
S'global_settings'
p2046
asbag57
(g78
g59
NtRp2047
(dp2048
g62
(dp2049
g89
g90
ssg71
g2038
sg64
(lp2050
S':'
asbag57
(g78
g59
NtRp2051
(dp2052
g62
(dp2053
sg71
g2038
sg64
(lp2054
g57
(g58
g59
NtRp2055
(dp2056
g62
(dp2057
g70
I5
ssg71
g2051
sg64
(lp2058
g57
(g66
g59
NtRp2059
(dp2060
g62
(dp2061
g70
I4
ssg71
Nsg64
(lp2062
g57
(g73
g59
NtRp2063
(dp2064
g62
(dp2065
sg71
g2059
sg64
(lp2066
g57
(g78
g59
NtRp2067
(dp2068
g62
(dp2069
g82
g83
ssg71
g2063
sg64
(lp2070
g1032
asbag57
(g78
g59
NtRp2071
(dp2072
g62
(dp2073
g89
g90
ssg71
g2063
sg64
(lp2074
S':'
asbag57
(g78
g59
NtRp2075
(dp2076
g62
(dp2077
sg71
g2063
sg64
(lp2078
g57
(g58
g59
NtRp2079
(dp2080
g62
(dp2081
g70
I4
ssg71
g2075
sg64
(lp2082
S"set(['/home/unic/web2py/applications/manager/', '/home/unic/web2py/applications/managerold/', '/home/unic/web2py/applications/admin/', '/home/unic/web2py/applications/welcome/'])"
p2083
asbasbasbag57
(g73
g59
NtRp2084
(dp2085
g62
(dp2086
sg71
g2059
sg64
(lp2087
g57
(g78
g59
NtRp2088
(dp2089
g62
(dp2090
g82
g83
ssg71
g2084
sg64
(lp2091
g1054
asbag57
(g78
g59
NtRp2092
(dp2093
g62
(dp2094
g89
g90
ssg71
g2084
sg64
(lp2095
S':'
asbag57
(g78
g59
NtRp2096
(dp2097
g62
(dp2098
sg71
g2084
sg64
(lp2099
g57
(g58
g59
NtRp2100
(dp2101
g62
(dp2102
g70
I4
ssg71
g2096
sg64
(lp2103
g1067
asbasbasbag57
(g73
g59
NtRp2104
(dp2105
g62
(dp2106
sg71
g2059
sg64
(lp2107
g57
(g78
g59
NtRp2108
(dp2109
g62
(dp2110
g82
g83
ssg71
g2104
sg64
(lp2111
g1076
asbag57
(g78
g59
NtRp2112
(dp2113
g62
(dp2114
g89
g90
ssg71
g2104
sg64
(lp2115
S':'
asbag57
(g78
g59
NtRp2116
(dp2117
g62
(dp2118
sg71
g2104
sg64
(lp2119
g57
(g58
g59
NtRp2120
(dp2121
g62
(dp2122
g70
I4
ssg71
g2116
sg64
(lp2123
g57
(g66
g59
NtRp2124
(dp2125
g62
(dp2126
g70
I3
ssg71
Nsg64
(lp2127
sbasbasbasbag57
(g73
g59
NtRp2128
(dp2129
g62
(dp2130
sg71
g2059
sg64
(lp2131
g57
(g78
g59
NtRp2132
(dp2133
g62
(dp2134
g82
g83
ssg71
g2128
sg64
(lp2135
g1101
asbag57
(g78
g59
NtRp2136
(dp2137
g62
(dp2138
g89
g90
ssg71
g2128
sg64
(lp2139
S':'
asbag57
(g78
g59
NtRp2140
(dp2141
g62
(dp2142
sg71
g2128
sg64
(lp2143
g57
(g58
g59
NtRp2144
(dp2145
g62
(dp2146
g70
I4
ssg71
g2140
sg64
(lp2147
S"<Values at 0x955280c: {'verbose': False, 'ip': '127.0.0.1', 'shutdown_timeout': 5, 'taskbar': False, 'port': 8000, 'maxthreads': None, 'softcron': False, 'server_name': 'unic-Inspiron-N5050', 'bpython': False, 'nogui': False, 'nocron': False, 'extcron': False, 'debuglevel': 30, 'test': None, 'folder': '/home/unic/web2py', 'config': '', 'import_models': False, 'winservice': '', 'shell': None, 'run': '', 'log_filename': 'httpserver.log', 'args': [''], 'socket_timeout': 1, 'profiler_filename': None, 'ssl_private_key': '', 'password': '<ask>', 'request_queue_size': 5, 'ssl_certificate': '', 'cronjob': False, 'plain': False, 'quiet': False, 'interfaces': None, 'minthreads': None, 'timeout': 10, 'numthreads': None, 'nobanner': False, 'pid_filename': 'httpserver.pid'}>"
p2148
asbasbasbag57
(g73
g59
NtRp2149
(dp2150
g62
(dp2151
sg71
g2059
sg64
(lp2152
g57
(g78
g59
NtRp2153
(dp2154
g62
(dp2155
g82
g83
ssg71
g2149
sg64
(lp2156
g1123
asbag57
(g78
g59
NtRp2157
(dp2158
g62
(dp2159
g89
g90
ssg71
g2149
sg64
(lp2160
S':'
asbag57
(g78
g59
NtRp2161
(dp2162
g62
(dp2163
sg71
g2149
sg64
(lp2164
g57
(g58
g59
NtRp2165
(dp2166
g62
(dp2167
g70
I4
ssg71
g2161
sg64
(lp2168
S'set([])'
p2169
asbasbasbag57
(g73
g59
NtRp2170
(dp2171
g62
(dp2172
sg71
g2059
sg64
(lp2173
g57
(g78
g59
NtRp2174
(dp2175
g62
(dp2176
g82
g83
ssg71
g2170
sg64
(lp2177
g1145
asbag57
(g78
g59
NtRp2178
(dp2179
g62
(dp2180
g89
g90
ssg71
g2170
sg64
(lp2181
S':'
asbag57
(g78
g59
NtRp2182
(dp2183
g62
(dp2184
sg71
g2170
sg64
(lp2185
g57
(g58
g59
NtRp2186
(dp2187
g62
(dp2188
g70
I4
ssg71
g2182
sg64
(lp2189
g100
asbasbasbag57
(g73
g59
NtRp2190
(dp2191
g62
(dp2192
sg71
g2059
sg64
(lp2193
g57
(g78
g59
NtRp2194
(dp2195
g62
(dp2196
g82
g83
ssg71
g2190
sg64
(lp2197
g1166
asbag57
(g78
g59
NtRp2198
(dp2199
g62
(dp2200
g89
g90
ssg71
g2190
sg64
(lp2201
S':'
asbag57
(g78
g59
NtRp2202
(dp2203
g62
(dp2204
sg71
g2190
sg64
(lp2205
g57
(g58
g59
NtRp2206
(dp2207
g62
(dp2208
g70
I4
ssg71
g2202
sg64
(lp2209
g1179
asbasbasbag57
(g73
g59
NtRp2210
(dp2211
g62
(dp2212
sg71
g2059
sg64
(lp2213
g57
(g78
g59
NtRp2214
(dp2215
g62
(dp2216
g82
g83
ssg71
g2210
sg64
(lp2217
g1364
asbag57
(g78
g59
NtRp2218
(dp2219
g62
(dp2220
g89
g90
ssg71
g2210
sg64
(lp2221
S':'
asbag57
(g78
g59
NtRp2222
(dp2223
g62
(dp2224
sg71
g2210
sg64
(lp2225
g57
(g58
g59
NtRp2226
(dp2227
g62
(dp2228
g70
I4
ssg71
g2222
sg64
(lp2229
g100
asbasbasbag57
(g73
g59
NtRp2230
(dp2231
g62
(dp2232
sg71
g2059
sg64
(lp2233
g57
(g78
g59
NtRp2234
(dp2235
g62
(dp2236
g82
g83
ssg71
g2230
sg64
(lp2237
g1385
asbag57
(g78
g59
NtRp2238
(dp2239
g62
(dp2240
g89
g90
ssg71
g2230
sg64
(lp2241
S':'
asbag57
(g78
g59
NtRp2242
(dp2243
g62
(dp2244
sg71
g2230
sg64
(lp2245
g57
(g58
g59
NtRp2246
(dp2247
g62
(dp2248
g70
I4
ssg71
g2242
sg64
(lp2249
g100
asbasbasbag57
(g73
g59
NtRp2250
(dp2251
g62
(dp2252
sg71
g2059
sg64
(lp2253
g57
(g78
g59
NtRp2254
(dp2255
g62
(dp2256
g82
g83
ssg71
g2250
sg64
(lp2257
g1623
asbag57
(g78
g59
NtRp2258
(dp2259
g62
(dp2260
g89
g90
ssg71
g2250
sg64
(lp2261
S':'
asbag57
(g78
g59
NtRp2262
(dp2263
g62
(dp2264
sg71
g2250
sg64
(lp2265
g57
(g58
g59
NtRp2266
(dp2267
g62
(dp2268
g70
I4
ssg71
g2262
sg64
(lp2269
g1636
asbasbasbag57
(g73
g59
NtRp2270
(dp2271
g62
(dp2272
sg71
g2059
sg64
(lp2273
g57
(g78
g59
NtRp2274
(dp2275
g62
(dp2276
g82
g83
ssg71
g2270
sg64
(lp2277
g1666
asbag57
(g78
g59
NtRp2278
(dp2279
g62
(dp2280
g89
g90
ssg71
g2270
sg64
(lp2281
S':'
asbag57
(g78
g59
NtRp2282
(dp2283
g62
(dp2284
sg71
g2270
sg64
(lp2285
g57
(g58
g59
NtRp2286
(dp2287
g62
(dp2288
g70
I4
ssg71
g2282
sg64
(lp2289
g57
(g66
g59
NtRp2290
(dp2291
g62
(dp2292
g70
I3
ssg71
Nsg64
(lp2293
g57
(g73
g59
NtRp2294
(dp2295
g62
(dp2296
sg71
g2290
sg64
(lp2297
g57
(g78
g59
NtRp2298
(dp2299
g62
(dp2300
sg71
g2294
sg64
(lp2301
g57
(g58
g59
NtRp2302
(dp2303
g62
(dp2304
g70
I3
ssg71
g2298
sg64
(lp2305
S'1'
asbasbasbag57
(g73
g59
NtRp2306
(dp2307
g62
(dp2308
sg71
g2290
sg64
(lp2309
g57
(g78
g59
NtRp2310
(dp2311
g62
(dp2312
sg71
g2306
sg64
(lp2313
g57
(g58
g59
NtRp2314
(dp2315
g62
(dp2316
g70
I3
ssg71
g2310
sg64
(lp2317
S'99'
p2318
asbasbasbag57
(g73
g59
NtRp2319
(dp2320
g62
(dp2321
sg71
g2290
sg64
(lp2322
g57
(g78
g59
NtRp2323
(dp2324
g62
(dp2325
sg71
g2319
sg64
(lp2326
g57
(g58
g59
NtRp2327
(dp2328
g62
(dp2329
g70
I3
ssg71
g2323
sg64
(lp2330
S'4'
asbasbasbag57
(g73
g59
NtRp2331
(dp2332
g62
(dp2333
sg71
g2290
sg64
(lp2334
g57
(g78
g59
NtRp2335
(dp2336
g62
(dp2337
sg71
g2331
sg64
(lp2338
g57
(g58
g59
NtRp2339
(dp2340
g62
(dp2341
g70
I3
ssg71
g2335
sg64
(lp2342
S'datetime.datetime(2011, 12, 14, 14, 46, 14)'
p2343
asbasbasbag57
(g73
g59
NtRp2344
(dp2345
g62
(dp2346
sg71
g2290
sg64
(lp2347
g57
(g78
g59
NtRp2348
(dp2349
g62
(dp2350
sg71
g2344
sg64
(lp2351
g57
(g58
g59
NtRp2352
(dp2353
g62
(dp2354
g70
I3
ssg71
g2348
sg64
(lp2355
g1745
asbasbasbasbasbasbasbasbasbasbasbag57
(g73
g59
NtRp2356
(dp2357
g62
(dp2358
sg71
g67
sg64
(lp2359
g57
(g78
g59
NtRp2360
(dp2361
g62
(dp2362
g82
g83
ssg71
g2356
sg64
(lp2363
S'is_https'
p2364
asbag57
(g78
g59
NtRp2365
(dp2366
g62
(dp2367
g89
g90
ssg71
g2356
sg64
(lp2368
S':'
asbag57
(g78
g59
NtRp2369
(dp2370
g62
(dp2371
sg71
g2356
sg64
(lp2372
g57
(g58
g59
NtRp2373
(dp2374
g62
(dp2375
g70
I5
ssg71
g2369
sg64
(lp2376
g100
asbasbasbag57
(g73
g59
NtRp2377
(dp2378
g62
(dp2379
sg71
g67
sg64
(lp2380
g57
(g78
g59
NtRp2381
(dp2382
g62
(dp2383
g82
g83
ssg71
g2377
sg64
(lp2384
S'is_local'
p2385
asbag57
(g78
g59
NtRp2386
(dp2387
g62
(dp2388
g89
g90
ssg71
g2377
sg64
(lp2389
S':'
asbag57
(g78
g59
NtRp2390
(dp2391
g62
(dp2392
sg71
g2377
sg64
(lp2393
g57
(g58
g59
NtRp2394
(dp2395
g62
(dp2396
g70
I5
ssg71
g2390
sg64
(lp2397
g1854
asbasbasbag57
(g73
g59
NtRp2398
(dp2399
g62
(dp2400
sg71
g67
sg64
(lp2401
g57
(g78
g59
NtRp2402
(dp2403
g62
(dp2404
g82
g83
ssg71
g2398
sg64
(lp2405
S'is_restful'
p2406
asbag57
(g78
g59
NtRp2407
(dp2408
g62
(dp2409
g89
g90
ssg71
g2398
sg64
(lp2410
S':'
asbag57
(g78
g59
NtRp2411
(dp2412
g62
(dp2413
sg71
g2398
sg64
(lp2414
g57
(g58
g59
NtRp2415
(dp2416
g62
(dp2417
g70
I5
ssg71
g2411
sg64
(lp2418
g100
asbasbasbag57
(g73
g59
NtRp2419
(dp2420
g62
(dp2421
sg71
g67
sg64
(lp2422
g57
(g78
g59
NtRp2423
(dp2424
g62
(dp2425
g82
g83
ssg71
g2419
sg64
(lp2426
S'now'
p2427
asbag57
(g78
g59
NtRp2428
(dp2429
g62
(dp2430
g89
g90
ssg71
g2419
sg64
(lp2431
S':'
asbag57
(g78
g59
NtRp2432
(dp2433
g62
(dp2434
sg71
g2419
sg64
(lp2435
g57
(g58
g59
NtRp2436
(dp2437
g62
(dp2438
g70
I5
ssg71
g2432
sg64
(lp2439
S'datetime.datetime(2012, 11, 14, 19, 43, 37, 748612)'
p2440
asbasbasbag57
(g73
g59
NtRp2441
(dp2442
g62
(dp2443
sg71
g67
sg64
(lp2444
g57
(g78
g59
NtRp2445
(dp2446
g62
(dp2447
g82
g83
ssg71
g2441
sg64
(lp2448
S'post_vars'
p2449
asbag57
(g78
g59
NtRp2450
(dp2451
g62
(dp2452
g89
g90
ssg71
g2441
sg64
(lp2453
S':'
asbag57
(g78
g59
NtRp2454
(dp2455
g62
(dp2456
sg71
g2441
sg64
(lp2457
g57
(g58
g59
NtRp2458
(dp2459
g62
(dp2460
g70
I5
ssg71
g2454
sg64
(lp2461
g57
(g66
g59
NtRp2462
(dp2463
g62
(dp2464
g70
I4
ssg71
Nsg64
(lp2465
sbasbasbasbag57
(g73
g59
NtRp2466
(dp2467
g62
(dp2468
sg71
g67
sg64
(lp2469
g57
(g78
g59
NtRp2470
(dp2471
g62
(dp2472
g82
g83
ssg71
g2466
sg64
(lp2473
S'raw_args'
p2474
asbag57
(g78
g59
NtRp2475
(dp2476
g62
(dp2477
g89
g90
ssg71
g2466
sg64
(lp2478
S':'
asbag57
(g78
g59
NtRp2479
(dp2480
g62
(dp2481
sg71
g2466
sg64
(lp2482
g57
(g58
g59
NtRp2483
(dp2484
g62
(dp2485
g70
I5
ssg71
g2479
sg64
(lp2486
g159
asbasbasbag57
(g73
g59
NtRp2487
(dp2488
g62
(dp2489
sg71
g67
sg64
(lp2490
g57
(g78
g59
NtRp2491
(dp2492
g62
(dp2493
g82
g83
ssg71
g2487
sg64
(lp2494
S'url'
p2495
asbag57
(g78
g59
NtRp2496
(dp2497
g62
(dp2498
g89
g90
ssg71
g2487
sg64
(lp2499
S':'
asbag57
(g78
g59
NtRp2500
(dp2501
g62
(dp2502
sg71
g2487
sg64
(lp2503
g57
(g58
g59
NtRp2504
(dp2505
g62
(dp2506
g70
I5
ssg71
g2500
sg64
(lp2507
S'/manager/default/nedit/842'
p2508
asbasbasbag57
(g73
g59
NtRp2509
(dp2510
g62
(dp2511
sg71
g67
sg64
(lp2512
g57
(g78
g59
NtRp2513
(dp2514
g62
(dp2515
g82
g83
ssg71
g2509
sg64
(lp2516
S'utcnow'
p2517
asbag57
(g78
g59
NtRp2518
(dp2519
g62
(dp2520
g89
g90
ssg71
g2509
sg64
(lp2521
S':'
asbag57
(g78
g59
NtRp2522
(dp2523
g62
(dp2524
sg71
g2509
sg64
(lp2525
g57
(g58
g59
NtRp2526
(dp2527
g62
(dp2528
g70
I5
ssg71
g2522
sg64
(lp2529
S'datetime.datetime(2012, 11, 14, 14, 13, 37, 748635)'
p2530
asbasbasbag57
(g73
g59
NtRp2531
(dp2532
g62
(dp2533
sg71
g67
sg64
(lp2534
g57
(g78
g59
NtRp2535
(dp2536
g62
(dp2537
g82
g83
ssg71
g2531
sg64
(lp2538
S'uuid'
p2539
asbag57
(g78
g59
NtRp2540
(dp2541
g62
(dp2542
g89
g90
ssg71
g2531
sg64
(lp2543
S':'
asbag57
(g78
g59
NtRp2544
(dp2545
g62
(dp2546
sg71
g2531
sg64
(lp2547
g57
(g58
g59
NtRp2548
(dp2549
g62
(dp2550
g70
I5
ssg71
g2544
sg64
(lp2551
S'manager/127.0.0.1.2012-11-14.19-43-37.77c03bd1-475a-4173-8010-53018bb4be1d'
p2552
asbasbasbag57
(g73
g59
NtRp2553
(dp2554
g62
(dp2555
sg71
g67
sg64
(lp2556
g57
(g78
g59
NtRp2557
(dp2558
g62
(dp2559
g82
g83
ssg71
g2553
sg64
(lp2560
S'vars'
p2561
asbag57
(g78
g59
NtRp2562
(dp2563
g62
(dp2564
g89
g90
ssg71
g2553
sg64
(lp2565
S':'
asbag57
(g78
g59
NtRp2566
(dp2567
g62
(dp2568
sg71
g2553
sg64
(lp2569
g57
(g58
g59
NtRp2570
(dp2571
g62
(dp2572
g70
I5
ssg71
g2566
sg64
(lp2573
g57
(g66
g59
NtRp2574
(dp2575
g62
(dp2576
g70
I4
ssg71
Nsg64
(lp2577
sbasbasbasbag57
(g73
g59
NtRp2578
(dp2579
g62
(dp2580
sg71
g67
sg64
(lp2581
g57
(g78
g59
NtRp2582
(dp2583
g62
(dp2584
g82
g83
ssg71
g2578
sg64
(lp2585
S'wsgi'
p2586
asbag57
(g78
g59
NtRp2587
(dp2588
g62
(dp2589
g89
g90
ssg71
g2578
sg64
(lp2590
S':'
asbag57
(g78
g59
NtRp2591
(dp2592
g62
(dp2593
sg71
g2578
sg64
(lp2594
g57
(g58
g59
NtRp2595
(dp2596
g62
(dp2597
g70
I5
ssg71
g2591
sg64
(lp2598
g57
(g66
g59
NtRp2599
(dp2600
g62
(dp2601
g70
I4
ssg71
Nsg64
(lp2602
g57
(g73
g59
NtRp2603
(dp2604
g62
(dp2605
sg71
g2599
sg64
(lp2606
g57
(g78
g59
NtRp2607
(dp2608
g62
(dp2609
g82
g83
ssg71
g2603
sg64
(lp2610
S'environ'
p2611
asbag57
(g78
g59
NtRp2612
(dp2613
g62
(dp2614
g89
g90
ssg71
g2603
sg64
(lp2615
S':'
asbag57
(g78
g59
NtRp2616
(dp2617
g62
(dp2618
sg71
g2603
sg64
(lp2619
g57
(g58
g59
NtRp2620
(dp2621
g62
(dp2622
g70
I4
ssg71
g2616
sg64
(lp2623
g57
(g66
g59
NtRp2624
(dp2625
g62
(dp2626
g70
I3
ssg71
Nsg64
(lp2627
g57
(g73
g59
NtRp2628
(dp2629
g62
(dp2630
sg71
g2624
sg64
(lp2631
g57
(g78
g59
NtRp2632
(dp2633
g62
(dp2634
g82
g83
ssg71
g2628
sg64
(lp2635
S'HTTP_ACCEPT'
p2636
asbag57
(g78
g59
NtRp2637
(dp2638
g62
(dp2639
g89
g90
ssg71
g2628
sg64
(lp2640
S':'
asbag57
(g78
g59
NtRp2641
(dp2642
g62
(dp2643
sg71
g2628
sg64
(lp2644
g57
(g58
g59
NtRp2645
(dp2646
g62
(dp2647
g70
I3
ssg71
g2641
sg64
(lp2648
g1201
asbasbasbag57
(g73
g59
NtRp2649
(dp2650
g62
(dp2651
sg71
g2624
sg64
(lp2652
g57
(g78
g59
NtRp2653
(dp2654
g62
(dp2655
g82
g83
ssg71
g2649
sg64
(lp2656
S'HTTP_ACCEPT_ENCODING'
p2657
asbag57
(g78
g59
NtRp2658
(dp2659
g62
(dp2660
g89
g90
ssg71
g2649
sg64
(lp2661
S':'
asbag57
(g78
g59
NtRp2662
(dp2663
g62
(dp2664
sg71
g2649
sg64
(lp2665
g57
(g58
g59
NtRp2666
(dp2667
g62
(dp2668
g70
I3
ssg71
g2662
sg64
(lp2669
g1223
asbasbasbag57
(g73
g59
NtRp2670
(dp2671
g62
(dp2672
sg71
g2624
sg64
(lp2673
g57
(g78
g59
NtRp2674
(dp2675
g62
(dp2676
g82
g83
ssg71
g2670
sg64
(lp2677
S'HTTP_ACCEPT_LANGUAGE'
p2678
asbag57
(g78
g59
NtRp2679
(dp2680
g62
(dp2681
g89
g90
ssg71
g2670
sg64
(lp2682
S':'
asbag57
(g78
g59
NtRp2683
(dp2684
g62
(dp2685
sg71
g2670
sg64
(lp2686
g57
(g58
g59
NtRp2687
(dp2688
g62
(dp2689
g70
I3
ssg71
g2683
sg64
(lp2690
g1245
asbasbasbag57
(g73
g59
NtRp2691
(dp2692
g62
(dp2693
sg71
g2624
sg64
(lp2694
g57
(g78
g59
NtRp2695
(dp2696
g62
(dp2697
g82
g83
ssg71
g2691
sg64
(lp2698
S'HTTP_CONNECTION'
p2699
asbag57
(g78
g59
NtRp2700
(dp2701
g62
(dp2702
g89
g90
ssg71
g2691
sg64
(lp2703
S':'
asbag57
(g78
g59
NtRp2704
(dp2705
g62
(dp2706
sg71
g2691
sg64
(lp2707
g57
(g58
g59
NtRp2708
(dp2709
g62
(dp2710
g70
I3
ssg71
g2704
sg64
(lp2711
g1267
asbasbasbag57
(g73
g59
NtRp2712
(dp2713
g62
(dp2714
sg71
g2624
sg64
(lp2715
g57
(g78
g59
NtRp2716
(dp2717
g62
(dp2718
g82
g83
ssg71
g2712
sg64
(lp2719
S'HTTP_COOKIE'
p2720
asbag57
(g78
g59
NtRp2721
(dp2722
g62
(dp2723
g89
g90
ssg71
g2712
sg64
(lp2724
S':'
asbag57
(g78
g59
NtRp2725
(dp2726
g62
(dp2727
sg71
g2712
sg64
(lp2728
g57
(g58
g59
NtRp2729
(dp2730
g62
(dp2731
g70
I3
ssg71
g2725
sg64
(lp2732
g1289
asbasbasbag57
(g73
g59
NtRp2733
(dp2734
g62
(dp2735
sg71
g2624
sg64
(lp2736
g57
(g78
g59
NtRp2737
(dp2738
g62
(dp2739
g82
g83
ssg71
g2733
sg64
(lp2740
S'HTTP_HOST'
p2741
asbag57
(g78
g59
NtRp2742
(dp2743
g62
(dp2744
g89
g90
ssg71
g2733
sg64
(lp2745
S':'
asbag57
(g78
g59
NtRp2746
(dp2747
g62
(dp2748
sg71
g2733
sg64
(lp2749
g57
(g58
g59
NtRp2750
(dp2751
g62
(dp2752
g70
I3
ssg71
g2746
sg64
(lp2753
g1311
asbasbasbag57
(g73
g59
NtRp2754
(dp2755
g62
(dp2756
sg71
g2624
sg64
(lp2757
g57
(g78
g59
NtRp2758
(dp2759
g62
(dp2760
g82
g83
ssg71
g2754
sg64
(lp2761
S'HTTP_REFERER'
p2762
asbag57
(g78
g59
NtRp2763
(dp2764
g62
(dp2765
g89
g90
ssg71
g2754
sg64
(lp2766
S':'
asbag57
(g78
g59
NtRp2767
(dp2768
g62
(dp2769
sg71
g2754
sg64
(lp2770
g57
(g58
g59
NtRp2771
(dp2772
g62
(dp2773
g70
I3
ssg71
g2767
sg64
(lp2774
g1333
asbasbasbag57
(g73
g59
NtRp2775
(dp2776
g62
(dp2777
sg71
g2624
sg64
(lp2778
g57
(g78
g59
NtRp2779
(dp2780
g62
(dp2781
g82
g83
ssg71
g2775
sg64
(lp2782
S'HTTP_USER_AGENT'
p2783
asbag57
(g78
g59
NtRp2784
(dp2785
g62
(dp2786
g89
g90
ssg71
g2775
sg64
(lp2787
S':'
asbag57
(g78
g59
NtRp2788
(dp2789
g62
(dp2790
sg71
g2775
sg64
(lp2791
g57
(g58
g59
NtRp2792
(dp2793
g62
(dp2794
g70
I3
ssg71
g2788
sg64
(lp2795
g1355
asbasbasbag57
(g73
g59
NtRp2796
(dp2797
g62
(dp2798
sg71
g2624
sg64
(lp2799
g57
(g78
g59
NtRp2800
(dp2801
g62
(dp2802
g82
g83
ssg71
g2796
sg64
(lp2803
S'PATH_INFO'
p2804
asbag57
(g78
g59
NtRp2805
(dp2806
g62
(dp2807
g89
g90
ssg71
g2796
sg64
(lp2808
S':'
asbag57
(g78
g59
NtRp2809
(dp2810
g62
(dp2811
sg71
g2796
sg64
(lp2812
g57
(g58
g59
NtRp2813
(dp2814
g62
(dp2815
g70
I3
ssg71
g2809
sg64
(lp2816
g1419
asbasbasbag57
(g73
g59
NtRp2817
(dp2818
g62
(dp2819
sg71
g2624
sg64
(lp2820
g57
(g78
g59
NtRp2821
(dp2822
g62
(dp2823
g82
g83
ssg71
g2817
sg64
(lp2824
S'QUERY_STRING'
p2825
asbag57
(g78
g59
NtRp2826
(dp2827
g62
(dp2828
g89
g90
ssg71
g2817
sg64
(lp2829
S':'
asbag57
(g78
g59
NtRp2830
(dp2831
g62
(dp2832
sg71
g2817
sg64
(lp2833
g57
(g58
g59
NtRp2834
(dp2835
g62
(dp2836
g70
I3
ssg71
g2830
sg64
(lp2837
S''
asbasbasbag57
(g73
g59
NtRp2838
(dp2839
g62
(dp2840
sg71
g2624
sg64
(lp2841
g57
(g78
g59
NtRp2842
(dp2843
g62
(dp2844
g82
g83
ssg71
g2838
sg64
(lp2845
S'REMOTE_ADDR'
p2846
asbag57
(g78
g59
NtRp2847
(dp2848
g62
(dp2849
g89
g90
ssg71
g2838
sg64
(lp2850
S':'
asbag57
(g78
g59
NtRp2851
(dp2852
g62
(dp2853
sg71
g2838
sg64
(lp2854
g57
(g58
g59
NtRp2855
(dp2856
g62
(dp2857
g70
I3
ssg71
g2851
sg64
(lp2858
g203
asbasbasbag57
(g73
g59
NtRp2859
(dp2860
g62
(dp2861
sg71
g2624
sg64
(lp2862
g57
(g78
g59
NtRp2863
(dp2864
g62
(dp2865
g82
g83
ssg71
g2859
sg64
(lp2866
S'REMOTE_PORT'
p2867
asbag57
(g78
g59
NtRp2868
(dp2869
g62
(dp2870
g89
g90
ssg71
g2859
sg64
(lp2871
S':'
asbag57
(g78
g59
NtRp2872
(dp2873
g62
(dp2874
sg71
g2859
sg64
(lp2875
g57
(g58
g59
NtRp2876
(dp2877
g62
(dp2878
g70
I3
ssg71
g2872
sg64
(lp2879
g1483
asbasbasbag57
(g73
g59
NtRp2880
(dp2881
g62
(dp2882
sg71
g2624
sg64
(lp2883
g57
(g78
g59
NtRp2884
(dp2885
g62
(dp2886
g82
g83
ssg71
g2880
sg64
(lp2887
S'REQUEST_METHOD'
p2888
asbag57
(g78
g59
NtRp2889
(dp2890
g62
(dp2891
g89
g90
ssg71
g2880
sg64
(lp2892
S':'
asbag57
(g78
g59
NtRp2893
(dp2894
g62
(dp2895
sg71
g2880
sg64
(lp2896
g57
(g58
g59
NtRp2897
(dp2898
g62
(dp2899
g70
I3
ssg71
g2893
sg64
(lp2900
g1505
asbasbasbag57
(g73
g59
NtRp2901
(dp2902
g62
(dp2903
sg71
g2624
sg64
(lp2904
g57
(g78
g59
NtRp2905
(dp2906
g62
(dp2907
g82
g83
ssg71
g2901
sg64
(lp2908
S'SCRIPT_NAME'
p2909
asbag57
(g78
g59
NtRp2910
(dp2911
g62
(dp2912
g89
g90
ssg71
g2901
sg64
(lp2913
S':'
asbag57
(g78
g59
NtRp2914
(dp2915
g62
(dp2916
sg71
g2901
sg64
(lp2917
g57
(g58
g59
NtRp2918
(dp2919
g62
(dp2920
g70
I3
ssg71
g2914
sg64
(lp2921
S''
asbasbasbag57
(g73
g59
NtRp2922
(dp2923
g62
(dp2924
sg71
g2624
sg64
(lp2925
g57
(g78
g59
NtRp2926
(dp2927
g62
(dp2928
g82
g83
ssg71
g2922
sg64
(lp2929
S'SERVER_NAME'
p2930
asbag57
(g78
g59
NtRp2931
(dp2932
g62
(dp2933
g89
g90
ssg71
g2922
sg64
(lp2934
S':'
asbag57
(g78
g59
NtRp2935
(dp2936
g62
(dp2937
sg71
g2922
sg64
(lp2938
g57
(g58
g59
NtRp2939
(dp2940
g62
(dp2941
g70
I3
ssg71
g2935
sg64
(lp2942
g1548
asbasbasbag57
(g73
g59
NtRp2943
(dp2944
g62
(dp2945
sg71
g2624
sg64
(lp2946
g57
(g78
g59
NtRp2947
(dp2948
g62
(dp2949
g82
g83
ssg71
g2943
sg64
(lp2950
S'SERVER_PORT'
p2951
asbag57
(g78
g59
NtRp2952
(dp2953
g62
(dp2954
g89
g90
ssg71
g2943
sg64
(lp2955
S':'
asbag57
(g78
g59
NtRp2956
(dp2957
g62
(dp2958
sg71
g2943
sg64
(lp2959
g57
(g58
g59
NtRp2960
(dp2961
g62
(dp2962
g70
I3
ssg71
g2956
sg64
(lp2963
g1570
asbasbasbag57
(g73
g59
NtRp2964
(dp2965
g62
(dp2966
sg71
g2624
sg64
(lp2967
g57
(g78
g59
NtRp2968
(dp2969
g62
(dp2970
g82
g83
ssg71
g2964
sg64
(lp2971
S'SERVER_PROTOCOL'
p2972
asbag57
(g78
g59
NtRp2973
(dp2974
g62
(dp2975
g89
g90
ssg71
g2964
sg64
(lp2976
S':'
asbag57
(g78
g59
NtRp2977
(dp2978
g62
(dp2979
sg71
g2964
sg64
(lp2980
g57
(g58
g59
NtRp2981
(dp2982
g62
(dp2983
g70
I3
ssg71
g2977
sg64
(lp2984
g1592
asbasbasbag57
(g73
g59
NtRp2985
(dp2986
g62
(dp2987
sg71
g2624
sg64
(lp2988
g57
(g78
g59
NtRp2989
(dp2990
g62
(dp2991
g82
g83
ssg71
g2985
sg64
(lp2992
S'SERVER_SOFTWARE'
p2993
asbag57
(g78
g59
NtRp2994
(dp2995
g62
(dp2996
g89
g90
ssg71
g2985
sg64
(lp2997
S':'
asbag57
(g78
g59
NtRp2998
(dp2999
g62
(dp3000
sg71
g2985
sg64
(lp3001
g57
(g58
g59
NtRp3002
(dp3003
g62
(dp3004
g70
I3
ssg71
g2998
sg64
(lp3005
g1614
asbasbasbag57
(g73
g59
NtRp3006
(dp3007
g62
(dp3008
sg71
g2624
sg64
(lp3009
g57
(g78
g59
NtRp3010
(dp3011
g62
(dp3012
g82
g83
ssg71
g3006
sg64
(lp3013
S'wsgi.errors'
p3014
asbag57
(g78
g59
NtRp3015
(dp3016
g62
(dp3017
g89
g90
ssg71
g3006
sg64
(lp3018
S':'
asbag57
(g78
g59
NtRp3019
(dp3020
g62
(dp3021
sg71
g3006
sg64
(lp3022
g57
(g58
g59
NtRp3023
(dp3024
g62
(dp3025
g70
I3
ssg71
g3019
sg64
(lp3026
S"<open file '<stderr>', mode 'w' at 0xb73370d0>"
p3027
asbasbasbag57
(g73
g59
NtRp3028
(dp3029
g62
(dp3030
sg71
g2624
sg64
(lp3031
g57
(g78
g59
NtRp3032
(dp3033
g62
(dp3034
g82
g83
ssg71
g3028
sg64
(lp3035
S'wsgi.file_wrapper'
p3036
asbag57
(g78
g59
NtRp3037
(dp3038
g62
(dp3039
g89
g90
ssg71
g3028
sg64
(lp3040
S':'
asbag57
(g78
g59
NtRp3041
(dp3042
g62
(dp3043
sg71
g3028
sg64
(lp3044
g57
(g58
g59
NtRp3045
(dp3046
g62
(dp3047
g70
I3
ssg71
g3041
sg64
(lp3048
S'<class wsgiref.util.FileWrapper at 0x94fd4ac>'
p3049
asbasbasbag57
(g73
g59
NtRp3050
(dp3051
g62
(dp3052
sg71
g2624
sg64
(lp3053
g57
(g78
g59
NtRp3054
(dp3055
g62
(dp3056
g82
g83
ssg71
g3050
sg64
(lp3057
S'wsgi.input'
p3058
asbag57
(g78
g59
NtRp3059
(dp3060
g62
(dp3061
g89
g90
ssg71
g3050
sg64
(lp3062
S':'
asbag57
(g78
g59
NtRp3063
(dp3064
g62
(dp3065
sg71
g3050
sg64
(lp3066
g57
(g58
g59
NtRp3067
(dp3068
g62
(dp3069
g70
I3
ssg71
g3063
sg64
(lp3070
S'<cStringIO.StringO object at 0xaa6191a0>'
p3071
asbasbasbag57
(g73
g59
NtRp3072
(dp3073
g62
(dp3074
sg71
g2624
sg64
(lp3075
g57
(g78
g59
NtRp3076
(dp3077
g62
(dp3078
g82
g83
ssg71
g3072
sg64
(lp3079
S'wsgi.multiprocess'
p3080
asbag57
(g78
g59
NtRp3081
(dp3082
g62
(dp3083
g89
g90
ssg71
g3072
sg64
(lp3084
S':'
asbag57
(g78
g59
NtRp3085
(dp3086
g62
(dp3087
sg71
g3072
sg64
(lp3088
g57
(g58
g59
NtRp3089
(dp3090
g62
(dp3091
g70
I3
ssg71
g3085
sg64
(lp3092
g100
asbasbasbag57
(g73
g59
NtRp3093
(dp3094
g62
(dp3095
sg71
g2624
sg64
(lp3096
g57
(g78
g59
NtRp3097
(dp3098
g62
(dp3099
g82
g83
ssg71
g3093
sg64
(lp3100
S'wsgi.multithread'
p3101
asbag57
(g78
g59
NtRp3102
(dp3103
g62
(dp3104
g89
g90
ssg71
g3093
sg64
(lp3105
S':'
asbag57
(g78
g59
NtRp3106
(dp3107
g62
(dp3108
sg71
g3093
sg64
(lp3109
g57
(g58
g59
NtRp3110
(dp3111
g62
(dp3112
g70
I3
ssg71
g3106
sg64
(lp3113
g1854
asbasbasbag57
(g73
g59
NtRp3114
(dp3115
g62
(dp3116
sg71
g2624
sg64
(lp3117
g57
(g78
g59
NtRp3118
(dp3119
g62
(dp3120
g82
g83
ssg71
g3114
sg64
(lp3121
S'wsgi.run_once'
p3122
asbag57
(g78
g59
NtRp3123
(dp3124
g62
(dp3125
g89
g90
ssg71
g3114
sg64
(lp3126
S':'
asbag57
(g78
g59
NtRp3127
(dp3128
g62
(dp3129
sg71
g3114
sg64
(lp3130
g57
(g58
g59
NtRp3131
(dp3132
g62
(dp3133
g70
I3
ssg71
g3127
sg64
(lp3134
g100
asbasbasbag57
(g73
g59
NtRp3135
(dp3136
g62
(dp3137
sg71
g2624
sg64
(lp3138
g57
(g78
g59
NtRp3139
(dp3140
g62
(dp3141
g82
g83
ssg71
g3135
sg64
(lp3142
S'wsgi.url_scheme'
p3143
asbag57
(g78
g59
NtRp3144
(dp3145
g62
(dp3146
g89
g90
ssg71
g3135
sg64
(lp3147
S':'
asbag57
(g78
g59
NtRp3148
(dp3149
g62
(dp3150
sg71
g3135
sg64
(lp3151
g57
(g58
g59
NtRp3152
(dp3153
g62
(dp3154
g70
I3
ssg71
g3148
sg64
(lp3155
g1897
asbasbasbag57
(g73
g59
NtRp3156
(dp3157
g62
(dp3158
sg71
g2624
sg64
(lp3159
g57
(g78
g59
NtRp3160
(dp3161
g62
(dp3162
g82
g83
ssg71
g3156
sg64
(lp3163
S'wsgi.version'
p3164
asbag57
(g78
g59
NtRp3165
(dp3166
g62
(dp3167
g89
g90
ssg71
g3156
sg64
(lp3168
S':'
asbag57
(g78
g59
NtRp3169
(dp3170
g62
(dp3171
sg71
g3156
sg64
(lp3172
g57
(g58
g59
NtRp3173
(dp3174
g62
(dp3175
g70
I3
ssg71
g3169
sg64
(lp3176
S'1'
asbasbasbasbasbasbasbasbasbasbasbasbasbsS'frames'
p3177
(lp3178
(dp3179
S'file'
p3180
S'/usr/lib/pymodules/python2.7/gluon/restricted.py'
p3181
sS'dump'
p3182
(dp3183
S'environment'
p3184
S"{'A': <class 'gluon.html.A'>, 'Admin': <function Admin>, 'Auth': <class 'gluon.tools.Auth'>, 'B': <class 'gluon.html.B'>, 'BEAUTIFY': <class 'gluon.html.BEAUTIFY'>, 'BODY': <class 'gluon.html.BODY'>, 'BR': <class 'gluon.html.BR'>, 'BUTTON': <class 'gluon.html.BUTTON'>, 'CAS': <Storage {'check_url': 'https://login.iiit.ac.in...: 'http://127.0.0.1:8000/manager/default/login'}>, 'CAT': <class 'gluon.html.CAT'>, ...}"
p3185
sS'ccode'
p3186
S'<code object <module> at 0xb40a3ad0, file "/home...ications/manager/controllers/default.py", line 5>'
p3187
ssS'lnum'
p3188
I204
sS'lines'
p3189
(dp3190
I199
S'    try:'
p3191
sI200
S'        if type(code) == types.CodeType:'
p3192
sI201
S'            ccode = code'
p3193
sI202
S'        else:'
p3194
sI203
S'            ccode = compile2(code,layer)'
p3195
sI204
S'        exec ccode in environment'
p3196
sI205
S'    except HTTP:'
p3197
sI206
S'        raise'
p3198
sI207
S'    except RestrictedError:'
p3199
sI208
S'        # do not encapsulate (obfuscate) the original RestrictedError'
p3200
ssS'call'
p3201
S"(code='################################################...=crud())\\n\\nresponse._vars=response._caller(nedit)\\n', environment={'A': <class 'gluon.html.A'>, 'Admin': <function Admin>, 'Auth': <class 'gluon.tools.Auth'>, 'B': <class 'gluon.html.B'>, 'BEAUTIFY': <class 'gluon.html.BEAUTIFY'>, 'BODY': <class 'gluon.html.BODY'>, 'BR': <class 'gluon.html.BR'>, 'BUTTON': <class 'gluon.html.BUTTON'>, 'CAS': <Storage {'check_url': 'https://login.iiit.ac.in...: 'http://127.0.0.1:8000/manager/default/login'}>, 'CAT': <class 'gluon.html.CAT'>, ...}, layer='/home/unic/web2py/applications/manager/controllers/default.py')"
p3202
sS'func'
p3203
S'restricted'
p3204
sa(dp3205
g3180
S'/home/unic/web2py/applications/manager/controllers/default.py'
p3206
sg3182
(dp3207
sg3188
I400
sg3189
(dp3208
I389
S'    http://..../[app]/default/data/update/[table]/[id]'
p3209
sI390
S'    http://..../[app]/default/data/delete/[table]/[id]'
p3210
sI391
S'    http://..../[app]/default/data/select/[table]'
p3211
sI392
S'    http://..../[app]/default/data/search/[table]'
p3212
sI393
S'    but URLs must be signed, i.e. linked with'
p3213
sI394
S"      A('table',_href=URL('data/tables',user_signature=True))"
p3214
sI395
S'    or with the signed load operator'
p3215
sI396
S"      LOAD('default','data.load',args='tables',ajax=True,user_signature=True)"
p3216
sI397
S'    """'
p3217
sI398
S'    return dict(form=crud())'
p3218
ssg3201
S'()'
p3219
sg3203
S'<module>'
p3220
sa(dp3221
g3180
S'/usr/lib/pymodules/python2.7/gluon/globals.py'
p3222
sg3182
(dp3223
S'self'
p3224
S'undefined'
p3225
sS'f'
S'<function nedit>'
p3226
ssg3188
I172
sg3189
(dp3227
I167
S'        self.meta = Storage()      # used by web2py_ajax.html'
p3228
sI168
S'        self.menu = []             # used by the default view layout'
p3229
sI169
S'        self.files = []            # used by web2py_ajax.html'
p3230
sI170
S'        self.generic_patterns = [] # patterns to allow generic views'
p3231
sI171
S'        self._vars = None'
p3232
sI172
S'        self._caller = lambda f: f()'
p3233
sI173
S'        self._view_environment = None'
p3234
sI174
S'        self._custom_commit = None'
p3235
sI175
S'        self._custom_rollback = None'
p3236
sI176
S''
ssg3201
S'(f=<function nedit>)'
p3237
sg3203
S'<lambda>'
p3238
sa(dp3239
g3180
S'/home/unic/web2py/applications/manager/controllers/default.py'
p3240
sg3182
(dp3241
S'Name'
p3242
g3225
sS'db.Book'
p3243
S"<Table {'_plural': 'Books', 'ALL': <gluon.dal.SQ...>, 'id': <gluon.dal.Field object at 0xaa62518c>}>"
p3244
sS'books'
p3245
S'<gluon.dal.Rows object>'
p3246
sS'db.Book.Name'
p3247
S'<gluon.dal.Field object>'
p3248
sS'global db'
p3249
S"<DAL {'auth_event': <Table {'origin': <gluon.dal...'_id': <gluon.dal.Field object at 0xb405d56c>}>}>"
p3250
sS'db.Book.Name.default'
p3251
S'None'
p3252
ssg3188
I208
sg3189
(dp3253
I203
S'def nedit():#Allows the admin to edit the book list.'
p3254
sI204
S" Book = db.Book(request.args(0)) or redirect(URL('edit'))"
p3255
sI205
S' books = db(db.Book.id==request.args(0)).select()'
p3256
sI206
S''
sI207
S' #db.Book.id.default=books.id'
p3257
sI208
S' db.Book.Name.default=books[Name]'
p3258
sI209
S' db.Book.Language.default=books[Language]'
p3259
sI210
S' db.Book.Cost.default=books[Cost]'
p3260
sI211
S' db.Book.Copies.default=books[Copies]'
p3261
sI212
S' db.Book.Type.default=books[Type]'
p3262
ssg3201
S'()'
p3263
sg3203
S'nedit'
p3264
sasS'pyver'
p3265
S'Python 2.7.3: /usr/bin/python'
p3266
sS'session'
p3267
g57
(g58
g59
NtRp3268
(dp3269
g62
(dp3270
sg64
(lp3271
g57
(g66
g59
NtRp3272
(dp3273
g62
(dp3274
g70
I5
ssg71
Nsg64
(lp3275
g57
(g73
g59
NtRp3276
(dp3277
g62
(dp3278
sg71
g3272
sg64
(lp3279
g57
(g78
g59
NtRp3280
(dp3281
g62
(dp3282
g82
g83
ssg71
g3276
sg64
(lp3283
S'LOGGEDIN'
p3284
asbag57
(g78
g59
NtRp3285
(dp3286
g62
(dp3287
g89
g90
ssg71
g3276
sg64
(lp3288
S':'
asbag57
(g78
g59
NtRp3289
(dp3290
g62
(dp3291
sg71
g3276
sg64
(lp3292
g57
(g58
g59
NtRp3293
(dp3294
g62
(dp3295
g70
I5
ssg71
g3289
sg64
(lp3296
S'0'
asbasbasbag57
(g73
g59
NtRp3297
(dp3298
g62
(dp3299
sg71
g3272
sg64
(lp3300
g57
(g78
g59
NtRp3301
(dp3302
g62
(dp3303
g82
g83
ssg71
g3297
sg64
(lp3304
S'login'
p3305
asbag57
(g78
g59
NtRp3306
(dp3307
g62
(dp3308
g89
g90
ssg71
g3297
sg64
(lp3309
S':'
asbag57
(g78
g59
NtRp3310
(dp3311
g62
(dp3312
sg71
g3297
sg64
(lp3313
g57
(g58
g59
NtRp3314
(dp3315
g62
(dp3316
g70
I5
ssg71
g3310
sg64
(lp3317
S'0'
asbasbasbag57
(g73
g59
NtRp3318
(dp3319
g62
(dp3320
sg71
g3272
sg64
(lp3321
g57
(g78
g59
NtRp3322
(dp3323
g62
(dp3324
g82
g83
ssg71
g3318
sg64
(lp3325
S'token'
p3326
asbag57
(g78
g59
NtRp3327
(dp3328
g62
(dp3329
g89
g90
ssg71
g3318
sg64
(lp3330
S':'
asbag57
(g78
g59
NtRp3331
(dp3332
g62
(dp3333
sg71
g3318
sg64
(lp3334
g57
(g58
g59
NtRp3335
(dp3336
g62
(dp3337
g70
I5
ssg71
g3331
sg64
(lp3338
S'neeharikak.v@students.iiit.ac.in'
p3339
asbasbasbasbasbsS'etype'
p3340
S"<type 'exceptions.NameError'>"
p3341
sS'date'
p3342
S'Wed Nov 14 19:43:37 2012'
p3343
sS'response'
p3344
g57
(g58
g59
NtRp3345
(dp3346
g62
(dp3347
sg64
(lp3348
g57
(g66
g59
NtRp3349
(dp3350
g62
(dp3351
g70
I5
ssg71
Nsg64
(lp3352
g57
(g73
g59
NtRp3353
(dp3354
g62
(dp3355
sg71
g3349
sg64
(lp3356
g57
(g78
g59
NtRp3357
(dp3358
g62
(dp3359
g82
g83
ssg71
g3353
sg64
(lp3360
g168
asbag57
(g78
g59
NtRp3361
(dp3362
g62
(dp3363
g89
g90
ssg71
g3353
sg64
(lp3364
S':'
asbag57
(g78
g59
NtRp3365
(dp3366
g62
(dp3367
sg71
g3353
sg64
(lp3368
g57
(g58
g59
NtRp3369
(dp3370
g62
(dp3371
g70
I5
ssg71
g3365
sg64
(lp3372
S'<cStringIO.StringO object at 0xaa619c60>'
p3373
asbasbasbag57
(g73
g59
NtRp3374
(dp3375
g62
(dp3376
sg71
g3349
sg64
(lp3377
g57
(g78
g59
NtRp3378
(dp3379
g62
(dp3380
g82
g83
ssg71
g3374
sg64
(lp3381
g234
asbag57
(g78
g59
NtRp3382
(dp3383
g62
(dp3384
g89
g90
ssg71
g3374
sg64
(lp3385
S':'
asbag57
(g78
g59
NtRp3386
(dp3387
g62
(dp3388
sg71
g3374
sg64
(lp3389
g57
(g58
g59
NtRp3390
(dp3391
g62
(dp3392
g70
I5
ssg71
g3386
sg64
(lp3393
g57
(g66
g59
NtRp3394
(dp3395
g62
(dp3396
g70
I4
ssg71
Nsg64
(lp3397
g57
(g73
g59
NtRp3398
(dp3399
g62
(dp3400
sg71
g3394
sg64
(lp3401
g57
(g78
g59
NtRp3402
(dp3403
g62
(dp3404
g82
g83
ssg71
g3398
sg64
(lp3405
S'session_id_manager'
p3406
asbag57
(g78
g59
NtRp3407
(dp3408
g62
(dp3409
g89
g90
ssg71
g3398
sg64
(lp3410
S':'
asbag57
(g78
g59
NtRp3411
(dp3412
g62
(dp3413
sg71
g3398
sg64
(lp3414
g57
(g58
g59
NtRp3415
(dp3416
g62
(dp3417
g70
I4
ssg71
g3411
sg64
(lp3418
g57
(g66
g59
NtRp3419
(dp3420
g62
(dp3421
g70
I3
ssg71
Nsg64
(lp3422
g57
(g73
g59
NtRp3423
(dp3424
g62
(dp3425
sg71
g3419
sg64
(lp3426
g57
(g78
g59
NtRp3427
(dp3428
g62
(dp3429
g82
g83
ssg71
g3423
sg64
(lp3430
g284
asbag57
(g78
g59
NtRp3431
(dp3432
g62
(dp3433
g89
g90
ssg71
g3423
sg64
(lp3434
S':'
asbag57
(g78
g59
NtRp3435
(dp3436
g62
(dp3437
sg71
g3423
sg64
(lp3438
g57
(g58
g59
NtRp3439
(dp3440
g62
(dp3441
g70
I3
ssg71
g3435
sg64
(lp3442
S''
asbasbasbag57
(g73
g59
NtRp3443
(dp3444
g62
(dp3445
sg71
g3419
sg64
(lp3446
g57
(g78
g59
NtRp3447
(dp3448
g62
(dp3449
g82
g83
ssg71
g3443
sg64
(lp3450
g305
asbag57
(g78
g59
NtRp3451
(dp3452
g62
(dp3453
g89
g90
ssg71
g3443
sg64
(lp3454
S':'
asbag57
(g78
g59
NtRp3455
(dp3456
g62
(dp3457
sg71
g3443
sg64
(lp3458
g57
(g58
g59
NtRp3459
(dp3460
g62
(dp3461
g70
I3
ssg71
g3455
sg64
(lp3462
S''
asbasbasbag57
(g73
g59
NtRp3463
(dp3464
g62
(dp3465
sg71
g3419
sg64
(lp3466
g57
(g78
g59
NtRp3467
(dp3468
g62
(dp3469
g82
g83
ssg71
g3463
sg64
(lp3470
g326
asbag57
(g78
g59
NtRp3471
(dp3472
g62
(dp3473
g89
g90
ssg71
g3463
sg64
(lp3474
S':'
asbag57
(g78
g59
NtRp3475
(dp3476
g62
(dp3477
sg71
g3463
sg64
(lp3478
g57
(g58
g59
NtRp3479
(dp3480
g62
(dp3481
g70
I3
ssg71
g3475
sg64
(lp3482
S''
asbasbasbag57
(g73
g59
NtRp3483
(dp3484
g62
(dp3485
sg71
g3419
sg64
(lp3486
g57
(g78
g59
NtRp3487
(dp3488
g62
(dp3489
g82
g83
ssg71
g3483
sg64
(lp3490
g347
asbag57
(g78
g59
NtRp3491
(dp3492
g62
(dp3493
g89
g90
ssg71
g3483
sg64
(lp3494
S':'
asbag57
(g78
g59
NtRp3495
(dp3496
g62
(dp3497
sg71
g3483
sg64
(lp3498
g57
(g58
g59
NtRp3499
(dp3500
g62
(dp3501
g70
I3
ssg71
g3495
sg64
(lp3502
S''
asbasbasbag57
(g73
g59
NtRp3503
(dp3504
g62
(dp3505
sg71
g3419
sg64
(lp3506
g57
(g78
g59
NtRp3507
(dp3508
g62
(dp3509
g82
g83
ssg71
g3503
sg64
(lp3510
g368
asbag57
(g78
g59
NtRp3511
(dp3512
g62
(dp3513
g89
g90
ssg71
g3503
sg64
(lp3514
S':'
asbag57
(g78
g59
NtRp3515
(dp3516
g62
(dp3517
sg71
g3503
sg64
(lp3518
g57
(g58
g59
NtRp3519
(dp3520
g62
(dp3521
g70
I3
ssg71
g3515
sg64
(lp3522
S''
asbasbasbag57
(g73
g59
NtRp3523
(dp3524
g62
(dp3525
sg71
g3419
sg64
(lp3526
g57
(g78
g59
NtRp3527
(dp3528
g62
(dp3529
g82
g83
ssg71
g3523
sg64
(lp3530
g389
asbag57
(g78
g59
NtRp3531
(dp3532
g62
(dp3533
g89
g90
ssg71
g3523
sg64
(lp3534
S':'
asbag57
(g78
g59
NtRp3535
(dp3536
g62
(dp3537
sg71
g3523
sg64
(lp3538
g57
(g58
g59
NtRp3539
(dp3540
g62
(dp3541
g70
I3
ssg71
g3535
sg64
(lp3542
S'/'
asbasbasbag57
(g73
g59
NtRp3543
(dp3544
g62
(dp3545
sg71
g3419
sg64
(lp3546
g57
(g78
g59
NtRp3547
(dp3548
g62
(dp3549
g82
g83
ssg71
g3543
sg64
(lp3550
g410
asbag57
(g78
g59
NtRp3551
(dp3552
g62
(dp3553
g89
g90
ssg71
g3543
sg64
(lp3554
S':'
asbag57
(g78
g59
NtRp3555
(dp3556
g62
(dp3557
sg71
g3543
sg64
(lp3558
g57
(g58
g59
NtRp3559
(dp3560
g62
(dp3561
g70
I3
ssg71
g3555
sg64
(lp3562
S''
asbasbasbag57
(g73
g59
NtRp3563
(dp3564
g62
(dp3565
sg71
g3419
sg64
(lp3566
g57
(g78
g59
NtRp3567
(dp3568
g62
(dp3569
g82
g83
ssg71
g3563
sg64
(lp3570
g431
asbag57
(g78
g59
NtRp3571
(dp3572
g62
(dp3573
g89
g90
ssg71
g3563
sg64
(lp3574
S':'
asbag57
(g78
g59
NtRp3575
(dp3576
g62
(dp3577
sg71
g3563
sg64
(lp3578
g57
(g58
g59
NtRp3579
(dp3580
g62
(dp3581
g70
I3
ssg71
g3575
sg64
(lp3582
S''
asbasbasbasbasbasbasbasbasbasbasbag57
(g73
g59
NtRp3583
(dp3584
g62
(dp3585
sg71
g3349
sg64
(lp3586
g57
(g78
g59
NtRp3587
(dp3588
g62
(dp3589
g82
g83
ssg71
g3583
sg64
(lp3590
S'files'
p3591
asbag57
(g78
g59
NtRp3592
(dp3593
g62
(dp3594
g89
g90
ssg71
g3583
sg64
(lp3595
S':'
asbag57
(g78
g59
NtRp3596
(dp3597
g62
(dp3598
sg71
g3583
sg64
(lp3599
g57
(g58
g59
NtRp3600
(dp3601
g62
(dp3602
g70
I5
ssg71
g3596
sg64
(lp3603
g57
(g66
g59
NtRp3604
(dp3605
g62
(dp3606
g70
I4
ssg71
Nsg64
(lp3607
sbasbasbasbag57
(g73
g59
NtRp3608
(dp3609
g62
(dp3610
sg71
g3349
sg64
(lp3611
g57
(g78
g59
NtRp3612
(dp3613
g62
(dp3614
g82
g83
ssg71
g3608
sg64
(lp3615
S'flash'
p3616
asbag57
(g78
g59
NtRp3617
(dp3618
g62
(dp3619
g89
g90
ssg71
g3608
sg64
(lp3620
S':'
asbag57
(g78
g59
NtRp3621
(dp3622
g62
(dp3623
sg71
g3608
sg64
(lp3624
g57
(g58
g59
NtRp3625
(dp3626
g62
(dp3627
g70
I5
ssg71
g3621
sg64
(lp3628
S''
asbasbasbag57
(g73
g59
NtRp3629
(dp3630
g62
(dp3631
sg71
g3349
sg64
(lp3632
g57
(g78
g59
NtRp3633
(dp3634
g62
(dp3635
g82
g83
ssg71
g3629
sg64
(lp3636
S'generic_patterns'
p3637
asbag57
(g78
g59
NtRp3638
(dp3639
g62
(dp3640
g89
g90
ssg71
g3629
sg64
(lp3641
S':'
asbag57
(g78
g59
NtRp3642
(dp3643
g62
(dp3644
sg71
g3629
sg64
(lp3645
g57
(g58
g59
NtRp3646
(dp3647
g62
(dp3648
g70
I5
ssg71
g3642
sg64
(lp3649
g57
(g66
g59
NtRp3650
(dp3651
g62
(dp3652
g70
I4
ssg71
Nsg64
(lp3653
g57
(g73
g59
NtRp3654
(dp3655
g62
(dp3656
sg71
g3650
sg64
(lp3657
g57
(g78
g59
NtRp3658
(dp3659
g62
(dp3660
sg71
g3654
sg64
(lp3661
g57
(g58
g59
NtRp3662
(dp3663
g62
(dp3664
g70
I4
ssg71
g3658
sg64
(lp3665
S'*'
asbasbasbasbasbasbasbag57
(g73
g59
NtRp3666
(dp3667
g62
(dp3668
sg71
g3349
sg64
(lp3669
g57
(g78
g59
NtRp3670
(dp3671
g62
(dp3672
g82
g83
ssg71
g3666
sg64
(lp3673
S'headers'
p3674
asbag57
(g78
g59
NtRp3675
(dp3676
g62
(dp3677
g89
g90
ssg71
g3666
sg64
(lp3678
S':'
asbag57
(g78
g59
NtRp3679
(dp3680
g62
(dp3681
sg71
g3666
sg64
(lp3682
g57
(g58
g59
NtRp3683
(dp3684
g62
(dp3685
g70
I5
ssg71
g3679
sg64
(lp3686
g57
(g66
g59
NtRp3687
(dp3688
g62
(dp3689
g70
I4
ssg71
Nsg64
(lp3690
g57
(g73
g59
NtRp3691
(dp3692
g62
(dp3693
sg71
g3687
sg64
(lp3694
g57
(g78
g59
NtRp3695
(dp3696
g62
(dp3697
g82
g83
ssg71
g3691
sg64
(lp3698
S'Cache-Control'
p3699
asbag57
(g78
g59
NtRp3700
(dp3701
g62
(dp3702
g89
g90
ssg71
g3691
sg64
(lp3703
S':'
asbag57
(g78
g59
NtRp3704
(dp3705
g62
(dp3706
sg71
g3691
sg64
(lp3707
g57
(g58
g59
NtRp3708
(dp3709
g62
(dp3710
g70
I4
ssg71
g3704
sg64
(lp3711
S'no-store, no-cache, must-revalidate, post-check=0, pre-check=0'
p3712
asbasbasbag57
(g73
g59
NtRp3713
(dp3714
g62
(dp3715
sg71
g3687
sg64
(lp3716
g57
(g78
g59
NtRp3717
(dp3718
g62
(dp3719
g82
g83
ssg71
g3713
sg64
(lp3720
S'Content-Type'
p3721
asbag57
(g78
g59
NtRp3722
(dp3723
g62
(dp3724
g89
g90
ssg71
g3713
sg64
(lp3725
S':'
asbag57
(g78
g59
NtRp3726
(dp3727
g62
(dp3728
sg71
g3713
sg64
(lp3729
g57
(g58
g59
NtRp3730
(dp3731
g62
(dp3732
g70
I4
ssg71
g3726
sg64
(lp3733
S'text/html; charset=utf-8'
p3734
asbasbasbag57
(g73
g59
NtRp3735
(dp3736
g62
(dp3737
sg71
g3687
sg64
(lp3738
g57
(g78
g59
NtRp3739
(dp3740
g62
(dp3741
g82
g83
ssg71
g3735
sg64
(lp3742
S'Expires'
p3743
asbag57
(g78
g59
NtRp3744
(dp3745
g62
(dp3746
g89
g90
ssg71
g3735
sg64
(lp3747
S':'
asbag57
(g78
g59
NtRp3748
(dp3749
g62
(dp3750
sg71
g3735
sg64
(lp3751
g57
(g58
g59
NtRp3752
(dp3753
g62
(dp3754
g70
I4
ssg71
g3748
sg64
(lp3755
S'Wed, 14 Nov 2012 14:13:37 GMT'
p3756
asbasbasbag57
(g73
g59
NtRp3757
(dp3758
g62
(dp3759
sg71
g3687
sg64
(lp3760
g57
(g78
g59
NtRp3761
(dp3762
g62
(dp3763
g82
g83
ssg71
g3757
sg64
(lp3764
S'Pragma'
p3765
asbag57
(g78
g59
NtRp3766
(dp3767
g62
(dp3768
g89
g90
ssg71
g3757
sg64
(lp3769
S':'
asbag57
(g78
g59
NtRp3770
(dp3771
g62
(dp3772
sg71
g3757
sg64
(lp3773
g57
(g58
g59
NtRp3774
(dp3775
g62
(dp3776
g70
I4
ssg71
g3770
sg64
(lp3777
S'no-cache'
p3778
asbasbasbag57
(g73
g59
NtRp3779
(dp3780
g62
(dp3781
sg71
g3687
sg64
(lp3782
g57
(g78
g59
NtRp3783
(dp3784
g62
(dp3785
g82
g83
ssg71
g3779
sg64
(lp3786
S'X-Powered-By'
p3787
asbag57
(g78
g59
NtRp3788
(dp3789
g62
(dp3790
g89
g90
ssg71
g3779
sg64
(lp3791
S':'
asbag57
(g78
g59
NtRp3792
(dp3793
g62
(dp3794
sg71
g3779
sg64
(lp3795
g57
(g58
g59
NtRp3796
(dp3797
g62
(dp3798
g70
I4
ssg71
g3792
sg64
(lp3799
S'web2py'
p3800
asbasbasbasbasbasbasbag57
(g73
g59
NtRp3801
(dp3802
g62
(dp3803
sg71
g3349
sg64
(lp3804
g57
(g78
g59
NtRp3805
(dp3806
g62
(dp3807
g82
g83
ssg71
g3801
sg64
(lp3808
S'menu'
p3809
asbag57
(g78
g59
NtRp3810
(dp3811
g62
(dp3812
g89
g90
ssg71
g3801
sg64
(lp3813
S':'
asbag57
(g78
g59
NtRp3814
(dp3815
g62
(dp3816
sg71
g3801
sg64
(lp3817
g57
(g58
g59
NtRp3818
(dp3819
g62
(dp3820
g70
I5
ssg71
g3814
sg64
(lp3821
g57
(g66
g59
NtRp3822
(dp3823
g62
(dp3824
g70
I4
ssg71
Nsg64
(lp3825
g57
(g73
g59
NtRp3826
(dp3827
g62
(dp3828
sg71
g3822
sg64
(lp3829
g57
(g78
g59
NtRp3830
(dp3831
g62
(dp3832
sg71
g3826
sg64
(lp3833
g57
(g58
g59
NtRp3834
(dp3835
g62
(dp3836
g70
I4
ssg71
g3830
sg64
(lp3837
g57
(g66
g59
NtRp3838
(dp3839
g62
(dp3840
g70
I3
ssg71
Nsg64
(lp3841
g57
(g73
g59
NtRp3842
(dp3843
g62
(dp3844
sg71
g3838
sg64
(lp3845
g57
(g78
g59
NtRp3846
(dp3847
g62
(dp3848
sg71
g3842
sg64
(lp3849
g57
(g58
g59
NtRp3850
(dp3851
g62
(dp3852
g70
I3
ssg71
g3846
sg64
(lp3853
cgluon.languages
lazyT_unpickle
p3854
(S't\x04\x00\x00\x00Home'
tRp3855
asbasbasbag57
(g73
g59
NtRp3856
(dp3857
g62
(dp3858
sg71
g3838
sg64
(lp3859
g57
(g78
g59
NtRp3860
(dp3861
g62
(dp3862
sg71
g3856
sg64
(lp3863
g57
(g58
g59
NtRp3864
(dp3865
g62
(dp3866
g70
I3
ssg71
g3860
sg64
(lp3867
g100
asbasbasbag57
(g73
g59
NtRp3868
(dp3869
g62
(dp3870
sg71
g3838
sg64
(lp3871
g57
(g78
g59
NtRp3872
(dp3873
g62
(dp3874
sg71
g3868
sg64
(lp3875
g57
(g58
g59
NtRp3876
(dp3877
g62
(dp3878
g70
I3
ssg71
g3872
sg64
(lp3879
S'/manager/default/index'
p3880
asbasbasbasbasbasbasbag57
(g73
g59
NtRp3881
(dp3882
g62
(dp3883
sg71
g3822
sg64
(lp3884
g57
(g78
g59
NtRp3885
(dp3886
g62
(dp3887
sg71
g3881
sg64
(lp3888
g57
(g58
g59
NtRp3889
(dp3890
g62
(dp3891
g70
I4
ssg71
g3885
sg64
(lp3892
g57
(g66
g59
NtRp3893
(dp3894
g62
(dp3895
g70
I3
ssg71
Nsg64
(lp3896
g57
(g73
g59
NtRp3897
(dp3898
g62
(dp3899
sg71
g3893
sg64
(lp3900
g57
(g78
g59
NtRp3901
(dp3902
g62
(dp3903
sg71
g3897
sg64
(lp3904
g57
(g58
g59
NtRp3905
(dp3906
g62
(dp3907
g70
I3
ssg71
g3901
sg64
(lp3908
g3854
(S't\x06\x00\x00\x00logout'
tRp3909
asbasbasbag57
(g73
g59
NtRp3910
(dp3911
g62
(dp3912
sg71
g3893
sg64
(lp3913
g57
(g78
g59
NtRp3914
(dp3915
g62
(dp3916
sg71
g3910
sg64
(lp3917
g57
(g58
g59
NtRp3918
(dp3919
g62
(dp3920
g70
I3
ssg71
g3914
sg64
(lp3921
g100
asbasbasbag57
(g73
g59
NtRp3922
(dp3923
g62
(dp3924
sg71
g3893
sg64
(lp3925
g57
(g78
g59
NtRp3926
(dp3927
g62
(dp3928
sg71
g3922
sg64
(lp3929
g57
(g58
g59
NtRp3930
(dp3931
g62
(dp3932
g70
I3
ssg71
g3926
sg64
(lp3933
S'/manager/default/logout'
p3934
asbasbasbasbasbasbasbasbasbasbasbag57
(g73
g59
NtRp3935
(dp3936
g62
(dp3937
sg71
g3349
sg64
(lp3938
g57
(g78
g59
NtRp3939
(dp3940
g62
(dp3941
g82
g83
ssg71
g3935
sg64
(lp3942
S'meta'
p3943
asbag57
(g78
g59
NtRp3944
(dp3945
g62
(dp3946
g89
g90
ssg71
g3935
sg64
(lp3947
S':'
asbag57
(g78
g59
NtRp3948
(dp3949
g62
(dp3950
sg71
g3935
sg64
(lp3951
g57
(g58
g59
NtRp3952
(dp3953
g62
(dp3954
g70
I5
ssg71
g3948
sg64
(lp3955
g57
(g66
g59
NtRp3956
(dp3957
g62
(dp3958
g70
I4
ssg71
Nsg64
(lp3959
g57
(g73
g59
NtRp3960
(dp3961
g62
(dp3962
sg71
g3956
sg64
(lp3963
g57
(g78
g59
NtRp3964
(dp3965
g62
(dp3966
g82
g83
ssg71
g3960
sg64
(lp3967
S'author'
p3968
asbag57
(g78
g59
NtRp3969
(dp3970
g62
(dp3971
g89
g90
ssg71
g3960
sg64
(lp3972
S':'
asbag57
(g78
g59
NtRp3973
(dp3974
g62
(dp3975
sg71
g3960
sg64
(lp3976
g57
(g58
g59
NtRp3977
(dp3978
g62
(dp3979
g70
I4
ssg71
g3973
sg64
(lp3980
S'Your Name <you@example.com>'
p3981
asbasbasbag57
(g73
g59
NtRp3982
(dp3983
g62
(dp3984
sg71
g3956
sg64
(lp3985
g57
(g78
g59
NtRp3986
(dp3987
g62
(dp3988
g82
g83
ssg71
g3982
sg64
(lp3989
S'copyright'
p3990
asbag57
(g78
g59
NtRp3991
(dp3992
g62
(dp3993
g89
g90
ssg71
g3982
sg64
(lp3994
S':'
asbag57
(g78
g59
NtRp3995
(dp3996
g62
(dp3997
sg71
g3982
sg64
(lp3998
g57
(g58
g59
NtRp3999
(dp4000
g62
(dp4001
g70
I4
ssg71
g3995
sg64
(lp4002
S'Copyright 2011'
p4003
asbasbasbag57
(g73
g59
NtRp4004
(dp4005
g62
(dp4006
sg71
g3956
sg64
(lp4007
g57
(g78
g59
NtRp4008
(dp4009
g62
(dp4010
g82
g83
ssg71
g4004
sg64
(lp4011
S'description'
p4012
asbag57
(g78
g59
NtRp4013
(dp4014
g62
(dp4015
g89
g90
ssg71
g4004
sg64
(lp4016
S':'
asbag57
(g78
g59
NtRp4017
(dp4018
g62
(dp4019
sg71
g4004
sg64
(lp4020
g57
(g58
g59
NtRp4021
(dp4022
g62
(dp4023
g70
I4
ssg71
g4017
sg64
(lp4024
S'a cool new app'
p4025
asbasbasbag57
(g73
g59
NtRp4026
(dp4027
g62
(dp4028
sg71
g3956
sg64
(lp4029
g57
(g78
g59
NtRp4030
(dp4031
g62
(dp4032
g82
g83
ssg71
g4026
sg64
(lp4033
S'generator'
p4034
asbag57
(g78
g59
NtRp4035
(dp4036
g62
(dp4037
g89
g90
ssg71
g4026
sg64
(lp4038
S':'
asbag57
(g78
g59
NtRp4039
(dp4040
g62
(dp4041
sg71
g4026
sg64
(lp4042
g57
(g58
g59
NtRp4043
(dp4044
g62
(dp4045
g70
I4
ssg71
g4039
sg64
(lp4046
S'Web2py Web Framework'
p4047
asbasbasbag57
(g73
g59
NtRp4048
(dp4049
g62
(dp4050
sg71
g3956
sg64
(lp4051
g57
(g78
g59
NtRp4052
(dp4053
g62
(dp4054
g82
g83
ssg71
g4048
sg64
(lp4055
S'keywords'
p4056
asbag57
(g78
g59
NtRp4057
(dp4058
g62
(dp4059
g89
g90
ssg71
g4048
sg64
(lp4060
S':'
asbag57
(g78
g59
NtRp4061
(dp4062
g62
(dp4063
sg71
g4048
sg64
(lp4064
g57
(g58
g59
NtRp4065
(dp4066
g62
(dp4067
g70
I4
ssg71
g4061
sg64
(lp4068
S'web2py, python, framework'
p4069
asbasbasbasbasbasbasbag57
(g73
g59
NtRp4070
(dp4071
g62
(dp4072
sg71
g3349
sg64
(lp4073
g57
(g78
g59
NtRp4074
(dp4075
g62
(dp4076
g82
g83
ssg71
g4070
sg64
(lp4077
S'postprocessing'
p4078
asbag57
(g78
g59
NtRp4079
(dp4080
g62
(dp4081
g89
g90
ssg71
g4070
sg64
(lp4082
S':'
asbag57
(g78
g59
NtRp4083
(dp4084
g62
(dp4085
sg71
g4070
sg64
(lp4086
g57
(g58
g59
NtRp4087
(dp4088
g62
(dp4089
g70
I5
ssg71
g4083
sg64
(lp4090
g57
(g66
g59
NtRp4091
(dp4092
g62
(dp4093
g70
I4
ssg71
Nsg64
(lp4094
sbasbasbasbag57
(g73
g59
NtRp4095
(dp4096
g62
(dp4097
sg71
g3349
sg64
(lp4098
g57
(g78
g59
NtRp4099
(dp4100
g62
(dp4101
g82
g83
ssg71
g4095
sg64
(lp4102
S'session_file'
p4103
asbag57
(g78
g59
NtRp4104
(dp4105
g62
(dp4106
g89
g90
ssg71
g4095
sg64
(lp4107
S':'
asbag57
(g78
g59
NtRp4108
(dp4109
g62
(dp4110
sg71
g4095
sg64
(lp4111
g57
(g58
g59
NtRp4112
(dp4113
g62
(dp4114
g70
I5
ssg71
g4108
sg64
(lp4115
S"<open file '/home/unic/web2py/applications/manager/sessions/127.0.0.1-9680a272-d22f-48db-9899-03542bdb9e98', mode 'rb+' at 0xb40b2968>"
p4116
asbasbasbag57
(g73
g59
NtRp4117
(dp4118
g62
(dp4119
sg71
g3349
sg64
(lp4120
g57
(g78
g59
NtRp4121
(dp4122
g62
(dp4123
g82
g83
ssg71
g4117
sg64
(lp4124
S'session_filename'
p4125
asbag57
(g78
g59
NtRp4126
(dp4127
g62
(dp4128
g89
g90
ssg71
g4117
sg64
(lp4129
S':'
asbag57
(g78
g59
NtRp4130
(dp4131
g62
(dp4132
sg71
g4117
sg64
(lp4133
g57
(g58
g59
NtRp4134
(dp4135
g62
(dp4136
g70
I5
ssg71
g4130
sg64
(lp4137
S'/home/unic/web2py/applications/manager/sessions/127.0.0.1-9680a272-d22f-48db-9899-03542bdb9e98'
p4138
asbasbasbag57
(g73
g59
NtRp4139
(dp4140
g62
(dp4141
sg71
g3349
sg64
(lp4142
g57
(g78
g59
NtRp4143
(dp4144
g62
(dp4145
g82
g83
ssg71
g4139
sg64
(lp4146
S'session_id'
p4147
asbag57
(g78
g59
NtRp4148
(dp4149
g62
(dp4150
g89
g90
ssg71
g4139
sg64
(lp4151
S':'
asbag57
(g78
g59
NtRp4152
(dp4153
g62
(dp4154
sg71
g4139
sg64
(lp4155
g57
(g58
g59
NtRp4156
(dp4157
g62
(dp4158
g70
I5
ssg71
g4152
sg64
(lp4159
S'127.0.0.1-9680a272-d22f-48db-9899-03542bdb9e98'
p4160
asbasbasbag57
(g73
g59
NtRp4161
(dp4162
g62
(dp4163
sg71
g3349
sg64
(lp4164
g57
(g78
g59
NtRp4165
(dp4166
g62
(dp4167
g82
g83
ssg71
g4161
sg64
(lp4168
S'session_id_name'
p4169
asbag57
(g78
g59
NtRp4170
(dp4171
g62
(dp4172
g89
g90
ssg71
g4161
sg64
(lp4173
S':'
asbag57
(g78
g59
NtRp4174
(dp4175
g62
(dp4176
sg71
g4161
sg64
(lp4177
g57
(g58
g59
NtRp4178
(dp4179
g62
(dp4180
g70
I5
ssg71
g4174
sg64
(lp4181
g3406
asbasbasbag57
(g73
g59
NtRp4182
(dp4183
g62
(dp4184
sg71
g3349
sg64
(lp4185
g57
(g78
g59
NtRp4186
(dp4187
g62
(dp4188
g82
g83
ssg71
g4182
sg64
(lp4189
S'session_locked'
p4190
asbag57
(g78
g59
NtRp4191
(dp4192
g62
(dp4193
g89
g90
ssg71
g4182
sg64
(lp4194
S':'
asbag57
(g78
g59
NtRp4195
(dp4196
g62
(dp4197
sg71
g4182
sg64
(lp4198
g57
(g58
g59
NtRp4199
(dp4200
g62
(dp4201
g70
I5
ssg71
g4195
sg64
(lp4202
g1854
asbasbasbag57
(g73
g59
NtRp4203
(dp4204
g62
(dp4205
sg71
g3349
sg64
(lp4206
g57
(g78
g59
NtRp4207
(dp4208
g62
(dp4209
g82
g83
ssg71
g4203
sg64
(lp4210
S'session_new'
p4211
asbag57
(g78
g59
NtRp4212
(dp4213
g62
(dp4214
g89
g90
ssg71
g4203
sg64
(lp4215
S':'
asbag57
(g78
g59
NtRp4216
(dp4217
g62
(dp4218
sg71
g4203
sg64
(lp4219
g57
(g58
g59
NtRp4220
(dp4221
g62
(dp4222
g70
I5
ssg71
g4216
sg64
(lp4223
g100
asbasbasbag57
(g73
g59
NtRp4224
(dp4225
g62
(dp4226
sg71
g3349
sg64
(lp4227
g57
(g78
g59
NtRp4228
(dp4229
g62
(dp4230
g82
g83
ssg71
g4224
sg64
(lp4231
S'status'
p4232
asbag57
(g78
g59
NtRp4233
(dp4234
g62
(dp4235
g89
g90
ssg71
g4224
sg64
(lp4236
S':'
asbag57
(g78
g59
NtRp4237
(dp4238
g62
(dp4239
sg71
g4224
sg64
(lp4240
g57
(g58
g59
NtRp4241
(dp4242
g62
(dp4243
g70
I5
ssg71
g4237
sg64
(lp4244
S'200'
p4245
asbasbasbag57
(g73
g59
NtRp4246
(dp4247
g62
(dp4248
sg71
g3349
sg64
(lp4249
g57
(g78
g59
NtRp4250
(dp4251
g62
(dp4252
g82
g83
ssg71
g4246
sg64
(lp4253
S'subtitle'
p4254
asbag57
(g78
g59
NtRp4255
(dp4256
g62
(dp4257
g89
g90
ssg71
g4246
sg64
(lp4258
S':'
asbag57
(g78
g59
NtRp4259
(dp4260
g62
(dp4261
sg71
g4246
sg64
(lp4262
g57
(g58
g59
NtRp4263
(dp4264
g62
(dp4265
g70
I5
ssg71
g4259
sg64
(lp4266
g3854
(S's\r\x00\x00\x00customize me!'
tRp4267
asbasbasbag57
(g73
g59
NtRp4268
(dp4269
g62
(dp4270
sg71
g3349
sg64
(lp4271
g57
(g78
g59
NtRp4272
(dp4273
g62
(dp4274
g82
g83
ssg71
g4268
sg64
(lp4275
S'title'
p4276
asbag57
(g78
g59
NtRp4277
(dp4278
g62
(dp4279
g89
g90
ssg71
g4268
sg64
(lp4280
S':'
asbag57
(g78
g59
NtRp4281
(dp4282
g62
(dp4283
sg71
g4268
sg64
(lp4284
g57
(g58
g59
NtRp4285
(dp4286
g62
(dp4287
g70
I5
ssg71
g4281
sg64
(lp4288
S'Manager'
p4289
asbasbasbag57
(g73
g59
NtRp4290
(dp4291
g62
(dp4292
sg71
g3349
sg64
(lp4293
g57
(g78
g59
NtRp4294
(dp4295
g62
(dp4296
g82
g83
ssg71
g4290
sg64
(lp4297
g2539
asbag57
(g78
g59
NtRp4298
(dp4299
g62
(dp4300
g89
g90
ssg71
g4290
sg64
(lp4301
S':'
asbag57
(g78
g59
NtRp4302
(dp4303
g62
(dp4304
sg71
g4290
sg64
(lp4305
g57
(g58
g59
NtRp4306
(dp4307
g62
(dp4308
g70
I5
ssg71
g4302
sg64
(lp4309
g2552
asbasbasbag57
(g73
g59
NtRp4310
(dp4311
g62
(dp4312
sg71
g3349
sg64
(lp4313
g57
(g78
g59
NtRp4314
(dp4315
g62
(dp4316
g82
g83
ssg71
g4310
sg64
(lp4317
S'view'
p4318
asbag57
(g78
g59
NtRp4319
(dp4320
g62
(dp4321
g89
g90
ssg71
g4310
sg64
(lp4322
S':'
asbag57
(g78
g59
NtRp4323
(dp4324
g62
(dp4325
sg71
g4310
sg64
(lp4326
g57
(g58
g59
NtRp4327
(dp4328
g62
(dp4329
g70
I5
ssg71
g4323
sg64
(lp4330
S'default/nedit.html'
p4331
asbasbasbasbasbsS'locals'
p4332
(dp4333
S'Book'
p4334
S"<Row {'Name': 'HarryPotter', 'Language': 'englis...lete_record': <function <lambda> at 0xb2291d14>}>"
p4335
sS'books'
p4336
S'<gluon.dal.Rows object>'
p4337
sssS'traceback'
p4338
S'Traceback (most recent call last):\n  File "/usr/lib/pymodules/python2.7/gluon/restricted.py", line 204, in restricted\n    exec ccode in environment\n  File "/home/unic/web2py/applications/manager/controllers/default.py", line 400, in <module>\n  File "/usr/lib/pymodules/python2.7/gluon/globals.py", line 172, in <lambda>\n    self._caller = lambda f: f()\n  File "/home/unic/web2py/applications/manager/controllers/default.py", line 208, in nedit\n    db.Book.Name.default=books[Name]\nNameError: global name \'Name\' is not defined\n'
p4339
s.