(dp1
S'output'
p2
S"<type 'exceptions.TypeError'> unsupported operand type(s) for %: 'Row' and 'int'"
p3
sS'layer'
p4
S'/home/unic/web2py/applications/manager/views/default/label.html'
p5
sS'code'
p6
S'response.write(\'<!DOCTYPE html PUBLIC "-//W3C//DTD XHTML 1.0 Transitional//EN" "http://www.w3.org/TR/xhtml1/DTD/xhtml1-transitional.dtd">\\n<!--\\nAuthor: Reality Software\\nWebsite: http://www.realitysoftware.ca\\nNote: This is a free template released under the Creative Commons Attribution 3.0 license, \\nwhich means you can use it in any way you want provided you keep links to the author intact.\\n-->\\n<html xmlns="http://www.w3.org/1999/xhtml">\\n <head>\\n  <title>\\n   \', escape=False)\nresponse.write(response.title or request.application)\nresponse.write(\'\\n  </title>\\n  \', escape=False)\nresponse.files.append(URL(request.application,\'static\',\'plugin_layouts/layouts/Papira/style.css\'))\nresponse.write(\'\\n  \', escape=False)\nresponse.files.append(URL(\'static\',\'plugin_layouts/superfish.js\'))\nresponse.write(\'\\n  \', escape=False)\nresponse.write(\'<script type="text/javascript"><!--\\n    // These variables are used by the web2py_ajax_init function in web2py_ajax.js (which is loaded below).\\n    var w2p_ajax_confirm_message = "\', escape=False)\nresponse.write(T(\'Are you sure you want to delete this object?\'))\nresponse.write(\'";\\n    var w2p_ajax_date_format = "\', escape=False)\nresponse.write(T(\'%Y-%m-%d\'))\nresponse.write(\'";\\n    var w2p_ajax_datetime_format = "\', escape=False)\nresponse.write(T(\'%Y-%m-%d %H:%M:%S\'))\nresponse.write(\'";\\n    //--></script>\\n\', escape=False)\nresponse.files.insert(0,URL(\'static\',\'js/jquery.js\'))\nresponse.files.insert(3,URL(\'static\',\'js/web2py.js\'))\nresponse.include_meta()\nresponse.include_files()\nresponse.write(\'\\n\', escape=False)\nresponse.write(\'\\n  <style>\\nul.web2py-menu-vertical { width: 150px; position: relative; top:1em; left:1em;  z-index:30; border:0; margin:0; padding: 0; list-style: none; text-decoration: none;}\\nul.web2py-menu-vertical li { margin:0; padding:0; border:0; width: 150px; background: black; text-align:left;}\\nul.web2py-menu-vertical li a { margin:0; padding: 1px 3px 1px 3px; border:0; width: 144px; color: white; font-size:12px;}\\ndiv.flash { position: fixed; float: right; padding: 10px; top: 10px; right: 30px; opacity: 0.75; margin: 10px 10px 10px 10px; text-align: center; clear: both; color: #fff; font-size: 11pt; text-align: center; vertical-align: middle; cursor: pointer; background: black; border: 2px solid #fff; -moz-border-radius: 5px; -webkit-border-radius: 5px; z-index: 2; }\\ndiv.error { background-color: red; color: white; padding: 3px; }\\n.auth_navbar { text-align:right; z-index:20; position: absolute; top: 2px; right:30px; border:0; padding:0 }\\n  </style>\\n </head>\\n <body>\\n\\n\\n  <div id="all">\\n   <div id="container">\\n    <!-- header -->\\n    <div id="logo">\\n     <a href="#">\\n      <span class="brown">\\n       <strong>\\n        Award\\n       </strong>\\n      </span>\\n      Manager\\n     </a>\\n    </div>\\n    <div id="menu">\\n     <ul>\\n     \', escape=False)\nif session.token=="neeharikak.v@students.iiit.ac.in" :\n    response.write(\'\\n     <li><a href="\', escape=False)\n    response.write(URL(r = request, f = \'index\'))\n    response.write(\'">Home</a></li>\\n     <li><a href="\', escape=False)\n    response.write(URL(r = request, f = \'Admin\'))\n    response.write(\'">Amount</a></li>\\n     <li><a href="\', escape=False)\n    response.write(URL(r = request, f = \'upload\'))\n    response.write(\'">Students List</a></li>\\n     <li><a href="\', escape=False)\n    response.write(URL(r = request, f = \'upload1\'))\n    response.write(\'">Book List</a></li>\\n     <li><a href="\', escape=False)\n    response.write(URL(r = request, f = \'choose\'))\n    response.write(\'">Allot</a></li>\\n     <li><a href="\', escape=False)\n    response.write(URL(r = request, f = \'total\'))\n    response.write(\'">Output</a></li>\\n     <li><a href="\', escape=False)\n    response.write(URL(r = request, f = \'logout\'))\n    response.write(\'">Logout</a></li>\\n      \', escape=False)\n    pass\nresponse.write(\'\\n    \\n    \\n     </ul>\\n    <script>\\n      jQuery(document).ready(function(){jQuery(\\\'ul.web2py-menu\\\').superfish({delay:400});});\\n    </script>\\n    </div>\\n    <!--end header -->\\n    <!-- main -->\\n    <div id="main">\\n     <div class="flash">\', escape=False)\nresponse.write(response.flash or \'\')\nresponse.write(\'</div>\\n     \', escape=False)\nresponse.write(\'\\n\', escape=False)\nk =len(users)\nresponse.write(\'\\n\', escape=False)\nfor i in users:\n    response.write(\'\\n\', escape=False)\n    if i%2 == 0:\n        response.write(\'\\n\', escape=False)\n        response.write(users[i].Name)\n        response.write(\'\\n\', escape=False)\n        pass\n    response.write(\'\\n\', escape=False)\n    pass\nresponse.write(\'\\n\', escape=False)\nresponse.write(\'\\n    </div>\\n    <!-- end main -->\\n    <!-- footer -->\\n    <div id="footer">\\n     <div id="left_footer">\\n      &copy; Copyright 2008 Your website\\n     </div>\\n     <div id="right_footer">\\n      <!-- Please do not change or delete this links. Read the license! Thanks. :-) -->\\n      <a href="http://www.realitysoftware.ca/website-design.html">\\n       Website design\\n      </a>\\n      by\\n      <a href="http://www.realitysoftware.ca">\\n       Reality Software\\n      </a>\\n     </div>\\n    </div>\\n    <!-- end footer -->\\n   </div>\\n  </div>\\n </body>\\n</html>\\n\', escape=False)'
p7
sS'snapshot'
p8
(dp9
S'exception'
p10
(dp11
S'__hash__'
p12
S"<method-wrapper '__hash__' of exceptions.TypeError object>"
p13
sS'__setattr__'
p14
S"<method-wrapper '__setattr__' of exceptions.TypeError object>"
p15
sS'__reduce_ex__'
p16
S'<built-in method __reduce_ex__ of exceptions.TypeError object>'
p17
sS'__getslice__'
p18
S"<method-wrapper '__getslice__' of exceptions.TypeError object>"
p19
sS'__getitem__'
p20
S"<method-wrapper '__getitem__' of exceptions.TypeError object>"
p21
sS'__setstate__'
p22
S'<built-in method __setstate__ of exceptions.TypeError object>'
p23
sS'__reduce__'
p24
S'<built-in method __reduce__ of exceptions.TypeError object>'
p25
sS'__str__'
p26
S"<method-wrapper '__str__' of exceptions.TypeError object>"
p27
sS'__format__'
p28
S'<built-in method __format__ of exceptions.TypeError object>'
p29
sS'__getattribute__'
p30
S"<method-wrapper '__getattribute__' of exceptions.TypeError object>"
p31
sS'__class__'
p32
S"<type 'exceptions.TypeError'>"
p33
sS'__unicode__'
p34
S'<built-in method __unicode__ of exceptions.TypeError object>'
p35
sS'__delattr__'
p36
S"<method-wrapper '__delattr__' of exceptions.TypeError object>"
p37
sS'__subclasshook__'
p38
S'<built-in method __subclasshook__ of type object>'
p39
sS'__repr__'
p40
S"<method-wrapper '__repr__' of exceptions.TypeError object>"
p41
sS'args'
p42
S'("unsupported operand type(s) for %: \'Row\' and \'int\'",)'
p43
sS'__dict__'
p44
S'{}'
p45
sS'__sizeof__'
p46
S'<built-in method __sizeof__ of exceptions.TypeError object>'
p47
sS'__doc__'
p48
S"'Inappropriate argument type.'"
p49
sS'__init__'
p50
S"<method-wrapper '__init__' of exceptions.TypeError object>"
p51
sS'__new__'
p52
S'<built-in method __new__ of type object>'
p53
ssS'evalue'
p54
S"unsupported operand type(s) for %: 'Row' and 'int'"
p55
sS'request'
p56
ccopy_reg
_reconstructor
p57
(cgluon.html
BEAUTIFY
p58
c__builtin__
object
p59
NtRp60
(dp61
S'attributes'
p62
(dp63
sS'components'
p64
(lp65
g57
(cgluon.html
TABLE
p66
g59
NtRp67
(dp68
g62
(dp69
S'level'
p70
I5
ssS'parent'
p71
Nsg64
(lp72
g57
(cgluon.html
TR
p73
g59
NtRp74
(dp75
g62
(dp76
sg71
g67
sg64
(lp77
g57
(cgluon.html
TD
p78
g59
NtRp79
(dp80
g62
(dp81
S'_style'
p82
S'font-weight:bold;vertical-align:top'
p83
ssg71
g74
sg64
(lp84
S'ajax'
p85
asbag57
(g78
g59
NtRp86
(dp87
g62
(dp88
S'_valign'
p89
S'top'
p90
ssg71
g74
sg64
(lp91
S':'
asbag57
(g78
g59
NtRp92
(dp93
g62
(dp94
sg71
g74
sg64
(lp95
g57
(g58
g59
NtRp96
(dp97
g62
(dp98
g70
I5
ssg71
g92
sg64
(lp99
S'False'
p100
asbasbasbag57
(g73
g59
NtRp101
(dp102
g62
(dp103
sg71
g67
sg64
(lp104
g57
(g78
g59
NtRp105
(dp106
g62
(dp107
g82
g83
ssg71
g101
sg64
(lp108
S'application'
p109
asbag57
(g78
g59
NtRp110
(dp111
g62
(dp112
g89
g90
ssg71
g101
sg64
(lp113
S':'
asbag57
(g78
g59
NtRp114
(dp115
g62
(dp116
sg71
g101
sg64
(lp117
g57
(g58
g59
NtRp118
(dp119
g62
(dp120
g70
I5
ssg71
g114
sg64
(lp121
S'manager'
p122
asbasbasbag57
(g73
g59
NtRp123
(dp124
g62
(dp125
sg71
g67
sg64
(lp126
g57
(g78
g59
NtRp127
(dp128
g62
(dp129
g82
g83
ssg71
g123
sg64
(lp130
g42
asbag57
(g78
g59
NtRp131
(dp132
g62
(dp133
g89
g90
ssg71
g123
sg64
(lp134
S':'
asbag57
(g78
g59
NtRp135
(dp136
g62
(dp137
sg71
g123
sg64
(lp138
g57
(g58
g59
NtRp139
(dp140
g62
(dp141
g70
I5
ssg71
g135
sg64
(lp142
g57
(g66
g59
NtRp143
(dp144
g62
(dp145
g70
I4
ssg71
Nsg64
(lp146
sbasbasbasbag57
(g73
g59
NtRp147
(dp148
g62
(dp149
sg71
g67
sg64
(lp150
g57
(g78
g59
NtRp151
(dp152
g62
(dp153
g82
g83
ssg71
g147
sg64
(lp154
S'body'
p155
asbag57
(g78
g59
NtRp156
(dp157
g62
(dp158
g89
g90
ssg71
g147
sg64
(lp159
S':'
asbag57
(g78
g59
NtRp160
(dp161
g62
(dp162
sg71
g147
sg64
(lp163
g57
(g58
g59
NtRp164
(dp165
g62
(dp166
g70
I5
ssg71
g160
sg64
(lp167
S'<cStringIO.StringO object at 0xab2cde00>'
p168
asbasbasbag57
(g73
g59
NtRp169
(dp170
g62
(dp171
sg71
g67
sg64
(lp172
g57
(g78
g59
NtRp173
(dp174
g62
(dp175
g82
g83
ssg71
g169
sg64
(lp176
S'client'
p177
asbag57
(g78
g59
NtRp178
(dp179
g62
(dp180
g89
g90
ssg71
g169
sg64
(lp181
S':'
asbag57
(g78
g59
NtRp182
(dp183
g62
(dp184
sg71
g169
sg64
(lp185
g57
(g58
g59
NtRp186
(dp187
g62
(dp188
g70
I5
ssg71
g182
sg64
(lp189
S'127.0.0.1'
p190
asbasbasbag57
(g73
g59
NtRp191
(dp192
g62
(dp193
sg71
g67
sg64
(lp194
g57
(g78
g59
NtRp195
(dp196
g62
(dp197
g82
g83
ssg71
g191
sg64
(lp198
S'controller'
p199
asbag57
(g78
g59
NtRp200
(dp201
g62
(dp202
g89
g90
ssg71
g191
sg64
(lp203
S':'
asbag57
(g78
g59
NtRp204
(dp205
g62
(dp206
sg71
g191
sg64
(lp207
g57
(g58
g59
NtRp208
(dp209
g62
(dp210
g70
I5
ssg71
g204
sg64
(lp211
S'default'
p212
asbasbasbag57
(g73
g59
NtRp213
(dp214
g62
(dp215
sg71
g67
sg64
(lp216
g57
(g78
g59
NtRp217
(dp218
g62
(dp219
g82
g83
ssg71
g213
sg64
(lp220
S'cookies'
p221
asbag57
(g78
g59
NtRp222
(dp223
g62
(dp224
g89
g90
ssg71
g213
sg64
(lp225
S':'
asbag57
(g78
g59
NtRp226
(dp227
g62
(dp228
sg71
g213
sg64
(lp229
g57
(g58
g59
NtRp230
(dp231
g62
(dp232
g70
I5
ssg71
g226
sg64
(lp233
g57
(g66
g59
NtRp234
(dp235
g62
(dp236
g70
I4
ssg71
Nsg64
(lp237
g57
(g73
g59
NtRp238
(dp239
g62
(dp240
sg71
g234
sg64
(lp241
g57
(g78
g59
NtRp242
(dp243
g62
(dp244
g82
g83
ssg71
g238
sg64
(lp245
S'session_id_admin'
p246
asbag57
(g78
g59
NtRp247
(dp248
g62
(dp249
g89
g90
ssg71
g238
sg64
(lp250
S':'
asbag57
(g78
g59
NtRp251
(dp252
g62
(dp253
sg71
g238
sg64
(lp254
g57
(g58
g59
NtRp255
(dp256
g62
(dp257
g70
I4
ssg71
g251
sg64
(lp258
g57
(g66
g59
NtRp259
(dp260
g62
(dp261
g70
I3
ssg71
Nsg64
(lp262
g57
(g73
g59
NtRp263
(dp264
g62
(dp265
sg71
g259
sg64
(lp266
g57
(g78
g59
NtRp267
(dp268
g62
(dp269
g82
g83
ssg71
g263
sg64
(lp270
S'comment'
p271
asbag57
(g78
g59
NtRp272
(dp273
g62
(dp274
g89
g90
ssg71
g263
sg64
(lp275
S':'
asbag57
(g78
g59
NtRp276
(dp277
g62
(dp278
sg71
g263
sg64
(lp279
g57
(g58
g59
NtRp280
(dp281
g62
(dp282
g70
I3
ssg71
g276
sg64
(lp283
S''
asbasbasbag57
(g73
g59
NtRp284
(dp285
g62
(dp286
sg71
g259
sg64
(lp287
g57
(g78
g59
NtRp288
(dp289
g62
(dp290
g82
g83
ssg71
g284
sg64
(lp291
S'domain'
p292
asbag57
(g78
g59
NtRp293
(dp294
g62
(dp295
g89
g90
ssg71
g284
sg64
(lp296
S':'
asbag57
(g78
g59
NtRp297
(dp298
g62
(dp299
sg71
g284
sg64
(lp300
g57
(g58
g59
NtRp301
(dp302
g62
(dp303
g70
I3
ssg71
g297
sg64
(lp304
S''
asbasbasbag57
(g73
g59
NtRp305
(dp306
g62
(dp307
sg71
g259
sg64
(lp308
g57
(g78
g59
NtRp309
(dp310
g62
(dp311
g82
g83
ssg71
g305
sg64
(lp312
S'expires'
p313
asbag57
(g78
g59
NtRp314
(dp315
g62
(dp316
g89
g90
ssg71
g305
sg64
(lp317
S':'
asbag57
(g78
g59
NtRp318
(dp319
g62
(dp320
sg71
g305
sg64
(lp321
g57
(g58
g59
NtRp322
(dp323
g62
(dp324
g70
I3
ssg71
g318
sg64
(lp325
S''
asbasbasbag57
(g73
g59
NtRp326
(dp327
g62
(dp328
sg71
g259
sg64
(lp329
g57
(g78
g59
NtRp330
(dp331
g62
(dp332
g82
g83
ssg71
g326
sg64
(lp333
S'httponly'
p334
asbag57
(g78
g59
NtRp335
(dp336
g62
(dp337
g89
g90
ssg71
g326
sg64
(lp338
S':'
asbag57
(g78
g59
NtRp339
(dp340
g62
(dp341
sg71
g326
sg64
(lp342
g57
(g58
g59
NtRp343
(dp344
g62
(dp345
g70
I3
ssg71
g339
sg64
(lp346
S''
asbasbasbag57
(g73
g59
NtRp347
(dp348
g62
(dp349
sg71
g259
sg64
(lp350
g57
(g78
g59
NtRp351
(dp352
g62
(dp353
g82
g83
ssg71
g347
sg64
(lp354
S'max-age'
p355
asbag57
(g78
g59
NtRp356
(dp357
g62
(dp358
g89
g90
ssg71
g347
sg64
(lp359
S':'
asbag57
(g78
g59
NtRp360
(dp361
g62
(dp362
sg71
g347
sg64
(lp363
g57
(g58
g59
NtRp364
(dp365
g62
(dp366
g70
I3
ssg71
g360
sg64
(lp367
S''
asbasbasbag57
(g73
g59
NtRp368
(dp369
g62
(dp370
sg71
g259
sg64
(lp371
g57
(g78
g59
NtRp372
(dp373
g62
(dp374
g82
g83
ssg71
g368
sg64
(lp375
S'path'
p376
asbag57
(g78
g59
NtRp377
(dp378
g62
(dp379
g89
g90
ssg71
g368
sg64
(lp380
S':'
asbag57
(g78
g59
NtRp381
(dp382
g62
(dp383
sg71
g368
sg64
(lp384
g57
(g58
g59
NtRp385
(dp386
g62
(dp387
g70
I3
ssg71
g381
sg64
(lp388
S''
asbasbasbag57
(g73
g59
NtRp389
(dp390
g62
(dp391
sg71
g259
sg64
(lp392
g57
(g78
g59
NtRp393
(dp394
g62
(dp395
g82
g83
ssg71
g389
sg64
(lp396
S'secure'
p397
asbag57
(g78
g59
NtRp398
(dp399
g62
(dp400
g89
g90
ssg71
g389
sg64
(lp401
S':'
asbag57
(g78
g59
NtRp402
(dp403
g62
(dp404
sg71
g389
sg64
(lp405
g57
(g58
g59
NtRp406
(dp407
g62
(dp408
g70
I3
ssg71
g402
sg64
(lp409
S''
asbasbasbag57
(g73
g59
NtRp410
(dp411
g62
(dp412
sg71
g259
sg64
(lp413
g57
(g78
g59
NtRp414
(dp415
g62
(dp416
g82
g83
ssg71
g410
sg64
(lp417
S'version'
p418
asbag57
(g78
g59
NtRp419
(dp420
g62
(dp421
g89
g90
ssg71
g410
sg64
(lp422
S':'
asbag57
(g78
g59
NtRp423
(dp424
g62
(dp425
sg71
g410
sg64
(lp426
g57
(g58
g59
NtRp427
(dp428
g62
(dp429
g70
I3
ssg71
g423
sg64
(lp430
S''
asbasbasbasbasbasbasbag57
(g73
g59
NtRp431
(dp432
g62
(dp433
sg71
g234
sg64
(lp434
g57
(g78
g59
NtRp435
(dp436
g62
(dp437
g82
g83
ssg71
g431
sg64
(lp438
S'session_id_manager'
p439
asbag57
(g78
g59
NtRp440
(dp441
g62
(dp442
g89
g90
ssg71
g431
sg64
(lp443
S':'
asbag57
(g78
g59
NtRp444
(dp445
g62
(dp446
sg71
g431
sg64
(lp447
g57
(g58
g59
NtRp448
(dp449
g62
(dp450
g70
I4
ssg71
g444
sg64
(lp451
g57
(g66
g59
NtRp452
(dp453
g62
(dp454
g70
I3
ssg71
Nsg64
(lp455
g57
(g73
g59
NtRp456
(dp457
g62
(dp458
sg71
g452
sg64
(lp459
g57
(g78
g59
NtRp460
(dp461
g62
(dp462
g82
g83
ssg71
g456
sg64
(lp463
g271
asbag57
(g78
g59
NtRp464
(dp465
g62
(dp466
g89
g90
ssg71
g456
sg64
(lp467
S':'
asbag57
(g78
g59
NtRp468
(dp469
g62
(dp470
sg71
g456
sg64
(lp471
g57
(g58
g59
NtRp472
(dp473
g62
(dp474
g70
I3
ssg71
g468
sg64
(lp475
S''
asbasbasbag57
(g73
g59
NtRp476
(dp477
g62
(dp478
sg71
g452
sg64
(lp479
g57
(g78
g59
NtRp480
(dp481
g62
(dp482
g82
g83
ssg71
g476
sg64
(lp483
g292
asbag57
(g78
g59
NtRp484
(dp485
g62
(dp486
g89
g90
ssg71
g476
sg64
(lp487
S':'
asbag57
(g78
g59
NtRp488
(dp489
g62
(dp490
sg71
g476
sg64
(lp491
g57
(g58
g59
NtRp492
(dp493
g62
(dp494
g70
I3
ssg71
g488
sg64
(lp495
S''
asbasbasbag57
(g73
g59
NtRp496
(dp497
g62
(dp498
sg71
g452
sg64
(lp499
g57
(g78
g59
NtRp500
(dp501
g62
(dp502
g82
g83
ssg71
g496
sg64
(lp503
g313
asbag57
(g78
g59
NtRp504
(dp505
g62
(dp506
g89
g90
ssg71
g496
sg64
(lp507
S':'
asbag57
(g78
g59
NtRp508
(dp509
g62
(dp510
sg71
g496
sg64
(lp511
g57
(g58
g59
NtRp512
(dp513
g62
(dp514
g70
I3
ssg71
g508
sg64
(lp515
S''
asbasbasbag57
(g73
g59
NtRp516
(dp517
g62
(dp518
sg71
g452
sg64
(lp519
g57
(g78
g59
NtRp520
(dp521
g62
(dp522
g82
g83
ssg71
g516
sg64
(lp523
g334
asbag57
(g78
g59
NtRp524
(dp525
g62
(dp526
g89
g90
ssg71
g516
sg64
(lp527
S':'
asbag57
(g78
g59
NtRp528
(dp529
g62
(dp530
sg71
g516
sg64
(lp531
g57
(g58
g59
NtRp532
(dp533
g62
(dp534
g70
I3
ssg71
g528
sg64
(lp535
S''
asbasbasbag57
(g73
g59
NtRp536
(dp537
g62
(dp538
sg71
g452
sg64
(lp539
g57
(g78
g59
NtRp540
(dp541
g62
(dp542
g82
g83
ssg71
g536
sg64
(lp543
g355
asbag57
(g78
g59
NtRp544
(dp545
g62
(dp546
g89
g90
ssg71
g536
sg64
(lp547
S':'
asbag57
(g78
g59
NtRp548
(dp549
g62
(dp550
sg71
g536
sg64
(lp551
g57
(g58
g59
NtRp552
(dp553
g62
(dp554
g70
I3
ssg71
g548
sg64
(lp555
S''
asbasbasbag57
(g73
g59
NtRp556
(dp557
g62
(dp558
sg71
g452
sg64
(lp559
g57
(g78
g59
NtRp560
(dp561
g62
(dp562
g82
g83
ssg71
g556
sg64
(lp563
g376
asbag57
(g78
g59
NtRp564
(dp565
g62
(dp566
g89
g90
ssg71
g556
sg64
(lp567
S':'
asbag57
(g78
g59
NtRp568
(dp569
g62
(dp570
sg71
g556
sg64
(lp571
g57
(g58
g59
NtRp572
(dp573
g62
(dp574
g70
I3
ssg71
g568
sg64
(lp575
S''
asbasbasbag57
(g73
g59
NtRp576
(dp577
g62
(dp578
sg71
g452
sg64
(lp579
g57
(g78
g59
NtRp580
(dp581
g62
(dp582
g82
g83
ssg71
g576
sg64
(lp583
g397
asbag57
(g78
g59
NtRp584
(dp585
g62
(dp586
g89
g90
ssg71
g576
sg64
(lp587
S':'
asbag57
(g78
g59
NtRp588
(dp589
g62
(dp590
sg71
g576
sg64
(lp591
g57
(g58
g59
NtRp592
(dp593
g62
(dp594
g70
I3
ssg71
g588
sg64
(lp595
S''
asbasbasbag57
(g73
g59
NtRp596
(dp597
g62
(dp598
sg71
g452
sg64
(lp599
g57
(g78
g59
NtRp600
(dp601
g62
(dp602
g82
g83
ssg71
g596
sg64
(lp603
g418
asbag57
(g78
g59
NtRp604
(dp605
g62
(dp606
g89
g90
ssg71
g596
sg64
(lp607
S':'
asbag57
(g78
g59
NtRp608
(dp609
g62
(dp610
sg71
g596
sg64
(lp611
g57
(g58
g59
NtRp612
(dp613
g62
(dp614
g70
I3
ssg71
g608
sg64
(lp615
S''
asbasbasbasbasbasbasbag57
(g73
g59
NtRp616
(dp617
g62
(dp618
sg71
g234
sg64
(lp619
g57
(g78
g59
NtRp620
(dp621
g62
(dp622
g82
g83
ssg71
g616
sg64
(lp623
S'session_id_manager0'
p624
asbag57
(g78
g59
NtRp625
(dp626
g62
(dp627
g89
g90
ssg71
g616
sg64
(lp628
S':'
asbag57
(g78
g59
NtRp629
(dp630
g62
(dp631
sg71
g616
sg64
(lp632
g57
(g58
g59
NtRp633
(dp634
g62
(dp635
g70
I4
ssg71
g629
sg64
(lp636
g57
(g66
g59
NtRp637
(dp638
g62
(dp639
g70
I3
ssg71
Nsg64
(lp640
g57
(g73
g59
NtRp641
(dp642
g62
(dp643
sg71
g637
sg64
(lp644
g57
(g78
g59
NtRp645
(dp646
g62
(dp647
g82
g83
ssg71
g641
sg64
(lp648
g271
asbag57
(g78
g59
NtRp649
(dp650
g62
(dp651
g89
g90
ssg71
g641
sg64
(lp652
S':'
asbag57
(g78
g59
NtRp653
(dp654
g62
(dp655
sg71
g641
sg64
(lp656
g57
(g58
g59
NtRp657
(dp658
g62
(dp659
g70
I3
ssg71
g653
sg64
(lp660
S''
asbasbasbag57
(g73
g59
NtRp661
(dp662
g62
(dp663
sg71
g637
sg64
(lp664
g57
(g78
g59
NtRp665
(dp666
g62
(dp667
g82
g83
ssg71
g661
sg64
(lp668
g292
asbag57
(g78
g59
NtRp669
(dp670
g62
(dp671
g89
g90
ssg71
g661
sg64
(lp672
S':'
asbag57
(g78
g59
NtRp673
(dp674
g62
(dp675
sg71
g661
sg64
(lp676
g57
(g58
g59
NtRp677
(dp678
g62
(dp679
g70
I3
ssg71
g673
sg64
(lp680
S''
asbasbasbag57
(g73
g59
NtRp681
(dp682
g62
(dp683
sg71
g637
sg64
(lp684
g57
(g78
g59
NtRp685
(dp686
g62
(dp687
g82
g83
ssg71
g681
sg64
(lp688
g313
asbag57
(g78
g59
NtRp689
(dp690
g62
(dp691
g89
g90
ssg71
g681
sg64
(lp692
S':'
asbag57
(g78
g59
NtRp693
(dp694
g62
(dp695
sg71
g681
sg64
(lp696
g57
(g58
g59
NtRp697
(dp698
g62
(dp699
g70
I3
ssg71
g693
sg64
(lp700
S''
asbasbasbag57
(g73
g59
NtRp701
(dp702
g62
(dp703
sg71
g637
sg64
(lp704
g57
(g78
g59
NtRp705
(dp706
g62
(dp707
g82
g83
ssg71
g701
sg64
(lp708
g334
asbag57
(g78
g59
NtRp709
(dp710
g62
(dp711
g89
g90
ssg71
g701
sg64
(lp712
S':'
asbag57
(g78
g59
NtRp713
(dp714
g62
(dp715
sg71
g701
sg64
(lp716
g57
(g58
g59
NtRp717
(dp718
g62
(dp719
g70
I3
ssg71
g713
sg64
(lp720
S''
asbasbasbag57
(g73
g59
NtRp721
(dp722
g62
(dp723
sg71
g637
sg64
(lp724
g57
(g78
g59
NtRp725
(dp726
g62
(dp727
g82
g83
ssg71
g721
sg64
(lp728
g355
asbag57
(g78
g59
NtRp729
(dp730
g62
(dp731
g89
g90
ssg71
g721
sg64
(lp732
S':'
asbag57
(g78
g59
NtRp733
(dp734
g62
(dp735
sg71
g721
sg64
(lp736
g57
(g58
g59
NtRp737
(dp738
g62
(dp739
g70
I3
ssg71
g733
sg64
(lp740
S''
asbasbasbag57
(g73
g59
NtRp741
(dp742
g62
(dp743
sg71
g637
sg64
(lp744
g57
(g78
g59
NtRp745
(dp746
g62
(dp747
g82
g83
ssg71
g741
sg64
(lp748
g376
asbag57
(g78
g59
NtRp749
(dp750
g62
(dp751
g89
g90
ssg71
g741
sg64
(lp752
S':'
asbag57
(g78
g59
NtRp753
(dp754
g62
(dp755
sg71
g741
sg64
(lp756
g57
(g58
g59
NtRp757
(dp758
g62
(dp759
g70
I3
ssg71
g753
sg64
(lp760
S''
asbasbasbag57
(g73
g59
NtRp761
(dp762
g62
(dp763
sg71
g637
sg64
(lp764
g57
(g78
g59
NtRp765
(dp766
g62
(dp767
g82
g83
ssg71
g761
sg64
(lp768
g397
asbag57
(g78
g59
NtRp769
(dp770
g62
(dp771
g89
g90
ssg71
g761
sg64
(lp772
S':'
asbag57
(g78
g59
NtRp773
(dp774
g62
(dp775
sg71
g761
sg64
(lp776
g57
(g58
g59
NtRp777
(dp778
g62
(dp779
g70
I3
ssg71
g773
sg64
(lp780
S''
asbasbasbag57
(g73
g59
NtRp781
(dp782
g62
(dp783
sg71
g637
sg64
(lp784
g57
(g78
g59
NtRp785
(dp786
g62
(dp787
g82
g83
ssg71
g781
sg64
(lp788
g418
asbag57
(g78
g59
NtRp789
(dp790
g62
(dp791
g89
g90
ssg71
g781
sg64
(lp792
S':'
asbag57
(g78
g59
NtRp793
(dp794
g62
(dp795
sg71
g781
sg64
(lp796
g57
(g58
g59
NtRp797
(dp798
g62
(dp799
g70
I3
ssg71
g793
sg64
(lp800
S''
asbasbasbasbasbasbasbag57
(g73
g59
NtRp801
(dp802
g62
(dp803
sg71
g234
sg64
(lp804
g57
(g78
g59
NtRp805
(dp806
g62
(dp807
g82
g83
ssg71
g801
sg64
(lp808
S'session_id_welcome'
p809
asbag57
(g78
g59
NtRp810
(dp811
g62
(dp812
g89
g90
ssg71
g801
sg64
(lp813
S':'
asbag57
(g78
g59
NtRp814
(dp815
g62
(dp816
sg71
g801
sg64
(lp817
g57
(g58
g59
NtRp818
(dp819
g62
(dp820
g70
I4
ssg71
g814
sg64
(lp821
g57
(g66
g59
NtRp822
(dp823
g62
(dp824
g70
I3
ssg71
Nsg64
(lp825
g57
(g73
g59
NtRp826
(dp827
g62
(dp828
sg71
g822
sg64
(lp829
g57
(g78
g59
NtRp830
(dp831
g62
(dp832
g82
g83
ssg71
g826
sg64
(lp833
g271
asbag57
(g78
g59
NtRp834
(dp835
g62
(dp836
g89
g90
ssg71
g826
sg64
(lp837
S':'
asbag57
(g78
g59
NtRp838
(dp839
g62
(dp840
sg71
g826
sg64
(lp841
g57
(g58
g59
NtRp842
(dp843
g62
(dp844
g70
I3
ssg71
g838
sg64
(lp845
S''
asbasbasbag57
(g73
g59
NtRp846
(dp847
g62
(dp848
sg71
g822
sg64
(lp849
g57
(g78
g59
NtRp850
(dp851
g62
(dp852
g82
g83
ssg71
g846
sg64
(lp853
g292
asbag57
(g78
g59
NtRp854
(dp855
g62
(dp856
g89
g90
ssg71
g846
sg64
(lp857
S':'
asbag57
(g78
g59
NtRp858
(dp859
g62
(dp860
sg71
g846
sg64
(lp861
g57
(g58
g59
NtRp862
(dp863
g62
(dp864
g70
I3
ssg71
g858
sg64
(lp865
S''
asbasbasbag57
(g73
g59
NtRp866
(dp867
g62
(dp868
sg71
g822
sg64
(lp869
g57
(g78
g59
NtRp870
(dp871
g62
(dp872
g82
g83
ssg71
g866
sg64
(lp873
g313
asbag57
(g78
g59
NtRp874
(dp875
g62
(dp876
g89
g90
ssg71
g866
sg64
(lp877
S':'
asbag57
(g78
g59
NtRp878
(dp879
g62
(dp880
sg71
g866
sg64
(lp881
g57
(g58
g59
NtRp882
(dp883
g62
(dp884
g70
I3
ssg71
g878
sg64
(lp885
S''
asbasbasbag57
(g73
g59
NtRp886
(dp887
g62
(dp888
sg71
g822
sg64
(lp889
g57
(g78
g59
NtRp890
(dp891
g62
(dp892
g82
g83
ssg71
g886
sg64
(lp893
g334
asbag57
(g78
g59
NtRp894
(dp895
g62
(dp896
g89
g90
ssg71
g886
sg64
(lp897
S':'
asbag57
(g78
g59
NtRp898
(dp899
g62
(dp900
sg71
g886
sg64
(lp901
g57
(g58
g59
NtRp902
(dp903
g62
(dp904
g70
I3
ssg71
g898
sg64
(lp905
S''
asbasbasbag57
(g73
g59
NtRp906
(dp907
g62
(dp908
sg71
g822
sg64
(lp909
g57
(g78
g59
NtRp910
(dp911
g62
(dp912
g82
g83
ssg71
g906
sg64
(lp913
g355
asbag57
(g78
g59
NtRp914
(dp915
g62
(dp916
g89
g90
ssg71
g906
sg64
(lp917
S':'
asbag57
(g78
g59
NtRp918
(dp919
g62
(dp920
sg71
g906
sg64
(lp921
g57
(g58
g59
NtRp922
(dp923
g62
(dp924
g70
I3
ssg71
g918
sg64
(lp925
S''
asbasbasbag57
(g73
g59
NtRp926
(dp927
g62
(dp928
sg71
g822
sg64
(lp929
g57
(g78
g59
NtRp930
(dp931
g62
(dp932
g82
g83
ssg71
g926
sg64
(lp933
g376
asbag57
(g78
g59
NtRp934
(dp935
g62
(dp936
g89
g90
ssg71
g926
sg64
(lp937
S':'
asbag57
(g78
g59
NtRp938
(dp939
g62
(dp940
sg71
g926
sg64
(lp941
g57
(g58
g59
NtRp942
(dp943
g62
(dp944
g70
I3
ssg71
g938
sg64
(lp945
S''
asbasbasbag57
(g73
g59
NtRp946
(dp947
g62
(dp948
sg71
g822
sg64
(lp949
g57
(g78
g59
NtRp950
(dp951
g62
(dp952
g82
g83
ssg71
g946
sg64
(lp953
g397
asbag57
(g78
g59
NtRp954
(dp955
g62
(dp956
g89
g90
ssg71
g946
sg64
(lp957
S':'
asbag57
(g78
g59
NtRp958
(dp959
g62
(dp960
sg71
g946
sg64
(lp961
g57
(g58
g59
NtRp962
(dp963
g62
(dp964
g70
I3
ssg71
g958
sg64
(lp965
S''
asbasbasbag57
(g73
g59
NtRp966
(dp967
g62
(dp968
sg71
g822
sg64
(lp969
g57
(g78
g59
NtRp970
(dp971
g62
(dp972
g82
g83
ssg71
g966
sg64
(lp973
g418
asbag57
(g78
g59
NtRp974
(dp975
g62
(dp976
g89
g90
ssg71
g966
sg64
(lp977
S':'
asbag57
(g78
g59
NtRp978
(dp979
g62
(dp980
sg71
g966
sg64
(lp981
g57
(g58
g59
NtRp982
(dp983
g62
(dp984
g70
I3
ssg71
g978
sg64
(lp985
S''
asbasbasbasbasbasbasbasbasbasbasbag57
(g73
g59
NtRp986
(dp987
g62
(dp988
sg71
g67
sg64
(lp989
g57
(g78
g59
NtRp990
(dp991
g62
(dp992
g82
g83
ssg71
g986
sg64
(lp993
S'env'
p994
asbag57
(g78
g59
NtRp995
(dp996
g62
(dp997
g89
g90
ssg71
g986
sg64
(lp998
S':'
asbag57
(g78
g59
NtRp999
(dp1000
g62
(dp1001
sg71
g986
sg64
(lp1002
g57
(g58
g59
NtRp1003
(dp1004
g62
(dp1005
g70
I5
ssg71
g999
sg64
(lp1006
g57
(g66
g59
NtRp1007
(dp1008
g62
(dp1009
g70
I4
ssg71
Nsg64
(lp1010
g57
(g73
g59
NtRp1011
(dp1012
g62
(dp1013
sg71
g1007
sg64
(lp1014
g57
(g78
g59
NtRp1015
(dp1016
g62
(dp1017
g82
g83
ssg71
g1011
sg64
(lp1018
S'app_folders'
p1019
asbag57
(g78
g59
NtRp1020
(dp1021
g62
(dp1022
g89
g90
ssg71
g1011
sg64
(lp1023
S':'
asbag57
(g78
g59
NtRp1024
(dp1025
g62
(dp1026
sg71
g1011
sg64
(lp1027
g57
(g58
g59
NtRp1028
(dp1029
g62
(dp1030
g70
I4
ssg71
g1024
sg64
(lp1031
S"set(['/home/unic/web2py/applications/manager/', '/home/unic/web2py/applications/admin/', '/home/unic/web2py/applications/manager0/', '/home/unic/web2py/applications/welcome/'])"
p1032
asbasbasbag57
(g73
g59
NtRp1033
(dp1034
g62
(dp1035
sg71
g1007
sg64
(lp1036
g57
(g78
g59
NtRp1037
(dp1038
g62
(dp1039
g82
g83
ssg71
g1033
sg64
(lp1040
S'applications_parent'
p1041
asbag57
(g78
g59
NtRp1042
(dp1043
g62
(dp1044
g89
g90
ssg71
g1033
sg64
(lp1045
S':'
asbag57
(g78
g59
NtRp1046
(dp1047
g62
(dp1048
sg71
g1033
sg64
(lp1049
g57
(g58
g59
NtRp1050
(dp1051
g62
(dp1052
g70
I4
ssg71
g1046
sg64
(lp1053
S'/home/unic/web2py'
p1054
asbasbasbag57
(g73
g59
NtRp1055
(dp1056
g62
(dp1057
sg71
g1007
sg64
(lp1058
g57
(g78
g59
NtRp1059
(dp1060
g62
(dp1061
g82
g83
ssg71
g1055
sg64
(lp1062
S'cmd_args'
p1063
asbag57
(g78
g59
NtRp1064
(dp1065
g62
(dp1066
g89
g90
ssg71
g1055
sg64
(lp1067
S':'
asbag57
(g78
g59
NtRp1068
(dp1069
g62
(dp1070
sg71
g1055
sg64
(lp1071
g57
(g58
g59
NtRp1072
(dp1073
g62
(dp1074
g70
I4
ssg71
g1068
sg64
(lp1075
g57
(g66
g59
NtRp1076
(dp1077
g62
(dp1078
g70
I3
ssg71
Nsg64
(lp1079
sbasbasbasbag57
(g73
g59
NtRp1080
(dp1081
g62
(dp1082
sg71
g1007
sg64
(lp1083
g57
(g78
g59
NtRp1084
(dp1085
g62
(dp1086
g82
g83
ssg71
g1080
sg64
(lp1087
S'cmd_options'
p1088
asbag57
(g78
g59
NtRp1089
(dp1090
g62
(dp1091
g89
g90
ssg71
g1080
sg64
(lp1092
S':'
asbag57
(g78
g59
NtRp1093
(dp1094
g62
(dp1095
sg71
g1080
sg64
(lp1096
g57
(g58
g59
NtRp1097
(dp1098
g62
(dp1099
g70
I4
ssg71
g1093
sg64
(lp1100
S"<Values at 0xa49080c: {'verbose': False, 'ip': '127.0.0.1', 'shutdown_timeout': 5, 'taskbar': False, 'port': 8000, 'maxthreads': None, 'softcron': False, 'server_name': 'unic-Inspiron-N5050', 'bpython': False, 'nogui': False, 'nocron': False, 'extcron': False, 'debuglevel': 30, 'test': None, 'folder': '/home/unic/web2py', 'config': '', 'import_models': False, 'winservice': '', 'shell': None, 'run': '', 'log_filename': 'httpserver.log', 'args': [''], 'socket_timeout': 1, 'profiler_filename': None, 'ssl_private_key': '', 'password': '<ask>', 'request_queue_size': 5, 'ssl_certificate': '', 'cronjob': False, 'plain': False, 'quiet': False, 'interfaces': None, 'minthreads': None, 'timeout': 10, 'numthreads': None, 'nobanner': False, 'pid_filename': 'httpserver.pid'}>"
p1101
asbasbasbag57
(g73
g59
NtRp1102
(dp1103
g62
(dp1104
sg71
g1007
sg64
(lp1105
g57
(g78
g59
NtRp1106
(dp1107
g62
(dp1108
g82
g83
ssg71
g1102
sg64
(lp1109
S'db_sessions'
p1110
asbag57
(g78
g59
NtRp1111
(dp1112
g62
(dp1113
g89
g90
ssg71
g1102
sg64
(lp1114
S':'
asbag57
(g78
g59
NtRp1115
(dp1116
g62
(dp1117
sg71
g1102
sg64
(lp1118
g57
(g58
g59
NtRp1119
(dp1120
g62
(dp1121
g70
I4
ssg71
g1115
sg64
(lp1122
S'set([])'
p1123
asbasbasbag57
(g73
g59
NtRp1124
(dp1125
g62
(dp1126
sg71
g1007
sg64
(lp1127
g57
(g78
g59
NtRp1128
(dp1129
g62
(dp1130
g82
g83
ssg71
g1124
sg64
(lp1131
S'debugging'
p1132
asbag57
(g78
g59
NtRp1133
(dp1134
g62
(dp1135
g89
g90
ssg71
g1124
sg64
(lp1136
S':'
asbag57
(g78
g59
NtRp1137
(dp1138
g62
(dp1139
sg71
g1124
sg64
(lp1140
g57
(g58
g59
NtRp1141
(dp1142
g62
(dp1143
g70
I4
ssg71
g1137
sg64
(lp1144
g100
asbasbasbag57
(g73
g59
NtRp1145
(dp1146
g62
(dp1147
sg71
g1007
sg64
(lp1148
g57
(g78
g59
NtRp1149
(dp1150
g62
(dp1151
g82
g83
ssg71
g1145
sg64
(lp1152
S'gluon_parent'
p1153
asbag57
(g78
g59
NtRp1154
(dp1155
g62
(dp1156
g89
g90
ssg71
g1145
sg64
(lp1157
S':'
asbag57
(g78
g59
NtRp1158
(dp1159
g62
(dp1160
sg71
g1145
sg64
(lp1161
g57
(g58
g59
NtRp1162
(dp1163
g62
(dp1164
g70
I4
ssg71
g1158
sg64
(lp1165
S'/usr/share/web2py'
p1166
asbasbasbag57
(g73
g59
NtRp1167
(dp1168
g62
(dp1169
sg71
g1007
sg64
(lp1170
g57
(g78
g59
NtRp1171
(dp1172
g62
(dp1173
g82
g83
ssg71
g1167
sg64
(lp1174
S'http_accept'
p1175
asbag57
(g78
g59
NtRp1176
(dp1177
g62
(dp1178
g89
g90
ssg71
g1167
sg64
(lp1179
S':'
asbag57
(g78
g59
NtRp1180
(dp1181
g62
(dp1182
sg71
g1167
sg64
(lp1183
g57
(g58
g59
NtRp1184
(dp1185
g62
(dp1186
g70
I4
ssg71
g1180
sg64
(lp1187
S'text/html,application/xhtml+xml,application/xml;q=0.9,*/*;q=0.8'
p1188
asbasbasbag57
(g73
g59
NtRp1189
(dp1190
g62
(dp1191
sg71
g1007
sg64
(lp1192
g57
(g78
g59
NtRp1193
(dp1194
g62
(dp1195
g82
g83
ssg71
g1189
sg64
(lp1196
S'http_accept_encoding'
p1197
asbag57
(g78
g59
NtRp1198
(dp1199
g62
(dp1200
g89
g90
ssg71
g1189
sg64
(lp1201
S':'
asbag57
(g78
g59
NtRp1202
(dp1203
g62
(dp1204
sg71
g1189
sg64
(lp1205
g57
(g58
g59
NtRp1206
(dp1207
g62
(dp1208
g70
I4
ssg71
g1202
sg64
(lp1209
S'gzip, deflate'
p1210
asbasbasbag57
(g73
g59
NtRp1211
(dp1212
g62
(dp1213
sg71
g1007
sg64
(lp1214
g57
(g78
g59
NtRp1215
(dp1216
g62
(dp1217
g82
g83
ssg71
g1211
sg64
(lp1218
S'http_accept_language'
p1219
asbag57
(g78
g59
NtRp1220
(dp1221
g62
(dp1222
g89
g90
ssg71
g1211
sg64
(lp1223
S':'
asbag57
(g78
g59
NtRp1224
(dp1225
g62
(dp1226
sg71
g1211
sg64
(lp1227
g57
(g58
g59
NtRp1228
(dp1229
g62
(dp1230
g70
I4
ssg71
g1224
sg64
(lp1231
S'en-us,en;q=0.5'
p1232
asbasbasbag57
(g73
g59
NtRp1233
(dp1234
g62
(dp1235
sg71
g1007
sg64
(lp1236
g57
(g78
g59
NtRp1237
(dp1238
g62
(dp1239
g82
g83
ssg71
g1233
sg64
(lp1240
S'http_connection'
p1241
asbag57
(g78
g59
NtRp1242
(dp1243
g62
(dp1244
g89
g90
ssg71
g1233
sg64
(lp1245
S':'
asbag57
(g78
g59
NtRp1246
(dp1247
g62
(dp1248
sg71
g1233
sg64
(lp1249
g57
(g58
g59
NtRp1250
(dp1251
g62
(dp1252
g70
I4
ssg71
g1246
sg64
(lp1253
S'keep-alive'
p1254
asbasbasbag57
(g73
g59
NtRp1255
(dp1256
g62
(dp1257
sg71
g1007
sg64
(lp1258
g57
(g78
g59
NtRp1259
(dp1260
g62
(dp1261
g82
g83
ssg71
g1255
sg64
(lp1262
S'http_cookie'
p1263
asbag57
(g78
g59
NtRp1264
(dp1265
g62
(dp1266
g89
g90
ssg71
g1255
sg64
(lp1267
S':'
asbag57
(g78
g59
NtRp1268
(dp1269
g62
(dp1270
sg71
g1255
sg64
(lp1271
g57
(g58
g59
NtRp1272
(dp1273
g62
(dp1274
g70
I4
ssg71
g1268
sg64
(lp1275
S'session_id_welcome=127.0.0.1-dcd0cbc0-5d03-4cd5-bbba-23fba68436dc; session_id_admin=127.0.0.1-e2cb3487-6a06-4fc6-89b2-9ca3e21819c3; session_id_manager=127.0.0.1-7f7bcb65-bef9-473d-a481-a3eba18d03c3; session_id_manager0=127.0.0.1-9886cce7-9933-4427-8b12-2c8d6497e6da'
p1276
asbasbasbag57
(g73
g59
NtRp1277
(dp1278
g62
(dp1279
sg71
g1007
sg64
(lp1280
g57
(g78
g59
NtRp1281
(dp1282
g62
(dp1283
g82
g83
ssg71
g1277
sg64
(lp1284
S'http_host'
p1285
asbag57
(g78
g59
NtRp1286
(dp1287
g62
(dp1288
g89
g90
ssg71
g1277
sg64
(lp1289
S':'
asbag57
(g78
g59
NtRp1290
(dp1291
g62
(dp1292
sg71
g1277
sg64
(lp1293
g57
(g58
g59
NtRp1294
(dp1295
g62
(dp1296
g70
I4
ssg71
g1290
sg64
(lp1297
S'127.0.0.1:8000'
p1298
asbasbasbag57
(g73
g59
NtRp1299
(dp1300
g62
(dp1301
sg71
g1007
sg64
(lp1302
g57
(g78
g59
NtRp1303
(dp1304
g62
(dp1305
g82
g83
ssg71
g1299
sg64
(lp1306
S'http_referer'
p1307
asbag57
(g78
g59
NtRp1308
(dp1309
g62
(dp1310
g89
g90
ssg71
g1299
sg64
(lp1311
S':'
asbag57
(g78
g59
NtRp1312
(dp1313
g62
(dp1314
sg71
g1299
sg64
(lp1315
g57
(g58
g59
NtRp1316
(dp1317
g62
(dp1318
g70
I4
ssg71
g1312
sg64
(lp1319
S'http://127.0.0.1:8000/manager/default/index'
p1320
asbasbasbag57
(g73
g59
NtRp1321
(dp1322
g62
(dp1323
sg71
g1007
sg64
(lp1324
g57
(g78
g59
NtRp1325
(dp1326
g62
(dp1327
g82
g83
ssg71
g1321
sg64
(lp1328
S'http_user_agent'
p1329
asbag57
(g78
g59
NtRp1330
(dp1331
g62
(dp1332
g89
g90
ssg71
g1321
sg64
(lp1333
S':'
asbag57
(g78
g59
NtRp1334
(dp1335
g62
(dp1336
sg71
g1321
sg64
(lp1337
g57
(g58
g59
NtRp1338
(dp1339
g62
(dp1340
g70
I4
ssg71
g1334
sg64
(lp1341
S'Mozilla/5.0 (X11; Ubuntu; Linux i686; rv:14.0) Gecko/20100101 Firefox/14.0.1'
p1342
asbasbasbag57
(g73
g59
NtRp1343
(dp1344
g62
(dp1345
sg71
g1007
sg64
(lp1346
g57
(g78
g59
NtRp1347
(dp1348
g62
(dp1349
g82
g83
ssg71
g1343
sg64
(lp1350
S'is_jython'
p1351
asbag57
(g78
g59
NtRp1352
(dp1353
g62
(dp1354
g89
g90
ssg71
g1343
sg64
(lp1355
S':'
asbag57
(g78
g59
NtRp1356
(dp1357
g62
(dp1358
sg71
g1343
sg64
(lp1359
g57
(g58
g59
NtRp1360
(dp1361
g62
(dp1362
g70
I4
ssg71
g1356
sg64
(lp1363
g100
asbasbasbag57
(g73
g59
NtRp1364
(dp1365
g62
(dp1366
sg71
g1007
sg64
(lp1367
g57
(g78
g59
NtRp1368
(dp1369
g62
(dp1370
g82
g83
ssg71
g1364
sg64
(lp1371
S'is_pypy'
p1372
asbag57
(g78
g59
NtRp1373
(dp1374
g62
(dp1375
g89
g90
ssg71
g1364
sg64
(lp1376
S':'
asbag57
(g78
g59
NtRp1377
(dp1378
g62
(dp1379
sg71
g1364
sg64
(lp1380
g57
(g58
g59
NtRp1381
(dp1382
g62
(dp1383
g70
I4
ssg71
g1377
sg64
(lp1384
g100
asbasbasbag57
(g73
g59
NtRp1385
(dp1386
g62
(dp1387
sg71
g1007
sg64
(lp1388
g57
(g78
g59
NtRp1389
(dp1390
g62
(dp1391
g82
g83
ssg71
g1385
sg64
(lp1392
S'path_info'
p1393
asbag57
(g78
g59
NtRp1394
(dp1395
g62
(dp1396
g89
g90
ssg71
g1385
sg64
(lp1397
S':'
asbag57
(g78
g59
NtRp1398
(dp1399
g62
(dp1400
sg71
g1385
sg64
(lp1401
g57
(g58
g59
NtRp1402
(dp1403
g62
(dp1404
g70
I4
ssg71
g1398
sg64
(lp1405
S'/manager/default/label'
p1406
asbasbasbag57
(g73
g59
NtRp1407
(dp1408
g62
(dp1409
sg71
g1007
sg64
(lp1410
g57
(g78
g59
NtRp1411
(dp1412
g62
(dp1413
g82
g83
ssg71
g1407
sg64
(lp1414
S'query_string'
p1415
asbag57
(g78
g59
NtRp1416
(dp1417
g62
(dp1418
g89
g90
ssg71
g1407
sg64
(lp1419
S':'
asbag57
(g78
g59
NtRp1420
(dp1421
g62
(dp1422
sg71
g1407
sg64
(lp1423
g57
(g58
g59
NtRp1424
(dp1425
g62
(dp1426
g70
I4
ssg71
g1420
sg64
(lp1427
S''
asbasbasbag57
(g73
g59
NtRp1428
(dp1429
g62
(dp1430
sg71
g1007
sg64
(lp1431
g57
(g78
g59
NtRp1432
(dp1433
g62
(dp1434
g82
g83
ssg71
g1428
sg64
(lp1435
S'remote_addr'
p1436
asbag57
(g78
g59
NtRp1437
(dp1438
g62
(dp1439
g89
g90
ssg71
g1428
sg64
(lp1440
S':'
asbag57
(g78
g59
NtRp1441
(dp1442
g62
(dp1443
sg71
g1428
sg64
(lp1444
g57
(g58
g59
NtRp1445
(dp1446
g62
(dp1447
g70
I4
ssg71
g1441
sg64
(lp1448
g190
asbasbasbag57
(g73
g59
NtRp1449
(dp1450
g62
(dp1451
sg71
g1007
sg64
(lp1452
g57
(g78
g59
NtRp1453
(dp1454
g62
(dp1455
g82
g83
ssg71
g1449
sg64
(lp1456
S'remote_port'
p1457
asbag57
(g78
g59
NtRp1458
(dp1459
g62
(dp1460
g89
g90
ssg71
g1449
sg64
(lp1461
S':'
asbag57
(g78
g59
NtRp1462
(dp1463
g62
(dp1464
sg71
g1449
sg64
(lp1465
g57
(g58
g59
NtRp1466
(dp1467
g62
(dp1468
g70
I4
ssg71
g1462
sg64
(lp1469
S'37102'
p1470
asbasbasbag57
(g73
g59
NtRp1471
(dp1472
g62
(dp1473
sg71
g1007
sg64
(lp1474
g57
(g78
g59
NtRp1475
(dp1476
g62
(dp1477
g82
g83
ssg71
g1471
sg64
(lp1478
S'request_method'
p1479
asbag57
(g78
g59
NtRp1480
(dp1481
g62
(dp1482
g89
g90
ssg71
g1471
sg64
(lp1483
S':'
asbag57
(g78
g59
NtRp1484
(dp1485
g62
(dp1486
sg71
g1471
sg64
(lp1487
g57
(g58
g59
NtRp1488
(dp1489
g62
(dp1490
g70
I4
ssg71
g1484
sg64
(lp1491
S'GET'
p1492
asbasbasbag57
(g73
g59
NtRp1493
(dp1494
g62
(dp1495
sg71
g1007
sg64
(lp1496
g57
(g78
g59
NtRp1497
(dp1498
g62
(dp1499
g82
g83
ssg71
g1493
sg64
(lp1500
S'script_name'
p1501
asbag57
(g78
g59
NtRp1502
(dp1503
g62
(dp1504
g89
g90
ssg71
g1493
sg64
(lp1505
S':'
asbag57
(g78
g59
NtRp1506
(dp1507
g62
(dp1508
sg71
g1493
sg64
(lp1509
g57
(g58
g59
NtRp1510
(dp1511
g62
(dp1512
g70
I4
ssg71
g1506
sg64
(lp1513
S''
asbasbasbag57
(g73
g59
NtRp1514
(dp1515
g62
(dp1516
sg71
g1007
sg64
(lp1517
g57
(g78
g59
NtRp1518
(dp1519
g62
(dp1520
g82
g83
ssg71
g1514
sg64
(lp1521
S'server_name'
p1522
asbag57
(g78
g59
NtRp1523
(dp1524
g62
(dp1525
g89
g90
ssg71
g1514
sg64
(lp1526
S':'
asbag57
(g78
g59
NtRp1527
(dp1528
g62
(dp1529
sg71
g1514
sg64
(lp1530
g57
(g58
g59
NtRp1531
(dp1532
g62
(dp1533
g70
I4
ssg71
g1527
sg64
(lp1534
S'unic-Inspiron-N5050'
p1535
asbasbasbag57
(g73
g59
NtRp1536
(dp1537
g62
(dp1538
sg71
g1007
sg64
(lp1539
g57
(g78
g59
NtRp1540
(dp1541
g62
(dp1542
g82
g83
ssg71
g1536
sg64
(lp1543
S'server_port'
p1544
asbag57
(g78
g59
NtRp1545
(dp1546
g62
(dp1547
g89
g90
ssg71
g1536
sg64
(lp1548
S':'
asbag57
(g78
g59
NtRp1549
(dp1550
g62
(dp1551
sg71
g1536
sg64
(lp1552
g57
(g58
g59
NtRp1553
(dp1554
g62
(dp1555
g70
I4
ssg71
g1549
sg64
(lp1556
S'8000'
p1557
asbasbasbag57
(g73
g59
NtRp1558
(dp1559
g62
(dp1560
sg71
g1007
sg64
(lp1561
g57
(g78
g59
NtRp1562
(dp1563
g62
(dp1564
g82
g83
ssg71
g1558
sg64
(lp1565
S'server_protocol'
p1566
asbag57
(g78
g59
NtRp1567
(dp1568
g62
(dp1569
g89
g90
ssg71
g1558
sg64
(lp1570
S':'
asbag57
(g78
g59
NtRp1571
(dp1572
g62
(dp1573
sg71
g1558
sg64
(lp1574
g57
(g58
g59
NtRp1575
(dp1576
g62
(dp1577
g70
I4
ssg71
g1571
sg64
(lp1578
S'HTTP/1.1'
p1579
asbasbasbag57
(g73
g59
NtRp1580
(dp1581
g62
(dp1582
sg71
g1007
sg64
(lp1583
g57
(g78
g59
NtRp1584
(dp1585
g62
(dp1586
g82
g83
ssg71
g1580
sg64
(lp1587
S'server_software'
p1588
asbag57
(g78
g59
NtRp1589
(dp1590
g62
(dp1591
g89
g90
ssg71
g1580
sg64
(lp1592
S':'
asbag57
(g78
g59
NtRp1593
(dp1594
g62
(dp1595
sg71
g1580
sg64
(lp1596
g57
(g58
g59
NtRp1597
(dp1598
g62
(dp1599
g70
I4
ssg71
g1593
sg64
(lp1600
S'Rocket 1.2.4'
p1601
asbasbasbag57
(g73
g59
NtRp1602
(dp1603
g62
(dp1604
sg71
g1007
sg64
(lp1605
g57
(g78
g59
NtRp1606
(dp1607
g62
(dp1608
g82
g83
ssg71
g1602
sg64
(lp1609
S'web2py_crontype'
p1610
asbag57
(g78
g59
NtRp1611
(dp1612
g62
(dp1613
g89
g90
ssg71
g1602
sg64
(lp1614
S':'
asbag57
(g78
g59
NtRp1615
(dp1616
g62
(dp1617
sg71
g1602
sg64
(lp1618
g57
(g58
g59
NtRp1619
(dp1620
g62
(dp1621
g70
I4
ssg71
g1615
sg64
(lp1622
S'hard'
p1623
asbasbasbag57
(g73
g59
NtRp1624
(dp1625
g62
(dp1626
sg71
g1007
sg64
(lp1627
g57
(g78
g59
NtRp1628
(dp1629
g62
(dp1630
g82
g83
ssg71
g1624
sg64
(lp1631
S'web2py_path'
p1632
asbag57
(g78
g59
NtRp1633
(dp1634
g62
(dp1635
g89
g90
ssg71
g1624
sg64
(lp1636
S':'
asbag57
(g78
g59
NtRp1637
(dp1638
g62
(dp1639
sg71
g1624
sg64
(lp1640
g57
(g58
g59
NtRp1641
(dp1642
g62
(dp1643
g70
I4
ssg71
g1637
sg64
(lp1644
g1054
asbasbasbag57
(g73
g59
NtRp1645
(dp1646
g62
(dp1647
sg71
g1007
sg64
(lp1648
g57
(g78
g59
NtRp1649
(dp1650
g62
(dp1651
g82
g83
ssg71
g1645
sg64
(lp1652
S'web2py_version'
p1653
asbag57
(g78
g59
NtRp1654
(dp1655
g62
(dp1656
g89
g90
ssg71
g1645
sg64
(lp1657
S':'
asbag57
(g78
g59
NtRp1658
(dp1659
g62
(dp1660
sg71
g1645
sg64
(lp1661
g57
(g58
g59
NtRp1662
(dp1663
g62
(dp1664
g70
I4
ssg71
g1658
sg64
(lp1665
g57
(g66
g59
NtRp1666
(dp1667
g62
(dp1668
g70
I3
ssg71
Nsg64
(lp1669
g57
(g73
g59
NtRp1670
(dp1671
g62
(dp1672
sg71
g1666
sg64
(lp1673
g57
(g78
g59
NtRp1674
(dp1675
g62
(dp1676
sg71
g1670
sg64
(lp1677
g57
(g58
g59
NtRp1678
(dp1679
g62
(dp1680
g70
I3
ssg71
g1674
sg64
(lp1681
S'1'
asbasbasbag57
(g73
g59
NtRp1682
(dp1683
g62
(dp1684
sg71
g1666
sg64
(lp1685
g57
(g78
g59
NtRp1686
(dp1687
g62
(dp1688
sg71
g1682
sg64
(lp1689
g57
(g58
g59
NtRp1690
(dp1691
g62
(dp1692
g70
I3
ssg71
g1686
sg64
(lp1693
S'99'
p1694
asbasbasbag57
(g73
g59
NtRp1695
(dp1696
g62
(dp1697
sg71
g1666
sg64
(lp1698
g57
(g78
g59
NtRp1699
(dp1700
g62
(dp1701
sg71
g1695
sg64
(lp1702
g57
(g58
g59
NtRp1703
(dp1704
g62
(dp1705
g70
I3
ssg71
g1699
sg64
(lp1706
S'4'
asbasbasbag57
(g73
g59
NtRp1707
(dp1708
g62
(dp1709
sg71
g1666
sg64
(lp1710
g57
(g78
g59
NtRp1711
(dp1712
g62
(dp1713
sg71
g1707
sg64
(lp1714
g57
(g58
g59
NtRp1715
(dp1716
g62
(dp1717
g70
I3
ssg71
g1711
sg64
(lp1718
S'datetime.datetime(2011, 12, 14, 14, 46, 14)'
p1719
asbasbasbag57
(g73
g59
NtRp1720
(dp1721
g62
(dp1722
sg71
g1666
sg64
(lp1723
g57
(g78
g59
NtRp1724
(dp1725
g62
(dp1726
sg71
g1720
sg64
(lp1727
g57
(g58
g59
NtRp1728
(dp1729
g62
(dp1730
g70
I3
ssg71
g1724
sg64
(lp1731
S'stable'
p1732
asbasbasbasbasbasbasbag57
(g73
g59
NtRp1733
(dp1734
g62
(dp1735
sg71
g1007
sg64
(lp1736
g57
(g78
g59
NtRp1737
(dp1738
g62
(dp1739
g82
g83
ssg71
g1733
sg64
(lp1740
S'wsgi_errors'
p1741
asbag57
(g78
g59
NtRp1742
(dp1743
g62
(dp1744
g89
g90
ssg71
g1733
sg64
(lp1745
S':'
asbag57
(g78
g59
NtRp1746
(dp1747
g62
(dp1748
sg71
g1733
sg64
(lp1749
g57
(g58
g59
NtRp1750
(dp1751
g62
(dp1752
g70
I4
ssg71
g1746
sg64
(lp1753
S"<open file '<stderr>', mode 'w' at 0xb72e50d0>"
p1754
asbasbasbag57
(g73
g59
NtRp1755
(dp1756
g62
(dp1757
sg71
g1007
sg64
(lp1758
g57
(g78
g59
NtRp1759
(dp1760
g62
(dp1761
g82
g83
ssg71
g1755
sg64
(lp1762
S'wsgi_file_wrapper'
p1763
asbag57
(g78
g59
NtRp1764
(dp1765
g62
(dp1766
g89
g90
ssg71
g1755
sg64
(lp1767
S':'
asbag57
(g78
g59
NtRp1768
(dp1769
g62
(dp1770
sg71
g1755
sg64
(lp1771
g57
(g58
g59
NtRp1772
(dp1773
g62
(dp1774
g70
I4
ssg71
g1768
sg64
(lp1775
S'<class wsgiref.util.FileWrapper at 0xa43b4ac>'
p1776
asbasbasbag57
(g73
g59
NtRp1777
(dp1778
g62
(dp1779
sg71
g1007
sg64
(lp1780
g57
(g78
g59
NtRp1781
(dp1782
g62
(dp1783
g82
g83
ssg71
g1777
sg64
(lp1784
S'wsgi_input'
p1785
asbag57
(g78
g59
NtRp1786
(dp1787
g62
(dp1788
g89
g90
ssg71
g1777
sg64
(lp1789
S':'
asbag57
(g78
g59
NtRp1790
(dp1791
g62
(dp1792
sg71
g1777
sg64
(lp1793
g57
(g58
g59
NtRp1794
(dp1795
g62
(dp1796
g70
I4
ssg71
g1790
sg64
(lp1797
S'<socket._fileobject object at 0xab84abac>'
p1798
asbasbasbag57
(g73
g59
NtRp1799
(dp1800
g62
(dp1801
sg71
g1007
sg64
(lp1802
g57
(g78
g59
NtRp1803
(dp1804
g62
(dp1805
g82
g83
ssg71
g1799
sg64
(lp1806
S'wsgi_multiprocess'
p1807
asbag57
(g78
g59
NtRp1808
(dp1809
g62
(dp1810
g89
g90
ssg71
g1799
sg64
(lp1811
S':'
asbag57
(g78
g59
NtRp1812
(dp1813
g62
(dp1814
sg71
g1799
sg64
(lp1815
g57
(g58
g59
NtRp1816
(dp1817
g62
(dp1818
g70
I4
ssg71
g1812
sg64
(lp1819
g100
asbasbasbag57
(g73
g59
NtRp1820
(dp1821
g62
(dp1822
sg71
g1007
sg64
(lp1823
g57
(g78
g59
NtRp1824
(dp1825
g62
(dp1826
g82
g83
ssg71
g1820
sg64
(lp1827
S'wsgi_multithread'
p1828
asbag57
(g78
g59
NtRp1829
(dp1830
g62
(dp1831
g89
g90
ssg71
g1820
sg64
(lp1832
S':'
asbag57
(g78
g59
NtRp1833
(dp1834
g62
(dp1835
sg71
g1820
sg64
(lp1836
g57
(g58
g59
NtRp1837
(dp1838
g62
(dp1839
g70
I4
ssg71
g1833
sg64
(lp1840
S'True'
p1841
asbasbasbag57
(g73
g59
NtRp1842
(dp1843
g62
(dp1844
sg71
g1007
sg64
(lp1845
g57
(g78
g59
NtRp1846
(dp1847
g62
(dp1848
g82
g83
ssg71
g1842
sg64
(lp1849
S'wsgi_run_once'
p1850
asbag57
(g78
g59
NtRp1851
(dp1852
g62
(dp1853
g89
g90
ssg71
g1842
sg64
(lp1854
S':'
asbag57
(g78
g59
NtRp1855
(dp1856
g62
(dp1857
sg71
g1842
sg64
(lp1858
g57
(g58
g59
NtRp1859
(dp1860
g62
(dp1861
g70
I4
ssg71
g1855
sg64
(lp1862
g100
asbasbasbag57
(g73
g59
NtRp1863
(dp1864
g62
(dp1865
sg71
g1007
sg64
(lp1866
g57
(g78
g59
NtRp1867
(dp1868
g62
(dp1869
g82
g83
ssg71
g1863
sg64
(lp1870
S'wsgi_url_scheme'
p1871
asbag57
(g78
g59
NtRp1872
(dp1873
g62
(dp1874
g89
g90
ssg71
g1863
sg64
(lp1875
S':'
asbag57
(g78
g59
NtRp1876
(dp1877
g62
(dp1878
sg71
g1863
sg64
(lp1879
g57
(g58
g59
NtRp1880
(dp1881
g62
(dp1882
g70
I4
ssg71
g1876
sg64
(lp1883
S'http'
p1884
asbasbasbag57
(g73
g59
NtRp1885
(dp1886
g62
(dp1887
sg71
g1007
sg64
(lp1888
g57
(g78
g59
NtRp1889
(dp1890
g62
(dp1891
g82
g83
ssg71
g1885
sg64
(lp1892
S'wsgi_version'
p1893
asbag57
(g78
g59
NtRp1894
(dp1895
g62
(dp1896
g89
g90
ssg71
g1885
sg64
(lp1897
S':'
asbag57
(g78
g59
NtRp1898
(dp1899
g62
(dp1900
sg71
g1885
sg64
(lp1901
g57
(g58
g59
NtRp1902
(dp1903
g62
(dp1904
g70
I4
ssg71
g1898
sg64
(lp1905
g57
(g66
g59
NtRp1906
(dp1907
g62
(dp1908
g70
I3
ssg71
Nsg64
(lp1909
g57
(g73
g59
NtRp1910
(dp1911
g62
(dp1912
sg71
g1906
sg64
(lp1913
g57
(g78
g59
NtRp1914
(dp1915
g62
(dp1916
sg71
g1910
sg64
(lp1917
g57
(g58
g59
NtRp1918
(dp1919
g62
(dp1920
g70
I3
ssg71
g1914
sg64
(lp1921
S'1'
asbasbasbag57
(g73
g59
NtRp1922
(dp1923
g62
(dp1924
sg71
g1906
sg64
(lp1925
g57
(g78
g59
NtRp1926
(dp1927
g62
(dp1928
sg71
g1922
sg64
(lp1929
g57
(g58
g59
NtRp1930
(dp1931
g62
(dp1932
g70
I3
ssg71
g1926
sg64
(lp1933
S'0'
asbasbasbasbasbasbasbasbasbasbasbag57
(g73
g59
NtRp1934
(dp1935
g62
(dp1936
sg71
g67
sg64
(lp1937
g57
(g78
g59
NtRp1938
(dp1939
g62
(dp1940
g82
g83
ssg71
g1934
sg64
(lp1941
S'extension'
p1942
asbag57
(g78
g59
NtRp1943
(dp1944
g62
(dp1945
g89
g90
ssg71
g1934
sg64
(lp1946
S':'
asbag57
(g78
g59
NtRp1947
(dp1948
g62
(dp1949
sg71
g1934
sg64
(lp1950
g57
(g58
g59
NtRp1951
(dp1952
g62
(dp1953
g70
I5
ssg71
g1947
sg64
(lp1954
S'html'
p1955
asbasbasbag57
(g73
g59
NtRp1956
(dp1957
g62
(dp1958
sg71
g67
sg64
(lp1959
g57
(g78
g59
NtRp1960
(dp1961
g62
(dp1962
g82
g83
ssg71
g1956
sg64
(lp1963
S'folder'
p1964
asbag57
(g78
g59
NtRp1965
(dp1966
g62
(dp1967
g89
g90
ssg71
g1956
sg64
(lp1968
S':'
asbag57
(g78
g59
NtRp1969
(dp1970
g62
(dp1971
sg71
g1956
sg64
(lp1972
g57
(g58
g59
NtRp1973
(dp1974
g62
(dp1975
g70
I5
ssg71
g1969
sg64
(lp1976
S'/home/unic/web2py/applications/manager/'
p1977
asbasbasbag57
(g73
g59
NtRp1978
(dp1979
g62
(dp1980
sg71
g67
sg64
(lp1981
g57
(g78
g59
NtRp1982
(dp1983
g62
(dp1984
g82
g83
ssg71
g1978
sg64
(lp1985
S'function'
p1986
asbag57
(g78
g59
NtRp1987
(dp1988
g62
(dp1989
g89
g90
ssg71
g1978
sg64
(lp1990
S':'
asbag57
(g78
g59
NtRp1991
(dp1992
g62
(dp1993
sg71
g1978
sg64
(lp1994
g57
(g58
g59
NtRp1995
(dp1996
g62
(dp1997
g70
I5
ssg71
g1991
sg64
(lp1998
S'label'
p1999
asbasbasbag57
(g73
g59
NtRp2000
(dp2001
g62
(dp2002
sg71
g67
sg64
(lp2003
g57
(g78
g59
NtRp2004
(dp2005
g62
(dp2006
g82
g83
ssg71
g2000
sg64
(lp2007
S'get_vars'
p2008
asbag57
(g78
g59
NtRp2009
(dp2010
g62
(dp2011
g89
g90
ssg71
g2000
sg64
(lp2012
S':'
asbag57
(g78
g59
NtRp2013
(dp2014
g62
(dp2015
sg71
g2000
sg64
(lp2016
g57
(g58
g59
NtRp2017
(dp2018
g62
(dp2019
g70
I5
ssg71
g2013
sg64
(lp2020
g57
(g66
g59
NtRp2021
(dp2022
g62
(dp2023
g70
I4
ssg71
Nsg64
(lp2024
sbasbasbasbag57
(g73
g59
NtRp2025
(dp2026
g62
(dp2027
sg71
g67
sg64
(lp2028
g57
(g78
g59
NtRp2029
(dp2030
g62
(dp2031
g82
g83
ssg71
g2025
sg64
(lp2032
S'global_settings'
p2033
asbag57
(g78
g59
NtRp2034
(dp2035
g62
(dp2036
g89
g90
ssg71
g2025
sg64
(lp2037
S':'
asbag57
(g78
g59
NtRp2038
(dp2039
g62
(dp2040
sg71
g2025
sg64
(lp2041
g57
(g58
g59
NtRp2042
(dp2043
g62
(dp2044
g70
I5
ssg71
g2038
sg64
(lp2045
g57
(g66
g59
NtRp2046
(dp2047
g62
(dp2048
g70
I4
ssg71
Nsg64
(lp2049
g57
(g73
g59
NtRp2050
(dp2051
g62
(dp2052
sg71
g2046
sg64
(lp2053
g57
(g78
g59
NtRp2054
(dp2055
g62
(dp2056
g82
g83
ssg71
g2050
sg64
(lp2057
g1019
asbag57
(g78
g59
NtRp2058
(dp2059
g62
(dp2060
g89
g90
ssg71
g2050
sg64
(lp2061
S':'
asbag57
(g78
g59
NtRp2062
(dp2063
g62
(dp2064
sg71
g2050
sg64
(lp2065
g57
(g58
g59
NtRp2066
(dp2067
g62
(dp2068
g70
I4
ssg71
g2062
sg64
(lp2069
S"set(['/home/unic/web2py/applications/manager/', '/home/unic/web2py/applications/admin/', '/home/unic/web2py/applications/manager0/', '/home/unic/web2py/applications/welcome/'])"
p2070
asbasbasbag57
(g73
g59
NtRp2071
(dp2072
g62
(dp2073
sg71
g2046
sg64
(lp2074
g57
(g78
g59
NtRp2075
(dp2076
g62
(dp2077
g82
g83
ssg71
g2071
sg64
(lp2078
g1041
asbag57
(g78
g59
NtRp2079
(dp2080
g62
(dp2081
g89
g90
ssg71
g2071
sg64
(lp2082
S':'
asbag57
(g78
g59
NtRp2083
(dp2084
g62
(dp2085
sg71
g2071
sg64
(lp2086
g57
(g58
g59
NtRp2087
(dp2088
g62
(dp2089
g70
I4
ssg71
g2083
sg64
(lp2090
g1054
asbasbasbag57
(g73
g59
NtRp2091
(dp2092
g62
(dp2093
sg71
g2046
sg64
(lp2094
g57
(g78
g59
NtRp2095
(dp2096
g62
(dp2097
g82
g83
ssg71
g2091
sg64
(lp2098
g1063
asbag57
(g78
g59
NtRp2099
(dp2100
g62
(dp2101
g89
g90
ssg71
g2091
sg64
(lp2102
S':'
asbag57
(g78
g59
NtRp2103
(dp2104
g62
(dp2105
sg71
g2091
sg64
(lp2106
g57
(g58
g59
NtRp2107
(dp2108
g62
(dp2109
g70
I4
ssg71
g2103
sg64
(lp2110
g57
(g66
g59
NtRp2111
(dp2112
g62
(dp2113
g70
I3
ssg71
Nsg64
(lp2114
sbasbasbasbag57
(g73
g59
NtRp2115
(dp2116
g62
(dp2117
sg71
g2046
sg64
(lp2118
g57
(g78
g59
NtRp2119
(dp2120
g62
(dp2121
g82
g83
ssg71
g2115
sg64
(lp2122
g1088
asbag57
(g78
g59
NtRp2123
(dp2124
g62
(dp2125
g89
g90
ssg71
g2115
sg64
(lp2126
S':'
asbag57
(g78
g59
NtRp2127
(dp2128
g62
(dp2129
sg71
g2115
sg64
(lp2130
g57
(g58
g59
NtRp2131
(dp2132
g62
(dp2133
g70
I4
ssg71
g2127
sg64
(lp2134
S"<Values at 0xa49080c: {'verbose': False, 'ip': '127.0.0.1', 'shutdown_timeout': 5, 'taskbar': False, 'port': 8000, 'maxthreads': None, 'softcron': False, 'server_name': 'unic-Inspiron-N5050', 'bpython': False, 'nogui': False, 'nocron': False, 'extcron': False, 'debuglevel': 30, 'test': None, 'folder': '/home/unic/web2py', 'config': '', 'import_models': False, 'winservice': '', 'shell': None, 'run': '', 'log_filename': 'httpserver.log', 'args': [''], 'socket_timeout': 1, 'profiler_filename': None, 'ssl_private_key': '', 'password': '<ask>', 'request_queue_size': 5, 'ssl_certificate': '', 'cronjob': False, 'plain': False, 'quiet': False, 'interfaces': None, 'minthreads': None, 'timeout': 10, 'numthreads': None, 'nobanner': False, 'pid_filename': 'httpserver.pid'}>"
p2135
asbasbasbag57
(g73
g59
NtRp2136
(dp2137
g62
(dp2138
sg71
g2046
sg64
(lp2139
g57
(g78
g59
NtRp2140
(dp2141
g62
(dp2142
g82
g83
ssg71
g2136
sg64
(lp2143
g1110
asbag57
(g78
g59
NtRp2144
(dp2145
g62
(dp2146
g89
g90
ssg71
g2136
sg64
(lp2147
S':'
asbag57
(g78
g59
NtRp2148
(dp2149
g62
(dp2150
sg71
g2136
sg64
(lp2151
g57
(g58
g59
NtRp2152
(dp2153
g62
(dp2154
g70
I4
ssg71
g2148
sg64
(lp2155
S'set([])'
p2156
asbasbasbag57
(g73
g59
NtRp2157
(dp2158
g62
(dp2159
sg71
g2046
sg64
(lp2160
g57
(g78
g59
NtRp2161
(dp2162
g62
(dp2163
g82
g83
ssg71
g2157
sg64
(lp2164
g1132
asbag57
(g78
g59
NtRp2165
(dp2166
g62
(dp2167
g89
g90
ssg71
g2157
sg64
(lp2168
S':'
asbag57
(g78
g59
NtRp2169
(dp2170
g62
(dp2171
sg71
g2157
sg64
(lp2172
g57
(g58
g59
NtRp2173
(dp2174
g62
(dp2175
g70
I4
ssg71
g2169
sg64
(lp2176
g100
asbasbasbag57
(g73
g59
NtRp2177
(dp2178
g62
(dp2179
sg71
g2046
sg64
(lp2180
g57
(g78
g59
NtRp2181
(dp2182
g62
(dp2183
g82
g83
ssg71
g2177
sg64
(lp2184
g1153
asbag57
(g78
g59
NtRp2185
(dp2186
g62
(dp2187
g89
g90
ssg71
g2177
sg64
(lp2188
S':'
asbag57
(g78
g59
NtRp2189
(dp2190
g62
(dp2191
sg71
g2177
sg64
(lp2192
g57
(g58
g59
NtRp2193
(dp2194
g62
(dp2195
g70
I4
ssg71
g2189
sg64
(lp2196
g1166
asbasbasbag57
(g73
g59
NtRp2197
(dp2198
g62
(dp2199
sg71
g2046
sg64
(lp2200
g57
(g78
g59
NtRp2201
(dp2202
g62
(dp2203
g82
g83
ssg71
g2197
sg64
(lp2204
g1351
asbag57
(g78
g59
NtRp2205
(dp2206
g62
(dp2207
g89
g90
ssg71
g2197
sg64
(lp2208
S':'
asbag57
(g78
g59
NtRp2209
(dp2210
g62
(dp2211
sg71
g2197
sg64
(lp2212
g57
(g58
g59
NtRp2213
(dp2214
g62
(dp2215
g70
I4
ssg71
g2209
sg64
(lp2216
g100
asbasbasbag57
(g73
g59
NtRp2217
(dp2218
g62
(dp2219
sg71
g2046
sg64
(lp2220
g57
(g78
g59
NtRp2221
(dp2222
g62
(dp2223
g82
g83
ssg71
g2217
sg64
(lp2224
g1372
asbag57
(g78
g59
NtRp2225
(dp2226
g62
(dp2227
g89
g90
ssg71
g2217
sg64
(lp2228
S':'
asbag57
(g78
g59
NtRp2229
(dp2230
g62
(dp2231
sg71
g2217
sg64
(lp2232
g57
(g58
g59
NtRp2233
(dp2234
g62
(dp2235
g70
I4
ssg71
g2229
sg64
(lp2236
g100
asbasbasbag57
(g73
g59
NtRp2237
(dp2238
g62
(dp2239
sg71
g2046
sg64
(lp2240
g57
(g78
g59
NtRp2241
(dp2242
g62
(dp2243
g82
g83
ssg71
g2237
sg64
(lp2244
g1610
asbag57
(g78
g59
NtRp2245
(dp2246
g62
(dp2247
g89
g90
ssg71
g2237
sg64
(lp2248
S':'
asbag57
(g78
g59
NtRp2249
(dp2250
g62
(dp2251
sg71
g2237
sg64
(lp2252
g57
(g58
g59
NtRp2253
(dp2254
g62
(dp2255
g70
I4
ssg71
g2249
sg64
(lp2256
g1623
asbasbasbag57
(g73
g59
NtRp2257
(dp2258
g62
(dp2259
sg71
g2046
sg64
(lp2260
g57
(g78
g59
NtRp2261
(dp2262
g62
(dp2263
g82
g83
ssg71
g2257
sg64
(lp2264
g1653
asbag57
(g78
g59
NtRp2265
(dp2266
g62
(dp2267
g89
g90
ssg71
g2257
sg64
(lp2268
S':'
asbag57
(g78
g59
NtRp2269
(dp2270
g62
(dp2271
sg71
g2257
sg64
(lp2272
g57
(g58
g59
NtRp2273
(dp2274
g62
(dp2275
g70
I4
ssg71
g2269
sg64
(lp2276
g57
(g66
g59
NtRp2277
(dp2278
g62
(dp2279
g70
I3
ssg71
Nsg64
(lp2280
g57
(g73
g59
NtRp2281
(dp2282
g62
(dp2283
sg71
g2277
sg64
(lp2284
g57
(g78
g59
NtRp2285
(dp2286
g62
(dp2287
sg71
g2281
sg64
(lp2288
g57
(g58
g59
NtRp2289
(dp2290
g62
(dp2291
g70
I3
ssg71
g2285
sg64
(lp2292
S'1'
asbasbasbag57
(g73
g59
NtRp2293
(dp2294
g62
(dp2295
sg71
g2277
sg64
(lp2296
g57
(g78
g59
NtRp2297
(dp2298
g62
(dp2299
sg71
g2293
sg64
(lp2300
g57
(g58
g59
NtRp2301
(dp2302
g62
(dp2303
g70
I3
ssg71
g2297
sg64
(lp2304
S'99'
p2305
asbasbasbag57
(g73
g59
NtRp2306
(dp2307
g62
(dp2308
sg71
g2277
sg64
(lp2309
g57
(g78
g59
NtRp2310
(dp2311
g62
(dp2312
sg71
g2306
sg64
(lp2313
g57
(g58
g59
NtRp2314
(dp2315
g62
(dp2316
g70
I3
ssg71
g2310
sg64
(lp2317
S'4'
asbasbasbag57
(g73
g59
NtRp2318
(dp2319
g62
(dp2320
sg71
g2277
sg64
(lp2321
g57
(g78
g59
NtRp2322
(dp2323
g62
(dp2324
sg71
g2318
sg64
(lp2325
g57
(g58
g59
NtRp2326
(dp2327
g62
(dp2328
g70
I3
ssg71
g2322
sg64
(lp2329
S'datetime.datetime(2011, 12, 14, 14, 46, 14)'
p2330
asbasbasbag57
(g73
g59
NtRp2331
(dp2332
g62
(dp2333
sg71
g2277
sg64
(lp2334
g57
(g78
g59
NtRp2335
(dp2336
g62
(dp2337
sg71
g2331
sg64
(lp2338
g57
(g58
g59
NtRp2339
(dp2340
g62
(dp2341
g70
I3
ssg71
g2335
sg64
(lp2342
g1732
asbasbasbasbasbasbasbasbasbasbasbag57
(g73
g59
NtRp2343
(dp2344
g62
(dp2345
sg71
g67
sg64
(lp2346
g57
(g78
g59
NtRp2347
(dp2348
g62
(dp2349
g82
g83
ssg71
g2343
sg64
(lp2350
S'is_https'
p2351
asbag57
(g78
g59
NtRp2352
(dp2353
g62
(dp2354
g89
g90
ssg71
g2343
sg64
(lp2355
S':'
asbag57
(g78
g59
NtRp2356
(dp2357
g62
(dp2358
sg71
g2343
sg64
(lp2359
g57
(g58
g59
NtRp2360
(dp2361
g62
(dp2362
g70
I5
ssg71
g2356
sg64
(lp2363
g100
asbasbasbag57
(g73
g59
NtRp2364
(dp2365
g62
(dp2366
sg71
g67
sg64
(lp2367
g57
(g78
g59
NtRp2368
(dp2369
g62
(dp2370
g82
g83
ssg71
g2364
sg64
(lp2371
S'is_local'
p2372
asbag57
(g78
g59
NtRp2373
(dp2374
g62
(dp2375
g89
g90
ssg71
g2364
sg64
(lp2376
S':'
asbag57
(g78
g59
NtRp2377
(dp2378
g62
(dp2379
sg71
g2364
sg64
(lp2380
g57
(g58
g59
NtRp2381
(dp2382
g62
(dp2383
g70
I5
ssg71
g2377
sg64
(lp2384
g1841
asbasbasbag57
(g73
g59
NtRp2385
(dp2386
g62
(dp2387
sg71
g67
sg64
(lp2388
g57
(g78
g59
NtRp2389
(dp2390
g62
(dp2391
g82
g83
ssg71
g2385
sg64
(lp2392
S'is_restful'
p2393
asbag57
(g78
g59
NtRp2394
(dp2395
g62
(dp2396
g89
g90
ssg71
g2385
sg64
(lp2397
S':'
asbag57
(g78
g59
NtRp2398
(dp2399
g62
(dp2400
sg71
g2385
sg64
(lp2401
g57
(g58
g59
NtRp2402
(dp2403
g62
(dp2404
g70
I5
ssg71
g2398
sg64
(lp2405
g100
asbasbasbag57
(g73
g59
NtRp2406
(dp2407
g62
(dp2408
sg71
g67
sg64
(lp2409
g57
(g78
g59
NtRp2410
(dp2411
g62
(dp2412
g82
g83
ssg71
g2406
sg64
(lp2413
S'now'
p2414
asbag57
(g78
g59
NtRp2415
(dp2416
g62
(dp2417
g89
g90
ssg71
g2406
sg64
(lp2418
S':'
asbag57
(g78
g59
NtRp2419
(dp2420
g62
(dp2421
sg71
g2406
sg64
(lp2422
g57
(g58
g59
NtRp2423
(dp2424
g62
(dp2425
g70
I5
ssg71
g2419
sg64
(lp2426
S'datetime.datetime(2012, 11, 11, 2, 30, 49, 163515)'
p2427
asbasbasbag57
(g73
g59
NtRp2428
(dp2429
g62
(dp2430
sg71
g67
sg64
(lp2431
g57
(g78
g59
NtRp2432
(dp2433
g62
(dp2434
g82
g83
ssg71
g2428
sg64
(lp2435
S'post_vars'
p2436
asbag57
(g78
g59
NtRp2437
(dp2438
g62
(dp2439
g89
g90
ssg71
g2428
sg64
(lp2440
S':'
asbag57
(g78
g59
NtRp2441
(dp2442
g62
(dp2443
sg71
g2428
sg64
(lp2444
g57
(g58
g59
NtRp2445
(dp2446
g62
(dp2447
g70
I5
ssg71
g2441
sg64
(lp2448
g57
(g66
g59
NtRp2449
(dp2450
g62
(dp2451
g70
I4
ssg71
Nsg64
(lp2452
sbasbasbasbag57
(g73
g59
NtRp2453
(dp2454
g62
(dp2455
sg71
g67
sg64
(lp2456
g57
(g78
g59
NtRp2457
(dp2458
g62
(dp2459
g82
g83
ssg71
g2453
sg64
(lp2460
S'url'
p2461
asbag57
(g78
g59
NtRp2462
(dp2463
g62
(dp2464
g89
g90
ssg71
g2453
sg64
(lp2465
S':'
asbag57
(g78
g59
NtRp2466
(dp2467
g62
(dp2468
sg71
g2453
sg64
(lp2469
g57
(g58
g59
NtRp2470
(dp2471
g62
(dp2472
g70
I5
ssg71
g2466
sg64
(lp2473
S'/manager/default/label'
p2474
asbasbasbag57
(g73
g59
NtRp2475
(dp2476
g62
(dp2477
sg71
g67
sg64
(lp2478
g57
(g78
g59
NtRp2479
(dp2480
g62
(dp2481
g82
g83
ssg71
g2475
sg64
(lp2482
S'utcnow'
p2483
asbag57
(g78
g59
NtRp2484
(dp2485
g62
(dp2486
g89
g90
ssg71
g2475
sg64
(lp2487
S':'
asbag57
(g78
g59
NtRp2488
(dp2489
g62
(dp2490
sg71
g2475
sg64
(lp2491
g57
(g58
g59
NtRp2492
(dp2493
g62
(dp2494
g70
I5
ssg71
g2488
sg64
(lp2495
S'datetime.datetime(2012, 11, 10, 21, 0, 49, 163537)'
p2496
asbasbasbag57
(g73
g59
NtRp2497
(dp2498
g62
(dp2499
sg71
g67
sg64
(lp2500
g57
(g78
g59
NtRp2501
(dp2502
g62
(dp2503
g82
g83
ssg71
g2497
sg64
(lp2504
S'uuid'
p2505
asbag57
(g78
g59
NtRp2506
(dp2507
g62
(dp2508
g89
g90
ssg71
g2497
sg64
(lp2509
S':'
asbag57
(g78
g59
NtRp2510
(dp2511
g62
(dp2512
sg71
g2497
sg64
(lp2513
g57
(g58
g59
NtRp2514
(dp2515
g62
(dp2516
g70
I5
ssg71
g2510
sg64
(lp2517
S'manager/127.0.0.1.2012-11-11.02-30-49.191a8ba6-024c-472b-9db8-528dcd5fe02f'
p2518
asbasbasbag57
(g73
g59
NtRp2519
(dp2520
g62
(dp2521
sg71
g67
sg64
(lp2522
g57
(g78
g59
NtRp2523
(dp2524
g62
(dp2525
g82
g83
ssg71
g2519
sg64
(lp2526
S'vars'
p2527
asbag57
(g78
g59
NtRp2528
(dp2529
g62
(dp2530
g89
g90
ssg71
g2519
sg64
(lp2531
S':'
asbag57
(g78
g59
NtRp2532
(dp2533
g62
(dp2534
sg71
g2519
sg64
(lp2535
g57
(g58
g59
NtRp2536
(dp2537
g62
(dp2538
g70
I5
ssg71
g2532
sg64
(lp2539
g57
(g66
g59
NtRp2540
(dp2541
g62
(dp2542
g70
I4
ssg71
Nsg64
(lp2543
sbasbasbasbag57
(g73
g59
NtRp2544
(dp2545
g62
(dp2546
sg71
g67
sg64
(lp2547
g57
(g78
g59
NtRp2548
(dp2549
g62
(dp2550
g82
g83
ssg71
g2544
sg64
(lp2551
S'wsgi'
p2552
asbag57
(g78
g59
NtRp2553
(dp2554
g62
(dp2555
g89
g90
ssg71
g2544
sg64
(lp2556
S':'
asbag57
(g78
g59
NtRp2557
(dp2558
g62
(dp2559
sg71
g2544
sg64
(lp2560
g57
(g58
g59
NtRp2561
(dp2562
g62
(dp2563
g70
I5
ssg71
g2557
sg64
(lp2564
g57
(g66
g59
NtRp2565
(dp2566
g62
(dp2567
g70
I4
ssg71
Nsg64
(lp2568
g57
(g73
g59
NtRp2569
(dp2570
g62
(dp2571
sg71
g2565
sg64
(lp2572
g57
(g78
g59
NtRp2573
(dp2574
g62
(dp2575
g82
g83
ssg71
g2569
sg64
(lp2576
S'environ'
p2577
asbag57
(g78
g59
NtRp2578
(dp2579
g62
(dp2580
g89
g90
ssg71
g2569
sg64
(lp2581
S':'
asbag57
(g78
g59
NtRp2582
(dp2583
g62
(dp2584
sg71
g2569
sg64
(lp2585
g57
(g58
g59
NtRp2586
(dp2587
g62
(dp2588
g70
I4
ssg71
g2582
sg64
(lp2589
g57
(g66
g59
NtRp2590
(dp2591
g62
(dp2592
g70
I3
ssg71
Nsg64
(lp2593
g57
(g73
g59
NtRp2594
(dp2595
g62
(dp2596
sg71
g2590
sg64
(lp2597
g57
(g78
g59
NtRp2598
(dp2599
g62
(dp2600
g82
g83
ssg71
g2594
sg64
(lp2601
S'HTTP_ACCEPT'
p2602
asbag57
(g78
g59
NtRp2603
(dp2604
g62
(dp2605
g89
g90
ssg71
g2594
sg64
(lp2606
S':'
asbag57
(g78
g59
NtRp2607
(dp2608
g62
(dp2609
sg71
g2594
sg64
(lp2610
g57
(g58
g59
NtRp2611
(dp2612
g62
(dp2613
g70
I3
ssg71
g2607
sg64
(lp2614
g1188
asbasbasbag57
(g73
g59
NtRp2615
(dp2616
g62
(dp2617
sg71
g2590
sg64
(lp2618
g57
(g78
g59
NtRp2619
(dp2620
g62
(dp2621
g82
g83
ssg71
g2615
sg64
(lp2622
S'HTTP_ACCEPT_ENCODING'
p2623
asbag57
(g78
g59
NtRp2624
(dp2625
g62
(dp2626
g89
g90
ssg71
g2615
sg64
(lp2627
S':'
asbag57
(g78
g59
NtRp2628
(dp2629
g62
(dp2630
sg71
g2615
sg64
(lp2631
g57
(g58
g59
NtRp2632
(dp2633
g62
(dp2634
g70
I3
ssg71
g2628
sg64
(lp2635
g1210
asbasbasbag57
(g73
g59
NtRp2636
(dp2637
g62
(dp2638
sg71
g2590
sg64
(lp2639
g57
(g78
g59
NtRp2640
(dp2641
g62
(dp2642
g82
g83
ssg71
g2636
sg64
(lp2643
S'HTTP_ACCEPT_LANGUAGE'
p2644
asbag57
(g78
g59
NtRp2645
(dp2646
g62
(dp2647
g89
g90
ssg71
g2636
sg64
(lp2648
S':'
asbag57
(g78
g59
NtRp2649
(dp2650
g62
(dp2651
sg71
g2636
sg64
(lp2652
g57
(g58
g59
NtRp2653
(dp2654
g62
(dp2655
g70
I3
ssg71
g2649
sg64
(lp2656
g1232
asbasbasbag57
(g73
g59
NtRp2657
(dp2658
g62
(dp2659
sg71
g2590
sg64
(lp2660
g57
(g78
g59
NtRp2661
(dp2662
g62
(dp2663
g82
g83
ssg71
g2657
sg64
(lp2664
S'HTTP_CONNECTION'
p2665
asbag57
(g78
g59
NtRp2666
(dp2667
g62
(dp2668
g89
g90
ssg71
g2657
sg64
(lp2669
S':'
asbag57
(g78
g59
NtRp2670
(dp2671
g62
(dp2672
sg71
g2657
sg64
(lp2673
g57
(g58
g59
NtRp2674
(dp2675
g62
(dp2676
g70
I3
ssg71
g2670
sg64
(lp2677
g1254
asbasbasbag57
(g73
g59
NtRp2678
(dp2679
g62
(dp2680
sg71
g2590
sg64
(lp2681
g57
(g78
g59
NtRp2682
(dp2683
g62
(dp2684
g82
g83
ssg71
g2678
sg64
(lp2685
S'HTTP_COOKIE'
p2686
asbag57
(g78
g59
NtRp2687
(dp2688
g62
(dp2689
g89
g90
ssg71
g2678
sg64
(lp2690
S':'
asbag57
(g78
g59
NtRp2691
(dp2692
g62
(dp2693
sg71
g2678
sg64
(lp2694
g57
(g58
g59
NtRp2695
(dp2696
g62
(dp2697
g70
I3
ssg71
g2691
sg64
(lp2698
g1276
asbasbasbag57
(g73
g59
NtRp2699
(dp2700
g62
(dp2701
sg71
g2590
sg64
(lp2702
g57
(g78
g59
NtRp2703
(dp2704
g62
(dp2705
g82
g83
ssg71
g2699
sg64
(lp2706
S'HTTP_HOST'
p2707
asbag57
(g78
g59
NtRp2708
(dp2709
g62
(dp2710
g89
g90
ssg71
g2699
sg64
(lp2711
S':'
asbag57
(g78
g59
NtRp2712
(dp2713
g62
(dp2714
sg71
g2699
sg64
(lp2715
g57
(g58
g59
NtRp2716
(dp2717
g62
(dp2718
g70
I3
ssg71
g2712
sg64
(lp2719
g1298
asbasbasbag57
(g73
g59
NtRp2720
(dp2721
g62
(dp2722
sg71
g2590
sg64
(lp2723
g57
(g78
g59
NtRp2724
(dp2725
g62
(dp2726
g82
g83
ssg71
g2720
sg64
(lp2727
S'HTTP_REFERER'
p2728
asbag57
(g78
g59
NtRp2729
(dp2730
g62
(dp2731
g89
g90
ssg71
g2720
sg64
(lp2732
S':'
asbag57
(g78
g59
NtRp2733
(dp2734
g62
(dp2735
sg71
g2720
sg64
(lp2736
g57
(g58
g59
NtRp2737
(dp2738
g62
(dp2739
g70
I3
ssg71
g2733
sg64
(lp2740
g1320
asbasbasbag57
(g73
g59
NtRp2741
(dp2742
g62
(dp2743
sg71
g2590
sg64
(lp2744
g57
(g78
g59
NtRp2745
(dp2746
g62
(dp2747
g82
g83
ssg71
g2741
sg64
(lp2748
S'HTTP_USER_AGENT'
p2749
asbag57
(g78
g59
NtRp2750
(dp2751
g62
(dp2752
g89
g90
ssg71
g2741
sg64
(lp2753
S':'
asbag57
(g78
g59
NtRp2754
(dp2755
g62
(dp2756
sg71
g2741
sg64
(lp2757
g57
(g58
g59
NtRp2758
(dp2759
g62
(dp2760
g70
I3
ssg71
g2754
sg64
(lp2761
g1342
asbasbasbag57
(g73
g59
NtRp2762
(dp2763
g62
(dp2764
sg71
g2590
sg64
(lp2765
g57
(g78
g59
NtRp2766
(dp2767
g62
(dp2768
g82
g83
ssg71
g2762
sg64
(lp2769
S'PATH_INFO'
p2770
asbag57
(g78
g59
NtRp2771
(dp2772
g62
(dp2773
g89
g90
ssg71
g2762
sg64
(lp2774
S':'
asbag57
(g78
g59
NtRp2775
(dp2776
g62
(dp2777
sg71
g2762
sg64
(lp2778
g57
(g58
g59
NtRp2779
(dp2780
g62
(dp2781
g70
I3
ssg71
g2775
sg64
(lp2782
g1406
asbasbasbag57
(g73
g59
NtRp2783
(dp2784
g62
(dp2785
sg71
g2590
sg64
(lp2786
g57
(g78
g59
NtRp2787
(dp2788
g62
(dp2789
g82
g83
ssg71
g2783
sg64
(lp2790
S'QUERY_STRING'
p2791
asbag57
(g78
g59
NtRp2792
(dp2793
g62
(dp2794
g89
g90
ssg71
g2783
sg64
(lp2795
S':'
asbag57
(g78
g59
NtRp2796
(dp2797
g62
(dp2798
sg71
g2783
sg64
(lp2799
g57
(g58
g59
NtRp2800
(dp2801
g62
(dp2802
g70
I3
ssg71
g2796
sg64
(lp2803
S''
asbasbasbag57
(g73
g59
NtRp2804
(dp2805
g62
(dp2806
sg71
g2590
sg64
(lp2807
g57
(g78
g59
NtRp2808
(dp2809
g62
(dp2810
g82
g83
ssg71
g2804
sg64
(lp2811
S'REMOTE_ADDR'
p2812
asbag57
(g78
g59
NtRp2813
(dp2814
g62
(dp2815
g89
g90
ssg71
g2804
sg64
(lp2816
S':'
asbag57
(g78
g59
NtRp2817
(dp2818
g62
(dp2819
sg71
g2804
sg64
(lp2820
g57
(g58
g59
NtRp2821
(dp2822
g62
(dp2823
g70
I3
ssg71
g2817
sg64
(lp2824
g190
asbasbasbag57
(g73
g59
NtRp2825
(dp2826
g62
(dp2827
sg71
g2590
sg64
(lp2828
g57
(g78
g59
NtRp2829
(dp2830
g62
(dp2831
g82
g83
ssg71
g2825
sg64
(lp2832
S'REMOTE_PORT'
p2833
asbag57
(g78
g59
NtRp2834
(dp2835
g62
(dp2836
g89
g90
ssg71
g2825
sg64
(lp2837
S':'
asbag57
(g78
g59
NtRp2838
(dp2839
g62
(dp2840
sg71
g2825
sg64
(lp2841
g57
(g58
g59
NtRp2842
(dp2843
g62
(dp2844
g70
I3
ssg71
g2838
sg64
(lp2845
g1470
asbasbasbag57
(g73
g59
NtRp2846
(dp2847
g62
(dp2848
sg71
g2590
sg64
(lp2849
g57
(g78
g59
NtRp2850
(dp2851
g62
(dp2852
g82
g83
ssg71
g2846
sg64
(lp2853
S'REQUEST_METHOD'
p2854
asbag57
(g78
g59
NtRp2855
(dp2856
g62
(dp2857
g89
g90
ssg71
g2846
sg64
(lp2858
S':'
asbag57
(g78
g59
NtRp2859
(dp2860
g62
(dp2861
sg71
g2846
sg64
(lp2862
g57
(g58
g59
NtRp2863
(dp2864
g62
(dp2865
g70
I3
ssg71
g2859
sg64
(lp2866
g1492
asbasbasbag57
(g73
g59
NtRp2867
(dp2868
g62
(dp2869
sg71
g2590
sg64
(lp2870
g57
(g78
g59
NtRp2871
(dp2872
g62
(dp2873
g82
g83
ssg71
g2867
sg64
(lp2874
S'SCRIPT_NAME'
p2875
asbag57
(g78
g59
NtRp2876
(dp2877
g62
(dp2878
g89
g90
ssg71
g2867
sg64
(lp2879
S':'
asbag57
(g78
g59
NtRp2880
(dp2881
g62
(dp2882
sg71
g2867
sg64
(lp2883
g57
(g58
g59
NtRp2884
(dp2885
g62
(dp2886
g70
I3
ssg71
g2880
sg64
(lp2887
S''
asbasbasbag57
(g73
g59
NtRp2888
(dp2889
g62
(dp2890
sg71
g2590
sg64
(lp2891
g57
(g78
g59
NtRp2892
(dp2893
g62
(dp2894
g82
g83
ssg71
g2888
sg64
(lp2895
S'SERVER_NAME'
p2896
asbag57
(g78
g59
NtRp2897
(dp2898
g62
(dp2899
g89
g90
ssg71
g2888
sg64
(lp2900
S':'
asbag57
(g78
g59
NtRp2901
(dp2902
g62
(dp2903
sg71
g2888
sg64
(lp2904
g57
(g58
g59
NtRp2905
(dp2906
g62
(dp2907
g70
I3
ssg71
g2901
sg64
(lp2908
g1535
asbasbasbag57
(g73
g59
NtRp2909
(dp2910
g62
(dp2911
sg71
g2590
sg64
(lp2912
g57
(g78
g59
NtRp2913
(dp2914
g62
(dp2915
g82
g83
ssg71
g2909
sg64
(lp2916
S'SERVER_PORT'
p2917
asbag57
(g78
g59
NtRp2918
(dp2919
g62
(dp2920
g89
g90
ssg71
g2909
sg64
(lp2921
S':'
asbag57
(g78
g59
NtRp2922
(dp2923
g62
(dp2924
sg71
g2909
sg64
(lp2925
g57
(g58
g59
NtRp2926
(dp2927
g62
(dp2928
g70
I3
ssg71
g2922
sg64
(lp2929
g1557
asbasbasbag57
(g73
g59
NtRp2930
(dp2931
g62
(dp2932
sg71
g2590
sg64
(lp2933
g57
(g78
g59
NtRp2934
(dp2935
g62
(dp2936
g82
g83
ssg71
g2930
sg64
(lp2937
S'SERVER_PROTOCOL'
p2938
asbag57
(g78
g59
NtRp2939
(dp2940
g62
(dp2941
g89
g90
ssg71
g2930
sg64
(lp2942
S':'
asbag57
(g78
g59
NtRp2943
(dp2944
g62
(dp2945
sg71
g2930
sg64
(lp2946
g57
(g58
g59
NtRp2947
(dp2948
g62
(dp2949
g70
I3
ssg71
g2943
sg64
(lp2950
g1579
asbasbasbag57
(g73
g59
NtRp2951
(dp2952
g62
(dp2953
sg71
g2590
sg64
(lp2954
g57
(g78
g59
NtRp2955
(dp2956
g62
(dp2957
g82
g83
ssg71
g2951
sg64
(lp2958
S'SERVER_SOFTWARE'
p2959
asbag57
(g78
g59
NtRp2960
(dp2961
g62
(dp2962
g89
g90
ssg71
g2951
sg64
(lp2963
S':'
asbag57
(g78
g59
NtRp2964
(dp2965
g62
(dp2966
sg71
g2951
sg64
(lp2967
g57
(g58
g59
NtRp2968
(dp2969
g62
(dp2970
g70
I3
ssg71
g2964
sg64
(lp2971
g1601
asbasbasbag57
(g73
g59
NtRp2972
(dp2973
g62
(dp2974
sg71
g2590
sg64
(lp2975
g57
(g78
g59
NtRp2976
(dp2977
g62
(dp2978
g82
g83
ssg71
g2972
sg64
(lp2979
S'wsgi.errors'
p2980
asbag57
(g78
g59
NtRp2981
(dp2982
g62
(dp2983
g89
g90
ssg71
g2972
sg64
(lp2984
S':'
asbag57
(g78
g59
NtRp2985
(dp2986
g62
(dp2987
sg71
g2972
sg64
(lp2988
g57
(g58
g59
NtRp2989
(dp2990
g62
(dp2991
g70
I3
ssg71
g2985
sg64
(lp2992
S"<open file '<stderr>', mode 'w' at 0xb72e50d0>"
p2993
asbasbasbag57
(g73
g59
NtRp2994
(dp2995
g62
(dp2996
sg71
g2590
sg64
(lp2997
g57
(g78
g59
NtRp2998
(dp2999
g62
(dp3000
g82
g83
ssg71
g2994
sg64
(lp3001
S'wsgi.file_wrapper'
p3002
asbag57
(g78
g59
NtRp3003
(dp3004
g62
(dp3005
g89
g90
ssg71
g2994
sg64
(lp3006
S':'
asbag57
(g78
g59
NtRp3007
(dp3008
g62
(dp3009
sg71
g2994
sg64
(lp3010
g57
(g58
g59
NtRp3011
(dp3012
g62
(dp3013
g70
I3
ssg71
g3007
sg64
(lp3014
S'<class wsgiref.util.FileWrapper at 0xa43b4ac>'
p3015
asbasbasbag57
(g73
g59
NtRp3016
(dp3017
g62
(dp3018
sg71
g2590
sg64
(lp3019
g57
(g78
g59
NtRp3020
(dp3021
g62
(dp3022
g82
g83
ssg71
g3016
sg64
(lp3023
S'wsgi.input'
p3024
asbag57
(g78
g59
NtRp3025
(dp3026
g62
(dp3027
g89
g90
ssg71
g3016
sg64
(lp3028
S':'
asbag57
(g78
g59
NtRp3029
(dp3030
g62
(dp3031
sg71
g3016
sg64
(lp3032
g57
(g58
g59
NtRp3033
(dp3034
g62
(dp3035
g70
I3
ssg71
g3029
sg64
(lp3036
S'<cStringIO.StringO object at 0xab2cde00>'
p3037
asbasbasbag57
(g73
g59
NtRp3038
(dp3039
g62
(dp3040
sg71
g2590
sg64
(lp3041
g57
(g78
g59
NtRp3042
(dp3043
g62
(dp3044
g82
g83
ssg71
g3038
sg64
(lp3045
S'wsgi.multiprocess'
p3046
asbag57
(g78
g59
NtRp3047
(dp3048
g62
(dp3049
g89
g90
ssg71
g3038
sg64
(lp3050
S':'
asbag57
(g78
g59
NtRp3051
(dp3052
g62
(dp3053
sg71
g3038
sg64
(lp3054
g57
(g58
g59
NtRp3055
(dp3056
g62
(dp3057
g70
I3
ssg71
g3051
sg64
(lp3058
g100
asbasbasbag57
(g73
g59
NtRp3059
(dp3060
g62
(dp3061
sg71
g2590
sg64
(lp3062
g57
(g78
g59
NtRp3063
(dp3064
g62
(dp3065
g82
g83
ssg71
g3059
sg64
(lp3066
S'wsgi.multithread'
p3067
asbag57
(g78
g59
NtRp3068
(dp3069
g62
(dp3070
g89
g90
ssg71
g3059
sg64
(lp3071
S':'
asbag57
(g78
g59
NtRp3072
(dp3073
g62
(dp3074
sg71
g3059
sg64
(lp3075
g57
(g58
g59
NtRp3076
(dp3077
g62
(dp3078
g70
I3
ssg71
g3072
sg64
(lp3079
g1841
asbasbasbag57
(g73
g59
NtRp3080
(dp3081
g62
(dp3082
sg71
g2590
sg64
(lp3083
g57
(g78
g59
NtRp3084
(dp3085
g62
(dp3086
g82
g83
ssg71
g3080
sg64
(lp3087
S'wsgi.run_once'
p3088
asbag57
(g78
g59
NtRp3089
(dp3090
g62
(dp3091
g89
g90
ssg71
g3080
sg64
(lp3092
S':'
asbag57
(g78
g59
NtRp3093
(dp3094
g62
(dp3095
sg71
g3080
sg64
(lp3096
g57
(g58
g59
NtRp3097
(dp3098
g62
(dp3099
g70
I3
ssg71
g3093
sg64
(lp3100
g100
asbasbasbag57
(g73
g59
NtRp3101
(dp3102
g62
(dp3103
sg71
g2590
sg64
(lp3104
g57
(g78
g59
NtRp3105
(dp3106
g62
(dp3107
g82
g83
ssg71
g3101
sg64
(lp3108
S'wsgi.url_scheme'
p3109
asbag57
(g78
g59
NtRp3110
(dp3111
g62
(dp3112
g89
g90
ssg71
g3101
sg64
(lp3113
S':'
asbag57
(g78
g59
NtRp3114
(dp3115
g62
(dp3116
sg71
g3101
sg64
(lp3117
g57
(g58
g59
NtRp3118
(dp3119
g62
(dp3120
g70
I3
ssg71
g3114
sg64
(lp3121
g1884
asbasbasbag57
(g73
g59
NtRp3122
(dp3123
g62
(dp3124
sg71
g2590
sg64
(lp3125
g57
(g78
g59
NtRp3126
(dp3127
g62
(dp3128
g82
g83
ssg71
g3122
sg64
(lp3129
S'wsgi.version'
p3130
asbag57
(g78
g59
NtRp3131
(dp3132
g62
(dp3133
g89
g90
ssg71
g3122
sg64
(lp3134
S':'
asbag57
(g78
g59
NtRp3135
(dp3136
g62
(dp3137
sg71
g3122
sg64
(lp3138
g57
(g58
g59
NtRp3139
(dp3140
g62
(dp3141
g70
I3
ssg71
g3135
sg64
(lp3142
S'1'
asbasbasbasbasbasbasbasbasbasbasbasbasbsS'frames'
p3143
(lp3144
(dp3145
S'file'
p3146
S'/usr/lib/pymodules/python2.7/gluon/restricted.py'
p3147
sS'dump'
p3148
(dp3149
S'environment'
p3150
S"{'A': <class 'gluon.html.A'>, 'Auth': <class 'gluon.tools.Auth'>, 'B': <class 'gluon.html.B'>, 'BEAUTIFY': <class 'gluon.html.BEAUTIFY'>, 'BODY': <class 'gluon.html.BODY'>, 'BR': <class 'gluon.html.BR'>, 'BUTTON': <class 'gluon.html.BUTTON'>, 'CAS': <Storage {'check_url': 'https://login.iiit.ac.in...: 'http://127.0.0.1:8000/manager/default/login'}>, 'CAT': <class 'gluon.html.CAT'>, 'CENTER': <class 'gluon.html.CENTER'>, ...}"
p3151
sS'ccode'
p3152
S'<code object <module> at 0xab275068, file "/home...ations/manager/views/default/label.html", line 1>'
p3153
ssS'lnum'
p3154
I204
sS'lines'
p3155
(dp3156
I199
S'    try:'
p3157
sI200
S'        if type(code) == types.CodeType:'
p3158
sI201
S'            ccode = code'
p3159
sI202
S'        else:'
p3160
sI203
S'            ccode = compile2(code,layer)'
p3161
sI204
S'        exec ccode in environment'
p3162
sI205
S'    except HTTP:'
p3163
sI206
S'        raise'
p3164
sI207
S'    except RestrictedError:'
p3165
sI208
S'        # do not encapsulate (obfuscate) the original RestrictedError'
p3166
ssS'call'
p3167
S'(code=\'response.write(\\\'<!DOCTYPE html PUBLIC "-//W3C//D...v>\\\\n  </div>\\\\n </body>\\\\n</html>\\\\n\\\', escape=False)\', environment={\'A\': <class \'gluon.html.A\'>, \'Auth\': <class \'gluon.tools.Auth\'>, \'B\': <class \'gluon.html.B\'>, \'BEAUTIFY\': <class \'gluon.html.BEAUTIFY\'>, \'BODY\': <class \'gluon.html.BODY\'>, \'BR\': <class \'gluon.html.BR\'>, \'BUTTON\': <class \'gluon.html.BUTTON\'>, \'CAS\': <Storage {\'check_url\': \'https://login.iiit.ac.in...: \'http://127.0.0.1:8000/manager/default/login\'}>, \'CAT\': <class \'gluon.html.CAT\'>, \'CENTER\': <class \'gluon.html.CENTER\'>, ...}, layer=\'/home/unic/web2py/applications/manager/views/default/label.html\')'
p3168
sS'func'
p3169
S'restricted'
p3170
sa(dp3171
g3146
S'/home/unic/web2py/applications/manager/views/default/label.html'
p3172
sg3148
(dp3173
sg3154
I46
sg3155
(dp3174
I37
S'    pass'
p3175
sI38
S'response.write(\'\\n    \\n    \\n     </ul>\\n    <script>\\n      jQuery(document).ready(function(){jQuery(\\\'ul.web2py-menu\\\').superfish({delay:400});});\\n    </script>\\n    </div>\\n    <!--end header -->\\n    <!-- main -->\\n    <div id="main">\\n     <div class="flash">\', escape=False)'
p3176
sI39
S"response.write(response.flash or '')"
p3177
sI40
S"response.write('</div>\\n     ', escape=False)"
p3178
sI41
S"response.write('\\n', escape=False)"
p3179
sI42
S'k =len(users)'
p3180
sI43
S"response.write('\\n', escape=False)"
p3181
sI44
S'for i in users:'
p3182
sI45
S"    response.write('\\n', escape=False)"
p3183
sI46
S'    if i%2 == 0:'
p3184
sI47
S"        response.write('\\n', escape=False)"
p3185
sI48
S'        response.write(users[i].Name)'
p3186
sI49
S"        response.write('\\n', escape=False)"
p3187
sI50
S'        pass'
p3188
sI51
S"    response.write('\\n', escape=False)"
p3189
sI52
S'    pass'
p3190
sI53
S"response.write('\\n', escape=False)"
p3191
sI54
S'response.write(\'\\n    </div>\\n    <!-- end main -->\\n    <!-- footer -->\\n    <div id="footer">\\n     <div id="left_footer">\\n      &copy; Copyright 2008 Your website\\n     </div>\\n     <div id="right_footer">\\n      <!-- Please do not change or delete this links. Read the license! Thanks. :-) -->\\n      <a href="http://www.realitysoftware.ca/website-design.html">\\n       Website design\\n      </a>\\n      by\\n      <a href="http://www.realitysoftware.ca">\\n       Reality Software\\n      </a>\\n     </div>\\n    </div>\\n    <!-- end footer -->\\n   </div>\\n  </div>\\n </body>\\n</html>\\n\', escape=False)'
p3192
ssg3167
S'()'
p3193
sg3169
S'<module>'
p3194
sasS'pyver'
p3195
S'Python 2.7.3: /usr/bin/python'
p3196
sS'session'
p3197
g57
(g58
g59
NtRp3198
(dp3199
g62
(dp3200
sg64
(lp3201
g57
(g66
g59
NtRp3202
(dp3203
g62
(dp3204
g70
I5
ssg71
Nsg64
(lp3205
g57
(g73
g59
NtRp3206
(dp3207
g62
(dp3208
sg71
g3202
sg64
(lp3209
g57
(g78
g59
NtRp3210
(dp3211
g62
(dp3212
g82
g83
ssg71
g3206
sg64
(lp3213
S'LOGGEDIN'
p3214
asbag57
(g78
g59
NtRp3215
(dp3216
g62
(dp3217
g89
g90
ssg71
g3206
sg64
(lp3218
S':'
asbag57
(g78
g59
NtRp3219
(dp3220
g62
(dp3221
sg71
g3206
sg64
(lp3222
g57
(g58
g59
NtRp3223
(dp3224
g62
(dp3225
g70
I5
ssg71
g3219
sg64
(lp3226
S'0'
asbasbasbag57
(g73
g59
NtRp3227
(dp3228
g62
(dp3229
sg71
g3202
sg64
(lp3230
g57
(g78
g59
NtRp3231
(dp3232
g62
(dp3233
g82
g83
ssg71
g3227
sg64
(lp3234
S'last_query'
p3235
asbag57
(g78
g59
NtRp3236
(dp3237
g62
(dp3238
g89
g90
ssg71
g3227
sg64
(lp3239
S':'
asbag57
(g78
g59
NtRp3240
(dp3241
g62
(dp3242
sg71
g3227
sg64
(lp3243
g57
(g58
g59
NtRp3244
(dp3245
g62
(dp3246
g70
I5
ssg71
g3240
sg64
(lp3247
S'db.UPBook.id>0'
p3248
asbasbasbag57
(g73
g59
NtRp3249
(dp3250
g62
(dp3251
sg71
g3202
sg64
(lp3252
g57
(g78
g59
NtRp3253
(dp3254
g62
(dp3255
g82
g83
ssg71
g3249
sg64
(lp3256
S'login'
p3257
asbag57
(g78
g59
NtRp3258
(dp3259
g62
(dp3260
g89
g90
ssg71
g3249
sg64
(lp3261
S':'
asbag57
(g78
g59
NtRp3262
(dp3263
g62
(dp3264
sg71
g3249
sg64
(lp3265
g57
(g58
g59
NtRp3266
(dp3267
g62
(dp3268
g70
I5
ssg71
g3262
sg64
(lp3269
S'0'
asbasbasbag57
(g73
g59
NtRp3270
(dp3271
g62
(dp3272
sg71
g3202
sg64
(lp3273
g57
(g78
g59
NtRp3274
(dp3275
g62
(dp3276
g82
g83
ssg71
g3270
sg64
(lp3277
S'token'
p3278
asbag57
(g78
g59
NtRp3279
(dp3280
g62
(dp3281
g89
g90
ssg71
g3270
sg64
(lp3282
S':'
asbag57
(g78
g59
NtRp3283
(dp3284
g62
(dp3285
sg71
g3270
sg64
(lp3286
g57
(g58
g59
NtRp3287
(dp3288
g62
(dp3289
g70
I5
ssg71
g3283
sg64
(lp3290
S'neeharikak.v@students.iiit.ac.in'
p3291
asbasbasbasbasbsS'etype'
p3292
S"<type 'exceptions.TypeError'>"
p3293
sS'date'
p3294
S'Sun Nov 11 02:30:49 2012'
p3295
sS'response'
p3296
g57
(g58
g59
NtRp3297
(dp3298
g62
(dp3299
sg64
(lp3300
g57
(g66
g59
NtRp3301
(dp3302
g62
(dp3303
g70
I5
ssg71
Nsg64
(lp3304
g57
(g73
g59
NtRp3305
(dp3306
g62
(dp3307
sg71
g3301
sg64
(lp3308
g57
(g78
g59
NtRp3309
(dp3310
g62
(dp3311
g82
g83
ssg71
g3305
sg64
(lp3312
g155
asbag57
(g78
g59
NtRp3313
(dp3314
g62
(dp3315
g89
g90
ssg71
g3305
sg64
(lp3316
S':'
asbag57
(g78
g59
NtRp3317
(dp3318
g62
(dp3319
sg71
g3305
sg64
(lp3320
g57
(g58
g59
NtRp3321
(dp3322
g62
(dp3323
g70
I5
ssg71
g3317
sg64
(lp3324
S'<cStringIO.StringO object at 0xaa93ef00>'
p3325
asbasbasbag57
(g73
g59
NtRp3326
(dp3327
g62
(dp3328
sg71
g3301
sg64
(lp3329
g57
(g78
g59
NtRp3330
(dp3331
g62
(dp3332
g82
g83
ssg71
g3326
sg64
(lp3333
g221
asbag57
(g78
g59
NtRp3334
(dp3335
g62
(dp3336
g89
g90
ssg71
g3326
sg64
(lp3337
S':'
asbag57
(g78
g59
NtRp3338
(dp3339
g62
(dp3340
sg71
g3326
sg64
(lp3341
g57
(g58
g59
NtRp3342
(dp3343
g62
(dp3344
g70
I5
ssg71
g3338
sg64
(lp3345
g57
(g66
g59
NtRp3346
(dp3347
g62
(dp3348
g70
I4
ssg71
Nsg64
(lp3349
g57
(g73
g59
NtRp3350
(dp3351
g62
(dp3352
sg71
g3346
sg64
(lp3353
g57
(g78
g59
NtRp3354
(dp3355
g62
(dp3356
g82
g83
ssg71
g3350
sg64
(lp3357
S'session_id_manager'
p3358
asbag57
(g78
g59
NtRp3359
(dp3360
g62
(dp3361
g89
g90
ssg71
g3350
sg64
(lp3362
S':'
asbag57
(g78
g59
NtRp3363
(dp3364
g62
(dp3365
sg71
g3350
sg64
(lp3366
g57
(g58
g59
NtRp3367
(dp3368
g62
(dp3369
g70
I4
ssg71
g3363
sg64
(lp3370
g57
(g66
g59
NtRp3371
(dp3372
g62
(dp3373
g70
I3
ssg71
Nsg64
(lp3374
g57
(g73
g59
NtRp3375
(dp3376
g62
(dp3377
sg71
g3371
sg64
(lp3378
g57
(g78
g59
NtRp3379
(dp3380
g62
(dp3381
g82
g83
ssg71
g3375
sg64
(lp3382
g271
asbag57
(g78
g59
NtRp3383
(dp3384
g62
(dp3385
g89
g90
ssg71
g3375
sg64
(lp3386
S':'
asbag57
(g78
g59
NtRp3387
(dp3388
g62
(dp3389
sg71
g3375
sg64
(lp3390
g57
(g58
g59
NtRp3391
(dp3392
g62
(dp3393
g70
I3
ssg71
g3387
sg64
(lp3394
S''
asbasbasbag57
(g73
g59
NtRp3395
(dp3396
g62
(dp3397
sg71
g3371
sg64
(lp3398
g57
(g78
g59
NtRp3399
(dp3400
g62
(dp3401
g82
g83
ssg71
g3395
sg64
(lp3402
g292
asbag57
(g78
g59
NtRp3403
(dp3404
g62
(dp3405
g89
g90
ssg71
g3395
sg64
(lp3406
S':'
asbag57
(g78
g59
NtRp3407
(dp3408
g62
(dp3409
sg71
g3395
sg64
(lp3410
g57
(g58
g59
NtRp3411
(dp3412
g62
(dp3413
g70
I3
ssg71
g3407
sg64
(lp3414
S''
asbasbasbag57
(g73
g59
NtRp3415
(dp3416
g62
(dp3417
sg71
g3371
sg64
(lp3418
g57
(g78
g59
NtRp3419
(dp3420
g62
(dp3421
g82
g83
ssg71
g3415
sg64
(lp3422
g313
asbag57
(g78
g59
NtRp3423
(dp3424
g62
(dp3425
g89
g90
ssg71
g3415
sg64
(lp3426
S':'
asbag57
(g78
g59
NtRp3427
(dp3428
g62
(dp3429
sg71
g3415
sg64
(lp3430
g57
(g58
g59
NtRp3431
(dp3432
g62
(dp3433
g70
I3
ssg71
g3427
sg64
(lp3434
S''
asbasbasbag57
(g73
g59
NtRp3435
(dp3436
g62
(dp3437
sg71
g3371
sg64
(lp3438
g57
(g78
g59
NtRp3439
(dp3440
g62
(dp3441
g82
g83
ssg71
g3435
sg64
(lp3442
g334
asbag57
(g78
g59
NtRp3443
(dp3444
g62
(dp3445
g89
g90
ssg71
g3435
sg64
(lp3446
S':'
asbag57
(g78
g59
NtRp3447
(dp3448
g62
(dp3449
sg71
g3435
sg64
(lp3450
g57
(g58
g59
NtRp3451
(dp3452
g62
(dp3453
g70
I3
ssg71
g3447
sg64
(lp3454
S''
asbasbasbag57
(g73
g59
NtRp3455
(dp3456
g62
(dp3457
sg71
g3371
sg64
(lp3458
g57
(g78
g59
NtRp3459
(dp3460
g62
(dp3461
g82
g83
ssg71
g3455
sg64
(lp3462
g355
asbag57
(g78
g59
NtRp3463
(dp3464
g62
(dp3465
g89
g90
ssg71
g3455
sg64
(lp3466
S':'
asbag57
(g78
g59
NtRp3467
(dp3468
g62
(dp3469
sg71
g3455
sg64
(lp3470
g57
(g58
g59
NtRp3471
(dp3472
g62
(dp3473
g70
I3
ssg71
g3467
sg64
(lp3474
S''
asbasbasbag57
(g73
g59
NtRp3475
(dp3476
g62
(dp3477
sg71
g3371
sg64
(lp3478
g57
(g78
g59
NtRp3479
(dp3480
g62
(dp3481
g82
g83
ssg71
g3475
sg64
(lp3482
g376
asbag57
(g78
g59
NtRp3483
(dp3484
g62
(dp3485
g89
g90
ssg71
g3475
sg64
(lp3486
S':'
asbag57
(g78
g59
NtRp3487
(dp3488
g62
(dp3489
sg71
g3475
sg64
(lp3490
g57
(g58
g59
NtRp3491
(dp3492
g62
(dp3493
g70
I3
ssg71
g3487
sg64
(lp3494
S'/'
asbasbasbag57
(g73
g59
NtRp3495
(dp3496
g62
(dp3497
sg71
g3371
sg64
(lp3498
g57
(g78
g59
NtRp3499
(dp3500
g62
(dp3501
g82
g83
ssg71
g3495
sg64
(lp3502
g397
asbag57
(g78
g59
NtRp3503
(dp3504
g62
(dp3505
g89
g90
ssg71
g3495
sg64
(lp3506
S':'
asbag57
(g78
g59
NtRp3507
(dp3508
g62
(dp3509
sg71
g3495
sg64
(lp3510
g57
(g58
g59
NtRp3511
(dp3512
g62
(dp3513
g70
I3
ssg71
g3507
sg64
(lp3514
S''
asbasbasbag57
(g73
g59
NtRp3515
(dp3516
g62
(dp3517
sg71
g3371
sg64
(lp3518
g57
(g78
g59
NtRp3519
(dp3520
g62
(dp3521
g82
g83
ssg71
g3515
sg64
(lp3522
g418
asbag57
(g78
g59
NtRp3523
(dp3524
g62
(dp3525
g89
g90
ssg71
g3515
sg64
(lp3526
S':'
asbag57
(g78
g59
NtRp3527
(dp3528
g62
(dp3529
sg71
g3515
sg64
(lp3530
g57
(g58
g59
NtRp3531
(dp3532
g62
(dp3533
g70
I3
ssg71
g3527
sg64
(lp3534
S''
asbasbasbasbasbasbasbasbasbasbasbag57
(g73
g59
NtRp3535
(dp3536
g62
(dp3537
sg71
g3301
sg64
(lp3538
g57
(g78
g59
NtRp3539
(dp3540
g62
(dp3541
g82
g83
ssg71
g3535
sg64
(lp3542
S'files'
p3543
asbag57
(g78
g59
NtRp3544
(dp3545
g62
(dp3546
g89
g90
ssg71
g3535
sg64
(lp3547
S':'
asbag57
(g78
g59
NtRp3548
(dp3549
g62
(dp3550
sg71
g3535
sg64
(lp3551
g57
(g58
g59
NtRp3552
(dp3553
g62
(dp3554
g70
I5
ssg71
g3548
sg64
(lp3555
g57
(g66
g59
NtRp3556
(dp3557
g62
(dp3558
g70
I4
ssg71
Nsg64
(lp3559
g57
(g73
g59
NtRp3560
(dp3561
g62
(dp3562
sg71
g3556
sg64
(lp3563
g57
(g78
g59
NtRp3564
(dp3565
g62
(dp3566
sg71
g3560
sg64
(lp3567
g57
(g58
g59
NtRp3568
(dp3569
g62
(dp3570
g70
I4
ssg71
g3564
sg64
(lp3571
S'/manager/static/js/jquery.js'
p3572
asbasbasbag57
(g73
g59
NtRp3573
(dp3574
g62
(dp3575
sg71
g3556
sg64
(lp3576
g57
(g78
g59
NtRp3577
(dp3578
g62
(dp3579
sg71
g3573
sg64
(lp3580
g57
(g58
g59
NtRp3581
(dp3582
g62
(dp3583
g70
I4
ssg71
g3577
sg64
(lp3584
S'/manager/static/plugin_layouts/layouts/Papira/style.css'
p3585
asbasbasbag57
(g73
g59
NtRp3586
(dp3587
g62
(dp3588
sg71
g3556
sg64
(lp3589
g57
(g78
g59
NtRp3590
(dp3591
g62
(dp3592
sg71
g3586
sg64
(lp3593
g57
(g58
g59
NtRp3594
(dp3595
g62
(dp3596
g70
I4
ssg71
g3590
sg64
(lp3597
S'/manager/static/plugin_layouts/superfish.js'
p3598
asbasbasbag57
(g73
g59
NtRp3599
(dp3600
g62
(dp3601
sg71
g3556
sg64
(lp3602
g57
(g78
g59
NtRp3603
(dp3604
g62
(dp3605
sg71
g3599
sg64
(lp3606
g57
(g58
g59
NtRp3607
(dp3608
g62
(dp3609
g70
I4
ssg71
g3603
sg64
(lp3610
S'/manager/static/js/web2py.js'
p3611
asbasbasbasbasbasbasbag57
(g73
g59
NtRp3612
(dp3613
g62
(dp3614
sg71
g3301
sg64
(lp3615
g57
(g78
g59
NtRp3616
(dp3617
g62
(dp3618
g82
g83
ssg71
g3612
sg64
(lp3619
S'flash'
p3620
asbag57
(g78
g59
NtRp3621
(dp3622
g62
(dp3623
g89
g90
ssg71
g3612
sg64
(lp3624
S':'
asbag57
(g78
g59
NtRp3625
(dp3626
g62
(dp3627
sg71
g3612
sg64
(lp3628
g57
(g58
g59
NtRp3629
(dp3630
g62
(dp3631
g70
I5
ssg71
g3625
sg64
(lp3632
S''
asbasbasbag57
(g73
g59
NtRp3633
(dp3634
g62
(dp3635
sg71
g3301
sg64
(lp3636
g57
(g78
g59
NtRp3637
(dp3638
g62
(dp3639
g82
g83
ssg71
g3633
sg64
(lp3640
S'generic_patterns'
p3641
asbag57
(g78
g59
NtRp3642
(dp3643
g62
(dp3644
g89
g90
ssg71
g3633
sg64
(lp3645
S':'
asbag57
(g78
g59
NtRp3646
(dp3647
g62
(dp3648
sg71
g3633
sg64
(lp3649
g57
(g58
g59
NtRp3650
(dp3651
g62
(dp3652
g70
I5
ssg71
g3646
sg64
(lp3653
g57
(g66
g59
NtRp3654
(dp3655
g62
(dp3656
g70
I4
ssg71
Nsg64
(lp3657
g57
(g73
g59
NtRp3658
(dp3659
g62
(dp3660
sg71
g3654
sg64
(lp3661
g57
(g78
g59
NtRp3662
(dp3663
g62
(dp3664
sg71
g3658
sg64
(lp3665
g57
(g58
g59
NtRp3666
(dp3667
g62
(dp3668
g70
I4
ssg71
g3662
sg64
(lp3669
S'*'
asbasbasbasbasbasbasbag57
(g73
g59
NtRp3670
(dp3671
g62
(dp3672
sg71
g3301
sg64
(lp3673
g57
(g78
g59
NtRp3674
(dp3675
g62
(dp3676
g82
g83
ssg71
g3670
sg64
(lp3677
S'headers'
p3678
asbag57
(g78
g59
NtRp3679
(dp3680
g62
(dp3681
g89
g90
ssg71
g3670
sg64
(lp3682
S':'
asbag57
(g78
g59
NtRp3683
(dp3684
g62
(dp3685
sg71
g3670
sg64
(lp3686
g57
(g58
g59
NtRp3687
(dp3688
g62
(dp3689
g70
I5
ssg71
g3683
sg64
(lp3690
g57
(g66
g59
NtRp3691
(dp3692
g62
(dp3693
g70
I4
ssg71
Nsg64
(lp3694
g57
(g73
g59
NtRp3695
(dp3696
g62
(dp3697
sg71
g3691
sg64
(lp3698
g57
(g78
g59
NtRp3699
(dp3700
g62
(dp3701
g82
g83
ssg71
g3695
sg64
(lp3702
S'Cache-Control'
p3703
asbag57
(g78
g59
NtRp3704
(dp3705
g62
(dp3706
g89
g90
ssg71
g3695
sg64
(lp3707
S':'
asbag57
(g78
g59
NtRp3708
(dp3709
g62
(dp3710
sg71
g3695
sg64
(lp3711
g57
(g58
g59
NtRp3712
(dp3713
g62
(dp3714
g70
I4
ssg71
g3708
sg64
(lp3715
S'no-store, no-cache, must-revalidate, post-check=0, pre-check=0'
p3716
asbasbasbag57
(g73
g59
NtRp3717
(dp3718
g62
(dp3719
sg71
g3691
sg64
(lp3720
g57
(g78
g59
NtRp3721
(dp3722
g62
(dp3723
g82
g83
ssg71
g3717
sg64
(lp3724
S'Content-Type'
p3725
asbag57
(g78
g59
NtRp3726
(dp3727
g62
(dp3728
g89
g90
ssg71
g3717
sg64
(lp3729
S':'
asbag57
(g78
g59
NtRp3730
(dp3731
g62
(dp3732
sg71
g3717
sg64
(lp3733
g57
(g58
g59
NtRp3734
(dp3735
g62
(dp3736
g70
I4
ssg71
g3730
sg64
(lp3737
S'text/html; charset=utf-8'
p3738
asbasbasbag57
(g73
g59
NtRp3739
(dp3740
g62
(dp3741
sg71
g3691
sg64
(lp3742
g57
(g78
g59
NtRp3743
(dp3744
g62
(dp3745
g82
g83
ssg71
g3739
sg64
(lp3746
S'Expires'
p3747
asbag57
(g78
g59
NtRp3748
(dp3749
g62
(dp3750
g89
g90
ssg71
g3739
sg64
(lp3751
S':'
asbag57
(g78
g59
NtRp3752
(dp3753
g62
(dp3754
sg71
g3739
sg64
(lp3755
g57
(g58
g59
NtRp3756
(dp3757
g62
(dp3758
g70
I4
ssg71
g3752
sg64
(lp3759
S'Sat, 10 Nov 2012 21:00:49 GMT'
p3760
asbasbasbag57
(g73
g59
NtRp3761
(dp3762
g62
(dp3763
sg71
g3691
sg64
(lp3764
g57
(g78
g59
NtRp3765
(dp3766
g62
(dp3767
g82
g83
ssg71
g3761
sg64
(lp3768
S'Pragma'
p3769
asbag57
(g78
g59
NtRp3770
(dp3771
g62
(dp3772
g89
g90
ssg71
g3761
sg64
(lp3773
S':'
asbag57
(g78
g59
NtRp3774
(dp3775
g62
(dp3776
sg71
g3761
sg64
(lp3777
g57
(g58
g59
NtRp3778
(dp3779
g62
(dp3780
g70
I4
ssg71
g3774
sg64
(lp3781
S'no-cache'
p3782
asbasbasbag57
(g73
g59
NtRp3783
(dp3784
g62
(dp3785
sg71
g3691
sg64
(lp3786
g57
(g78
g59
NtRp3787
(dp3788
g62
(dp3789
g82
g83
ssg71
g3783
sg64
(lp3790
S'X-Powered-By'
p3791
asbag57
(g78
g59
NtRp3792
(dp3793
g62
(dp3794
g89
g90
ssg71
g3783
sg64
(lp3795
S':'
asbag57
(g78
g59
NtRp3796
(dp3797
g62
(dp3798
sg71
g3783
sg64
(lp3799
g57
(g58
g59
NtRp3800
(dp3801
g62
(dp3802
g70
I4
ssg71
g3796
sg64
(lp3803
S'web2py'
p3804
asbasbasbasbasbasbasbag57
(g73
g59
NtRp3805
(dp3806
g62
(dp3807
sg71
g3301
sg64
(lp3808
g57
(g78
g59
NtRp3809
(dp3810
g62
(dp3811
g82
g83
ssg71
g3805
sg64
(lp3812
S'menu'
p3813
asbag57
(g78
g59
NtRp3814
(dp3815
g62
(dp3816
g89
g90
ssg71
g3805
sg64
(lp3817
S':'
asbag57
(g78
g59
NtRp3818
(dp3819
g62
(dp3820
sg71
g3805
sg64
(lp3821
g57
(g58
g59
NtRp3822
(dp3823
g62
(dp3824
g70
I5
ssg71
g3818
sg64
(lp3825
g57
(g66
g59
NtRp3826
(dp3827
g62
(dp3828
g70
I4
ssg71
Nsg64
(lp3829
g57
(g73
g59
NtRp3830
(dp3831
g62
(dp3832
sg71
g3826
sg64
(lp3833
g57
(g78
g59
NtRp3834
(dp3835
g62
(dp3836
sg71
g3830
sg64
(lp3837
g57
(g58
g59
NtRp3838
(dp3839
g62
(dp3840
g70
I4
ssg71
g3834
sg64
(lp3841
g57
(g66
g59
NtRp3842
(dp3843
g62
(dp3844
g70
I3
ssg71
Nsg64
(lp3845
g57
(g73
g59
NtRp3846
(dp3847
g62
(dp3848
sg71
g3842
sg64
(lp3849
g57
(g78
g59
NtRp3850
(dp3851
g62
(dp3852
sg71
g3846
sg64
(lp3853
g57
(g58
g59
NtRp3854
(dp3855
g62
(dp3856
g70
I3
ssg71
g3850
sg64
(lp3857
cgluon.languages
lazyT_unpickle
p3858
(S't\x04\x00\x00\x00Home'
tRp3859
asbasbasbag57
(g73
g59
NtRp3860
(dp3861
g62
(dp3862
sg71
g3842
sg64
(lp3863
g57
(g78
g59
NtRp3864
(dp3865
g62
(dp3866
sg71
g3860
sg64
(lp3867
g57
(g58
g59
NtRp3868
(dp3869
g62
(dp3870
g70
I3
ssg71
g3864
sg64
(lp3871
g100
asbasbasbag57
(g73
g59
NtRp3872
(dp3873
g62
(dp3874
sg71
g3842
sg64
(lp3875
g57
(g78
g59
NtRp3876
(dp3877
g62
(dp3878
sg71
g3872
sg64
(lp3879
g57
(g58
g59
NtRp3880
(dp3881
g62
(dp3882
g70
I3
ssg71
g3876
sg64
(lp3883
S'/manager/default/index'
p3884
asbasbasbasbasbasbasbag57
(g73
g59
NtRp3885
(dp3886
g62
(dp3887
sg71
g3826
sg64
(lp3888
g57
(g78
g59
NtRp3889
(dp3890
g62
(dp3891
sg71
g3885
sg64
(lp3892
g57
(g58
g59
NtRp3893
(dp3894
g62
(dp3895
g70
I4
ssg71
g3889
sg64
(lp3896
g57
(g66
g59
NtRp3897
(dp3898
g62
(dp3899
g70
I3
ssg71
Nsg64
(lp3900
g57
(g73
g59
NtRp3901
(dp3902
g62
(dp3903
sg71
g3897
sg64
(lp3904
g57
(g78
g59
NtRp3905
(dp3906
g62
(dp3907
sg71
g3901
sg64
(lp3908
g57
(g58
g59
NtRp3909
(dp3910
g62
(dp3911
g70
I3
ssg71
g3905
sg64
(lp3912
g3858
(S't\x06\x00\x00\x00logout'
tRp3913
asbasbasbag57
(g73
g59
NtRp3914
(dp3915
g62
(dp3916
sg71
g3897
sg64
(lp3917
g57
(g78
g59
NtRp3918
(dp3919
g62
(dp3920
sg71
g3914
sg64
(lp3921
g57
(g58
g59
NtRp3922
(dp3923
g62
(dp3924
g70
I3
ssg71
g3918
sg64
(lp3925
g100
asbasbasbag57
(g73
g59
NtRp3926
(dp3927
g62
(dp3928
sg71
g3897
sg64
(lp3929
g57
(g78
g59
NtRp3930
(dp3931
g62
(dp3932
sg71
g3926
sg64
(lp3933
g57
(g58
g59
NtRp3934
(dp3935
g62
(dp3936
g70
I3
ssg71
g3930
sg64
(lp3937
S'/manager/default/logout'
p3938
asbasbasbasbasbasbasbasbasbasbasbag57
(g73
g59
NtRp3939
(dp3940
g62
(dp3941
sg71
g3301
sg64
(lp3942
g57
(g78
g59
NtRp3943
(dp3944
g62
(dp3945
g82
g83
ssg71
g3939
sg64
(lp3946
S'meta'
p3947
asbag57
(g78
g59
NtRp3948
(dp3949
g62
(dp3950
g89
g90
ssg71
g3939
sg64
(lp3951
S':'
asbag57
(g78
g59
NtRp3952
(dp3953
g62
(dp3954
sg71
g3939
sg64
(lp3955
g57
(g58
g59
NtRp3956
(dp3957
g62
(dp3958
g70
I5
ssg71
g3952
sg64
(lp3959
g57
(g66
g59
NtRp3960
(dp3961
g62
(dp3962
g70
I4
ssg71
Nsg64
(lp3963
g57
(g73
g59
NtRp3964
(dp3965
g62
(dp3966
sg71
g3960
sg64
(lp3967
g57
(g78
g59
NtRp3968
(dp3969
g62
(dp3970
g82
g83
ssg71
g3964
sg64
(lp3971
S'author'
p3972
asbag57
(g78
g59
NtRp3973
(dp3974
g62
(dp3975
g89
g90
ssg71
g3964
sg64
(lp3976
S':'
asbag57
(g78
g59
NtRp3977
(dp3978
g62
(dp3979
sg71
g3964
sg64
(lp3980
g57
(g58
g59
NtRp3981
(dp3982
g62
(dp3983
g70
I4
ssg71
g3977
sg64
(lp3984
S'Your Name <you@example.com>'
p3985
asbasbasbag57
(g73
g59
NtRp3986
(dp3987
g62
(dp3988
sg71
g3960
sg64
(lp3989
g57
(g78
g59
NtRp3990
(dp3991
g62
(dp3992
g82
g83
ssg71
g3986
sg64
(lp3993
S'copyright'
p3994
asbag57
(g78
g59
NtRp3995
(dp3996
g62
(dp3997
g89
g90
ssg71
g3986
sg64
(lp3998
S':'
asbag57
(g78
g59
NtRp3999
(dp4000
g62
(dp4001
sg71
g3986
sg64
(lp4002
g57
(g58
g59
NtRp4003
(dp4004
g62
(dp4005
g70
I4
ssg71
g3999
sg64
(lp4006
S'Copyright 2011'
p4007
asbasbasbag57
(g73
g59
NtRp4008
(dp4009
g62
(dp4010
sg71
g3960
sg64
(lp4011
g57
(g78
g59
NtRp4012
(dp4013
g62
(dp4014
g82
g83
ssg71
g4008
sg64
(lp4015
S'description'
p4016
asbag57
(g78
g59
NtRp4017
(dp4018
g62
(dp4019
g89
g90
ssg71
g4008
sg64
(lp4020
S':'
asbag57
(g78
g59
NtRp4021
(dp4022
g62
(dp4023
sg71
g4008
sg64
(lp4024
g57
(g58
g59
NtRp4025
(dp4026
g62
(dp4027
g70
I4
ssg71
g4021
sg64
(lp4028
S'a cool new app'
p4029
asbasbasbag57
(g73
g59
NtRp4030
(dp4031
g62
(dp4032
sg71
g3960
sg64
(lp4033
g57
(g78
g59
NtRp4034
(dp4035
g62
(dp4036
g82
g83
ssg71
g4030
sg64
(lp4037
S'generator'
p4038
asbag57
(g78
g59
NtRp4039
(dp4040
g62
(dp4041
g89
g90
ssg71
g4030
sg64
(lp4042
S':'
asbag57
(g78
g59
NtRp4043
(dp4044
g62
(dp4045
sg71
g4030
sg64
(lp4046
g57
(g58
g59
NtRp4047
(dp4048
g62
(dp4049
g70
I4
ssg71
g4043
sg64
(lp4050
S'Web2py Web Framework'
p4051
asbasbasbag57
(g73
g59
NtRp4052
(dp4053
g62
(dp4054
sg71
g3960
sg64
(lp4055
g57
(g78
g59
NtRp4056
(dp4057
g62
(dp4058
g82
g83
ssg71
g4052
sg64
(lp4059
S'keywords'
p4060
asbag57
(g78
g59
NtRp4061
(dp4062
g62
(dp4063
g89
g90
ssg71
g4052
sg64
(lp4064
S':'
asbag57
(g78
g59
NtRp4065
(dp4066
g62
(dp4067
sg71
g4052
sg64
(lp4068
g57
(g58
g59
NtRp4069
(dp4070
g62
(dp4071
g70
I4
ssg71
g4065
sg64
(lp4072
S'web2py, python, framework'
p4073
asbasbasbasbasbasbasbag57
(g73
g59
NtRp4074
(dp4075
g62
(dp4076
sg71
g3301
sg64
(lp4077
g57
(g78
g59
NtRp4078
(dp4079
g62
(dp4080
g82
g83
ssg71
g4074
sg64
(lp4081
S'postprocessing'
p4082
asbag57
(g78
g59
NtRp4083
(dp4084
g62
(dp4085
g89
g90
ssg71
g4074
sg64
(lp4086
S':'
asbag57
(g78
g59
NtRp4087
(dp4088
g62
(dp4089
sg71
g4074
sg64
(lp4090
g57
(g58
g59
NtRp4091
(dp4092
g62
(dp4093
g70
I5
ssg71
g4087
sg64
(lp4094
g57
(g66
g59
NtRp4095
(dp4096
g62
(dp4097
g70
I4
ssg71
Nsg64
(lp4098
sbasbasbasbag57
(g73
g59
NtRp4099
(dp4100
g62
(dp4101
sg71
g3301
sg64
(lp4102
g57
(g78
g59
NtRp4103
(dp4104
g62
(dp4105
g82
g83
ssg71
g4099
sg64
(lp4106
S'session_file'
p4107
asbag57
(g78
g59
NtRp4108
(dp4109
g62
(dp4110
g89
g90
ssg71
g4099
sg64
(lp4111
S':'
asbag57
(g78
g59
NtRp4112
(dp4113
g62
(dp4114
sg71
g4099
sg64
(lp4115
g57
(g58
g59
NtRp4116
(dp4117
g62
(dp4118
g70
I5
ssg71
g4112
sg64
(lp4119
S"<open file '/home/unic/web2py/applications/manager/sessions/127.0.0.1-7f7bcb65-bef9-473d-a481-a3eba18d03c3', mode 'rb+' at 0xab4355f8>"
p4120
asbasbasbag57
(g73
g59
NtRp4121
(dp4122
g62
(dp4123
sg71
g3301
sg64
(lp4124
g57
(g78
g59
NtRp4125
(dp4126
g62
(dp4127
g82
g83
ssg71
g4121
sg64
(lp4128
S'session_filename'
p4129
asbag57
(g78
g59
NtRp4130
(dp4131
g62
(dp4132
g89
g90
ssg71
g4121
sg64
(lp4133
S':'
asbag57
(g78
g59
NtRp4134
(dp4135
g62
(dp4136
sg71
g4121
sg64
(lp4137
g57
(g58
g59
NtRp4138
(dp4139
g62
(dp4140
g70
I5
ssg71
g4134
sg64
(lp4141
S'/home/unic/web2py/applications/manager/sessions/127.0.0.1-7f7bcb65-bef9-473d-a481-a3eba18d03c3'
p4142
asbasbasbag57
(g73
g59
NtRp4143
(dp4144
g62
(dp4145
sg71
g3301
sg64
(lp4146
g57
(g78
g59
NtRp4147
(dp4148
g62
(dp4149
g82
g83
ssg71
g4143
sg64
(lp4150
S'session_id'
p4151
asbag57
(g78
g59
NtRp4152
(dp4153
g62
(dp4154
g89
g90
ssg71
g4143
sg64
(lp4155
S':'
asbag57
(g78
g59
NtRp4156
(dp4157
g62
(dp4158
sg71
g4143
sg64
(lp4159
g57
(g58
g59
NtRp4160
(dp4161
g62
(dp4162
g70
I5
ssg71
g4156
sg64
(lp4163
S'127.0.0.1-7f7bcb65-bef9-473d-a481-a3eba18d03c3'
p4164
asbasbasbag57
(g73
g59
NtRp4165
(dp4166
g62
(dp4167
sg71
g3301
sg64
(lp4168
g57
(g78
g59
NtRp4169
(dp4170
g62
(dp4171
g82
g83
ssg71
g4165
sg64
(lp4172
S'session_id_name'
p4173
asbag57
(g78
g59
NtRp4174
(dp4175
g62
(dp4176
g89
g90
ssg71
g4165
sg64
(lp4177
S':'
asbag57
(g78
g59
NtRp4178
(dp4179
g62
(dp4180
sg71
g4165
sg64
(lp4181
g57
(g58
g59
NtRp4182
(dp4183
g62
(dp4184
g70
I5
ssg71
g4178
sg64
(lp4185
g3358
asbasbasbag57
(g73
g59
NtRp4186
(dp4187
g62
(dp4188
sg71
g3301
sg64
(lp4189
g57
(g78
g59
NtRp4190
(dp4191
g62
(dp4192
g82
g83
ssg71
g4186
sg64
(lp4193
S'session_locked'
p4194
asbag57
(g78
g59
NtRp4195
(dp4196
g62
(dp4197
g89
g90
ssg71
g4186
sg64
(lp4198
S':'
asbag57
(g78
g59
NtRp4199
(dp4200
g62
(dp4201
sg71
g4186
sg64
(lp4202
g57
(g58
g59
NtRp4203
(dp4204
g62
(dp4205
g70
I5
ssg71
g4199
sg64
(lp4206
g1841
asbasbasbag57
(g73
g59
NtRp4207
(dp4208
g62
(dp4209
sg71
g3301
sg64
(lp4210
g57
(g78
g59
NtRp4211
(dp4212
g62
(dp4213
g82
g83
ssg71
g4207
sg64
(lp4214
S'session_new'
p4215
asbag57
(g78
g59
NtRp4216
(dp4217
g62
(dp4218
g89
g90
ssg71
g4207
sg64
(lp4219
S':'
asbag57
(g78
g59
NtRp4220
(dp4221
g62
(dp4222
sg71
g4207
sg64
(lp4223
g57
(g58
g59
NtRp4224
(dp4225
g62
(dp4226
g70
I5
ssg71
g4220
sg64
(lp4227
g100
asbasbasbag57
(g73
g59
NtRp4228
(dp4229
g62
(dp4230
sg71
g3301
sg64
(lp4231
g57
(g78
g59
NtRp4232
(dp4233
g62
(dp4234
g82
g83
ssg71
g4228
sg64
(lp4235
S'status'
p4236
asbag57
(g78
g59
NtRp4237
(dp4238
g62
(dp4239
g89
g90
ssg71
g4228
sg64
(lp4240
S':'
asbag57
(g78
g59
NtRp4241
(dp4242
g62
(dp4243
sg71
g4228
sg64
(lp4244
g57
(g58
g59
NtRp4245
(dp4246
g62
(dp4247
g70
I5
ssg71
g4241
sg64
(lp4248
S'200'
p4249
asbasbasbag57
(g73
g59
NtRp4250
(dp4251
g62
(dp4252
sg71
g3301
sg64
(lp4253
g57
(g78
g59
NtRp4254
(dp4255
g62
(dp4256
g82
g83
ssg71
g4250
sg64
(lp4257
S'subtitle'
p4258
asbag57
(g78
g59
NtRp4259
(dp4260
g62
(dp4261
g89
g90
ssg71
g4250
sg64
(lp4262
S':'
asbag57
(g78
g59
NtRp4263
(dp4264
g62
(dp4265
sg71
g4250
sg64
(lp4266
g57
(g58
g59
NtRp4267
(dp4268
g62
(dp4269
g70
I5
ssg71
g4263
sg64
(lp4270
g3858
(S's\r\x00\x00\x00customize me!'
tRp4271
asbasbasbag57
(g73
g59
NtRp4272
(dp4273
g62
(dp4274
sg71
g3301
sg64
(lp4275
g57
(g78
g59
NtRp4276
(dp4277
g62
(dp4278
g82
g83
ssg71
g4272
sg64
(lp4279
S'title'
p4280
asbag57
(g78
g59
NtRp4281
(dp4282
g62
(dp4283
g89
g90
ssg71
g4272
sg64
(lp4284
S':'
asbag57
(g78
g59
NtRp4285
(dp4286
g62
(dp4287
sg71
g4272
sg64
(lp4288
g57
(g58
g59
NtRp4289
(dp4290
g62
(dp4291
g70
I5
ssg71
g4285
sg64
(lp4292
S'Manager'
p4293
asbasbasbag57
(g73
g59
NtRp4294
(dp4295
g62
(dp4296
sg71
g3301
sg64
(lp4297
g57
(g78
g59
NtRp4298
(dp4299
g62
(dp4300
g82
g83
ssg71
g4294
sg64
(lp4301
g2505
asbag57
(g78
g59
NtRp4302
(dp4303
g62
(dp4304
g89
g90
ssg71
g4294
sg64
(lp4305
S':'
asbag57
(g78
g59
NtRp4306
(dp4307
g62
(dp4308
sg71
g4294
sg64
(lp4309
g57
(g58
g59
NtRp4310
(dp4311
g62
(dp4312
g70
I5
ssg71
g4306
sg64
(lp4313
g2518
asbasbasbag57
(g73
g59
NtRp4314
(dp4315
g62
(dp4316
sg71
g3301
sg64
(lp4317
g57
(g78
g59
NtRp4318
(dp4319
g62
(dp4320
g82
g83
ssg71
g4314
sg64
(lp4321
S'view'
p4322
asbag57
(g78
g59
NtRp4323
(dp4324
g62
(dp4325
g89
g90
ssg71
g4314
sg64
(lp4326
S':'
asbag57
(g78
g59
NtRp4327
(dp4328
g62
(dp4329
sg71
g4314
sg64
(lp4330
g57
(g58
g59
NtRp4331
(dp4332
g62
(dp4333
g70
I5
ssg71
g4327
sg64
(lp4334
S'default/label.html'
p4335
asbasbasbasbasbsS'locals'
p4336
(dp4337
S'Service'
p4338
S"<class 'gluon.tools.Service'>"
p4339
sS'OBJECT'
p4340
S"<class 'gluon.html.OBJECT'>"
p4341
sS'SQLDB'
p4342
S"<class 'gluon.dal.DAL'>"
p4343
sg3197
S'<Storage {\'token\': \'neeharikak.v@students.iiit.a...sh\': \'\\xcdf"\\x98}^\\xbc]K\\xd6\\xf6\\xa2\\xa9\\x1fiN\'}>'
p4344
sS'LINK'
p4345
S"<class 'gluon.html.LINK'>"
p4346
sS'BR'
p4347
S"<class 'gluon.html.BR'>"
p4348
sS'local_import'
p4349
S'<function <lambda>>'
p4350
sS'OPTGROUP'
p4351
S"<class 'gluon.html.OPTGROUP'>"
p4352
sS'PRE'
p4353
S"<class 'gluon.html.PRE'>"
p4354
sS'IS_INT_IN_RANGE'
p4355
S"<class 'gluon.validators.IS_INT_IN_RANGE'>"
p4356
sS'_CAS_logout'
p4357
S'<function _CAS_logout>'
p4358
sS'IS_LOWER'
p4359
S"<class 'gluon.validators.IS_LOWER'>"
p4360
sS'IS_STRONG'
p4361
S"<class 'gluon.validators.IS_STRONG'>"
p4362
sS'Recaptcha'
p4363
S"<class 'gluon.tools.Recaptcha'>"
p4364
sS'cache'
p4365
S'<gluon.cache.Cache object>'
p4366
sS'IS_IN_DB'
p4367
S"<class 'gluon.validators.IS_IN_DB'>"
p4368
sS'TAG'
p4369
S'<gluon.html.__TAG__ object>'
p4370
sS'SQLField'
p4371
S"<class 'gluon.dal.Field'>"
p4372
sS'BODY'
p4373
S"<class 'gluon.html.BODY'>"
p4374
sS'IS_DATE_IN_RANGE'
p4375
S"<class 'gluon.validators.IS_DATE_IN_RANGE'>"
p4376
sS'TH'
p4377
S"<class 'gluon.html.TH'>"
p4378
sS'URL'
p4379
S'<function URL>'
p4380
sS'__file__'
p4381
S"'/home/unic/web2py/applications/manager/views/default/label.html'"
p4382
sS'db'
p4383
S"<DAL {'auth_event': <Table {'origin': <gluon.dal...'_id': <gluon.dal.Field object at 0xaa8567ec>}>}>"
p4384
sS'auth'
p4385
S'<gluon.tools.Auth object>'
p4386
sS'P'
S"<class 'gluon.html.P'>"
p4387
sS'TFOOT'
p4388
S"<class 'gluon.html.TFOOT'>"
p4389
sS'XHTML'
p4390
S"<class 'gluon.html.XHTML'>"
p4391
sS'ON'
p4392
g1841
sS'OL'
p4393
S"<class 'gluon.html.OL'>"
p4394
sS'TEXTAREA'
p4395
S"<class 'gluon.html.TEXTAREA'>"
p4396
sS'MENU'
p4397
S"<class 'gluon.html.MENU'>"
p4398
sS'IS_IMAGE'
p4399
S"<class 'gluon.validators.IS_IMAGE'>"
p4400
sS'LOAD'
p4401
S'<function LOAD>'
p4402
sS'CODE'
p4403
S"<class 'gluon.html.CODE'>"
p4404
sS'HTTP'
p4405
S"<class 'gluon.http.HTTP'>"
p4406
sS'HR'
p4407
S"<class 'gluon.html.HR'>"
p4408
sS'IS_DATETIME'
p4409
S"<class 'gluon.validators.IS_DATETIME'>"
p4410
sS'HEAD'
p4411
S"<class 'gluon.html.HEAD'>"
p4412
sS'LABEL'
p4413
S"<class 'gluon.html.LABEL'>"
p4414
sS'META'
p4415
S"<class 'gluon.html.META'>"
p4416
sS'SELECT'
p4417
S"<class 'gluon.html.SELECT'>"
p4418
sS'CENTER'
p4419
S"<class 'gluon.html.CENTER'>"
p4420
sS'prettydate'
p4421
S'<function prettydate>'
p4422
sS'Crud'
p4423
S"<class 'gluon.tools.Crud'>"
p4424
sS'Auth'
p4425
S"<class 'gluon.tools.Auth'>"
p4426
sS'IS_EQUAL_TO'
p4427
S"<class 'gluon.validators.IS_EQUAL_TO'>"
p4428
sS'HTML'
p4429
S"<class 'gluon.html.HTML'>"
p4430
sS'SQLFORM'
p4431
S"<class 'gluon.sqlhtml.SQLFORM'>"
p4432
sS'EM'
p4433
S"<class 'gluon.html.EM'>"
p4434
sS'redirect'
p4435
S'<function redirect>'
p4436
sS'FIELDSET'
p4437
S"<class 'gluon.html.FIELDSET'>"
p4438
sS'__builtins__'
p4439
S"{'ArithmeticError': <type 'exceptions.ArithmeticError'>, 'AssertionError': <type 'exceptions.AssertionError'>, 'AttributeError': <type 'exceptions.AttributeError'>, 'BaseException': <type 'exceptions.BaseException'>, 'BufferError': <type 'exceptions.BufferError'>, 'BytesWarning': <type 'exceptions.BytesWarning'>, 'DeprecationWarning': <type 'exceptions.DeprecationWarning'>, 'EOFError': <type 'exceptions.EOFError'>, 'Ellipsis': Ellipsis, 'EnvironmentError': <type 'exceptions.EnvironmentError'>, ...}"
p4440
sS'embed64'
p4441
S'<function embed64>'
p4442
sS'IS_LIST_OF'
p4443
S"<class 'gluon.validators.IS_LIST_OF'>"
p4444
sS'INPUT'
p4445
S"<class 'gluon.html.INPUT'>"
p4446
sS'EMBED'
p4447
S"<class 'gluon.html.EMBED'>"
p4448
sS'_'
S'<function _>'
p4449
sS'H2'
p4450
S"<class 'gluon.html.H2'>"
p4451
sS'H3'
p4452
S"<class 'gluon.html.H3'>"
p4453
sS'BUTTON'
p4454
S"<class 'gluon.html.BUTTON'>"
p4455
sS'H1'
p4456
S"<class 'gluon.html.H1'>"
p4457
sS'H6'
p4458
S"<class 'gluon.html.H6'>"
p4459
sS'H4'
p4460
S"<class 'gluon.html.H4'>"
p4461
sS'H5'
p4462
S"<class 'gluon.html.H5'>"
p4463
sS'UL'
p4464
S"<class 'gluon.html.UL'>"
p4465
sS'IS_UPPER'
p4466
S"<class 'gluon.validators.IS_UPPER'>"
p4467
sS'xmlescape'
p4468
S'<function xmlescape>'
p4469
sS'IS_TIME'
p4470
S"<class 'gluon.validators.IS_TIME'>"
p4471
sS'OPTION'
p4472
S"<class 'gluon.html.OPTION'>"
p4473
sS'TITLE'
p4474
S"<class 'gluon.html.TITLE'>"
p4475
sS'CRYPT'
p4476
S"<class 'gluon.validators.CRYPT'>"
p4477
sS'IS_EMPTY_OR'
p4478
S"<class 'gluon.validators.IS_EMPTY_OR'>"
p4479
sS'MARKMIN'
p4480
S"<class 'gluon.html.MARKMIN'>"
p4481
sS'gluon'
p4482
S"<module 'gluon' from '/usr/lib/pymodules/python2.7/gluon/__init__.pyc'>"
p4483
sS'COL'
p4484
S"<class 'gluon.html.COL'>"
p4485
sS'service'
p4486
S'<gluon.tools.Service object>'
p4487
sS'SCRIPT'
p4488
S"<class 'gluon.html.SCRIPT'>"
p4489
sS'CAS'
p4490
S"<Storage {'check_url': 'https://login.iiit.ac.in...: 'http://127.0.0.1:8000/manager/default/login'}>"
p4491
sS'geocode'
p4492
S'<function geocode>'
p4493
sS'TABLE'
p4494
S"<class 'gluon.html.TABLE'>"
p4495
sS'IS_IPV4'
p4496
S"<class 'gluon.validators.IS_IPV4'>"
p4497
sS'IS_LENGTH'
p4498
S"<class 'gluon.validators.IS_LENGTH'>"
p4499
sS'XML'
p4500
S"<class 'gluon.html.XML'>"
p4501
sS'B'
S"<class 'gluon.html.B'>"
p4502
sS'IMG'
p4503
S"<class 'gluon.html.IMG'>"
p4504
sS'SQLTABLE'
p4505
S"<class 'gluon.sqlhtml.SQLTABLE'>"
p4506
sS'IS_MATCH'
p4507
S"<class 'gluon.validators.IS_MATCH'>"
p4508
sS'IS_ALPHANUMERIC'
p4509
S"<class 'gluon.validators.IS_ALPHANUMERIC'>"
p4510
sS'HOST'
p4511
S"'127.0.0.1:8000'"
p4512
sS'SPAN'
p4513
S"<class 'gluon.html.SPAN'>"
p4514
sS'IS_SLUG'
p4515
S"<class 'gluon.validators.IS_SLUG'>"
p4516
sS'CLEANUP'
p4517
S"<class 'gluon.validators.CLEANUP'>"
p4518
sS'fetch'
p4519
S'<function fetch>'
p4520
sS'k'
S'154'
p4521
sS'IS_DATE'
p4522
S"<class 'gluon.validators.IS_DATE'>"
p4523
sS'IS_EMAIL'
p4524
S"<class 'gluon.validators.IS_EMAIL'>"
p4525
sS'IS_NOT_EMPTY'
p4526
S"<class 'gluon.validators.IS_NOT_EMPTY'>"
p4527
sg56
S"<Storage {'body': <cStringIO.StringO object at 0..._vars': <Storage {}>, 'post_vars': <Storage {}>}>"
p4528
sS'BEAUTIFY'
p4529
S"<class 'gluon.html.BEAUTIFY'>"
p4530
sS'TBODY'
p4531
S"<class 'gluon.html.TBODY'>"
p4532
sS'CAT'
p4533
S"<class 'gluon.html.CAT'>"
p4534
sS'Field'
p4535
S"<class 'gluon.dal.Field'>"
p4536
sS'_CAS_login'
p4537
S'<function _CAS_login>'
p4538
sS'Mail'
p4539
S"<class 'gluon.tools.Mail'>"
p4540
sS'DIV'
p4541
S"<class 'gluon.html.DIV'>"
p4542
sS'LEGEND'
p4543
S"<class 'gluon.html.LEGEND'>"
p4544
sS'COLGROUP'
p4545
S"<class 'gluon.html.COLGROUP'>"
p4546
sS'DAL'
p4547
S"<class 'gluon.dal.DAL'>"
p4548
sS'TT'
p4549
S"<class 'gluon.html.TT'>"
p4550
sS'TR'
p4551
S"<class 'gluon.html.TR'>"
p4552
sS'LI'
p4553
S"<class 'gluon.html.LI'>"
p4554
sS'IFRAME'
p4555
S"<class 'gluon.html.IFRAME'>"
p4556
sS'TD'
p4557
S"<class 'gluon.html.TD'>"
p4558
sS'PluginManager'
p4559
S"<class 'gluon.tools.PluginManager'>"
p4560
sS'IS_URL'
p4561
S"<class 'gluon.validators.IS_URL'>"
p4562
sS'A'
S"<class 'gluon.html.A'>"
p4563
sS'STYLE'
p4564
S"<class 'gluon.html.STYLE'>"
p4565
sS'IS_DATETIME_IN_RANGE'
p4566
S"<class 'gluon.validators.IS_DATETIME_IN_RANGE'>"
p4567
sS'users'
p4568
S'<gluon.dal.Rows object>'
p4569
sS'FORM'
p4570
S"<class 'gluon.html.FORM'>"
p4571
sS'I'
S"<class 'gluon.html.I'>"
p4572
sS'crud'
p4573
S'<gluon.tools.Crud object>'
p4574
sS'IS_NOT_IN_DB'
p4575
S"<class 'gluon.validators.IS_NOT_IN_DB'>"
p4576
sg3296
S"<Storage {'body': <cStringIO.StringO object at 0...a> at 0xab93db8c>, 'view': 'default/label.html'}>"
p4577
sS'THEAD'
p4578
S"<class 'gluon.html.THEAD'>"
p4579
sS'IS_NULL_OR'
p4580
S"<class 'gluon.validators.IS_EMPTY_OR'>"
p4581
sS'i'
S"<Row {'Name': '', 'RollNo': '', 'update_record':...lete_record': <function <lambda> at 0xab049064>}>"
p4582
sS'IS_FLOAT_IN_RANGE'
p4583
S"<class 'gluon.validators.IS_FLOAT_IN_RANGE'>"
p4584
sS'IS_EXPR'
p4585
S"<class 'gluon.validators.IS_EXPR'>"
p4586
sS'T'
S'<gluon.languages.translator object>'
p4587
sS'IS_IN_SET'
p4588
S"<class 'gluon.validators.IS_IN_SET'>"
p4589
sS'IS_UPLOAD_FILENAME'
p4590
S"<class 'gluon.validators.IS_UPLOAD_FILENAME'>"
p4591
sS'IS_DECIMAL_IN_RANGE'
p4592
S"<class 'gluon.validators.IS_DECIMAL_IN_RANGE'>"
p4593
sssS'traceback'
p4594
S'Traceback (most recent call last):\n  File "/usr/lib/pymodules/python2.7/gluon/restricted.py", line 204, in restricted\n    exec ccode in environment\n  File "/home/unic/web2py/applications/manager/views/default/label.html", line 46, in <module>\nTypeError: unsupported operand type(s) for %: \'Row\' and \'int\'\n'
p4595
s.