(dp1
S'output'
p2
S"<type 'exceptions.TypeError'> list indices must be integers, not Row"
p3
sS'layer'
p4
S'/home/unic/web2py/applications/manager/views/default/label.html'
p5
sS'code'
p6
S'response.write(\'<!DOCTYPE html PUBLIC "-//W3C//DTD XHTML 1.0 Transitional//EN" "http://www.w3.org/TR/xhtml1/DTD/xhtml1-transitional.dtd">\\n<!--\\nAuthor: Reality Software\\nWebsite: http://www.realitysoftware.ca\\nNote: This is a free template released under the Creative Commons Attribution 3.0 license, \\nwhich means you can use it in any way you want provided you keep links to the author intact.\\n-->\\n<html xmlns="http://www.w3.org/1999/xhtml">\\n <head>\\n  <title>\\n   \', escape=False)\nresponse.write(response.title or request.application)\nresponse.write(\'\\n  </title>\\n  \', escape=False)\nresponse.files.append(URL(request.application,\'static\',\'plugin_layouts/layouts/Papira/style.css\'))\nresponse.write(\'\\n  \', escape=False)\nresponse.files.append(URL(\'static\',\'plugin_layouts/superfish.js\'))\nresponse.write(\'\\n  \', escape=False)\nresponse.write(\'<script type="text/javascript"><!--\\n    // These variables are used by the web2py_ajax_init function in web2py_ajax.js (which is loaded below).\\n    var w2p_ajax_confirm_message = "\', escape=False)\nresponse.write(T(\'Are you sure you want to delete this object?\'))\nresponse.write(\'";\\n    var w2p_ajax_date_format = "\', escape=False)\nresponse.write(T(\'%Y-%m-%d\'))\nresponse.write(\'";\\n    var w2p_ajax_datetime_format = "\', escape=False)\nresponse.write(T(\'%Y-%m-%d %H:%M:%S\'))\nresponse.write(\'";\\n    //--></script>\\n\', escape=False)\nresponse.files.insert(0,URL(\'static\',\'js/jquery.js\'))\nresponse.files.insert(3,URL(\'static\',\'js/web2py.js\'))\nresponse.include_meta()\nresponse.include_files()\nresponse.write(\'\\n\', escape=False)\nresponse.write(\'\\n  <style>\\nul.web2py-menu-vertical { width: 150px; position: relative; top:1em; left:1em;  z-index:30; border:0; margin:0; padding: 0; list-style: none; text-decoration: none;}\\nul.web2py-menu-vertical li { margin:0; padding:0; border:0; width: 150px; background: black; text-align:left;}\\nul.web2py-menu-vertical li a { margin:0; padding: 1px 3px 1px 3px; border:0; width: 144px; color: white; font-size:12px;}\\ndiv.flash { position: fixed; float: right; padding: 10px; top: 10px; right: 30px; opacity: 0.75; margin: 10px 10px 10px 10px; text-align: center; clear: both; color: #fff; font-size: 11pt; text-align: center; vertical-align: middle; cursor: pointer; background: black; border: 2px solid #fff; -moz-border-radius: 5px; -webkit-border-radius: 5px; z-index: 2; }\\ndiv.error { background-color: red; color: white; padding: 3px; }\\n.auth_navbar { text-align:right; z-index:20; position: absolute; top: 2px; right:30px; border:0; padding:0 }\\n  </style>\\n </head>\\n <body>\\n\\n\\n  <div id="all">\\n   <div id="container">\\n    <!-- header -->\\n    <div id="logo">\\n     <a href="#">\\n      <span class="brown">\\n       <strong>\\n        Award\\n       </strong>\\n      </span>\\n      Manager\\n     </a>\\n    </div>\\n    <div id="menu">\\n     <ul>\\n     \', escape=False)\nif session.token=="neeharikak.v@students.iiit.ac.in" :\n    response.write(\'\\n     <li><a href="\', escape=False)\n    response.write(URL(r = request, f = \'index\'))\n    response.write(\'">Home</a></li>\\n     <li><a href="\', escape=False)\n    response.write(URL(r = request, f = \'Admin\'))\n    response.write(\'">Amount</a></li>\\n     <li><a href="\', escape=False)\n    response.write(URL(r = request, f = \'upload\'))\n    response.write(\'">Students List</a></li>\\n     <li><a href="\', escape=False)\n    response.write(URL(r = request, f = \'upload1\'))\n    response.write(\'">Book List</a></li>\\n     <li><a href="\', escape=False)\n    response.write(URL(r = request, f = \'choose\'))\n    response.write(\'">Allot</a></li>\\n     <li><a href="\', escape=False)\n    response.write(URL(r = request, f = \'total\'))\n    response.write(\'">Output</a></li>\\n     <li><a href="\', escape=False)\n    response.write(URL(r = request, f = \'logout\'))\n    response.write(\'">Logout</a></li>\\n      \', escape=False)\n    pass\nresponse.write(\'\\n    \\n    \\n     </ul>\\n    <script>\\n      jQuery(document).ready(function(){jQuery(\\\'ul.web2py-menu\\\').superfish({delay:400});});\\n    </script>\\n    </div>\\n    <!--end header -->\\n    <!-- main -->\\n    <div id="main">\\n     <div class="flash">\', escape=False)\nresponse.write(response.flash or \'\')\nresponse.write(\'</div>\\n     \', escape=False)\nresponse.write(\'\\n\', escape=False)\nk =len(users)\nresponse.write(\'\\n\', escape=False)\nfor i in users:\n    response.write(\'\\n\', escape=False)\n    if k%2 == 0:\n        response.write(\'\\n\', escape=False)\n        response.write(users[i].Name)\n        response.write(\'\\n\', escape=False)\n        pass\n    response.write(\'\\n\', escape=False)\n    pass\nresponse.write(\'\\n\', escape=False)\nresponse.write(\'\\n    </div>\\n    <!-- end main -->\\n    <!-- footer -->\\n    <div id="footer">\\n     <div id="left_footer">\\n      &copy; Copyright 2008 Your website\\n     </div>\\n     <div id="right_footer">\\n      <!-- Please do not change or delete this links. Read the license! Thanks. :-) -->\\n      <a href="http://www.realitysoftware.ca/website-design.html">\\n       Website design\\n      </a>\\n      by\\n      <a href="http://www.realitysoftware.ca">\\n       Reality Software\\n      </a>\\n     </div>\\n    </div>\\n    <!-- end footer -->\\n   </div>\\n  </div>\\n </body>\\n</html>\\n\', escape=False)'
p7
sS'snapshot'
p8
(dp9
S'exception'
p10
(dp11
S'__hash__'
p12
S"<method-wrapper '__hash__' of exceptions.TypeError object>"
p13
sS'__setattr__'
p14
S"<method-wrapper '__setattr__' of exceptions.TypeError object>"
p15
sS'__reduce_ex__'
p16
S'<built-in method __reduce_ex__ of exceptions.TypeError object>'
p17
sS'__getslice__'
p18
S"<method-wrapper '__getslice__' of exceptions.TypeError object>"
p19
sS'__getitem__'
p20
S"<method-wrapper '__getitem__' of exceptions.TypeError object>"
p21
sS'__setstate__'
p22
S'<built-in method __setstate__ of exceptions.TypeError object>'
p23
sS'__reduce__'
p24
S'<built-in method __reduce__ of exceptions.TypeError object>'
p25
sS'__str__'
p26
S"<method-wrapper '__str__' of exceptions.TypeError object>"
p27
sS'__format__'
p28
S'<built-in method __format__ of exceptions.TypeError object>'
p29
sS'__getattribute__'
p30
S"<method-wrapper '__getattribute__' of exceptions.TypeError object>"
p31
sS'__class__'
p32
S"<type 'exceptions.TypeError'>"
p33
sS'__unicode__'
p34
S'<built-in method __unicode__ of exceptions.TypeError object>'
p35
sS'__delattr__'
p36
S"<method-wrapper '__delattr__' of exceptions.TypeError object>"
p37
sS'__subclasshook__'
p38
S'<built-in method __subclasshook__ of type object>'
p39
sS'__repr__'
p40
S"<method-wrapper '__repr__' of exceptions.TypeError object>"
p41
sS'args'
p42
S"('list indices must be integers, not Row',)"
p43
sS'__dict__'
p44
S'{}'
p45
sS'__sizeof__'
p46
S'<built-in method __sizeof__ of exceptions.TypeError object>'
p47
sS'__doc__'
p48
S"'Inappropriate argument type.'"
p49
sS'__init__'
p50
S"<method-wrapper '__init__' of exceptions.TypeError object>"
p51
sS'__new__'
p52
S'<built-in method __new__ of type object>'
p53
ssS'evalue'
p54
S'list indices must be integers, not Row'
p55
sS'request'
p56
ccopy_reg
_reconstructor
p57
(cgluon.html
BEAUTIFY
p58
c__builtin__
object
p59
NtRp60
(dp61
S'attributes'
p62
(dp63
sS'components'
p64
(lp65
g57
(cgluon.html
TABLE
p66
g59
NtRp67
(dp68
g62
(dp69
S'level'
p70
I5
ssS'parent'
p71
Nsg64
(lp72
g57
(cgluon.html
TR
p73
g59
NtRp74
(dp75
g62
(dp76
sg71
g67
sg64
(lp77
g57
(cgluon.html
TD
p78
g59
NtRp79
(dp80
g62
(dp81
S'_style'
p82
S'font-weight:bold;vertical-align:top'
p83
ssg71
g74
sg64
(lp84
S'ajax'
p85
asbag57
(g78
g59
NtRp86
(dp87
g62
(dp88
S'_valign'
p89
S'top'
p90
ssg71
g74
sg64
(lp91
S':'
asbag57
(g78
g59
NtRp92
(dp93
g62
(dp94
sg71
g74
sg64
(lp95
g57
(g58
g59
NtRp96
(dp97
g62
(dp98
g70
I5
ssg71
g92
sg64
(lp99
S'False'
p100
asbasbasbag57
(g73
g59
NtRp101
(dp102
g62
(dp103
sg71
g67
sg64
(lp104
g57
(g78
g59
NtRp105
(dp106
g62
(dp107
g82
g83
ssg71
g101
sg64
(lp108
S'application'
p109
asbag57
(g78
g59
NtRp110
(dp111
g62
(dp112
g89
g90
ssg71
g101
sg64
(lp113
S':'
asbag57
(g78
g59
NtRp114
(dp115
g62
(dp116
sg71
g101
sg64
(lp117
g57
(g58
g59
NtRp118
(dp119
g62
(dp120
g70
I5
ssg71
g114
sg64
(lp121
S'manager'
p122
asbasbasbag57
(g73
g59
NtRp123
(dp124
g62
(dp125
sg71
g67
sg64
(lp126
g57
(g78
g59
NtRp127
(dp128
g62
(dp129
g82
g83
ssg71
g123
sg64
(lp130
g42
asbag57
(g78
g59
NtRp131
(dp132
g62
(dp133
g89
g90
ssg71
g123
sg64
(lp134
S':'
asbag57
(g78
g59
NtRp135
(dp136
g62
(dp137
sg71
g123
sg64
(lp138
g57
(g58
g59
NtRp139
(dp140
g62
(dp141
g70
I5
ssg71
g135
sg64
(lp142
g57
(g66
g59
NtRp143
(dp144
g62
(dp145
g70
I4
ssg71
Nsg64
(lp146
sbasbasbasbag57
(g73
g59
NtRp147
(dp148
g62
(dp149
sg71
g67
sg64
(lp150
g57
(g78
g59
NtRp151
(dp152
g62
(dp153
g82
g83
ssg71
g147
sg64
(lp154
S'body'
p155
asbag57
(g78
g59
NtRp156
(dp157
g62
(dp158
g89
g90
ssg71
g147
sg64
(lp159
S':'
asbag57
(g78
g59
NtRp160
(dp161
g62
(dp162
sg71
g147
sg64
(lp163
g57
(g58
g59
NtRp164
(dp165
g62
(dp166
g70
I5
ssg71
g160
sg64
(lp167
S'<cStringIO.StringO object at 0xab46ce80>'
p168
asbasbasbag57
(g73
g59
NtRp169
(dp170
g62
(dp171
sg71
g67
sg64
(lp172
g57
(g78
g59
NtRp173
(dp174
g62
(dp175
g82
g83
ssg71
g169
sg64
(lp176
S'client'
p177
asbag57
(g78
g59
NtRp178
(dp179
g62
(dp180
g89
g90
ssg71
g169
sg64
(lp181
S':'
asbag57
(g78
g59
NtRp182
(dp183
g62
(dp184
sg71
g169
sg64
(lp185
g57
(g58
g59
NtRp186
(dp187
g62
(dp188
g70
I5
ssg71
g182
sg64
(lp189
S'127.0.0.1'
p190
asbasbasbag57
(g73
g59
NtRp191
(dp192
g62
(dp193
sg71
g67
sg64
(lp194
g57
(g78
g59
NtRp195
(dp196
g62
(dp197
g82
g83
ssg71
g191
sg64
(lp198
S'controller'
p199
asbag57
(g78
g59
NtRp200
(dp201
g62
(dp202
g89
g90
ssg71
g191
sg64
(lp203
S':'
asbag57
(g78
g59
NtRp204
(dp205
g62
(dp206
sg71
g191
sg64
(lp207
g57
(g58
g59
NtRp208
(dp209
g62
(dp210
g70
I5
ssg71
g204
sg64
(lp211
S'default'
p212
asbasbasbag57
(g73
g59
NtRp213
(dp214
g62
(dp215
sg71
g67
sg64
(lp216
g57
(g78
g59
NtRp217
(dp218
g62
(dp219
g82
g83
ssg71
g213
sg64
(lp220
S'cookies'
p221
asbag57
(g78
g59
NtRp222
(dp223
g62
(dp224
g89
g90
ssg71
g213
sg64
(lp225
S':'
asbag57
(g78
g59
NtRp226
(dp227
g62
(dp228
sg71
g213
sg64
(lp229
g57
(g58
g59
NtRp230
(dp231
g62
(dp232
g70
I5
ssg71
g226
sg64
(lp233
g57
(g66
g59
NtRp234
(dp235
g62
(dp236
g70
I4
ssg71
Nsg64
(lp237
g57
(g73
g59
NtRp238
(dp239
g62
(dp240
sg71
g234
sg64
(lp241
g57
(g78
g59
NtRp242
(dp243
g62
(dp244
g82
g83
ssg71
g238
sg64
(lp245
S'session_id_admin'
p246
asbag57
(g78
g59
NtRp247
(dp248
g62
(dp249
g89
g90
ssg71
g238
sg64
(lp250
S':'
asbag57
(g78
g59
NtRp251
(dp252
g62
(dp253
sg71
g238
sg64
(lp254
g57
(g58
g59
NtRp255
(dp256
g62
(dp257
g70
I4
ssg71
g251
sg64
(lp258
g57
(g66
g59
NtRp259
(dp260
g62
(dp261
g70
I3
ssg71
Nsg64
(lp262
g57
(g73
g59
NtRp263
(dp264
g62
(dp265
sg71
g259
sg64
(lp266
g57
(g78
g59
NtRp267
(dp268
g62
(dp269
g82
g83
ssg71
g263
sg64
(lp270
S'comment'
p271
asbag57
(g78
g59
NtRp272
(dp273
g62
(dp274
g89
g90
ssg71
g263
sg64
(lp275
S':'
asbag57
(g78
g59
NtRp276
(dp277
g62
(dp278
sg71
g263
sg64
(lp279
g57
(g58
g59
NtRp280
(dp281
g62
(dp282
g70
I3
ssg71
g276
sg64
(lp283
S''
asbasbasbag57
(g73
g59
NtRp284
(dp285
g62
(dp286
sg71
g259
sg64
(lp287
g57
(g78
g59
NtRp288
(dp289
g62
(dp290
g82
g83
ssg71
g284
sg64
(lp291
S'domain'
p292
asbag57
(g78
g59
NtRp293
(dp294
g62
(dp295
g89
g90
ssg71
g284
sg64
(lp296
S':'
asbag57
(g78
g59
NtRp297
(dp298
g62
(dp299
sg71
g284
sg64
(lp300
g57
(g58
g59
NtRp301
(dp302
g62
(dp303
g70
I3
ssg71
g297
sg64
(lp304
S''
asbasbasbag57
(g73
g59
NtRp305
(dp306
g62
(dp307
sg71
g259
sg64
(lp308
g57
(g78
g59
NtRp309
(dp310
g62
(dp311
g82
g83
ssg71
g305
sg64
(lp312
S'expires'
p313
asbag57
(g78
g59
NtRp314
(dp315
g62
(dp316
g89
g90
ssg71
g305
sg64
(lp317
S':'
asbag57
(g78
g59
NtRp318
(dp319
g62
(dp320
sg71
g305
sg64
(lp321
g57
(g58
g59
NtRp322
(dp323
g62
(dp324
g70
I3
ssg71
g318
sg64
(lp325
S''
asbasbasbag57
(g73
g59
NtRp326
(dp327
g62
(dp328
sg71
g259
sg64
(lp329
g57
(g78
g59
NtRp330
(dp331
g62
(dp332
g82
g83
ssg71
g326
sg64
(lp333
S'httponly'
p334
asbag57
(g78
g59
NtRp335
(dp336
g62
(dp337
g89
g90
ssg71
g326
sg64
(lp338
S':'
asbag57
(g78
g59
NtRp339
(dp340
g62
(dp341
sg71
g326
sg64
(lp342
g57
(g58
g59
NtRp343
(dp344
g62
(dp345
g70
I3
ssg71
g339
sg64
(lp346
S''
asbasbasbag57
(g73
g59
NtRp347
(dp348
g62
(dp349
sg71
g259
sg64
(lp350
g57
(g78
g59
NtRp351
(dp352
g62
(dp353
g82
g83
ssg71
g347
sg64
(lp354
S'max-age'
p355
asbag57
(g78
g59
NtRp356
(dp357
g62
(dp358
g89
g90
ssg71
g347
sg64
(lp359
S':'
asbag57
(g78
g59
NtRp360
(dp361
g62
(dp362
sg71
g347
sg64
(lp363
g57
(g58
g59
NtRp364
(dp365
g62
(dp366
g70
I3
ssg71
g360
sg64
(lp367
S''
asbasbasbag57
(g73
g59
NtRp368
(dp369
g62
(dp370
sg71
g259
sg64
(lp371
g57
(g78
g59
NtRp372
(dp373
g62
(dp374
g82
g83
ssg71
g368
sg64
(lp375
S'path'
p376
asbag57
(g78
g59
NtRp377
(dp378
g62
(dp379
g89
g90
ssg71
g368
sg64
(lp380
S':'
asbag57
(g78
g59
NtRp381
(dp382
g62
(dp383
sg71
g368
sg64
(lp384
g57
(g58
g59
NtRp385
(dp386
g62
(dp387
g70
I3
ssg71
g381
sg64
(lp388
S''
asbasbasbag57
(g73
g59
NtRp389
(dp390
g62
(dp391
sg71
g259
sg64
(lp392
g57
(g78
g59
NtRp393
(dp394
g62
(dp395
g82
g83
ssg71
g389
sg64
(lp396
S'secure'
p397
asbag57
(g78
g59
NtRp398
(dp399
g62
(dp400
g89
g90
ssg71
g389
sg64
(lp401
S':'
asbag57
(g78
g59
NtRp402
(dp403
g62
(dp404
sg71
g389
sg64
(lp405
g57
(g58
g59
NtRp406
(dp407
g62
(dp408
g70
I3
ssg71
g402
sg64
(lp409
S''
asbasbasbag57
(g73
g59
NtRp410
(dp411
g62
(dp412
sg71
g259
sg64
(lp413
g57
(g78
g59
NtRp414
(dp415
g62
(dp416
g82
g83
ssg71
g410
sg64
(lp417
S'version'
p418
asbag57
(g78
g59
NtRp419
(dp420
g62
(dp421
g89
g90
ssg71
g410
sg64
(lp422
S':'
asbag57
(g78
g59
NtRp423
(dp424
g62
(dp425
sg71
g410
sg64
(lp426
g57
(g58
g59
NtRp427
(dp428
g62
(dp429
g70
I3
ssg71
g423
sg64
(lp430
S''
asbasbasbasbasbasbasbag57
(g73
g59
NtRp431
(dp432
g62
(dp433
sg71
g234
sg64
(lp434
g57
(g78
g59
NtRp435
(dp436
g62
(dp437
g82
g83
ssg71
g431
sg64
(lp438
S'session_id_manager'
p439
asbag57
(g78
g59
NtRp440
(dp441
g62
(dp442
g89
g90
ssg71
g431
sg64
(lp443
S':'
asbag57
(g78
g59
NtRp444
(dp445
g62
(dp446
sg71
g431
sg64
(lp447
g57
(g58
g59
NtRp448
(dp449
g62
(dp450
g70
I4
ssg71
g444
sg64
(lp451
g57
(g66
g59
NtRp452
(dp453
g62
(dp454
g70
I3
ssg71
Nsg64
(lp455
g57
(g73
g59
NtRp456
(dp457
g62
(dp458
sg71
g452
sg64
(lp459
g57
(g78
g59
NtRp460
(dp461
g62
(dp462
g82
g83
ssg71
g456
sg64
(lp463
g271
asbag57
(g78
g59
NtRp464
(dp465
g62
(dp466
g89
g90
ssg71
g456
sg64
(lp467
S':'
asbag57
(g78
g59
NtRp468
(dp469
g62
(dp470
sg71
g456
sg64
(lp471
g57
(g58
g59
NtRp472
(dp473
g62
(dp474
g70
I3
ssg71
g468
sg64
(lp475
S''
asbasbasbag57
(g73
g59
NtRp476
(dp477
g62
(dp478
sg71
g452
sg64
(lp479
g57
(g78
g59
NtRp480
(dp481
g62
(dp482
g82
g83
ssg71
g476
sg64
(lp483
g292
asbag57
(g78
g59
NtRp484
(dp485
g62
(dp486
g89
g90
ssg71
g476
sg64
(lp487
S':'
asbag57
(g78
g59
NtRp488
(dp489
g62
(dp490
sg71
g476
sg64
(lp491
g57
(g58
g59
NtRp492
(dp493
g62
(dp494
g70
I3
ssg71
g488
sg64
(lp495
S''
asbasbasbag57
(g73
g59
NtRp496
(dp497
g62
(dp498
sg71
g452
sg64
(lp499
g57
(g78
g59
NtRp500
(dp501
g62
(dp502
g82
g83
ssg71
g496
sg64
(lp503
g313
asbag57
(g78
g59
NtRp504
(dp505
g62
(dp506
g89
g90
ssg71
g496
sg64
(lp507
S':'
asbag57
(g78
g59
NtRp508
(dp509
g62
(dp510
sg71
g496
sg64
(lp511
g57
(g58
g59
NtRp512
(dp513
g62
(dp514
g70
I3
ssg71
g508
sg64
(lp515
S''
asbasbasbag57
(g73
g59
NtRp516
(dp517
g62
(dp518
sg71
g452
sg64
(lp519
g57
(g78
g59
NtRp520
(dp521
g62
(dp522
g82
g83
ssg71
g516
sg64
(lp523
g334
asbag57
(g78
g59
NtRp524
(dp525
g62
(dp526
g89
g90
ssg71
g516
sg64
(lp527
S':'
asbag57
(g78
g59
NtRp528
(dp529
g62
(dp530
sg71
g516
sg64
(lp531
g57
(g58
g59
NtRp532
(dp533
g62
(dp534
g70
I3
ssg71
g528
sg64
(lp535
S''
asbasbasbag57
(g73
g59
NtRp536
(dp537
g62
(dp538
sg71
g452
sg64
(lp539
g57
(g78
g59
NtRp540
(dp541
g62
(dp542
g82
g83
ssg71
g536
sg64
(lp543
g355
asbag57
(g78
g59
NtRp544
(dp545
g62
(dp546
g89
g90
ssg71
g536
sg64
(lp547
S':'
asbag57
(g78
g59
NtRp548
(dp549
g62
(dp550
sg71
g536
sg64
(lp551
g57
(g58
g59
NtRp552
(dp553
g62
(dp554
g70
I3
ssg71
g548
sg64
(lp555
S''
asbasbasbag57
(g73
g59
NtRp556
(dp557
g62
(dp558
sg71
g452
sg64
(lp559
g57
(g78
g59
NtRp560
(dp561
g62
(dp562
g82
g83
ssg71
g556
sg64
(lp563
g376
asbag57
(g78
g59
NtRp564
(dp565
g62
(dp566
g89
g90
ssg71
g556
sg64
(lp567
S':'
asbag57
(g78
g59
NtRp568
(dp569
g62
(dp570
sg71
g556
sg64
(lp571
g57
(g58
g59
NtRp572
(dp573
g62
(dp574
g70
I3
ssg71
g568
sg64
(lp575
S''
asbasbasbag57
(g73
g59
NtRp576
(dp577
g62
(dp578
sg71
g452
sg64
(lp579
g57
(g78
g59
NtRp580
(dp581
g62
(dp582
g82
g83
ssg71
g576
sg64
(lp583
g397
asbag57
(g78
g59
NtRp584
(dp585
g62
(dp586
g89
g90
ssg71
g576
sg64
(lp587
S':'
asbag57
(g78
g59
NtRp588
(dp589
g62
(dp590
sg71
g576
sg64
(lp591
g57
(g58
g59
NtRp592
(dp593
g62
(dp594
g70
I3
ssg71
g588
sg64
(lp595
S''
asbasbasbag57
(g73
g59
NtRp596
(dp597
g62
(dp598
sg71
g452
sg64
(lp599
g57
(g78
g59
NtRp600
(dp601
g62
(dp602
g82
g83
ssg71
g596
sg64
(lp603
g418
asbag57
(g78
g59
NtRp604
(dp605
g62
(dp606
g89
g90
ssg71
g596
sg64
(lp607
S':'
asbag57
(g78
g59
NtRp608
(dp609
g62
(dp610
sg71
g596
sg64
(lp611
g57
(g58
g59
NtRp612
(dp613
g62
(dp614
g70
I3
ssg71
g608
sg64
(lp615
S''
asbasbasbasbasbasbasbag57
(g73
g59
NtRp616
(dp617
g62
(dp618
sg71
g234
sg64
(lp619
g57
(g78
g59
NtRp620
(dp621
g62
(dp622
g82
g83
ssg71
g616
sg64
(lp623
S'session_id_manager0'
p624
asbag57
(g78
g59
NtRp625
(dp626
g62
(dp627
g89
g90
ssg71
g616
sg64
(lp628
S':'
asbag57
(g78
g59
NtRp629
(dp630
g62
(dp631
sg71
g616
sg64
(lp632
g57
(g58
g59
NtRp633
(dp634
g62
(dp635
g70
I4
ssg71
g629
sg64
(lp636
g57
(g66
g59
NtRp637
(dp638
g62
(dp639
g70
I3
ssg71
Nsg64
(lp640
g57
(g73
g59
NtRp641
(dp642
g62
(dp643
sg71
g637
sg64
(lp644
g57
(g78
g59
NtRp645
(dp646
g62
(dp647
g82
g83
ssg71
g641
sg64
(lp648
g271
asbag57
(g78
g59
NtRp649
(dp650
g62
(dp651
g89
g90
ssg71
g641
sg64
(lp652
S':'
asbag57
(g78
g59
NtRp653
(dp654
g62
(dp655
sg71
g641
sg64
(lp656
g57
(g58
g59
NtRp657
(dp658
g62
(dp659
g70
I3
ssg71
g653
sg64
(lp660
S''
asbasbasbag57
(g73
g59
NtRp661
(dp662
g62
(dp663
sg71
g637
sg64
(lp664
g57
(g78
g59
NtRp665
(dp666
g62
(dp667
g82
g83
ssg71
g661
sg64
(lp668
g292
asbag57
(g78
g59
NtRp669
(dp670
g62
(dp671
g89
g90
ssg71
g661
sg64
(lp672
S':'
asbag57
(g78
g59
NtRp673
(dp674
g62
(dp675
sg71
g661
sg64
(lp676
g57
(g58
g59
NtRp677
(dp678
g62
(dp679
g70
I3
ssg71
g673
sg64
(lp680
S''
asbasbasbag57
(g73
g59
NtRp681
(dp682
g62
(dp683
sg71
g637
sg64
(lp684
g57
(g78
g59
NtRp685
(dp686
g62
(dp687
g82
g83
ssg71
g681
sg64
(lp688
g313
asbag57
(g78
g59
NtRp689
(dp690
g62
(dp691
g89
g90
ssg71
g681
sg64
(lp692
S':'
asbag57
(g78
g59
NtRp693
(dp694
g62
(dp695
sg71
g681
sg64
(lp696
g57
(g58
g59
NtRp697
(dp698
g62
(dp699
g70
I3
ssg71
g693
sg64
(lp700
S''
asbasbasbag57
(g73
g59
NtRp701
(dp702
g62
(dp703
sg71
g637
sg64
(lp704
g57
(g78
g59
NtRp705
(dp706
g62
(dp707
g82
g83
ssg71
g701
sg64
(lp708
g334
asbag57
(g78
g59
NtRp709
(dp710
g62
(dp711
g89
g90
ssg71
g701
sg64
(lp712
S':'
asbag57
(g78
g59
NtRp713
(dp714
g62
(dp715
sg71
g701
sg64
(lp716
g57
(g58
g59
NtRp717
(dp718
g62
(dp719
g70
I3
ssg71
g713
sg64
(lp720
S''
asbasbasbag57
(g73
g59
NtRp721
(dp722
g62
(dp723
sg71
g637
sg64
(lp724
g57
(g78
g59
NtRp725
(dp726
g62
(dp727
g82
g83
ssg71
g721
sg64
(lp728
g355
asbag57
(g78
g59
NtRp729
(dp730
g62
(dp731
g89
g90
ssg71
g721
sg64
(lp732
S':'
asbag57
(g78
g59
NtRp733
(dp734
g62
(dp735
sg71
g721
sg64
(lp736
g57
(g58
g59
NtRp737
(dp738
g62
(dp739
g70
I3
ssg71
g733
sg64
(lp740
S''
asbasbasbag57
(g73
g59
NtRp741
(dp742
g62
(dp743
sg71
g637
sg64
(lp744
g57
(g78
g59
NtRp745
(dp746
g62
(dp747
g82
g83
ssg71
g741
sg64
(lp748
g376
asbag57
(g78
g59
NtRp749
(dp750
g62
(dp751
g89
g90
ssg71
g741
sg64
(lp752
S':'
asbag57
(g78
g59
NtRp753
(dp754
g62
(dp755
sg71
g741
sg64
(lp756
g57
(g58
g59
NtRp757
(dp758
g62
(dp759
g70
I3
ssg71
g753
sg64
(lp760
S''
asbasbasbag57
(g73
g59
NtRp761
(dp762
g62
(dp763
sg71
g637
sg64
(lp764
g57
(g78
g59
NtRp765
(dp766
g62
(dp767
g82
g83
ssg71
g761
sg64
(lp768
g397
asbag57
(g78
g59
NtRp769
(dp770
g62
(dp771
g89
g90
ssg71
g761
sg64
(lp772
S':'
asbag57
(g78
g59
NtRp773
(dp774
g62
(dp775
sg71
g761
sg64
(lp776
g57
(g58
g59
NtRp777
(dp778
g62
(dp779
g70
I3
ssg71
g773
sg64
(lp780
S''
asbasbasbag57
(g73
g59
NtRp781
(dp782
g62
(dp783
sg71
g637
sg64
(lp784
g57
(g78
g59
NtRp785
(dp786
g62
(dp787
g82
g83
ssg71
g781
sg64
(lp788
g418
asbag57
(g78
g59
NtRp789
(dp790
g62
(dp791
g89
g90
ssg71
g781
sg64
(lp792
S':'
asbag57
(g78
g59
NtRp793
(dp794
g62
(dp795
sg71
g781
sg64
(lp796
g57
(g58
g59
NtRp797
(dp798
g62
(dp799
g70
I3
ssg71
g793
sg64
(lp800
S''
asbasbasbasbasbasbasbag57
(g73
g59
NtRp801
(dp802
g62
(dp803
sg71
g234
sg64
(lp804
g57
(g78
g59
NtRp805
(dp806
g62
(dp807
g82
g83
ssg71
g801
sg64
(lp808
S'session_id_welcome'
p809
asbag57
(g78
g59
NtRp810
(dp811
g62
(dp812
g89
g90
ssg71
g801
sg64
(lp813
S':'
asbag57
(g78
g59
NtRp814
(dp815
g62
(dp816
sg71
g801
sg64
(lp817
g57
(g58
g59
NtRp818
(dp819
g62
(dp820
g70
I4
ssg71
g814
sg64
(lp821
g57
(g66
g59
NtRp822
(dp823
g62
(dp824
g70
I3
ssg71
Nsg64
(lp825
g57
(g73
g59
NtRp826
(dp827
g62
(dp828
sg71
g822
sg64
(lp829
g57
(g78
g59
NtRp830
(dp831
g62
(dp832
g82
g83
ssg71
g826
sg64
(lp833
g271
asbag57
(g78
g59
NtRp834
(dp835
g62
(dp836
g89
g90
ssg71
g826
sg64
(lp837
S':'
asbag57
(g78
g59
NtRp838
(dp839
g62
(dp840
sg71
g826
sg64
(lp841
g57
(g58
g59
NtRp842
(dp843
g62
(dp844
g70
I3
ssg71
g838
sg64
(lp845
S''
asbasbasbag57
(g73
g59
NtRp846
(dp847
g62
(dp848
sg71
g822
sg64
(lp849
g57
(g78
g59
NtRp850
(dp851
g62
(dp852
g82
g83
ssg71
g846
sg64
(lp853
g292
asbag57
(g78
g59
NtRp854
(dp855
g62
(dp856
g89
g90
ssg71
g846
sg64
(lp857
S':'
asbag57
(g78
g59
NtRp858
(dp859
g62
(dp860
sg71
g846
sg64
(lp861
g57
(g58
g59
NtRp862
(dp863
g62
(dp864
g70
I3
ssg71
g858
sg64
(lp865
S''
asbasbasbag57
(g73
g59
NtRp866
(dp867
g62
(dp868
sg71
g822
sg64
(lp869
g57
(g78
g59
NtRp870
(dp871
g62
(dp872
g82
g83
ssg71
g866
sg64
(lp873
g313
asbag57
(g78
g59
NtRp874
(dp875
g62
(dp876
g89
g90
ssg71
g866
sg64
(lp877
S':'
asbag57
(g78
g59
NtRp878
(dp879
g62
(dp880
sg71
g866
sg64
(lp881
g57
(g58
g59
NtRp882
(dp883
g62
(dp884
g70
I3
ssg71
g878
sg64
(lp885
S''
asbasbasbag57
(g73
g59
NtRp886
(dp887
g62
(dp888
sg71
g822
sg64
(lp889
g57
(g78
g59
NtRp890
(dp891
g62
(dp892
g82
g83
ssg71
g886
sg64
(lp893
g334
asbag57
(g78
g59
NtRp894
(dp895
g62
(dp896
g89
g90
ssg71
g886
sg64
(lp897
S':'
asbag57
(g78
g59
NtRp898
(dp899
g62
(dp900
sg71
g886
sg64
(lp901
g57
(g58
g59
NtRp902
(dp903
g62
(dp904
g70
I3
ssg71
g898
sg64
(lp905
S''
asbasbasbag57
(g73
g59
NtRp906
(dp907
g62
(dp908
sg71
g822
sg64
(lp909
g57
(g78
g59
NtRp910
(dp911
g62
(dp912
g82
g83
ssg71
g906
sg64
(lp913
g355
asbag57
(g78
g59
NtRp914
(dp915
g62
(dp916
g89
g90
ssg71
g906
sg64
(lp917
S':'
asbag57
(g78
g59
NtRp918
(dp919
g62
(dp920
sg71
g906
sg64
(lp921
g57
(g58
g59
NtRp922
(dp923
g62
(dp924
g70
I3
ssg71
g918
sg64
(lp925
S''
asbasbasbag57
(g73
g59
NtRp926
(dp927
g62
(dp928
sg71
g822
sg64
(lp929
g57
(g78
g59
NtRp930
(dp931
g62
(dp932
g82
g83
ssg71
g926
sg64
(lp933
g376
asbag57
(g78
g59
NtRp934
(dp935
g62
(dp936
g89
g90
ssg71
g926
sg64
(lp937
S':'
asbag57
(g78
g59
NtRp938
(dp939
g62
(dp940
sg71
g926
sg64
(lp941
g57
(g58
g59
NtRp942
(dp943
g62
(dp944
g70
I3
ssg71
g938
sg64
(lp945
S''
asbasbasbag57
(g73
g59
NtRp946
(dp947
g62
(dp948
sg71
g822
sg64
(lp949
g57
(g78
g59
NtRp950
(dp951
g62
(dp952
g82
g83
ssg71
g946
sg64
(lp953
g397
asbag57
(g78
g59
NtRp954
(dp955
g62
(dp956
g89
g90
ssg71
g946
sg64
(lp957
S':'
asbag57
(g78
g59
NtRp958
(dp959
g62
(dp960
sg71
g946
sg64
(lp961
g57
(g58
g59
NtRp962
(dp963
g62
(dp964
g70
I3
ssg71
g958
sg64
(lp965
S''
asbasbasbag57
(g73
g59
NtRp966
(dp967
g62
(dp968
sg71
g822
sg64
(lp969
g57
(g78
g59
NtRp970
(dp971
g62
(dp972
g82
g83
ssg71
g966
sg64
(lp973
g418
asbag57
(g78
g59
NtRp974
(dp975
g62
(dp976
g89
g90
ssg71
g966
sg64
(lp977
S':'
asbag57
(g78
g59
NtRp978
(dp979
g62
(dp980
sg71
g966
sg64
(lp981
g57
(g58
g59
NtRp982
(dp983
g62
(dp984
g70
I3
ssg71
g978
sg64
(lp985
S''
asbasbasbasbasbasbasbasbasbasbasbag57
(g73
g59
NtRp986
(dp987
g62
(dp988
sg71
g67
sg64
(lp989
g57
(g78
g59
NtRp990
(dp991
g62
(dp992
g82
g83
ssg71
g986
sg64
(lp993
S'env'
p994
asbag57
(g78
g59
NtRp995
(dp996
g62
(dp997
g89
g90
ssg71
g986
sg64
(lp998
S':'
asbag57
(g78
g59
NtRp999
(dp1000
g62
(dp1001
sg71
g986
sg64
(lp1002
g57
(g58
g59
NtRp1003
(dp1004
g62
(dp1005
g70
I5
ssg71
g999
sg64
(lp1006
g57
(g66
g59
NtRp1007
(dp1008
g62
(dp1009
g70
I4
ssg71
Nsg64
(lp1010
g57
(g73
g59
NtRp1011
(dp1012
g62
(dp1013
sg71
g1007
sg64
(lp1014
g57
(g78
g59
NtRp1015
(dp1016
g62
(dp1017
g82
g83
ssg71
g1011
sg64
(lp1018
S'app_folders'
p1019
asbag57
(g78
g59
NtRp1020
(dp1021
g62
(dp1022
g89
g90
ssg71
g1011
sg64
(lp1023
S':'
asbag57
(g78
g59
NtRp1024
(dp1025
g62
(dp1026
sg71
g1011
sg64
(lp1027
g57
(g58
g59
NtRp1028
(dp1029
g62
(dp1030
g70
I4
ssg71
g1024
sg64
(lp1031
S"set(['/home/unic/web2py/applications/manager/', '/home/unic/web2py/applications/admin/', '/home/unic/web2py/applications/manager0/', '/home/unic/web2py/applications/welcome/'])"
p1032
asbasbasbag57
(g73
g59
NtRp1033
(dp1034
g62
(dp1035
sg71
g1007
sg64
(lp1036
g57
(g78
g59
NtRp1037
(dp1038
g62
(dp1039
g82
g83
ssg71
g1033
sg64
(lp1040
S'applications_parent'
p1041
asbag57
(g78
g59
NtRp1042
(dp1043
g62
(dp1044
g89
g90
ssg71
g1033
sg64
(lp1045
S':'
asbag57
(g78
g59
NtRp1046
(dp1047
g62
(dp1048
sg71
g1033
sg64
(lp1049
g57
(g58
g59
NtRp1050
(dp1051
g62
(dp1052
g70
I4
ssg71
g1046
sg64
(lp1053
S'/home/unic/web2py'
p1054
asbasbasbag57
(g73
g59
NtRp1055
(dp1056
g62
(dp1057
sg71
g1007
sg64
(lp1058
g57
(g78
g59
NtRp1059
(dp1060
g62
(dp1061
g82
g83
ssg71
g1055
sg64
(lp1062
S'cmd_args'
p1063
asbag57
(g78
g59
NtRp1064
(dp1065
g62
(dp1066
g89
g90
ssg71
g1055
sg64
(lp1067
S':'
asbag57
(g78
g59
NtRp1068
(dp1069
g62
(dp1070
sg71
g1055
sg64
(lp1071
g57
(g58
g59
NtRp1072
(dp1073
g62
(dp1074
g70
I4
ssg71
g1068
sg64
(lp1075
g57
(g66
g59
NtRp1076
(dp1077
g62
(dp1078
g70
I3
ssg71
Nsg64
(lp1079
sbasbasbasbag57
(g73
g59
NtRp1080
(dp1081
g62
(dp1082
sg71
g1007
sg64
(lp1083
g57
(g78
g59
NtRp1084
(dp1085
g62
(dp1086
g82
g83
ssg71
g1080
sg64
(lp1087
S'cmd_options'
p1088
asbag57
(g78
g59
NtRp1089
(dp1090
g62
(dp1091
g89
g90
ssg71
g1080
sg64
(lp1092
S':'
asbag57
(g78
g59
NtRp1093
(dp1094
g62
(dp1095
sg71
g1080
sg64
(lp1096
g57
(g58
g59
NtRp1097
(dp1098
g62
(dp1099
g70
I4
ssg71
g1093
sg64
(lp1100
S"<Values at 0xa49080c: {'verbose': False, 'ip': '127.0.0.1', 'shutdown_timeout': 5, 'taskbar': False, 'port': 8000, 'maxthreads': None, 'softcron': False, 'server_name': 'unic-Inspiron-N5050', 'bpython': False, 'nogui': False, 'nocron': False, 'extcron': False, 'debuglevel': 30, 'test': None, 'folder': '/home/unic/web2py', 'config': '', 'import_models': False, 'winservice': '', 'shell': None, 'run': '', 'log_filename': 'httpserver.log', 'args': [''], 'socket_timeout': 1, 'profiler_filename': None, 'ssl_private_key': '', 'password': '<ask>', 'request_queue_size': 5, 'ssl_certificate': '', 'cronjob': False, 'plain': False, 'quiet': False, 'interfaces': None, 'minthreads': None, 'timeout': 10, 'numthreads': None, 'nobanner': False, 'pid_filename': 'httpserver.pid'}>"
p1101
asbasbasbag57
(g73
g59
NtRp1102
(dp1103
g62
(dp1104
sg71
g1007
sg64
(lp1105
g57
(g78
g59
NtRp1106
(dp1107
g62
(dp1108
g82
g83
ssg71
g1102
sg64
(lp1109
S'db_sessions'
p1110
asbag57
(g78
g59
NtRp1111
(dp1112
g62
(dp1113
g89
g90
ssg71
g1102
sg64
(lp1114
S':'
asbag57
(g78
g59
NtRp1115
(dp1116
g62
(dp1117
sg71
g1102
sg64
(lp1118
g57
(g58
g59
NtRp1119
(dp1120
g62
(dp1121
g70
I4
ssg71
g1115
sg64
(lp1122
S'set([])'
p1123
asbasbasbag57
(g73
g59
NtRp1124
(dp1125
g62
(dp1126
sg71
g1007
sg64
(lp1127
g57
(g78
g59
NtRp1128
(dp1129
g62
(dp1130
g82
g83
ssg71
g1124
sg64
(lp1131
S'debugging'
p1132
asbag57
(g78
g59
NtRp1133
(dp1134
g62
(dp1135
g89
g90
ssg71
g1124
sg64
(lp1136
S':'
asbag57
(g78
g59
NtRp1137
(dp1138
g62
(dp1139
sg71
g1124
sg64
(lp1140
g57
(g58
g59
NtRp1141
(dp1142
g62
(dp1143
g70
I4
ssg71
g1137
sg64
(lp1144
g100
asbasbasbag57
(g73
g59
NtRp1145
(dp1146
g62
(dp1147
sg71
g1007
sg64
(lp1148
g57
(g78
g59
NtRp1149
(dp1150
g62
(dp1151
g82
g83
ssg71
g1145
sg64
(lp1152
S'gluon_parent'
p1153
asbag57
(g78
g59
NtRp1154
(dp1155
g62
(dp1156
g89
g90
ssg71
g1145
sg64
(lp1157
S':'
asbag57
(g78
g59
NtRp1158
(dp1159
g62
(dp1160
sg71
g1145
sg64
(lp1161
g57
(g58
g59
NtRp1162
(dp1163
g62
(dp1164
g70
I4
ssg71
g1158
sg64
(lp1165
S'/usr/share/web2py'
p1166
asbasbasbag57
(g73
g59
NtRp1167
(dp1168
g62
(dp1169
sg71
g1007
sg64
(lp1170
g57
(g78
g59
NtRp1171
(dp1172
g62
(dp1173
g82
g83
ssg71
g1167
sg64
(lp1174
S'http_accept'
p1175
asbag57
(g78
g59
NtRp1176
(dp1177
g62
(dp1178
g89
g90
ssg71
g1167
sg64
(lp1179
S':'
asbag57
(g78
g59
NtRp1180
(dp1181
g62
(dp1182
sg71
g1167
sg64
(lp1183
g57
(g58
g59
NtRp1184
(dp1185
g62
(dp1186
g70
I4
ssg71
g1180
sg64
(lp1187
S'text/html,application/xhtml+xml,application/xml;q=0.9,*/*;q=0.8'
p1188
asbasbasbag57
(g73
g59
NtRp1189
(dp1190
g62
(dp1191
sg71
g1007
sg64
(lp1192
g57
(g78
g59
NtRp1193
(dp1194
g62
(dp1195
g82
g83
ssg71
g1189
sg64
(lp1196
S'http_accept_encoding'
p1197
asbag57
(g78
g59
NtRp1198
(dp1199
g62
(dp1200
g89
g90
ssg71
g1189
sg64
(lp1201
S':'
asbag57
(g78
g59
NtRp1202
(dp1203
g62
(dp1204
sg71
g1189
sg64
(lp1205
g57
(g58
g59
NtRp1206
(dp1207
g62
(dp1208
g70
I4
ssg71
g1202
sg64
(lp1209
S'gzip, deflate'
p1210
asbasbasbag57
(g73
g59
NtRp1211
(dp1212
g62
(dp1213
sg71
g1007
sg64
(lp1214
g57
(g78
g59
NtRp1215
(dp1216
g62
(dp1217
g82
g83
ssg71
g1211
sg64
(lp1218
S'http_accept_language'
p1219
asbag57
(g78
g59
NtRp1220
(dp1221
g62
(dp1222
g89
g90
ssg71
g1211
sg64
(lp1223
S':'
asbag57
(g78
g59
NtRp1224
(dp1225
g62
(dp1226
sg71
g1211
sg64
(lp1227
g57
(g58
g59
NtRp1228
(dp1229
g62
(dp1230
g70
I4
ssg71
g1224
sg64
(lp1231
S'en-us,en;q=0.5'
p1232
asbasbasbag57
(g73
g59
NtRp1233
(dp1234
g62
(dp1235
sg71
g1007
sg64
(lp1236
g57
(g78
g59
NtRp1237
(dp1238
g62
(dp1239
g82
g83
ssg71
g1233
sg64
(lp1240
S'http_connection'
p1241
asbag57
(g78
g59
NtRp1242
(dp1243
g62
(dp1244
g89
g90
ssg71
g1233
sg64
(lp1245
S':'
asbag57
(g78
g59
NtRp1246
(dp1247
g62
(dp1248
sg71
g1233
sg64
(lp1249
g57
(g58
g59
NtRp1250
(dp1251
g62
(dp1252
g70
I4
ssg71
g1246
sg64
(lp1253
S'keep-alive'
p1254
asbasbasbag57
(g73
g59
NtRp1255
(dp1256
g62
(dp1257
sg71
g1007
sg64
(lp1258
g57
(g78
g59
NtRp1259
(dp1260
g62
(dp1261
g82
g83
ssg71
g1255
sg64
(lp1262
S'http_cookie'
p1263
asbag57
(g78
g59
NtRp1264
(dp1265
g62
(dp1266
g89
g90
ssg71
g1255
sg64
(lp1267
S':'
asbag57
(g78
g59
NtRp1268
(dp1269
g62
(dp1270
sg71
g1255
sg64
(lp1271
g57
(g58
g59
NtRp1272
(dp1273
g62
(dp1274
g70
I4
ssg71
g1268
sg64
(lp1275
S'session_id_welcome=127.0.0.1-dcd0cbc0-5d03-4cd5-bbba-23fba68436dc; session_id_admin=127.0.0.1-e2cb3487-6a06-4fc6-89b2-9ca3e21819c3; session_id_manager=127.0.0.1-7f7bcb65-bef9-473d-a481-a3eba18d03c3; session_id_manager0=127.0.0.1-9886cce7-9933-4427-8b12-2c8d6497e6da'
p1276
asbasbasbag57
(g73
g59
NtRp1277
(dp1278
g62
(dp1279
sg71
g1007
sg64
(lp1280
g57
(g78
g59
NtRp1281
(dp1282
g62
(dp1283
g82
g83
ssg71
g1277
sg64
(lp1284
S'http_host'
p1285
asbag57
(g78
g59
NtRp1286
(dp1287
g62
(dp1288
g89
g90
ssg71
g1277
sg64
(lp1289
S':'
asbag57
(g78
g59
NtRp1290
(dp1291
g62
(dp1292
sg71
g1277
sg64
(lp1293
g57
(g58
g59
NtRp1294
(dp1295
g62
(dp1296
g70
I4
ssg71
g1290
sg64
(lp1297
S'127.0.0.1:8000'
p1298
asbasbasbag57
(g73
g59
NtRp1299
(dp1300
g62
(dp1301
sg71
g1007
sg64
(lp1302
g57
(g78
g59
NtRp1303
(dp1304
g62
(dp1305
g82
g83
ssg71
g1299
sg64
(lp1306
S'http_referer'
p1307
asbag57
(g78
g59
NtRp1308
(dp1309
g62
(dp1310
g89
g90
ssg71
g1299
sg64
(lp1311
S':'
asbag57
(g78
g59
NtRp1312
(dp1313
g62
(dp1314
sg71
g1299
sg64
(lp1315
g57
(g58
g59
NtRp1316
(dp1317
g62
(dp1318
g70
I4
ssg71
g1312
sg64
(lp1319
S'http://127.0.0.1:8000/manager/default/index'
p1320
asbasbasbag57
(g73
g59
NtRp1321
(dp1322
g62
(dp1323
sg71
g1007
sg64
(lp1324
g57
(g78
g59
NtRp1325
(dp1326
g62
(dp1327
g82
g83
ssg71
g1321
sg64
(lp1328
S'http_user_agent'
p1329
asbag57
(g78
g59
NtRp1330
(dp1331
g62
(dp1332
g89
g90
ssg71
g1321
sg64
(lp1333
S':'
asbag57
(g78
g59
NtRp1334
(dp1335
g62
(dp1336
sg71
g1321
sg64
(lp1337
g57
(g58
g59
NtRp1338
(dp1339
g62
(dp1340
g70
I4
ssg71
g1334
sg64
(lp1341
S'Mozilla/5.0 (X11; Ubuntu; Linux i686; rv:14.0) Gecko/20100101 Firefox/14.0.1'
p1342
asbasbasbag57
(g73
g59
NtRp1343
(dp1344
g62
(dp1345
sg71
g1007
sg64
(lp1346
g57
(g78
g59
NtRp1347
(dp1348
g62
(dp1349
g82
g83
ssg71
g1343
sg64
(lp1350
S'is_jython'
p1351
asbag57
(g78
g59
NtRp1352
(dp1353
g62
(dp1354
g89
g90
ssg71
g1343
sg64
(lp1355
S':'
asbag57
(g78
g59
NtRp1356
(dp1357
g62
(dp1358
sg71
g1343
sg64
(lp1359
g57
(g58
g59
NtRp1360
(dp1361
g62
(dp1362
g70
I4
ssg71
g1356
sg64
(lp1363
g100
asbasbasbag57
(g73
g59
NtRp1364
(dp1365
g62
(dp1366
sg71
g1007
sg64
(lp1367
g57
(g78
g59
NtRp1368
(dp1369
g62
(dp1370
g82
g83
ssg71
g1364
sg64
(lp1371
S'is_pypy'
p1372
asbag57
(g78
g59
NtRp1373
(dp1374
g62
(dp1375
g89
g90
ssg71
g1364
sg64
(lp1376
S':'
asbag57
(g78
g59
NtRp1377
(dp1378
g62
(dp1379
sg71
g1364
sg64
(lp1380
g57
(g58
g59
NtRp1381
(dp1382
g62
(dp1383
g70
I4
ssg71
g1377
sg64
(lp1384
g100
asbasbasbag57
(g73
g59
NtRp1385
(dp1386
g62
(dp1387
sg71
g1007
sg64
(lp1388
g57
(g78
g59
NtRp1389
(dp1390
g62
(dp1391
g82
g83
ssg71
g1385
sg64
(lp1392
S'path_info'
p1393
asbag57
(g78
g59
NtRp1394
(dp1395
g62
(dp1396
g89
g90
ssg71
g1385
sg64
(lp1397
S':'
asbag57
(g78
g59
NtRp1398
(dp1399
g62
(dp1400
sg71
g1385
sg64
(lp1401
g57
(g58
g59
NtRp1402
(dp1403
g62
(dp1404
g70
I4
ssg71
g1398
sg64
(lp1405
S'/manager/default/label'
p1406
asbasbasbag57
(g73
g59
NtRp1407
(dp1408
g62
(dp1409
sg71
g1007
sg64
(lp1410
g57
(g78
g59
NtRp1411
(dp1412
g62
(dp1413
g82
g83
ssg71
g1407
sg64
(lp1414
S'query_string'
p1415
asbag57
(g78
g59
NtRp1416
(dp1417
g62
(dp1418
g89
g90
ssg71
g1407
sg64
(lp1419
S':'
asbag57
(g78
g59
NtRp1420
(dp1421
g62
(dp1422
sg71
g1407
sg64
(lp1423
g57
(g58
g59
NtRp1424
(dp1425
g62
(dp1426
g70
I4
ssg71
g1420
sg64
(lp1427
S''
asbasbasbag57
(g73
g59
NtRp1428
(dp1429
g62
(dp1430
sg71
g1007
sg64
(lp1431
g57
(g78
g59
NtRp1432
(dp1433
g62
(dp1434
g82
g83
ssg71
g1428
sg64
(lp1435
S'remote_addr'
p1436
asbag57
(g78
g59
NtRp1437
(dp1438
g62
(dp1439
g89
g90
ssg71
g1428
sg64
(lp1440
S':'
asbag57
(g78
g59
NtRp1441
(dp1442
g62
(dp1443
sg71
g1428
sg64
(lp1444
g57
(g58
g59
NtRp1445
(dp1446
g62
(dp1447
g70
I4
ssg71
g1441
sg64
(lp1448
g190
asbasbasbag57
(g73
g59
NtRp1449
(dp1450
g62
(dp1451
sg71
g1007
sg64
(lp1452
g57
(g78
g59
NtRp1453
(dp1454
g62
(dp1455
g82
g83
ssg71
g1449
sg64
(lp1456
S'remote_port'
p1457
asbag57
(g78
g59
NtRp1458
(dp1459
g62
(dp1460
g89
g90
ssg71
g1449
sg64
(lp1461
S':'
asbag57
(g78
g59
NtRp1462
(dp1463
g62
(dp1464
sg71
g1449
sg64
(lp1465
g57
(g58
g59
NtRp1466
(dp1467
g62
(dp1468
g70
I4
ssg71
g1462
sg64
(lp1469
S'37112'
p1470
asbasbasbag57
(g73
g59
NtRp1471
(dp1472
g62
(dp1473
sg71
g1007
sg64
(lp1474
g57
(g78
g59
NtRp1475
(dp1476
g62
(dp1477
g82
g83
ssg71
g1471
sg64
(lp1478
S'request_method'
p1479
asbag57
(g78
g59
NtRp1480
(dp1481
g62
(dp1482
g89
g90
ssg71
g1471
sg64
(lp1483
S':'
asbag57
(g78
g59
NtRp1484
(dp1485
g62
(dp1486
sg71
g1471
sg64
(lp1487
g57
(g58
g59
NtRp1488
(dp1489
g62
(dp1490
g70
I4
ssg71
g1484
sg64
(lp1491
S'GET'
p1492
asbasbasbag57
(g73
g59
NtRp1493
(dp1494
g62
(dp1495
sg71
g1007
sg64
(lp1496
g57
(g78
g59
NtRp1497
(dp1498
g62
(dp1499
g82
g83
ssg71
g1493
sg64
(lp1500
S'script_name'
p1501
asbag57
(g78
g59
NtRp1502
(dp1503
g62
(dp1504
g89
g90
ssg71
g1493
sg64
(lp1505
S':'
asbag57
(g78
g59
NtRp1506
(dp1507
g62
(dp1508
sg71
g1493
sg64
(lp1509
g57
(g58
g59
NtRp1510
(dp1511
g62
(dp1512
g70
I4
ssg71
g1506
sg64
(lp1513
S''
asbasbasbag57
(g73
g59
NtRp1514
(dp1515
g62
(dp1516
sg71
g1007
sg64
(lp1517
g57
(g78
g59
NtRp1518
(dp1519
g62
(dp1520
g82
g83
ssg71
g1514
sg64
(lp1521
S'server_name'
p1522
asbag57
(g78
g59
NtRp1523
(dp1524
g62
(dp1525
g89
g90
ssg71
g1514
sg64
(lp1526
S':'
asbag57
(g78
g59
NtRp1527
(dp1528
g62
(dp1529
sg71
g1514
sg64
(lp1530
g57
(g58
g59
NtRp1531
(dp1532
g62
(dp1533
g70
I4
ssg71
g1527
sg64
(lp1534
S'unic-Inspiron-N5050'
p1535
asbasbasbag57
(g73
g59
NtRp1536
(dp1537
g62
(dp1538
sg71
g1007
sg64
(lp1539
g57
(g78
g59
NtRp1540
(dp1541
g62
(dp1542
g82
g83
ssg71
g1536
sg64
(lp1543
S'server_port'
p1544
asbag57
(g78
g59
NtRp1545
(dp1546
g62
(dp1547
g89
g90
ssg71
g1536
sg64
(lp1548
S':'
asbag57
(g78
g59
NtRp1549
(dp1550
g62
(dp1551
sg71
g1536
sg64
(lp1552
g57
(g58
g59
NtRp1553
(dp1554
g62
(dp1555
g70
I4
ssg71
g1549
sg64
(lp1556
S'8000'
p1557
asbasbasbag57
(g73
g59
NtRp1558
(dp1559
g62
(dp1560
sg71
g1007
sg64
(lp1561
g57
(g78
g59
NtRp1562
(dp1563
g62
(dp1564
g82
g83
ssg71
g1558
sg64
(lp1565
S'server_protocol'
p1566
asbag57
(g78
g59
NtRp1567
(dp1568
g62
(dp1569
g89
g90
ssg71
g1558
sg64
(lp1570
S':'
asbag57
(g78
g59
NtRp1571
(dp1572
g62
(dp1573
sg71
g1558
sg64
(lp1574
g57
(g58
g59
NtRp1575
(dp1576
g62
(dp1577
g70
I4
ssg71
g1571
sg64
(lp1578
S'HTTP/1.1'
p1579
asbasbasbag57
(g73
g59
NtRp1580
(dp1581
g62
(dp1582
sg71
g1007
sg64
(lp1583
g57
(g78
g59
NtRp1584
(dp1585
g62
(dp1586
g82
g83
ssg71
g1580
sg64
(lp1587
S'server_software'
p1588
asbag57
(g78
g59
NtRp1589
(dp1590
g62
(dp1591
g89
g90
ssg71
g1580
sg64
(lp1592
S':'
asbag57
(g78
g59
NtRp1593
(dp1594
g62
(dp1595
sg71
g1580
sg64
(lp1596
g57
(g58
g59
NtRp1597
(dp1598
g62
(dp1599
g70
I4
ssg71
g1593
sg64
(lp1600
S'Rocket 1.2.4'
p1601
asbasbasbag57
(g73
g59
NtRp1602
(dp1603
g62
(dp1604
sg71
g1007
sg64
(lp1605
g57
(g78
g59
NtRp1606
(dp1607
g62
(dp1608
g82
g83
ssg71
g1602
sg64
(lp1609
S'web2py_crontype'
p1610
asbag57
(g78
g59
NtRp1611
(dp1612
g62
(dp1613
g89
g90
ssg71
g1602
sg64
(lp1614
S':'
asbag57
(g78
g59
NtRp1615
(dp1616
g62
(dp1617
sg71
g1602
sg64
(lp1618
g57
(g58
g59
NtRp1619
(dp1620
g62
(dp1621
g70
I4
ssg71
g1615
sg64
(lp1622
S'hard'
p1623
asbasbasbag57
(g73
g59
NtRp1624
(dp1625
g62
(dp1626
sg71
g1007
sg64
(lp1627
g57
(g78
g59
NtRp1628
(dp1629
g62
(dp1630
g82
g83
ssg71
g1624
sg64
(lp1631
S'web2py_path'
p1632
asbag57
(g78
g59
NtRp1633
(dp1634
g62
(dp1635
g89
g90
ssg71
g1624
sg64
(lp1636
S':'
asbag57
(g78
g59
NtRp1637
(dp1638
g62
(dp1639
sg71
g1624
sg64
(lp1640
g57
(g58
g59
NtRp1641
(dp1642
g62
(dp1643
g70
I4
ssg71
g1637
sg64
(lp1644
g1054
asbasbasbag57
(g73
g59
NtRp1645
(dp1646
g62
(dp1647
sg71
g1007
sg64
(lp1648
g57
(g78
g59
NtRp1649
(dp1650
g62
(dp1651
g82
g83
ssg71
g1645
sg64
(lp1652
S'web2py_version'
p1653
asbag57
(g78
g59
NtRp1654
(dp1655
g62
(dp1656
g89
g90
ssg71
g1645
sg64
(lp1657
S':'
asbag57
(g78
g59
NtRp1658
(dp1659
g62
(dp1660
sg71
g1645
sg64
(lp1661
g57
(g58
g59
NtRp1662
(dp1663
g62
(dp1664
g70
I4
ssg71
g1658
sg64
(lp1665
g57
(g66
g59
NtRp1666
(dp1667
g62
(dp1668
g70
I3
ssg71
Nsg64
(lp1669
g57
(g73
g59
NtRp1670
(dp1671
g62
(dp1672
sg71
g1666
sg64
(lp1673
g57
(g78
g59
NtRp1674
(dp1675
g62
(dp1676
sg71
g1670
sg64
(lp1677
g57
(g58
g59
NtRp1678
(dp1679
g62
(dp1680
g70
I3
ssg71
g1674
sg64
(lp1681
S'1'
asbasbasbag57
(g73
g59
NtRp1682
(dp1683
g62
(dp1684
sg71
g1666
sg64
(lp1685
g57
(g78
g59
NtRp1686
(dp1687
g62
(dp1688
sg71
g1682
sg64
(lp1689
g57
(g58
g59
NtRp1690
(dp1691
g62
(dp1692
g70
I3
ssg71
g1686
sg64
(lp1693
S'99'
p1694
asbasbasbag57
(g73
g59
NtRp1695
(dp1696
g62
(dp1697
sg71
g1666
sg64
(lp1698
g57
(g78
g59
NtRp1699
(dp1700
g62
(dp1701
sg71
g1695
sg64
(lp1702
g57
(g58
g59
NtRp1703
(dp1704
g62
(dp1705
g70
I3
ssg71
g1699
sg64
(lp1706
S'4'
asbasbasbag57
(g73
g59
NtRp1707
(dp1708
g62
(dp1709
sg71
g1666
sg64
(lp1710
g57
(g78
g59
NtRp1711
(dp1712
g62
(dp1713
sg71
g1707
sg64
(lp1714
g57
(g58
g59
NtRp1715
(dp1716
g62
(dp1717
g70
I3
ssg71
g1711
sg64
(lp1718
S'datetime.datetime(2011, 12, 14, 14, 46, 14)'
p1719
asbasbasbag57
(g73
g59
NtRp1720
(dp1721
g62
(dp1722
sg71
g1666
sg64
(lp1723
g57
(g78
g59
NtRp1724
(dp1725
g62
(dp1726
sg71
g1720
sg64
(lp1727
g57
(g58
g59
NtRp1728
(dp1729
g62
(dp1730
g70
I3
ssg71
g1724
sg64
(lp1731
S'stable'
p1732
asbasbasbasbasbasbasbag57
(g73
g59
NtRp1733
(dp1734
g62
(dp1735
sg71
g1007
sg64
(lp1736
g57
(g78
g59
NtRp1737
(dp1738
g62
(dp1739
g82
g83
ssg71
g1733
sg64
(lp1740
S'wsgi_errors'
p1741
asbag57
(g78
g59
NtRp1742
(dp1743
g62
(dp1744
g89
g90
ssg71
g1733
sg64
(lp1745
S':'
asbag57
(g78
g59
NtRp1746
(dp1747
g62
(dp1748
sg71
g1733
sg64
(lp1749
g57
(g58
g59
NtRp1750
(dp1751
g62
(dp1752
g70
I4
ssg71
g1746
sg64
(lp1753
S"<open file '<stderr>', mode 'w' at 0xb72e50d0>"
p1754
asbasbasbag57
(g73
g59
NtRp1755
(dp1756
g62
(dp1757
sg71
g1007
sg64
(lp1758
g57
(g78
g59
NtRp1759
(dp1760
g62
(dp1761
g82
g83
ssg71
g1755
sg64
(lp1762
S'wsgi_file_wrapper'
p1763
asbag57
(g78
g59
NtRp1764
(dp1765
g62
(dp1766
g89
g90
ssg71
g1755
sg64
(lp1767
S':'
asbag57
(g78
g59
NtRp1768
(dp1769
g62
(dp1770
sg71
g1755
sg64
(lp1771
g57
(g58
g59
NtRp1772
(dp1773
g62
(dp1774
g70
I4
ssg71
g1768
sg64
(lp1775
S'<class wsgiref.util.FileWrapper at 0xa43b4ac>'
p1776
asbasbasbag57
(g73
g59
NtRp1777
(dp1778
g62
(dp1779
sg71
g1007
sg64
(lp1780
g57
(g78
g59
NtRp1781
(dp1782
g62
(dp1783
g82
g83
ssg71
g1777
sg64
(lp1784
S'wsgi_input'
p1785
asbag57
(g78
g59
NtRp1786
(dp1787
g62
(dp1788
g89
g90
ssg71
g1777
sg64
(lp1789
S':'
asbag57
(g78
g59
NtRp1790
(dp1791
g62
(dp1792
sg71
g1777
sg64
(lp1793
g57
(g58
g59
NtRp1794
(dp1795
g62
(dp1796
g70
I4
ssg71
g1790
sg64
(lp1797
S'<socket._fileobject object at 0xab3794ac>'
p1798
asbasbasbag57
(g73
g59
NtRp1799
(dp1800
g62
(dp1801
sg71
g1007
sg64
(lp1802
g57
(g78
g59
NtRp1803
(dp1804
g62
(dp1805
g82
g83
ssg71
g1799
sg64
(lp1806
S'wsgi_multiprocess'
p1807
asbag57
(g78
g59
NtRp1808
(dp1809
g62
(dp1810
g89
g90
ssg71
g1799
sg64
(lp1811
S':'
asbag57
(g78
g59
NtRp1812
(dp1813
g62
(dp1814
sg71
g1799
sg64
(lp1815
g57
(g58
g59
NtRp1816
(dp1817
g62
(dp1818
g70
I4
ssg71
g1812
sg64
(lp1819
g100
asbasbasbag57
(g73
g59
NtRp1820
(dp1821
g62
(dp1822
sg71
g1007
sg64
(lp1823
g57
(g78
g59
NtRp1824
(dp1825
g62
(dp1826
g82
g83
ssg71
g1820
sg64
(lp1827
S'wsgi_multithread'
p1828
asbag57
(g78
g59
NtRp1829
(dp1830
g62
(dp1831
g89
g90
ssg71
g1820
sg64
(lp1832
S':'
asbag57
(g78
g59
NtRp1833
(dp1834
g62
(dp1835
sg71
g1820
sg64
(lp1836
g57
(g58
g59
NtRp1837
(dp1838
g62
(dp1839
g70
I4
ssg71
g1833
sg64
(lp1840
S'True'
p1841
asbasbasbag57
(g73
g59
NtRp1842
(dp1843
g62
(dp1844
sg71
g1007
sg64
(lp1845
g57
(g78
g59
NtRp1846
(dp1847
g62
(dp1848
g82
g83
ssg71
g1842
sg64
(lp1849
S'wsgi_run_once'
p1850
asbag57
(g78
g59
NtRp1851
(dp1852
g62
(dp1853
g89
g90
ssg71
g1842
sg64
(lp1854
S':'
asbag57
(g78
g59
NtRp1855
(dp1856
g62
(dp1857
sg71
g1842
sg64
(lp1858
g57
(g58
g59
NtRp1859
(dp1860
g62
(dp1861
g70
I4
ssg71
g1855
sg64
(lp1862
g100
asbasbasbag57
(g73
g59
NtRp1863
(dp1864
g62
(dp1865
sg71
g1007
sg64
(lp1866
g57
(g78
g59
NtRp1867
(dp1868
g62
(dp1869
g82
g83
ssg71
g1863
sg64
(lp1870
S'wsgi_url_scheme'
p1871
asbag57
(g78
g59
NtRp1872
(dp1873
g62
(dp1874
g89
g90
ssg71
g1863
sg64
(lp1875
S':'
asbag57
(g78
g59
NtRp1876
(dp1877
g62
(dp1878
sg71
g1863
sg64
(lp1879
g57
(g58
g59
NtRp1880
(dp1881
g62
(dp1882
g70
I4
ssg71
g1876
sg64
(lp1883
S'http'
p1884
asbasbasbag57
(g73
g59
NtRp1885
(dp1886
g62
(dp1887
sg71
g1007
sg64
(lp1888
g57
(g78
g59
NtRp1889
(dp1890
g62
(dp1891
g82
g83
ssg71
g1885
sg64
(lp1892
S'wsgi_version'
p1893
asbag57
(g78
g59
NtRp1894
(dp1895
g62
(dp1896
g89
g90
ssg71
g1885
sg64
(lp1897
S':'
asbag57
(g78
g59
NtRp1898
(dp1899
g62
(dp1900
sg71
g1885
sg64
(lp1901
g57
(g58
g59
NtRp1902
(dp1903
g62
(dp1904
g70
I4
ssg71
g1898
sg64
(lp1905
g57
(g66
g59
NtRp1906
(dp1907
g62
(dp1908
g70
I3
ssg71
Nsg64
(lp1909
g57
(g73
g59
NtRp1910
(dp1911
g62
(dp1912
sg71
g1906
sg64
(lp1913
g57
(g78
g59
NtRp1914
(dp1915
g62
(dp1916
sg71
g1910
sg64
(lp1917
g57
(g58
g59
NtRp1918
(dp1919
g62
(dp1920
g70
I3
ssg71
g1914
sg64
(lp1921
S'1'
asbasbasbag57
(g73
g59
NtRp1922
(dp1923
g62
(dp1924
sg71
g1906
sg64
(lp1925
g57
(g78
g59
NtRp1926
(dp1927
g62
(dp1928
sg71
g1922
sg64
(lp1929
g57
(g58
g59
NtRp1930
(dp1931
g62
(dp1932
g70
I3
ssg71
g1926
sg64
(lp1933
S'0'
asbasbasbasbasbasbasbasbasbasbasbag57
(g73
g59
NtRp1934
(dp1935
g62
(dp1936
sg71
g67
sg64
(lp1937
g57
(g78
g59
NtRp1938
(dp1939
g62
(dp1940
g82
g83
ssg71
g1934
sg64
(lp1941
S'extension'
p1942
asbag57
(g78
g59
NtRp1943
(dp1944
g62
(dp1945
g89
g90
ssg71
g1934
sg64
(lp1946
S':'
asbag57
(g78
g59
NtRp1947
(dp1948
g62
(dp1949
sg71
g1934
sg64
(lp1950
g57
(g58
g59
NtRp1951
(dp1952
g62
(dp1953
g70
I5
ssg71
g1947
sg64
(lp1954
S'html'
p1955
asbasbasbag57
(g73
g59
NtRp1956
(dp1957
g62
(dp1958
sg71
g67
sg64
(lp1959
g57
(g78
g59
NtRp1960
(dp1961
g62
(dp1962
g82
g83
ssg71
g1956
sg64
(lp1963
S'folder'
p1964
asbag57
(g78
g59
NtRp1965
(dp1966
g62
(dp1967
g89
g90
ssg71
g1956
sg64
(lp1968
S':'
asbag57
(g78
g59
NtRp1969
(dp1970
g62
(dp1971
sg71
g1956
sg64
(lp1972
g57
(g58
g59
NtRp1973
(dp1974
g62
(dp1975
g70
I5
ssg71
g1969
sg64
(lp1976
S'/home/unic/web2py/applications/manager/'
p1977
asbasbasbag57
(g73
g59
NtRp1978
(dp1979
g62
(dp1980
sg71
g67
sg64
(lp1981
g57
(g78
g59
NtRp1982
(dp1983
g62
(dp1984
g82
g83
ssg71
g1978
sg64
(lp1985
S'function'
p1986
asbag57
(g78
g59
NtRp1987
(dp1988
g62
(dp1989
g89
g90
ssg71
g1978
sg64
(lp1990
S':'
asbag57
(g78
g59
NtRp1991
(dp1992
g62
(dp1993
sg71
g1978
sg64
(lp1994
g57
(g58
g59
NtRp1995
(dp1996
g62
(dp1997
g70
I5
ssg71
g1991
sg64
(lp1998
S'label'
p1999
asbasbasbag57
(g73
g59
NtRp2000
(dp2001
g62
(dp2002
sg71
g67
sg64
(lp2003
g57
(g78
g59
NtRp2004
(dp2005
g62
(dp2006
g82
g83
ssg71
g2000
sg64
(lp2007
S'get_vars'
p2008
asbag57
(g78
g59
NtRp2009
(dp2010
g62
(dp2011
g89
g90
ssg71
g2000
sg64
(lp2012
S':'
asbag57
(g78
g59
NtRp2013
(dp2014
g62
(dp2015
sg71
g2000
sg64
(lp2016
g57
(g58
g59
NtRp2017
(dp2018
g62
(dp2019
g70
I5
ssg71
g2013
sg64
(lp2020
g57
(g66
g59
NtRp2021
(dp2022
g62
(dp2023
g70
I4
ssg71
Nsg64
(lp2024
sbasbasbasbag57
(g73
g59
NtRp2025
(dp2026
g62
(dp2027
sg71
g67
sg64
(lp2028
g57
(g78
g59
NtRp2029
(dp2030
g62
(dp2031
g82
g83
ssg71
g2025
sg64
(lp2032
S'global_settings'
p2033
asbag57
(g78
g59
NtRp2034
(dp2035
g62
(dp2036
g89
g90
ssg71
g2025
sg64
(lp2037
S':'
asbag57
(g78
g59
NtRp2038
(dp2039
g62
(dp2040
sg71
g2025
sg64
(lp2041
g57
(g58
g59
NtRp2042
(dp2043
g62
(dp2044
g70
I5
ssg71
g2038
sg64
(lp2045
g57
(g66
g59
NtRp2046
(dp2047
g62
(dp2048
g70
I4
ssg71
Nsg64
(lp2049
g57
(g73
g59
NtRp2050
(dp2051
g62
(dp2052
sg71
g2046
sg64
(lp2053
g57
(g78
g59
NtRp2054
(dp2055
g62
(dp2056
g82
g83
ssg71
g2050
sg64
(lp2057
g1019
asbag57
(g78
g59
NtRp2058
(dp2059
g62
(dp2060
g89
g90
ssg71
g2050
sg64
(lp2061
S':'
asbag57
(g78
g59
NtRp2062
(dp2063
g62
(dp2064
sg71
g2050
sg64
(lp2065
g57
(g58
g59
NtRp2066
(dp2067
g62
(dp2068
g70
I4
ssg71
g2062
sg64
(lp2069
S"set(['/home/unic/web2py/applications/manager/', '/home/unic/web2py/applications/admin/', '/home/unic/web2py/applications/manager0/', '/home/unic/web2py/applications/welcome/'])"
p2070
asbasbasbag57
(g73
g59
NtRp2071
(dp2072
g62
(dp2073
sg71
g2046
sg64
(lp2074
g57
(g78
g59
NtRp2075
(dp2076
g62
(dp2077
g82
g83
ssg71
g2071
sg64
(lp2078
g1041
asbag57
(g78
g59
NtRp2079
(dp2080
g62
(dp2081
g89
g90
ssg71
g2071
sg64
(lp2082
S':'
asbag57
(g78
g59
NtRp2083
(dp2084
g62
(dp2085
sg71
g2071
sg64
(lp2086
g57
(g58
g59
NtRp2087
(dp2088
g62
(dp2089
g70
I4
ssg71
g2083
sg64
(lp2090
g1054
asbasbasbag57
(g73
g59
NtRp2091
(dp2092
g62
(dp2093
sg71
g2046
sg64
(lp2094
g57
(g78
g59
NtRp2095
(dp2096
g62
(dp2097
g82
g83
ssg71
g2091
sg64
(lp2098
g1063
asbag57
(g78
g59
NtRp2099
(dp2100
g62
(dp2101
g89
g90
ssg71
g2091
sg64
(lp2102
S':'
asbag57
(g78
g59
NtRp2103
(dp2104
g62
(dp2105
sg71
g2091
sg64
(lp2106
g57
(g58
g59
NtRp2107
(dp2108
g62
(dp2109
g70
I4
ssg71
g2103
sg64
(lp2110
g57
(g66
g59
NtRp2111
(dp2112
g62
(dp2113
g70
I3
ssg71
Nsg64
(lp2114
sbasbasbasbag57
(g73
g59
NtRp2115
(dp2116
g62
(dp2117
sg71
g2046
sg64
(lp2118
g57
(g78
g59
NtRp2119
(dp2120
g62
(dp2121
g82
g83
ssg71
g2115
sg64
(lp2122
g1088
asbag57
(g78
g59
NtRp2123
(dp2124
g62
(dp2125
g89
g90
ssg71
g2115
sg64
(lp2126
S':'
asbag57
(g78
g59
NtRp2127
(dp2128
g62
(dp2129
sg71
g2115
sg64
(lp2130
g57
(g58
g59
NtRp2131
(dp2132
g62
(dp2133
g70
I4
ssg71
g2127
sg64
(lp2134
S"<Values at 0xa49080c: {'verbose': False, 'ip': '127.0.0.1', 'shutdown_timeout': 5, 'taskbar': False, 'port': 8000, 'maxthreads': None, 'softcron': False, 'server_name': 'unic-Inspiron-N5050', 'bpython': False, 'nogui': False, 'nocron': False, 'extcron': False, 'debuglevel': 30, 'test': None, 'folder': '/home/unic/web2py', 'config': '', 'import_models': False, 'winservice': '', 'shell': None, 'run': '', 'log_filename': 'httpserver.log', 'args': [''], 'socket_timeout': 1, 'profiler_filename': None, 'ssl_private_key': '', 'password': '<ask>', 'request_queue_size': 5, 'ssl_certificate': '', 'cronjob': False, 'plain': False, 'quiet': False, 'interfaces': None, 'minthreads': None, 'timeout': 10, 'numthreads': None, 'nobanner': False, 'pid_filename': 'httpserver.pid'}>"
p2135
asbasbasbag57
(g73
g59
NtRp2136
(dp2137
g62
(dp2138
sg71
g2046
sg64
(lp2139
g57
(g78
g59
NtRp2140
(dp2141
g62
(dp2142
g82
g83
ssg71
g2136
sg64
(lp2143
g1110
asbag57
(g78
g59
NtRp2144
(dp2145
g62
(dp2146
g89
g90
ssg71
g2136
sg64
(lp2147
S':'
asbag57
(g78
g59
NtRp2148
(dp2149
g62
(dp2150
sg71
g2136
sg64
(lp2151
g57
(g58
g59
NtRp2152
(dp2153
g62
(dp2154
g70
I4
ssg71
g2148
sg64
(lp2155
S'set([])'
p2156
asbasbasbag57
(g73
g59
NtRp2157
(dp2158
g62
(dp2159
sg71
g2046
sg64
(lp2160
g57
(g78
g59
NtRp2161
(dp2162
g62
(dp2163
g82
g83
ssg71
g2157
sg64
(lp2164
g1132
asbag57
(g78
g59
NtRp2165
(dp2166
g62
(dp2167
g89
g90
ssg71
g2157
sg64
(lp2168
S':'
asbag57
(g78
g59
NtRp2169
(dp2170
g62
(dp2171
sg71
g2157
sg64
(lp2172
g57
(g58
g59
NtRp2173
(dp2174
g62
(dp2175
g70
I4
ssg71
g2169
sg64
(lp2176
g100
asbasbasbag57
(g73
g59
NtRp2177
(dp2178
g62
(dp2179
sg71
g2046
sg64
(lp2180
g57
(g78
g59
NtRp2181
(dp2182
g62
(dp2183
g82
g83
ssg71
g2177
sg64
(lp2184
g1153
asbag57
(g78
g59
NtRp2185
(dp2186
g62
(dp2187
g89
g90
ssg71
g2177
sg64
(lp2188
S':'
asbag57
(g78
g59
NtRp2189
(dp2190
g62
(dp2191
sg71
g2177
sg64
(lp2192
g57
(g58
g59
NtRp2193
(dp2194
g62
(dp2195
g70
I4
ssg71
g2189
sg64
(lp2196
g1166
asbasbasbag57
(g73
g59
NtRp2197
(dp2198
g62
(dp2199
sg71
g2046
sg64
(lp2200
g57
(g78
g59
NtRp2201
(dp2202
g62
(dp2203
g82
g83
ssg71
g2197
sg64
(lp2204
g1351
asbag57
(g78
g59
NtRp2205
(dp2206
g62
(dp2207
g89
g90
ssg71
g2197
sg64
(lp2208
S':'
asbag57
(g78
g59
NtRp2209
(dp2210
g62
(dp2211
sg71
g2197
sg64
(lp2212
g57
(g58
g59
NtRp2213
(dp2214
g62
(dp2215
g70
I4
ssg71
g2209
sg64
(lp2216
g100
asbasbasbag57
(g73
g59
NtRp2217
(dp2218
g62
(dp2219
sg71
g2046
sg64
(lp2220
g57
(g78
g59
NtRp2221
(dp2222
g62
(dp2223
g82
g83
ssg71
g2217
sg64
(lp2224
g1372
asbag57
(g78
g59
NtRp2225
(dp2226
g62
(dp2227
g89
g90
ssg71
g2217
sg64
(lp2228
S':'
asbag57
(g78
g59
NtRp2229
(dp2230
g62
(dp2231
sg71
g2217
sg64
(lp2232
g57
(g58
g59
NtRp2233
(dp2234
g62
(dp2235
g70
I4
ssg71
g2229
sg64
(lp2236
g100
asbasbasbag57
(g73
g59
NtRp2237
(dp2238
g62
(dp2239
sg71
g2046
sg64
(lp2240
g57
(g78
g59
NtRp2241
(dp2242
g62
(dp2243
g82
g83
ssg71
g2237
sg64
(lp2244
g1610
asbag57
(g78
g59
NtRp2245
(dp2246
g62
(dp2247
g89
g90
ssg71
g2237
sg64
(lp2248
S':'
asbag57
(g78
g59
NtRp2249
(dp2250
g62
(dp2251
sg71
g2237
sg64
(lp2252
g57
(g58
g59
NtRp2253
(dp2254
g62
(dp2255
g70
I4
ssg71
g2249
sg64
(lp2256
g1623
asbasbasbag57
(g73
g59
NtRp2257
(dp2258
g62
(dp2259
sg71
g2046
sg64
(lp2260
g57
(g78
g59
NtRp2261
(dp2262
g62
(dp2263
g82
g83
ssg71
g2257
sg64
(lp2264
g1653
asbag57
(g78
g59
NtRp2265
(dp2266
g62
(dp2267
g89
g90
ssg71
g2257
sg64
(lp2268
S':'
asbag57
(g78
g59
NtRp2269
(dp2270
g62
(dp2271
sg71
g2257
sg64
(lp2272
g57
(g58
g59
NtRp2273
(dp2274
g62
(dp2275
g70
I4
ssg71
g2269
sg64
(lp2276
g57
(g66
g59
NtRp2277
(dp2278
g62
(dp2279
g70
I3
ssg71
Nsg64
(lp2280
g57
(g73
g59
NtRp2281
(dp2282
g62
(dp2283
sg71
g2277
sg64
(lp2284
g57
(g78
g59
NtRp2285
(dp2286
g62
(dp2287
sg71
g2281
sg64
(lp2288
g57
(g58
g59
NtRp2289
(dp2290
g62
(dp2291
g70
I3
ssg71
g2285
sg64
(lp2292
S'1'
asbasbasbag57
(g73
g59
NtRp2293
(dp2294
g62
(dp2295
sg71
g2277
sg64
(lp2296
g57
(g78
g59
NtRp2297
(dp2298
g62
(dp2299
sg71
g2293
sg64
(lp2300
g57
(g58
g59
NtRp2301
(dp2302
g62
(dp2303
g70
I3
ssg71
g2297
sg64
(lp2304
S'99'
p2305
asbasbasbag57
(g73
g59
NtRp2306
(dp2307
g62
(dp2308
sg71
g2277
sg64
(lp2309
g57
(g78
g59
NtRp2310
(dp2311
g62
(dp2312
sg71
g2306
sg64
(lp2313
g57
(g58
g59
NtRp2314
(dp2315
g62
(dp2316
g70
I3
ssg71
g2310
sg64
(lp2317
S'4'
asbasbasbag57
(g73
g59
NtRp2318
(dp2319
g62
(dp2320
sg71
g2277
sg64
(lp2321
g57
(g78
g59
NtRp2322
(dp2323
g62
(dp2324
sg71
g2318
sg64
(lp2325
g57
(g58
g59
NtRp2326
(dp2327
g62
(dp2328
g70
I3
ssg71
g2322
sg64
(lp2329
S'datetime.datetime(2011, 12, 14, 14, 46, 14)'
p2330
asbasbasbag57
(g73
g59
NtRp2331
(dp2332
g62
(dp2333
sg71
g2277
sg64
(lp2334
g57
(g78
g59
NtRp2335
(dp2336
g62
(dp2337
sg71
g2331
sg64
(lp2338
g57
(g58
g59
NtRp2339
(dp2340
g62
(dp2341
g70
I3
ssg71
g2335
sg64
(lp2342
g1732
asbasbasbasbasbasbasbasbasbasbasbag57
(g73
g59
NtRp2343
(dp2344
g62
(dp2345
sg71
g67
sg64
(lp2346
g57
(g78
g59
NtRp2347
(dp2348
g62
(dp2349
g82
g83
ssg71
g2343
sg64
(lp2350
S'is_https'
p2351
asbag57
(g78
g59
NtRp2352
(dp2353
g62
(dp2354
g89
g90
ssg71
g2343
sg64
(lp2355
S':'
asbag57
(g78
g59
NtRp2356
(dp2357
g62
(dp2358
sg71
g2343
sg64
(lp2359
g57
(g58
g59
NtRp2360
(dp2361
g62
(dp2362
g70
I5
ssg71
g2356
sg64
(lp2363
g100
asbasbasbag57
(g73
g59
NtRp2364
(dp2365
g62
(dp2366
sg71
g67
sg64
(lp2367
g57
(g78
g59
NtRp2368
(dp2369
g62
(dp2370
g82
g83
ssg71
g2364
sg64
(lp2371
S'is_local'
p2372
asbag57
(g78
g59
NtRp2373
(dp2374
g62
(dp2375
g89
g90
ssg71
g2364
sg64
(lp2376
S':'
asbag57
(g78
g59
NtRp2377
(dp2378
g62
(dp2379
sg71
g2364
sg64
(lp2380
g57
(g58
g59
NtRp2381
(dp2382
g62
(dp2383
g70
I5
ssg71
g2377
sg64
(lp2384
g1841
asbasbasbag57
(g73
g59
NtRp2385
(dp2386
g62
(dp2387
sg71
g67
sg64
(lp2388
g57
(g78
g59
NtRp2389
(dp2390
g62
(dp2391
g82
g83
ssg71
g2385
sg64
(lp2392
S'is_restful'
p2393
asbag57
(g78
g59
NtRp2394
(dp2395
g62
(dp2396
g89
g90
ssg71
g2385
sg64
(lp2397
S':'
asbag57
(g78
g59
NtRp2398
(dp2399
g62
(dp2400
sg71
g2385
sg64
(lp2401
g57
(g58
g59
NtRp2402
(dp2403
g62
(dp2404
g70
I5
ssg71
g2398
sg64
(lp2405
g100
asbasbasbag57
(g73
g59
NtRp2406
(dp2407
g62
(dp2408
sg71
g67
sg64
(lp2409
g57
(g78
g59
NtRp2410
(dp2411
g62
(dp2412
g82
g83
ssg71
g2406
sg64
(lp2413
S'now'
p2414
asbag57
(g78
g59
NtRp2415
(dp2416
g62
(dp2417
g89
g90
ssg71
g2406
sg64
(lp2418
S':'
asbag57
(g78
g59
NtRp2419
(dp2420
g62
(dp2421
sg71
g2406
sg64
(lp2422
g57
(g58
g59
NtRp2423
(dp2424
g62
(dp2425
g70
I5
ssg71
g2419
sg64
(lp2426
S'datetime.datetime(2012, 11, 11, 2, 32, 5, 289932)'
p2427
asbasbasbag57
(g73
g59
NtRp2428
(dp2429
g62
(dp2430
sg71
g67
sg64
(lp2431
g57
(g78
g59
NtRp2432
(dp2433
g62
(dp2434
g82
g83
ssg71
g2428
sg64
(lp2435
S'post_vars'
p2436
asbag57
(g78
g59
NtRp2437
(dp2438
g62
(dp2439
g89
g90
ssg71
g2428
sg64
(lp2440
S':'
asbag57
(g78
g59
NtRp2441
(dp2442
g62
(dp2443
sg71
g2428
sg64
(lp2444
g57
(g58
g59
NtRp2445
(dp2446
g62
(dp2447
g70
I5
ssg71
g2441
sg64
(lp2448
g57
(g66
g59
NtRp2449
(dp2450
g62
(dp2451
g70
I4
ssg71
Nsg64
(lp2452
sbasbasbasbag57
(g73
g59
NtRp2453
(dp2454
g62
(dp2455
sg71
g67
sg64
(lp2456
g57
(g78
g59
NtRp2457
(dp2458
g62
(dp2459
g82
g83
ssg71
g2453
sg64
(lp2460
S'url'
p2461
asbag57
(g78
g59
NtRp2462
(dp2463
g62
(dp2464
g89
g90
ssg71
g2453
sg64
(lp2465
S':'
asbag57
(g78
g59
NtRp2466
(dp2467
g62
(dp2468
sg71
g2453
sg64
(lp2469
g57
(g58
g59
NtRp2470
(dp2471
g62
(dp2472
g70
I5
ssg71
g2466
sg64
(lp2473
S'/manager/default/label'
p2474
asbasbasbag57
(g73
g59
NtRp2475
(dp2476
g62
(dp2477
sg71
g67
sg64
(lp2478
g57
(g78
g59
NtRp2479
(dp2480
g62
(dp2481
g82
g83
ssg71
g2475
sg64
(lp2482
S'utcnow'
p2483
asbag57
(g78
g59
NtRp2484
(dp2485
g62
(dp2486
g89
g90
ssg71
g2475
sg64
(lp2487
S':'
asbag57
(g78
g59
NtRp2488
(dp2489
g62
(dp2490
sg71
g2475
sg64
(lp2491
g57
(g58
g59
NtRp2492
(dp2493
g62
(dp2494
g70
I5
ssg71
g2488
sg64
(lp2495
S'datetime.datetime(2012, 11, 10, 21, 2, 5, 289987)'
p2496
asbasbasbag57
(g73
g59
NtRp2497
(dp2498
g62
(dp2499
sg71
g67
sg64
(lp2500
g57
(g78
g59
NtRp2501
(dp2502
g62
(dp2503
g82
g83
ssg71
g2497
sg64
(lp2504
S'uuid'
p2505
asbag57
(g78
g59
NtRp2506
(dp2507
g62
(dp2508
g89
g90
ssg71
g2497
sg64
(lp2509
S':'
asbag57
(g78
g59
NtRp2510
(dp2511
g62
(dp2512
sg71
g2497
sg64
(lp2513
g57
(g58
g59
NtRp2514
(dp2515
g62
(dp2516
g70
I5
ssg71
g2510
sg64
(lp2517
S'manager/127.0.0.1.2012-11-11.02-32-05.201cec17-0afb-4a49-9a6f-a592e713320d'
p2518
asbasbasbag57
(g73
g59
NtRp2519
(dp2520
g62
(dp2521
sg71
g67
sg64
(lp2522
g57
(g78
g59
NtRp2523
(dp2524
g62
(dp2525
g82
g83
ssg71
g2519
sg64
(lp2526
S'vars'
p2527
asbag57
(g78
g59
NtRp2528
(dp2529
g62
(dp2530
g89
g90
ssg71
g2519
sg64
(lp2531
S':'
asbag57
(g78
g59
NtRp2532
(dp2533
g62
(dp2534
sg71
g2519
sg64
(lp2535
g57
(g58
g59
NtRp2536
(dp2537
g62
(dp2538
g70
I5
ssg71
g2532
sg64
(lp2539
g57
(g66
g59
NtRp2540
(dp2541
g62
(dp2542
g70
I4
ssg71
Nsg64
(lp2543
sbasbasbasbag57
(g73
g59
NtRp2544
(dp2545
g62
(dp2546
sg71
g67
sg64
(lp2547
g57
(g78
g59
NtRp2548
(dp2549
g62
(dp2550
g82
g83
ssg71
g2544
sg64
(lp2551
S'wsgi'
p2552
asbag57
(g78
g59
NtRp2553
(dp2554
g62
(dp2555
g89
g90
ssg71
g2544
sg64
(lp2556
S':'
asbag57
(g78
g59
NtRp2557
(dp2558
g62
(dp2559
sg71
g2544
sg64
(lp2560
g57
(g58
g59
NtRp2561
(dp2562
g62
(dp2563
g70
I5
ssg71
g2557
sg64
(lp2564
g57
(g66
g59
NtRp2565
(dp2566
g62
(dp2567
g70
I4
ssg71
Nsg64
(lp2568
g57
(g73
g59
NtRp2569
(dp2570
g62
(dp2571
sg71
g2565
sg64
(lp2572
g57
(g78
g59
NtRp2573
(dp2574
g62
(dp2575
g82
g83
ssg71
g2569
sg64
(lp2576
S'environ'
p2577
asbag57
(g78
g59
NtRp2578
(dp2579
g62
(dp2580
g89
g90
ssg71
g2569
sg64
(lp2581
S':'
asbag57
(g78
g59
NtRp2582
(dp2583
g62
(dp2584
sg71
g2569
sg64
(lp2585
g57
(g58
g59
NtRp2586
(dp2587
g62
(dp2588
g70
I4
ssg71
g2582
sg64
(lp2589
g57
(g66
g59
NtRp2590
(dp2591
g62
(dp2592
g70
I3
ssg71
Nsg64
(lp2593
g57
(g73
g59
NtRp2594
(dp2595
g62
(dp2596
sg71
g2590
sg64
(lp2597
g57
(g78
g59
NtRp2598
(dp2599
g62
(dp2600
g82
g83
ssg71
g2594
sg64
(lp2601
S'HTTP_ACCEPT'
p2602
asbag57
(g78
g59
NtRp2603
(dp2604
g62
(dp2605
g89
g90
ssg71
g2594
sg64
(lp2606
S':'
asbag57
(g78
g59
NtRp2607
(dp2608
g62
(dp2609
sg71
g2594
sg64
(lp2610
g57
(g58
g59
NtRp2611
(dp2612
g62
(dp2613
g70
I3
ssg71
g2607
sg64
(lp2614
g1188
asbasbasbag57
(g73
g59
NtRp2615
(dp2616
g62
(dp2617
sg71
g2590
sg64
(lp2618
g57
(g78
g59
NtRp2619
(dp2620
g62
(dp2621
g82
g83
ssg71
g2615
sg64
(lp2622
S'HTTP_ACCEPT_ENCODING'
p2623
asbag57
(g78
g59
NtRp2624
(dp2625
g62
(dp2626
g89
g90
ssg71
g2615
sg64
(lp2627
S':'
asbag57
(g78
g59
NtRp2628
(dp2629
g62
(dp2630
sg71
g2615
sg64
(lp2631
g57
(g58
g59
NtRp2632
(dp2633
g62
(dp2634
g70
I3
ssg71
g2628
sg64
(lp2635
g1210
asbasbasbag57
(g73
g59
NtRp2636
(dp2637
g62
(dp2638
sg71
g2590
sg64
(lp2639
g57
(g78
g59
NtRp2640
(dp2641
g62
(dp2642
g82
g83
ssg71
g2636
sg64
(lp2643
S'HTTP_ACCEPT_LANGUAGE'
p2644
asbag57
(g78
g59
NtRp2645
(dp2646
g62
(dp2647
g89
g90
ssg71
g2636
sg64
(lp2648
S':'
asbag57
(g78
g59
NtRp2649
(dp2650
g62
(dp2651
sg71
g2636
sg64
(lp2652
g57
(g58
g59
NtRp2653
(dp2654
g62
(dp2655
g70
I3
ssg71
g2649
sg64
(lp2656
g1232
asbasbasbag57
(g73
g59
NtRp2657
(dp2658
g62
(dp2659
sg71
g2590
sg64
(lp2660
g57
(g78
g59
NtRp2661
(dp2662
g62
(dp2663
g82
g83
ssg71
g2657
sg64
(lp2664
S'HTTP_CONNECTION'
p2665
asbag57
(g78
g59
NtRp2666
(dp2667
g62
(dp2668
g89
g90
ssg71
g2657
sg64
(lp2669
S':'
asbag57
(g78
g59
NtRp2670
(dp2671
g62
(dp2672
sg71
g2657
sg64
(lp2673
g57
(g58
g59
NtRp2674
(dp2675
g62
(dp2676
g70
I3
ssg71
g2670
sg64
(lp2677
g1254
asbasbasbag57
(g73
g59
NtRp2678
(dp2679
g62
(dp2680
sg71
g2590
sg64
(lp2681
g57
(g78
g59
NtRp2682
(dp2683
g62
(dp2684
g82
g83
ssg71
g2678
sg64
(lp2685
S'HTTP_COOKIE'
p2686
asbag57
(g78
g59
NtRp2687
(dp2688
g62
(dp2689
g89
g90
ssg71
g2678
sg64
(lp2690
S':'
asbag57
(g78
g59
NtRp2691
(dp2692
g62
(dp2693
sg71
g2678
sg64
(lp2694
g57
(g58
g59
NtRp2695
(dp2696
g62
(dp2697
g70
I3
ssg71
g2691
sg64
(lp2698
g1276
asbasbasbag57
(g73
g59
NtRp2699
(dp2700
g62
(dp2701
sg71
g2590
sg64
(lp2702
g57
(g78
g59
NtRp2703
(dp2704
g62
(dp2705
g82
g83
ssg71
g2699
sg64
(lp2706
S'HTTP_HOST'
p2707
asbag57
(g78
g59
NtRp2708
(dp2709
g62
(dp2710
g89
g90
ssg71
g2699
sg64
(lp2711
S':'
asbag57
(g78
g59
NtRp2712
(dp2713
g62
(dp2714
sg71
g2699
sg64
(lp2715
g57
(g58
g59
NtRp2716
(dp2717
g62
(dp2718
g70
I3
ssg71
g2712
sg64
(lp2719
g1298
asbasbasbag57
(g73
g59
NtRp2720
(dp2721
g62
(dp2722
sg71
g2590
sg64
(lp2723
g57
(g78
g59
NtRp2724
(dp2725
g62
(dp2726
g82
g83
ssg71
g2720
sg64
(lp2727
S'HTTP_REFERER'
p2728
asbag57
(g78
g59
NtRp2729
(dp2730
g62
(dp2731
g89
g90
ssg71
g2720
sg64
(lp2732
S':'
asbag57
(g78
g59
NtRp2733
(dp2734
g62
(dp2735
sg71
g2720
sg64
(lp2736
g57
(g58
g59
NtRp2737
(dp2738
g62
(dp2739
g70
I3
ssg71
g2733
sg64
(lp2740
g1320
asbasbasbag57
(g73
g59
NtRp2741
(dp2742
g62
(dp2743
sg71
g2590
sg64
(lp2744
g57
(g78
g59
NtRp2745
(dp2746
g62
(dp2747
g82
g83
ssg71
g2741
sg64
(lp2748
S'HTTP_USER_AGENT'
p2749
asbag57
(g78
g59
NtRp2750
(dp2751
g62
(dp2752
g89
g90
ssg71
g2741
sg64
(lp2753
S':'
asbag57
(g78
g59
NtRp2754
(dp2755
g62
(dp2756
sg71
g2741
sg64
(lp2757
g57
(g58
g59
NtRp2758
(dp2759
g62
(dp2760
g70
I3
ssg71
g2754
sg64
(lp2761
g1342
asbasbasbag57
(g73
g59
NtRp2762
(dp2763
g62
(dp2764
sg71
g2590
sg64
(lp2765
g57
(g78
g59
NtRp2766
(dp2767
g62
(dp2768
g82
g83
ssg71
g2762
sg64
(lp2769
S'PATH_INFO'
p2770
asbag57
(g78
g59
NtRp2771
(dp2772
g62
(dp2773
g89
g90
ssg71
g2762
sg64
(lp2774
S':'
asbag57
(g78
g59
NtRp2775
(dp2776
g62
(dp2777
sg71
g2762
sg64
(lp2778
g57
(g58
g59
NtRp2779
(dp2780
g62
(dp2781
g70
I3
ssg71
g2775
sg64
(lp2782
g1406
asbasbasbag57
(g73
g59
NtRp2783
(dp2784
g62
(dp2785
sg71
g2590
sg64
(lp2786
g57
(g78
g59
NtRp2787
(dp2788
g62
(dp2789
g82
g83
ssg71
g2783
sg64
(lp2790
S'QUERY_STRING'
p2791
asbag57
(g78
g59
NtRp2792
(dp2793
g62
(dp2794
g89
g90
ssg71
g2783
sg64
(lp2795
S':'
asbag57
(g78
g59
NtRp2796
(dp2797
g62
(dp2798
sg71
g2783
sg64
(lp2799
g57
(g58
g59
NtRp2800
(dp2801
g62
(dp2802
g70
I3
ssg71
g2796
sg64
(lp2803
S''
asbasbasbag57
(g73
g59
NtRp2804
(dp2805
g62
(dp2806
sg71
g2590
sg64
(lp2807
g57
(g78
g59
NtRp2808
(dp2809
g62
(dp2810
g82
g83
ssg71
g2804
sg64
(lp2811
S'REMOTE_ADDR'
p2812
asbag57
(g78
g59
NtRp2813
(dp2814
g62
(dp2815
g89
g90
ssg71
g2804
sg64
(lp2816
S':'
asbag57
(g78
g59
NtRp2817
(dp2818
g62
(dp2819
sg71
g2804
sg64
(lp2820
g57
(g58
g59
NtRp2821
(dp2822
g62
(dp2823
g70
I3
ssg71
g2817
sg64
(lp2824
g190
asbasbasbag57
(g73
g59
NtRp2825
(dp2826
g62
(dp2827
sg71
g2590
sg64
(lp2828
g57
(g78
g59
NtRp2829
(dp2830
g62
(dp2831
g82
g83
ssg71
g2825
sg64
(lp2832
S'REMOTE_PORT'
p2833
asbag57
(g78
g59
NtRp2834
(dp2835
g62
(dp2836
g89
g90
ssg71
g2825
sg64
(lp2837
S':'
asbag57
(g78
g59
NtRp2838
(dp2839
g62
(dp2840
sg71
g2825
sg64
(lp2841
g57
(g58
g59
NtRp2842
(dp2843
g62
(dp2844
g70
I3
ssg71
g2838
sg64
(lp2845
g1470
asbasbasbag57
(g73
g59
NtRp2846
(dp2847
g62
(dp2848
sg71
g2590
sg64
(lp2849
g57
(g78
g59
NtRp2850
(dp2851
g62
(dp2852
g82
g83
ssg71
g2846
sg64
(lp2853
S'REQUEST_METHOD'
p2854
asbag57
(g78
g59
NtRp2855
(dp2856
g62
(dp2857
g89
g90
ssg71
g2846
sg64
(lp2858
S':'
asbag57
(g78
g59
NtRp2859
(dp2860
g62
(dp2861
sg71
g2846
sg64
(lp2862
g57
(g58
g59
NtRp2863
(dp2864
g62
(dp2865
g70
I3
ssg71
g2859
sg64
(lp2866
g1492
asbasbasbag57
(g73
g59
NtRp2867
(dp2868
g62
(dp2869
sg71
g2590
sg64
(lp2870
g57
(g78
g59
NtRp2871
(dp2872
g62
(dp2873
g82
g83
ssg71
g2867
sg64
(lp2874
S'SCRIPT_NAME'
p2875
asbag57
(g78
g59
NtRp2876
(dp2877
g62
(dp2878
g89
g90
ssg71
g2867
sg64
(lp2879
S':'
asbag57
(g78
g59
NtRp2880
(dp2881
g62
(dp2882
sg71
g2867
sg64
(lp2883
g57
(g58
g59
NtRp2884
(dp2885
g62
(dp2886
g70
I3
ssg71
g2880
sg64
(lp2887
S''
asbasbasbag57
(g73
g59
NtRp2888
(dp2889
g62
(dp2890
sg71
g2590
sg64
(lp2891
g57
(g78
g59
NtRp2892
(dp2893
g62
(dp2894
g82
g83
ssg71
g2888
sg64
(lp2895
S'SERVER_NAME'
p2896
asbag57
(g78
g59
NtRp2897
(dp2898
g62
(dp2899
g89
g90
ssg71
g2888
sg64
(lp2900
S':'
asbag57
(g78
g59
NtRp2901
(dp2902
g62
(dp2903
sg71
g2888
sg64
(lp2904
g57
(g58
g59
NtRp2905
(dp2906
g62
(dp2907
g70
I3
ssg71
g2901
sg64
(lp2908
g1535
asbasbasbag57
(g73
g59
NtRp2909
(dp2910
g62
(dp2911
sg71
g2590
sg64
(lp2912
g57
(g78
g59
NtRp2913
(dp2914
g62
(dp2915
g82
g83
ssg71
g2909
sg64
(lp2916
S'SERVER_PORT'
p2917
asbag57
(g78
g59
NtRp2918
(dp2919
g62
(dp2920
g89
g90
ssg71
g2909
sg64
(lp2921
S':'
asbag57
(g78
g59
NtRp2922
(dp2923
g62
(dp2924
sg71
g2909
sg64
(lp2925
g57
(g58
g59
NtRp2926
(dp2927
g62
(dp2928
g70
I3
ssg71
g2922
sg64
(lp2929
g1557
asbasbasbag57
(g73
g59
NtRp2930
(dp2931
g62
(dp2932
sg71
g2590
sg64
(lp2933
g57
(g78
g59
NtRp2934
(dp2935
g62
(dp2936
g82
g83
ssg71
g2930
sg64
(lp2937
S'SERVER_PROTOCOL'
p2938
asbag57
(g78
g59
NtRp2939
(dp2940
g62
(dp2941
g89
g90
ssg71
g2930
sg64
(lp2942
S':'
asbag57
(g78
g59
NtRp2943
(dp2944
g62
(dp2945
sg71
g2930
sg64
(lp2946
g57
(g58
g59
NtRp2947
(dp2948
g62
(dp2949
g70
I3
ssg71
g2943
sg64
(lp2950
g1579
asbasbasbag57
(g73
g59
NtRp2951
(dp2952
g62
(dp2953
sg71
g2590
sg64
(lp2954
g57
(g78
g59
NtRp2955
(dp2956
g62
(dp2957
g82
g83
ssg71
g2951
sg64
(lp2958
S'SERVER_SOFTWARE'
p2959
asbag57
(g78
g59
NtRp2960
(dp2961
g62
(dp2962
g89
g90
ssg71
g2951
sg64
(lp2963
S':'
asbag57
(g78
g59
NtRp2964
(dp2965
g62
(dp2966
sg71
g2951
sg64
(lp2967
g57
(g58
g59
NtRp2968
(dp2969
g62
(dp2970
g70
I3
ssg71
g2964
sg64
(lp2971
g1601
asbasbasbag57
(g73
g59
NtRp2972
(dp2973
g62
(dp2974
sg71
g2590
sg64
(lp2975
g57
(g78
g59
NtRp2976
(dp2977
g62
(dp2978
g82
g83
ssg71
g2972
sg64
(lp2979
S'wsgi.errors'
p2980
asbag57
(g78
g59
NtRp2981
(dp2982
g62
(dp2983
g89
g90
ssg71
g2972
sg64
(lp2984
S':'
asbag57
(g78
g59
NtRp2985
(dp2986
g62
(dp2987
sg71
g2972
sg64
(lp2988
g57
(g58
g59
NtRp2989
(dp2990
g62
(dp2991
g70
I3
ssg71
g2985
sg64
(lp2992
S"<open file '<stderr>', mode 'w' at 0xb72e50d0>"
p2993
asbasbasbag57
(g73
g59
NtRp2994
(dp2995
g62
(dp2996
sg71
g2590
sg64
(lp2997
g57
(g78
g59
NtRp2998
(dp2999
g62
(dp3000
g82
g83
ssg71
g2994
sg64
(lp3001
S'wsgi.file_wrapper'
p3002
asbag57
(g78
g59
NtRp3003
(dp3004
g62
(dp3005
g89
g90
ssg71
g2994
sg64
(lp3006
S':'
asbag57
(g78
g59
NtRp3007
(dp3008
g62
(dp3009
sg71
g2994
sg64
(lp3010
g57
(g58
g59
NtRp3011
(dp3012
g62
(dp3013
g70
I3
ssg71
g3007
sg64
(lp3014
S'<class wsgiref.util.FileWrapper at 0xa43b4ac>'
p3015
asbasbasbag57
(g73
g59
NtRp3016
(dp3017
g62
(dp3018
sg71
g2590
sg64
(lp3019
g57
(g78
g59
NtRp3020
(dp3021
g62
(dp3022
g82
g83
ssg71
g3016
sg64
(lp3023
S'wsgi.input'
p3024
asbag57
(g78
g59
NtRp3025
(dp3026
g62
(dp3027
g89
g90
ssg71
g3016
sg64
(lp3028
S':'
asbag57
(g78
g59
NtRp3029
(dp3030
g62
(dp3031
sg71
g3016
sg64
(lp3032
g57
(g58
g59
NtRp3033
(dp3034
g62
(dp3035
g70
I3
ssg71
g3029
sg64
(lp3036
S'<cStringIO.StringO object at 0xab46ce80>'
p3037
asbasbasbag57
(g73
g59
NtRp3038
(dp3039
g62
(dp3040
sg71
g2590
sg64
(lp3041
g57
(g78
g59
NtRp3042
(dp3043
g62
(dp3044
g82
g83
ssg71
g3038
sg64
(lp3045
S'wsgi.multiprocess'
p3046
asbag57
(g78
g59
NtRp3047
(dp3048
g62
(dp3049
g89
g90
ssg71
g3038
sg64
(lp3050
S':'
asbag57
(g78
g59
NtRp3051
(dp3052
g62
(dp3053
sg71
g3038
sg64
(lp3054
g57
(g58
g59
NtRp3055
(dp3056
g62
(dp3057
g70
I3
ssg71
g3051
sg64
(lp3058
g100
asbasbasbag57
(g73
g59
NtRp3059
(dp3060
g62
(dp3061
sg71
g2590
sg64
(lp3062
g57
(g78
g59
NtRp3063
(dp3064
g62
(dp3065
g82
g83
ssg71
g3059
sg64
(lp3066
S'wsgi.multithread'
p3067
asbag57
(g78
g59
NtRp3068
(dp3069
g62
(dp3070
g89
g90
ssg71
g3059
sg64
(lp3071
S':'
asbag57
(g78
g59
NtRp3072
(dp3073
g62
(dp3074
sg71
g3059
sg64
(lp3075
g57
(g58
g59
NtRp3076
(dp3077
g62
(dp3078
g70
I3
ssg71
g3072
sg64
(lp3079
g1841
asbasbasbag57
(g73
g59
NtRp3080
(dp3081
g62
(dp3082
sg71
g2590
sg64
(lp3083
g57
(g78
g59
NtRp3084
(dp3085
g62
(dp3086
g82
g83
ssg71
g3080
sg64
(lp3087
S'wsgi.run_once'
p3088
asbag57
(g78
g59
NtRp3089
(dp3090
g62
(dp3091
g89
g90
ssg71
g3080
sg64
(lp3092
S':'
asbag57
(g78
g59
NtRp3093
(dp3094
g62
(dp3095
sg71
g3080
sg64
(lp3096
g57
(g58
g59
NtRp3097
(dp3098
g62
(dp3099
g70
I3
ssg71
g3093
sg64
(lp3100
g100
asbasbasbag57
(g73
g59
NtRp3101
(dp3102
g62
(dp3103
sg71
g2590
sg64
(lp3104
g57
(g78
g59
NtRp3105
(dp3106
g62
(dp3107
g82
g83
ssg71
g3101
sg64
(lp3108
S'wsgi.url_scheme'
p3109
asbag57
(g78
g59
NtRp3110
(dp3111
g62
(dp3112
g89
g90
ssg71
g3101
sg64
(lp3113
S':'
asbag57
(g78
g59
NtRp3114
(dp3115
g62
(dp3116
sg71
g3101
sg64
(lp3117
g57
(g58
g59
NtRp3118
(dp3119
g62
(dp3120
g70
I3
ssg71
g3114
sg64
(lp3121
g1884
asbasbasbag57
(g73
g59
NtRp3122
(dp3123
g62
(dp3124
sg71
g2590
sg64
(lp3125
g57
(g78
g59
NtRp3126
(dp3127
g62
(dp3128
g82
g83
ssg71
g3122
sg64
(lp3129
S'wsgi.version'
p3130
asbag57
(g78
g59
NtRp3131
(dp3132
g62
(dp3133
g89
g90
ssg71
g3122
sg64
(lp3134
S':'
asbag57
(g78
g59
NtRp3135
(dp3136
g62
(dp3137
sg71
g3122
sg64
(lp3138
g57
(g58
g59
NtRp3139
(dp3140
g62
(dp3141
g70
I3
ssg71
g3135
sg64
(lp3142
S'1'
asbasbasbasbasbasbasbasbasbasbasbasbasbsS'frames'
p3143
(lp3144
(dp3145
S'file'
p3146
S'/usr/lib/pymodules/python2.7/gluon/restricted.py'
p3147
sS'dump'
p3148
(dp3149
S'environment'
p3150
S"{'A': <class 'gluon.html.A'>, 'Auth': <class 'gluon.tools.Auth'>, 'B': <class 'gluon.html.B'>, 'BEAUTIFY': <class 'gluon.html.BEAUTIFY'>, 'BODY': <class 'gluon.html.BODY'>, 'BR': <class 'gluon.html.BR'>, 'BUTTON': <class 'gluon.html.BUTTON'>, 'CAS': <Storage {'check_url': 'https://login.iiit.ac.in...: 'http://127.0.0.1:8000/manager/default/login'}>, 'CAT': <class 'gluon.html.CAT'>, 'CENTER': <class 'gluon.html.CENTER'>, ...}"
p3151
sS'ccode'
p3152
S'<code object <module> at 0xaa72f650, file "/home...ations/manager/views/default/label.html", line 1>'
p3153
ssS'lnum'
p3154
I204
sS'lines'
p3155
(dp3156
I199
S'    try:'
p3157
sI200
S'        if type(code) == types.CodeType:'
p3158
sI201
S'            ccode = code'
p3159
sI202
S'        else:'
p3160
sI203
S'            ccode = compile2(code,layer)'
p3161
sI204
S'        exec ccode in environment'
p3162
sI205
S'    except HTTP:'
p3163
sI206
S'        raise'
p3164
sI207
S'    except RestrictedError:'
p3165
sI208
S'        # do not encapsulate (obfuscate) the original RestrictedError'
p3166
ssS'call'
p3167
S'(code=\'response.write(\\\'<!DOCTYPE html PUBLIC "-//W3C//D...v>\\\\n  </div>\\\\n </body>\\\\n</html>\\\\n\\\', escape=False)\', environment={\'A\': <class \'gluon.html.A\'>, \'Auth\': <class \'gluon.tools.Auth\'>, \'B\': <class \'gluon.html.B\'>, \'BEAUTIFY\': <class \'gluon.html.BEAUTIFY\'>, \'BODY\': <class \'gluon.html.BODY\'>, \'BR\': <class \'gluon.html.BR\'>, \'BUTTON\': <class \'gluon.html.BUTTON\'>, \'CAS\': <Storage {\'check_url\': \'https://login.iiit.ac.in...: \'http://127.0.0.1:8000/manager/default/login\'}>, \'CAT\': <class \'gluon.html.CAT\'>, \'CENTER\': <class \'gluon.html.CENTER\'>, ...}, layer=\'/home/unic/web2py/applications/manager/views/default/label.html\')'
p3168
sS'func'
p3169
S'restricted'
p3170
sa(dp3171
g3146
S'/home/unic/web2py/applications/manager/views/default/label.html'
p3172
sg3148
(dp3173
sg3154
I48
sg3155
(dp3174
I39
S"response.write(response.flash or '')"
p3175
sI40
S"response.write('</div>\\n     ', escape=False)"
p3176
sI41
S"response.write('\\n', escape=False)"
p3177
sI42
S'k =len(users)'
p3178
sI43
S"response.write('\\n', escape=False)"
p3179
sI44
S'for i in users:'
p3180
sI45
S"    response.write('\\n', escape=False)"
p3181
sI46
S'    if k%2 == 0:'
p3182
sI47
S"        response.write('\\n', escape=False)"
p3183
sI48
S'        response.write(users[i].Name)'
p3184
sI49
S"        response.write('\\n', escape=False)"
p3185
sI50
S'        pass'
p3186
sI51
S"    response.write('\\n', escape=False)"
p3187
sI52
S'    pass'
p3188
sI53
S"response.write('\\n', escape=False)"
p3189
sI54
S'response.write(\'\\n    </div>\\n    <!-- end main -->\\n    <!-- footer -->\\n    <div id="footer">\\n     <div id="left_footer">\\n      &copy; Copyright 2008 Your website\\n     </div>\\n     <div id="right_footer">\\n      <!-- Please do not change or delete this links. Read the license! Thanks. :-) -->\\n      <a href="http://www.realitysoftware.ca/website-design.html">\\n       Website design\\n      </a>\\n      by\\n      <a href="http://www.realitysoftware.ca">\\n       Reality Software\\n      </a>\\n     </div>\\n    </div>\\n    <!-- end footer -->\\n   </div>\\n  </div>\\n </body>\\n</html>\\n\', escape=False)'
p3190
ssg3167
S'()'
p3191
sg3169
S'<module>'
p3192
sa(dp3193
g3146
S'/usr/lib/pymodules/python2.7/gluon/dal.py'
p3194
sg3148
(dp3195
S'i'
S"<Row {'Name': '', 'RollNo': '', 'update_record':...lete_record': <function <lambda> at 0xab30fdf4>}>"
p3196
sS'self'
p3197
S'<gluon.dal.Rows object>'
p3198
sS'self.records'
p3199
S"[<Row {'User': <Row {'Name': '', 'RollNo': '', 'u...te_record': <function <lambda> at 0xab30fdf4>}>}>, <Row {'User': <Row {'Name': 'AAKASH AGARWAL', 'R...te_record': <function <lambda> at 0xab30fe64>}>}>, <Row {'User': <Row {'Name': 'AANCHAL BINDAL', 'R...te_record': <function <lambda> at 0xab30ff0c>}>}>, <Row {'User': <Row {'Name': 'AAYUSH CHUGH', 'Rol...te_record': <function <lambda> at 0xab30ffb4>}>}>, <Row {'User': <Row {'Name': 'ABHAY VINAYAK', 'Ro...te_record': <function <lambda> at 0xaa71409c>}>}>, <Row {'User': <Row {'Name': 'ABHAYJEET SINGH', '...te_record': <function <lambda> at 0xaa714144>}>}>, <Row {'User': <Row {'Name': 'ABHINANDHAN PANIGRA...te_record': <function <lambda> at 0xaa7141ec>}>}>, <Row {'User': <Row {'Name': 'ABHISHEK PALIWAL', ...te_record': <function <lambda> at 0xaa71425c>}>}>, <Row {'User': <Row {'Name': 'ABHISHEK VINAYAK DE...te_record': <function <lambda> at 0xaa7142cc>}>}>, <Row {'User': <Row {'Name': 'ADITI GUPTA', 'Roll...te_record': <function <lambda> at 0xaa71433c>}>}>, <Row {'User': <Row {'Name': 'ADITI GUPTA', 'Roll...te_record': <function <lambda> at 0xaa7143e4>}>}>, <Row {'User': <Row {'Name': 'AJIT KUMAR SINGH', ...te_record': <function <lambda> at 0xaa714454>}>}>, <Row {'User': <Row {'Name': 'AJIT MATHEW', 'Roll...te_record': <function <lambda> at 0xaa7144fc>}>}>, <Row {'User': <Row {'Name': 'AKASH AGARWAL', 'Ro...te_record': <function <lambda> at 0xaa7145a4>}>}>, <Row {'User': <Row {'Name': 'AKHIL JINDAL', 'Rol...te_record': <function <lambda> at 0xaa71464c>}>}>, <Row {'User': <Row {'Name': 'AKSHAT AGGARWAL', '...te_record': <function <lambda> at 0xaa7146f4>}>}>, <Row {'User': <Row {'Name': 'AKSHAYA PUROHIT', '...te_record': <function <lambda> at 0xaa71479c>}>}>, <Row {'User': <Row {'Name': 'AKULA ARJUN REDDY',...te_record': <function <lambda> at 0xaa714844>}>}>, <Row {'User': <Row {'Name': 'AMIT KUMAR BANSAL',...te_record': <function <lambda> at 0xaa7148b4>}>}>, <Row {'User': <Row {'Name': 'ANIRBAN GUHA', 'Rol...te_record': <function <lambda> at 0xaa714924>}>}>, ...]"
p3200
sS'row'
p3201
S'undefined'
p3202
ssg3154
I6510
sg3155
(dp3203
I6505
S''
sI6506
S'    def __getslice__(self, a, b):'
p3204
sI6507
S'        return Rows(self.db,self.records[a:b],self.colnames)'
p3205
sI6508
S''
sI6509
S'    def __getitem__(self, i):'
p3206
sI6510
S'        row = self.records[i]'
p3207
sI6511
S'        keys = row.keys()'
p3208
sI6512
S"        if self.compact and len(keys) == 1 and keys[0] != '_extra':"
p3209
sI6513
S'            return row[row.keys()[0]]'
p3210
sI6514
S'        return row'
p3211
ssg3167
S"(self=<gluon.dal.Rows object>, i=<Row {'Name': '', 'RollNo': '', 'update_record':...lete_record': <function <lambda> at 0xab30fdf4>}>)"
p3212
sg3169
g20
sasS'pyver'
p3213
S'Python 2.7.3: /usr/bin/python'
p3214
sS'session'
p3215
g57
(g58
g59
NtRp3216
(dp3217
g62
(dp3218
sg64
(lp3219
g57
(g66
g59
NtRp3220
(dp3221
g62
(dp3222
g70
I5
ssg71
Nsg64
(lp3223
g57
(g73
g59
NtRp3224
(dp3225
g62
(dp3226
sg71
g3220
sg64
(lp3227
g57
(g78
g59
NtRp3228
(dp3229
g62
(dp3230
g82
g83
ssg71
g3224
sg64
(lp3231
S'LOGGEDIN'
p3232
asbag57
(g78
g59
NtRp3233
(dp3234
g62
(dp3235
g89
g90
ssg71
g3224
sg64
(lp3236
S':'
asbag57
(g78
g59
NtRp3237
(dp3238
g62
(dp3239
sg71
g3224
sg64
(lp3240
g57
(g58
g59
NtRp3241
(dp3242
g62
(dp3243
g70
I5
ssg71
g3237
sg64
(lp3244
S'0'
asbasbasbag57
(g73
g59
NtRp3245
(dp3246
g62
(dp3247
sg71
g3220
sg64
(lp3248
g57
(g78
g59
NtRp3249
(dp3250
g62
(dp3251
g82
g83
ssg71
g3245
sg64
(lp3252
S'last_query'
p3253
asbag57
(g78
g59
NtRp3254
(dp3255
g62
(dp3256
g89
g90
ssg71
g3245
sg64
(lp3257
S':'
asbag57
(g78
g59
NtRp3258
(dp3259
g62
(dp3260
sg71
g3245
sg64
(lp3261
g57
(g58
g59
NtRp3262
(dp3263
g62
(dp3264
g70
I5
ssg71
g3258
sg64
(lp3265
S'db.UPBook.id>0'
p3266
asbasbasbag57
(g73
g59
NtRp3267
(dp3268
g62
(dp3269
sg71
g3220
sg64
(lp3270
g57
(g78
g59
NtRp3271
(dp3272
g62
(dp3273
g82
g83
ssg71
g3267
sg64
(lp3274
S'login'
p3275
asbag57
(g78
g59
NtRp3276
(dp3277
g62
(dp3278
g89
g90
ssg71
g3267
sg64
(lp3279
S':'
asbag57
(g78
g59
NtRp3280
(dp3281
g62
(dp3282
sg71
g3267
sg64
(lp3283
g57
(g58
g59
NtRp3284
(dp3285
g62
(dp3286
g70
I5
ssg71
g3280
sg64
(lp3287
S'0'
asbasbasbag57
(g73
g59
NtRp3288
(dp3289
g62
(dp3290
sg71
g3220
sg64
(lp3291
g57
(g78
g59
NtRp3292
(dp3293
g62
(dp3294
g82
g83
ssg71
g3288
sg64
(lp3295
S'token'
p3296
asbag57
(g78
g59
NtRp3297
(dp3298
g62
(dp3299
g89
g90
ssg71
g3288
sg64
(lp3300
S':'
asbag57
(g78
g59
NtRp3301
(dp3302
g62
(dp3303
sg71
g3288
sg64
(lp3304
g57
(g58
g59
NtRp3305
(dp3306
g62
(dp3307
g70
I5
ssg71
g3301
sg64
(lp3308
S'neeharikak.v@students.iiit.ac.in'
p3309
asbasbasbasbasbsS'etype'
p3310
S"<type 'exceptions.TypeError'>"
p3311
sS'date'
p3312
S'Sun Nov 11 02:32:05 2012'
p3313
sS'response'
p3314
g57
(g58
g59
NtRp3315
(dp3316
g62
(dp3317
sg64
(lp3318
g57
(g66
g59
NtRp3319
(dp3320
g62
(dp3321
g70
I5
ssg71
Nsg64
(lp3322
g57
(g73
g59
NtRp3323
(dp3324
g62
(dp3325
sg71
g3319
sg64
(lp3326
g57
(g78
g59
NtRp3327
(dp3328
g62
(dp3329
g82
g83
ssg71
g3323
sg64
(lp3330
g155
asbag57
(g78
g59
NtRp3331
(dp3332
g62
(dp3333
g89
g90
ssg71
g3323
sg64
(lp3334
S':'
asbag57
(g78
g59
NtRp3335
(dp3336
g62
(dp3337
sg71
g3323
sg64
(lp3338
g57
(g58
g59
NtRp3339
(dp3340
g62
(dp3341
g70
I5
ssg71
g3335
sg64
(lp3342
S'<cStringIO.StringO object at 0xab2243e0>'
p3343
asbasbasbag57
(g73
g59
NtRp3344
(dp3345
g62
(dp3346
sg71
g3319
sg64
(lp3347
g57
(g78
g59
NtRp3348
(dp3349
g62
(dp3350
g82
g83
ssg71
g3344
sg64
(lp3351
g221
asbag57
(g78
g59
NtRp3352
(dp3353
g62
(dp3354
g89
g90
ssg71
g3344
sg64
(lp3355
S':'
asbag57
(g78
g59
NtRp3356
(dp3357
g62
(dp3358
sg71
g3344
sg64
(lp3359
g57
(g58
g59
NtRp3360
(dp3361
g62
(dp3362
g70
I5
ssg71
g3356
sg64
(lp3363
g57
(g66
g59
NtRp3364
(dp3365
g62
(dp3366
g70
I4
ssg71
Nsg64
(lp3367
g57
(g73
g59
NtRp3368
(dp3369
g62
(dp3370
sg71
g3364
sg64
(lp3371
g57
(g78
g59
NtRp3372
(dp3373
g62
(dp3374
g82
g83
ssg71
g3368
sg64
(lp3375
S'session_id_manager'
p3376
asbag57
(g78
g59
NtRp3377
(dp3378
g62
(dp3379
g89
g90
ssg71
g3368
sg64
(lp3380
S':'
asbag57
(g78
g59
NtRp3381
(dp3382
g62
(dp3383
sg71
g3368
sg64
(lp3384
g57
(g58
g59
NtRp3385
(dp3386
g62
(dp3387
g70
I4
ssg71
g3381
sg64
(lp3388
g57
(g66
g59
NtRp3389
(dp3390
g62
(dp3391
g70
I3
ssg71
Nsg64
(lp3392
g57
(g73
g59
NtRp3393
(dp3394
g62
(dp3395
sg71
g3389
sg64
(lp3396
g57
(g78
g59
NtRp3397
(dp3398
g62
(dp3399
g82
g83
ssg71
g3393
sg64
(lp3400
g271
asbag57
(g78
g59
NtRp3401
(dp3402
g62
(dp3403
g89
g90
ssg71
g3393
sg64
(lp3404
S':'
asbag57
(g78
g59
NtRp3405
(dp3406
g62
(dp3407
sg71
g3393
sg64
(lp3408
g57
(g58
g59
NtRp3409
(dp3410
g62
(dp3411
g70
I3
ssg71
g3405
sg64
(lp3412
S''
asbasbasbag57
(g73
g59
NtRp3413
(dp3414
g62
(dp3415
sg71
g3389
sg64
(lp3416
g57
(g78
g59
NtRp3417
(dp3418
g62
(dp3419
g82
g83
ssg71
g3413
sg64
(lp3420
g292
asbag57
(g78
g59
NtRp3421
(dp3422
g62
(dp3423
g89
g90
ssg71
g3413
sg64
(lp3424
S':'
asbag57
(g78
g59
NtRp3425
(dp3426
g62
(dp3427
sg71
g3413
sg64
(lp3428
g57
(g58
g59
NtRp3429
(dp3430
g62
(dp3431
g70
I3
ssg71
g3425
sg64
(lp3432
S''
asbasbasbag57
(g73
g59
NtRp3433
(dp3434
g62
(dp3435
sg71
g3389
sg64
(lp3436
g57
(g78
g59
NtRp3437
(dp3438
g62
(dp3439
g82
g83
ssg71
g3433
sg64
(lp3440
g313
asbag57
(g78
g59
NtRp3441
(dp3442
g62
(dp3443
g89
g90
ssg71
g3433
sg64
(lp3444
S':'
asbag57
(g78
g59
NtRp3445
(dp3446
g62
(dp3447
sg71
g3433
sg64
(lp3448
g57
(g58
g59
NtRp3449
(dp3450
g62
(dp3451
g70
I3
ssg71
g3445
sg64
(lp3452
S''
asbasbasbag57
(g73
g59
NtRp3453
(dp3454
g62
(dp3455
sg71
g3389
sg64
(lp3456
g57
(g78
g59
NtRp3457
(dp3458
g62
(dp3459
g82
g83
ssg71
g3453
sg64
(lp3460
g334
asbag57
(g78
g59
NtRp3461
(dp3462
g62
(dp3463
g89
g90
ssg71
g3453
sg64
(lp3464
S':'
asbag57
(g78
g59
NtRp3465
(dp3466
g62
(dp3467
sg71
g3453
sg64
(lp3468
g57
(g58
g59
NtRp3469
(dp3470
g62
(dp3471
g70
I3
ssg71
g3465
sg64
(lp3472
S''
asbasbasbag57
(g73
g59
NtRp3473
(dp3474
g62
(dp3475
sg71
g3389
sg64
(lp3476
g57
(g78
g59
NtRp3477
(dp3478
g62
(dp3479
g82
g83
ssg71
g3473
sg64
(lp3480
g355
asbag57
(g78
g59
NtRp3481
(dp3482
g62
(dp3483
g89
g90
ssg71
g3473
sg64
(lp3484
S':'
asbag57
(g78
g59
NtRp3485
(dp3486
g62
(dp3487
sg71
g3473
sg64
(lp3488
g57
(g58
g59
NtRp3489
(dp3490
g62
(dp3491
g70
I3
ssg71
g3485
sg64
(lp3492
S''
asbasbasbag57
(g73
g59
NtRp3493
(dp3494
g62
(dp3495
sg71
g3389
sg64
(lp3496
g57
(g78
g59
NtRp3497
(dp3498
g62
(dp3499
g82
g83
ssg71
g3493
sg64
(lp3500
g376
asbag57
(g78
g59
NtRp3501
(dp3502
g62
(dp3503
g89
g90
ssg71
g3493
sg64
(lp3504
S':'
asbag57
(g78
g59
NtRp3505
(dp3506
g62
(dp3507
sg71
g3493
sg64
(lp3508
g57
(g58
g59
NtRp3509
(dp3510
g62
(dp3511
g70
I3
ssg71
g3505
sg64
(lp3512
S'/'
asbasbasbag57
(g73
g59
NtRp3513
(dp3514
g62
(dp3515
sg71
g3389
sg64
(lp3516
g57
(g78
g59
NtRp3517
(dp3518
g62
(dp3519
g82
g83
ssg71
g3513
sg64
(lp3520
g397
asbag57
(g78
g59
NtRp3521
(dp3522
g62
(dp3523
g89
g90
ssg71
g3513
sg64
(lp3524
S':'
asbag57
(g78
g59
NtRp3525
(dp3526
g62
(dp3527
sg71
g3513
sg64
(lp3528
g57
(g58
g59
NtRp3529
(dp3530
g62
(dp3531
g70
I3
ssg71
g3525
sg64
(lp3532
S''
asbasbasbag57
(g73
g59
NtRp3533
(dp3534
g62
(dp3535
sg71
g3389
sg64
(lp3536
g57
(g78
g59
NtRp3537
(dp3538
g62
(dp3539
g82
g83
ssg71
g3533
sg64
(lp3540
g418
asbag57
(g78
g59
NtRp3541
(dp3542
g62
(dp3543
g89
g90
ssg71
g3533
sg64
(lp3544
S':'
asbag57
(g78
g59
NtRp3545
(dp3546
g62
(dp3547
sg71
g3533
sg64
(lp3548
g57
(g58
g59
NtRp3549
(dp3550
g62
(dp3551
g70
I3
ssg71
g3545
sg64
(lp3552
S''
asbasbasbasbasbasbasbasbasbasbasbag57
(g73
g59
NtRp3553
(dp3554
g62
(dp3555
sg71
g3319
sg64
(lp3556
g57
(g78
g59
NtRp3557
(dp3558
g62
(dp3559
g82
g83
ssg71
g3553
sg64
(lp3560
S'files'
p3561
asbag57
(g78
g59
NtRp3562
(dp3563
g62
(dp3564
g89
g90
ssg71
g3553
sg64
(lp3565
S':'
asbag57
(g78
g59
NtRp3566
(dp3567
g62
(dp3568
sg71
g3553
sg64
(lp3569
g57
(g58
g59
NtRp3570
(dp3571
g62
(dp3572
g70
I5
ssg71
g3566
sg64
(lp3573
g57
(g66
g59
NtRp3574
(dp3575
g62
(dp3576
g70
I4
ssg71
Nsg64
(lp3577
g57
(g73
g59
NtRp3578
(dp3579
g62
(dp3580
sg71
g3574
sg64
(lp3581
g57
(g78
g59
NtRp3582
(dp3583
g62
(dp3584
sg71
g3578
sg64
(lp3585
g57
(g58
g59
NtRp3586
(dp3587
g62
(dp3588
g70
I4
ssg71
g3582
sg64
(lp3589
S'/manager/static/js/jquery.js'
p3590
asbasbasbag57
(g73
g59
NtRp3591
(dp3592
g62
(dp3593
sg71
g3574
sg64
(lp3594
g57
(g78
g59
NtRp3595
(dp3596
g62
(dp3597
sg71
g3591
sg64
(lp3598
g57
(g58
g59
NtRp3599
(dp3600
g62
(dp3601
g70
I4
ssg71
g3595
sg64
(lp3602
S'/manager/static/plugin_layouts/layouts/Papira/style.css'
p3603
asbasbasbag57
(g73
g59
NtRp3604
(dp3605
g62
(dp3606
sg71
g3574
sg64
(lp3607
g57
(g78
g59
NtRp3608
(dp3609
g62
(dp3610
sg71
g3604
sg64
(lp3611
g57
(g58
g59
NtRp3612
(dp3613
g62
(dp3614
g70
I4
ssg71
g3608
sg64
(lp3615
S'/manager/static/plugin_layouts/superfish.js'
p3616
asbasbasbag57
(g73
g59
NtRp3617
(dp3618
g62
(dp3619
sg71
g3574
sg64
(lp3620
g57
(g78
g59
NtRp3621
(dp3622
g62
(dp3623
sg71
g3617
sg64
(lp3624
g57
(g58
g59
NtRp3625
(dp3626
g62
(dp3627
g70
I4
ssg71
g3621
sg64
(lp3628
S'/manager/static/js/web2py.js'
p3629
asbasbasbasbasbasbasbag57
(g73
g59
NtRp3630
(dp3631
g62
(dp3632
sg71
g3319
sg64
(lp3633
g57
(g78
g59
NtRp3634
(dp3635
g62
(dp3636
g82
g83
ssg71
g3630
sg64
(lp3637
S'flash'
p3638
asbag57
(g78
g59
NtRp3639
(dp3640
g62
(dp3641
g89
g90
ssg71
g3630
sg64
(lp3642
S':'
asbag57
(g78
g59
NtRp3643
(dp3644
g62
(dp3645
sg71
g3630
sg64
(lp3646
g57
(g58
g59
NtRp3647
(dp3648
g62
(dp3649
g70
I5
ssg71
g3643
sg64
(lp3650
S''
asbasbasbag57
(g73
g59
NtRp3651
(dp3652
g62
(dp3653
sg71
g3319
sg64
(lp3654
g57
(g78
g59
NtRp3655
(dp3656
g62
(dp3657
g82
g83
ssg71
g3651
sg64
(lp3658
S'generic_patterns'
p3659
asbag57
(g78
g59
NtRp3660
(dp3661
g62
(dp3662
g89
g90
ssg71
g3651
sg64
(lp3663
S':'
asbag57
(g78
g59
NtRp3664
(dp3665
g62
(dp3666
sg71
g3651
sg64
(lp3667
g57
(g58
g59
NtRp3668
(dp3669
g62
(dp3670
g70
I5
ssg71
g3664
sg64
(lp3671
g57
(g66
g59
NtRp3672
(dp3673
g62
(dp3674
g70
I4
ssg71
Nsg64
(lp3675
g57
(g73
g59
NtRp3676
(dp3677
g62
(dp3678
sg71
g3672
sg64
(lp3679
g57
(g78
g59
NtRp3680
(dp3681
g62
(dp3682
sg71
g3676
sg64
(lp3683
g57
(g58
g59
NtRp3684
(dp3685
g62
(dp3686
g70
I4
ssg71
g3680
sg64
(lp3687
S'*'
asbasbasbasbasbasbasbag57
(g73
g59
NtRp3688
(dp3689
g62
(dp3690
sg71
g3319
sg64
(lp3691
g57
(g78
g59
NtRp3692
(dp3693
g62
(dp3694
g82
g83
ssg71
g3688
sg64
(lp3695
S'headers'
p3696
asbag57
(g78
g59
NtRp3697
(dp3698
g62
(dp3699
g89
g90
ssg71
g3688
sg64
(lp3700
S':'
asbag57
(g78
g59
NtRp3701
(dp3702
g62
(dp3703
sg71
g3688
sg64
(lp3704
g57
(g58
g59
NtRp3705
(dp3706
g62
(dp3707
g70
I5
ssg71
g3701
sg64
(lp3708
g57
(g66
g59
NtRp3709
(dp3710
g62
(dp3711
g70
I4
ssg71
Nsg64
(lp3712
g57
(g73
g59
NtRp3713
(dp3714
g62
(dp3715
sg71
g3709
sg64
(lp3716
g57
(g78
g59
NtRp3717
(dp3718
g62
(dp3719
g82
g83
ssg71
g3713
sg64
(lp3720
S'Cache-Control'
p3721
asbag57
(g78
g59
NtRp3722
(dp3723
g62
(dp3724
g89
g90
ssg71
g3713
sg64
(lp3725
S':'
asbag57
(g78
g59
NtRp3726
(dp3727
g62
(dp3728
sg71
g3713
sg64
(lp3729
g57
(g58
g59
NtRp3730
(dp3731
g62
(dp3732
g70
I4
ssg71
g3726
sg64
(lp3733
S'no-store, no-cache, must-revalidate, post-check=0, pre-check=0'
p3734
asbasbasbag57
(g73
g59
NtRp3735
(dp3736
g62
(dp3737
sg71
g3709
sg64
(lp3738
g57
(g78
g59
NtRp3739
(dp3740
g62
(dp3741
g82
g83
ssg71
g3735
sg64
(lp3742
S'Content-Type'
p3743
asbag57
(g78
g59
NtRp3744
(dp3745
g62
(dp3746
g89
g90
ssg71
g3735
sg64
(lp3747
S':'
asbag57
(g78
g59
NtRp3748
(dp3749
g62
(dp3750
sg71
g3735
sg64
(lp3751
g57
(g58
g59
NtRp3752
(dp3753
g62
(dp3754
g70
I4
ssg71
g3748
sg64
(lp3755
S'text/html; charset=utf-8'
p3756
asbasbasbag57
(g73
g59
NtRp3757
(dp3758
g62
(dp3759
sg71
g3709
sg64
(lp3760
g57
(g78
g59
NtRp3761
(dp3762
g62
(dp3763
g82
g83
ssg71
g3757
sg64
(lp3764
S'Expires'
p3765
asbag57
(g78
g59
NtRp3766
(dp3767
g62
(dp3768
g89
g90
ssg71
g3757
sg64
(lp3769
S':'
asbag57
(g78
g59
NtRp3770
(dp3771
g62
(dp3772
sg71
g3757
sg64
(lp3773
g57
(g58
g59
NtRp3774
(dp3775
g62
(dp3776
g70
I4
ssg71
g3770
sg64
(lp3777
S'Sat, 10 Nov 2012 21:02:05 GMT'
p3778
asbasbasbag57
(g73
g59
NtRp3779
(dp3780
g62
(dp3781
sg71
g3709
sg64
(lp3782
g57
(g78
g59
NtRp3783
(dp3784
g62
(dp3785
g82
g83
ssg71
g3779
sg64
(lp3786
S'Pragma'
p3787
asbag57
(g78
g59
NtRp3788
(dp3789
g62
(dp3790
g89
g90
ssg71
g3779
sg64
(lp3791
S':'
asbag57
(g78
g59
NtRp3792
(dp3793
g62
(dp3794
sg71
g3779
sg64
(lp3795
g57
(g58
g59
NtRp3796
(dp3797
g62
(dp3798
g70
I4
ssg71
g3792
sg64
(lp3799
S'no-cache'
p3800
asbasbasbag57
(g73
g59
NtRp3801
(dp3802
g62
(dp3803
sg71
g3709
sg64
(lp3804
g57
(g78
g59
NtRp3805
(dp3806
g62
(dp3807
g82
g83
ssg71
g3801
sg64
(lp3808
S'X-Powered-By'
p3809
asbag57
(g78
g59
NtRp3810
(dp3811
g62
(dp3812
g89
g90
ssg71
g3801
sg64
(lp3813
S':'
asbag57
(g78
g59
NtRp3814
(dp3815
g62
(dp3816
sg71
g3801
sg64
(lp3817
g57
(g58
g59
NtRp3818
(dp3819
g62
(dp3820
g70
I4
ssg71
g3814
sg64
(lp3821
S'web2py'
p3822
asbasbasbasbasbasbasbag57
(g73
g59
NtRp3823
(dp3824
g62
(dp3825
sg71
g3319
sg64
(lp3826
g57
(g78
g59
NtRp3827
(dp3828
g62
(dp3829
g82
g83
ssg71
g3823
sg64
(lp3830
S'menu'
p3831
asbag57
(g78
g59
NtRp3832
(dp3833
g62
(dp3834
g89
g90
ssg71
g3823
sg64
(lp3835
S':'
asbag57
(g78
g59
NtRp3836
(dp3837
g62
(dp3838
sg71
g3823
sg64
(lp3839
g57
(g58
g59
NtRp3840
(dp3841
g62
(dp3842
g70
I5
ssg71
g3836
sg64
(lp3843
g57
(g66
g59
NtRp3844
(dp3845
g62
(dp3846
g70
I4
ssg71
Nsg64
(lp3847
g57
(g73
g59
NtRp3848
(dp3849
g62
(dp3850
sg71
g3844
sg64
(lp3851
g57
(g78
g59
NtRp3852
(dp3853
g62
(dp3854
sg71
g3848
sg64
(lp3855
g57
(g58
g59
NtRp3856
(dp3857
g62
(dp3858
g70
I4
ssg71
g3852
sg64
(lp3859
g57
(g66
g59
NtRp3860
(dp3861
g62
(dp3862
g70
I3
ssg71
Nsg64
(lp3863
g57
(g73
g59
NtRp3864
(dp3865
g62
(dp3866
sg71
g3860
sg64
(lp3867
g57
(g78
g59
NtRp3868
(dp3869
g62
(dp3870
sg71
g3864
sg64
(lp3871
g57
(g58
g59
NtRp3872
(dp3873
g62
(dp3874
g70
I3
ssg71
g3868
sg64
(lp3875
cgluon.languages
lazyT_unpickle
p3876
(S't\x04\x00\x00\x00Home'
tRp3877
asbasbasbag57
(g73
g59
NtRp3878
(dp3879
g62
(dp3880
sg71
g3860
sg64
(lp3881
g57
(g78
g59
NtRp3882
(dp3883
g62
(dp3884
sg71
g3878
sg64
(lp3885
g57
(g58
g59
NtRp3886
(dp3887
g62
(dp3888
g70
I3
ssg71
g3882
sg64
(lp3889
g100
asbasbasbag57
(g73
g59
NtRp3890
(dp3891
g62
(dp3892
sg71
g3860
sg64
(lp3893
g57
(g78
g59
NtRp3894
(dp3895
g62
(dp3896
sg71
g3890
sg64
(lp3897
g57
(g58
g59
NtRp3898
(dp3899
g62
(dp3900
g70
I3
ssg71
g3894
sg64
(lp3901
S'/manager/default/index'
p3902
asbasbasbasbasbasbasbag57
(g73
g59
NtRp3903
(dp3904
g62
(dp3905
sg71
g3844
sg64
(lp3906
g57
(g78
g59
NtRp3907
(dp3908
g62
(dp3909
sg71
g3903
sg64
(lp3910
g57
(g58
g59
NtRp3911
(dp3912
g62
(dp3913
g70
I4
ssg71
g3907
sg64
(lp3914
g57
(g66
g59
NtRp3915
(dp3916
g62
(dp3917
g70
I3
ssg71
Nsg64
(lp3918
g57
(g73
g59
NtRp3919
(dp3920
g62
(dp3921
sg71
g3915
sg64
(lp3922
g57
(g78
g59
NtRp3923
(dp3924
g62
(dp3925
sg71
g3919
sg64
(lp3926
g57
(g58
g59
NtRp3927
(dp3928
g62
(dp3929
g70
I3
ssg71
g3923
sg64
(lp3930
g3876
(S't\x06\x00\x00\x00logout'
tRp3931
asbasbasbag57
(g73
g59
NtRp3932
(dp3933
g62
(dp3934
sg71
g3915
sg64
(lp3935
g57
(g78
g59
NtRp3936
(dp3937
g62
(dp3938
sg71
g3932
sg64
(lp3939
g57
(g58
g59
NtRp3940
(dp3941
g62
(dp3942
g70
I3
ssg71
g3936
sg64
(lp3943
g100
asbasbasbag57
(g73
g59
NtRp3944
(dp3945
g62
(dp3946
sg71
g3915
sg64
(lp3947
g57
(g78
g59
NtRp3948
(dp3949
g62
(dp3950
sg71
g3944
sg64
(lp3951
g57
(g58
g59
NtRp3952
(dp3953
g62
(dp3954
g70
I3
ssg71
g3948
sg64
(lp3955
S'/manager/default/logout'
p3956
asbasbasbasbasbasbasbasbasbasbasbag57
(g73
g59
NtRp3957
(dp3958
g62
(dp3959
sg71
g3319
sg64
(lp3960
g57
(g78
g59
NtRp3961
(dp3962
g62
(dp3963
g82
g83
ssg71
g3957
sg64
(lp3964
S'meta'
p3965
asbag57
(g78
g59
NtRp3966
(dp3967
g62
(dp3968
g89
g90
ssg71
g3957
sg64
(lp3969
S':'
asbag57
(g78
g59
NtRp3970
(dp3971
g62
(dp3972
sg71
g3957
sg64
(lp3973
g57
(g58
g59
NtRp3974
(dp3975
g62
(dp3976
g70
I5
ssg71
g3970
sg64
(lp3977
g57
(g66
g59
NtRp3978
(dp3979
g62
(dp3980
g70
I4
ssg71
Nsg64
(lp3981
g57
(g73
g59
NtRp3982
(dp3983
g62
(dp3984
sg71
g3978
sg64
(lp3985
g57
(g78
g59
NtRp3986
(dp3987
g62
(dp3988
g82
g83
ssg71
g3982
sg64
(lp3989
S'author'
p3990
asbag57
(g78
g59
NtRp3991
(dp3992
g62
(dp3993
g89
g90
ssg71
g3982
sg64
(lp3994
S':'
asbag57
(g78
g59
NtRp3995
(dp3996
g62
(dp3997
sg71
g3982
sg64
(lp3998
g57
(g58
g59
NtRp3999
(dp4000
g62
(dp4001
g70
I4
ssg71
g3995
sg64
(lp4002
S'Your Name <you@example.com>'
p4003
asbasbasbag57
(g73
g59
NtRp4004
(dp4005
g62
(dp4006
sg71
g3978
sg64
(lp4007
g57
(g78
g59
NtRp4008
(dp4009
g62
(dp4010
g82
g83
ssg71
g4004
sg64
(lp4011
S'copyright'
p4012
asbag57
(g78
g59
NtRp4013
(dp4014
g62
(dp4015
g89
g90
ssg71
g4004
sg64
(lp4016
S':'
asbag57
(g78
g59
NtRp4017
(dp4018
g62
(dp4019
sg71
g4004
sg64
(lp4020
g57
(g58
g59
NtRp4021
(dp4022
g62
(dp4023
g70
I4
ssg71
g4017
sg64
(lp4024
S'Copyright 2011'
p4025
asbasbasbag57
(g73
g59
NtRp4026
(dp4027
g62
(dp4028
sg71
g3978
sg64
(lp4029
g57
(g78
g59
NtRp4030
(dp4031
g62
(dp4032
g82
g83
ssg71
g4026
sg64
(lp4033
S'description'
p4034
asbag57
(g78
g59
NtRp4035
(dp4036
g62
(dp4037
g89
g90
ssg71
g4026
sg64
(lp4038
S':'
asbag57
(g78
g59
NtRp4039
(dp4040
g62
(dp4041
sg71
g4026
sg64
(lp4042
g57
(g58
g59
NtRp4043
(dp4044
g62
(dp4045
g70
I4
ssg71
g4039
sg64
(lp4046
S'a cool new app'
p4047
asbasbasbag57
(g73
g59
NtRp4048
(dp4049
g62
(dp4050
sg71
g3978
sg64
(lp4051
g57
(g78
g59
NtRp4052
(dp4053
g62
(dp4054
g82
g83
ssg71
g4048
sg64
(lp4055
S'generator'
p4056
asbag57
(g78
g59
NtRp4057
(dp4058
g62
(dp4059
g89
g90
ssg71
g4048
sg64
(lp4060
S':'
asbag57
(g78
g59
NtRp4061
(dp4062
g62
(dp4063
sg71
g4048
sg64
(lp4064
g57
(g58
g59
NtRp4065
(dp4066
g62
(dp4067
g70
I4
ssg71
g4061
sg64
(lp4068
S'Web2py Web Framework'
p4069
asbasbasbag57
(g73
g59
NtRp4070
(dp4071
g62
(dp4072
sg71
g3978
sg64
(lp4073
g57
(g78
g59
NtRp4074
(dp4075
g62
(dp4076
g82
g83
ssg71
g4070
sg64
(lp4077
S'keywords'
p4078
asbag57
(g78
g59
NtRp4079
(dp4080
g62
(dp4081
g89
g90
ssg71
g4070
sg64
(lp4082
S':'
asbag57
(g78
g59
NtRp4083
(dp4084
g62
(dp4085
sg71
g4070
sg64
(lp4086
g57
(g58
g59
NtRp4087
(dp4088
g62
(dp4089
g70
I4
ssg71
g4083
sg64
(lp4090
S'web2py, python, framework'
p4091
asbasbasbasbasbasbasbag57
(g73
g59
NtRp4092
(dp4093
g62
(dp4094
sg71
g3319
sg64
(lp4095
g57
(g78
g59
NtRp4096
(dp4097
g62
(dp4098
g82
g83
ssg71
g4092
sg64
(lp4099
S'postprocessing'
p4100
asbag57
(g78
g59
NtRp4101
(dp4102
g62
(dp4103
g89
g90
ssg71
g4092
sg64
(lp4104
S':'
asbag57
(g78
g59
NtRp4105
(dp4106
g62
(dp4107
sg71
g4092
sg64
(lp4108
g57
(g58
g59
NtRp4109
(dp4110
g62
(dp4111
g70
I5
ssg71
g4105
sg64
(lp4112
g57
(g66
g59
NtRp4113
(dp4114
g62
(dp4115
g70
I4
ssg71
Nsg64
(lp4116
sbasbasbasbag57
(g73
g59
NtRp4117
(dp4118
g62
(dp4119
sg71
g3319
sg64
(lp4120
g57
(g78
g59
NtRp4121
(dp4122
g62
(dp4123
g82
g83
ssg71
g4117
sg64
(lp4124
S'session_file'
p4125
asbag57
(g78
g59
NtRp4126
(dp4127
g62
(dp4128
g89
g90
ssg71
g4117
sg64
(lp4129
S':'
asbag57
(g78
g59
NtRp4130
(dp4131
g62
(dp4132
sg71
g4117
sg64
(lp4133
g57
(g58
g59
NtRp4134
(dp4135
g62
(dp4136
g70
I5
ssg71
g4130
sg64
(lp4137
S"<open file '/home/unic/web2py/applications/manager/sessions/127.0.0.1-7f7bcb65-bef9-473d-a481-a3eba18d03c3', mode 'rb+' at 0xaab85a18>"
p4138
asbasbasbag57
(g73
g59
NtRp4139
(dp4140
g62
(dp4141
sg71
g3319
sg64
(lp4142
g57
(g78
g59
NtRp4143
(dp4144
g62
(dp4145
g82
g83
ssg71
g4139
sg64
(lp4146
S'session_filename'
p4147
asbag57
(g78
g59
NtRp4148
(dp4149
g62
(dp4150
g89
g90
ssg71
g4139
sg64
(lp4151
S':'
asbag57
(g78
g59
NtRp4152
(dp4153
g62
(dp4154
sg71
g4139
sg64
(lp4155
g57
(g58
g59
NtRp4156
(dp4157
g62
(dp4158
g70
I5
ssg71
g4152
sg64
(lp4159
S'/home/unic/web2py/applications/manager/sessions/127.0.0.1-7f7bcb65-bef9-473d-a481-a3eba18d03c3'
p4160
asbasbasbag57
(g73
g59
NtRp4161
(dp4162
g62
(dp4163
sg71
g3319
sg64
(lp4164
g57
(g78
g59
NtRp4165
(dp4166
g62
(dp4167
g82
g83
ssg71
g4161
sg64
(lp4168
S'session_id'
p4169
asbag57
(g78
g59
NtRp4170
(dp4171
g62
(dp4172
g89
g90
ssg71
g4161
sg64
(lp4173
S':'
asbag57
(g78
g59
NtRp4174
(dp4175
g62
(dp4176
sg71
g4161
sg64
(lp4177
g57
(g58
g59
NtRp4178
(dp4179
g62
(dp4180
g70
I5
ssg71
g4174
sg64
(lp4181
S'127.0.0.1-7f7bcb65-bef9-473d-a481-a3eba18d03c3'
p4182
asbasbasbag57
(g73
g59
NtRp4183
(dp4184
g62
(dp4185
sg71
g3319
sg64
(lp4186
g57
(g78
g59
NtRp4187
(dp4188
g62
(dp4189
g82
g83
ssg71
g4183
sg64
(lp4190
S'session_id_name'
p4191
asbag57
(g78
g59
NtRp4192
(dp4193
g62
(dp4194
g89
g90
ssg71
g4183
sg64
(lp4195
S':'
asbag57
(g78
g59
NtRp4196
(dp4197
g62
(dp4198
sg71
g4183
sg64
(lp4199
g57
(g58
g59
NtRp4200
(dp4201
g62
(dp4202
g70
I5
ssg71
g4196
sg64
(lp4203
g3376
asbasbasbag57
(g73
g59
NtRp4204
(dp4205
g62
(dp4206
sg71
g3319
sg64
(lp4207
g57
(g78
g59
NtRp4208
(dp4209
g62
(dp4210
g82
g83
ssg71
g4204
sg64
(lp4211
S'session_locked'
p4212
asbag57
(g78
g59
NtRp4213
(dp4214
g62
(dp4215
g89
g90
ssg71
g4204
sg64
(lp4216
S':'
asbag57
(g78
g59
NtRp4217
(dp4218
g62
(dp4219
sg71
g4204
sg64
(lp4220
g57
(g58
g59
NtRp4221
(dp4222
g62
(dp4223
g70
I5
ssg71
g4217
sg64
(lp4224
g1841
asbasbasbag57
(g73
g59
NtRp4225
(dp4226
g62
(dp4227
sg71
g3319
sg64
(lp4228
g57
(g78
g59
NtRp4229
(dp4230
g62
(dp4231
g82
g83
ssg71
g4225
sg64
(lp4232
S'session_new'
p4233
asbag57
(g78
g59
NtRp4234
(dp4235
g62
(dp4236
g89
g90
ssg71
g4225
sg64
(lp4237
S':'
asbag57
(g78
g59
NtRp4238
(dp4239
g62
(dp4240
sg71
g4225
sg64
(lp4241
g57
(g58
g59
NtRp4242
(dp4243
g62
(dp4244
g70
I5
ssg71
g4238
sg64
(lp4245
g100
asbasbasbag57
(g73
g59
NtRp4246
(dp4247
g62
(dp4248
sg71
g3319
sg64
(lp4249
g57
(g78
g59
NtRp4250
(dp4251
g62
(dp4252
g82
g83
ssg71
g4246
sg64
(lp4253
S'status'
p4254
asbag57
(g78
g59
NtRp4255
(dp4256
g62
(dp4257
g89
g90
ssg71
g4246
sg64
(lp4258
S':'
asbag57
(g78
g59
NtRp4259
(dp4260
g62
(dp4261
sg71
g4246
sg64
(lp4262
g57
(g58
g59
NtRp4263
(dp4264
g62
(dp4265
g70
I5
ssg71
g4259
sg64
(lp4266
S'200'
p4267
asbasbasbag57
(g73
g59
NtRp4268
(dp4269
g62
(dp4270
sg71
g3319
sg64
(lp4271
g57
(g78
g59
NtRp4272
(dp4273
g62
(dp4274
g82
g83
ssg71
g4268
sg64
(lp4275
S'subtitle'
p4276
asbag57
(g78
g59
NtRp4277
(dp4278
g62
(dp4279
g89
g90
ssg71
g4268
sg64
(lp4280
S':'
asbag57
(g78
g59
NtRp4281
(dp4282
g62
(dp4283
sg71
g4268
sg64
(lp4284
g57
(g58
g59
NtRp4285
(dp4286
g62
(dp4287
g70
I5
ssg71
g4281
sg64
(lp4288
g3876
(S's\r\x00\x00\x00customize me!'
tRp4289
asbasbasbag57
(g73
g59
NtRp4290
(dp4291
g62
(dp4292
sg71
g3319
sg64
(lp4293
g57
(g78
g59
NtRp4294
(dp4295
g62
(dp4296
g82
g83
ssg71
g4290
sg64
(lp4297
S'title'
p4298
asbag57
(g78
g59
NtRp4299
(dp4300
g62
(dp4301
g89
g90
ssg71
g4290
sg64
(lp4302
S':'
asbag57
(g78
g59
NtRp4303
(dp4304
g62
(dp4305
sg71
g4290
sg64
(lp4306
g57
(g58
g59
NtRp4307
(dp4308
g62
(dp4309
g70
I5
ssg71
g4303
sg64
(lp4310
S'Manager'
p4311
asbasbasbag57
(g73
g59
NtRp4312
(dp4313
g62
(dp4314
sg71
g3319
sg64
(lp4315
g57
(g78
g59
NtRp4316
(dp4317
g62
(dp4318
g82
g83
ssg71
g4312
sg64
(lp4319
g2505
asbag57
(g78
g59
NtRp4320
(dp4321
g62
(dp4322
g89
g90
ssg71
g4312
sg64
(lp4323
S':'
asbag57
(g78
g59
NtRp4324
(dp4325
g62
(dp4326
sg71
g4312
sg64
(lp4327
g57
(g58
g59
NtRp4328
(dp4329
g62
(dp4330
g70
I5
ssg71
g4324
sg64
(lp4331
g2518
asbasbasbag57
(g73
g59
NtRp4332
(dp4333
g62
(dp4334
sg71
g3319
sg64
(lp4335
g57
(g78
g59
NtRp4336
(dp4337
g62
(dp4338
g82
g83
ssg71
g4332
sg64
(lp4339
S'view'
p4340
asbag57
(g78
g59
NtRp4341
(dp4342
g62
(dp4343
g89
g90
ssg71
g4332
sg64
(lp4344
S':'
asbag57
(g78
g59
NtRp4345
(dp4346
g62
(dp4347
sg71
g4332
sg64
(lp4348
g57
(g58
g59
NtRp4349
(dp4350
g62
(dp4351
g70
I5
ssg71
g4345
sg64
(lp4352
S'default/label.html'
p4353
asbasbasbasbasbsS'locals'
p4354
(dp4355
S'i'
S"<Row {'Name': '', 'RollNo': '', 'update_record':...lete_record': <function <lambda> at 0xab30fdf4>}>"
p4356
sS'self'
p4357
S'<gluon.dal.Rows object>'
p4358
sssS'traceback'
p4359
S'Traceback (most recent call last):\n  File "/usr/lib/pymodules/python2.7/gluon/restricted.py", line 204, in restricted\n    exec ccode in environment\n  File "/home/unic/web2py/applications/manager/views/default/label.html", line 48, in <module>\n  File "/usr/lib/pymodules/python2.7/gluon/dal.py", line 6510, in __getitem__\n    row = self.records[i]\nTypeError: list indices must be integers, not Row\n'
p4360
s.