(dp1
S'output'
p2
S"<class 'sqlite3.IntegrityError'> PRIMARY KEY must be unique"
p3
sS'layer'
p4
S'/home/unic/web2py/applications/manager/controllers/default.py'
p5
sS'code'
p6
S'#########################################################################\n# Coding done by Madhuri,Neeharika,Abhishek\n# \n#########################################################################\nfrom gluon.sqlhtml import form_factory\nimport socket\n\n#define the Login,Logout,Redirecting URL\'s here\nCAS.login_url=\'https://login.iiit.ac.in/cas/login\'\nCAS.check_url=\'https://login.iiit.ac.in/cas/validate\'\nCAS.logout_url=\'https://login.iiit.ac.in/cas/logout\'\nCAS.my_url=\'http://127.0.0.1:8000/manager/default/login\'\n#if not logged in redirect to login page\nif not session.token and not request.function==\'login\':\n    redirect(URL(r=request, f=\'login\'))\n#--------Abhishek---------#\n#define the session.login to distinguish between different users\n#get the session.token\ndef login():   #function for login \n    session.login = 0 \n    session.token = CAS.login(request)\n    return dict()\n    \n      \ndef logout():   #function for logout\n    session.token=None\n    CAS.logout()\n    \ndef index():   #function returns the variables required for the first page of the student portal.\n  """\n  example action using the internationalization operator T and flash\n  rendered by views/default/index.html or views/generic.html\n  """\n  name=session.token.split(\'@\')[0]        #get the firstname.lastname from email\n  first_name=name.split(\'.\')[0]           #get the first name\n  last_name=name.split(\'.\')[1]            #get ethe last name\n  test1 = db(db.auth_user.email == session.token).select()            #select the user whose email is the one logged in\n  if(len(test1)==0):                                                  #if not already in database then store it for further use\n        db.auth_user.insert(\n        first_name=first_name,\n        last_name=last_name,\n        email=session.token)\n  session.login = 0\n  session.LOGGEDIN = 0\n  users1 = db().select(db.Lpref.ALL)   \n  users2 = db().select(db.Lpref.ALL)\n  for i in users1:                   #This part of the code enables the consideration of the recently filled language preferences of the student. Therefore the students can change their language preferences , and the most recently filled ones are considered.\n      for j in users2:\n          if i.id > j.id:\n              if i.E == j.E:\n                  db(db.Lpref.id == j.id).delete()\n  images=db().select(db.Book.ALL)\n #   return dict(message=T(\'Hello World\'))\n  award = db(db.Admin.id > 0).select().first()\n  return dict(images=images,t=session.token,award=award)\ndef edit():\n   users = db().select(db.Book.ALL, orderby=db.Book.Name)\n   return dict(users=users)\ndef drop():       #This function drops the student table and the UPBook table to re-enter the input incase the admin has entered the input wrong.\n  db(db.User.id > 0).delete() \n  db(db.UPBook.id > 0).delete() \n  db(db.Admin.id > 0).delete()\n  form2 = crud.create(db.Admin,\n         next=URL("index"))\n  award = db(db.Admin.id > 0).select().first()\n  return dict(form2=form2,award=award)\ndef errorstu():  #This fuction redirects back to the upload (upload students list) page to enable the admin to append students to the list.\n   if request.vars.csvfile != None:\n        table = db[request.vars.table]\n        file = request.vars.csvfile.file\n        table.import_from_csv_file(file) #Import from the csv file\n        award = db(db.Admin.id > 0).select().first()                                         \n        #query = db.stlist.flag==""\n        #db(query).update(flag="1")         \n        for k in db(db.User.Award=="D1").select():\n            k.Total=award.D1                                                        #The cost of D1 is given to the \'Total\' field of the user table\n            k.update_record()\n        for k in db(db.User.Award=="D2").select():                                  #The cost of D2 is given to the \'Total\' field of the user table\n            k.Total=award.D2                                                        \n            k.update_record()\n        for k in db(db.User.Award=="D3").select():\n            k.Total=award.D3                                                       #The cost of D3 is given to the \'Total\' field of the user table\n            k.update_record()\n        for k in db(db.User.Award=="ML").select():\n            k.Total=award.ML                                                       #The cost of ML is given to the \'Total\' field of the user table\n            k.update_record()\n        #db(db.stlist.Award==k).update(total="1200")\n        #response.flash = \'Students List uploaded\'\n        users1 = db().select(db.User.ALL, orderby=db.User.Name)\n        users2 = db().select(db.User.ALL, orderby=db.User.Name)\n        for i in users1:\n         for j in users2:\n           if i.id < j.id:\n              if i.RollNo == j.RollNo:\n                  db(db.User.id == i.id).update(Total=i.Total+j.Total)            #(removes duplicates)If a student gets more than one award , then the total amount will the sum of the cost of individual awards.\n                  db(db.User.id == i.id).update(Award1=j.Award)\n                  db(db.User.id == j.id).delete()  \n \n        \n   return dict()\ndef errorbook():#This fuction redirects back to the upload1 (upload book list) page to enable the admin to append books to the list.\n   if request.vars.csvfile != None:\n        table = db[request.vars.table]\n        file = request.vars.csvfile.file\n        table.import_from_csv_file(file)                                          #Import from the csv file\n        response.flash = \'Books List uploaded\'\n   return dict()\n\ndef dropstu():#This fuction redirects back to the upload (upload students list) page after deleting the contents of the User table to enable the admin to re-enter the list.\n   db(db.User.id > 0).delete() \n   if request.vars.csvfile != None:\n        table = db[request.vars.table]\n        file = request.vars.csvfile.file\n        table.import_from_csv_file(file) #Import from the csv file\n        award = db(db.Admin.id > 0).select().first()                                         \n        #query = db.stlist.flag==""\n        #db(query).update(flag="1")         \n        for k in db(db.User.Award=="D1").select():\n            k.Total=award.D1                                                         #The cost of D1 is given to the \'Total\' field of the user table\n            k.update_record()\n        for k in db(db.User.Award=="D2").select():\n            k.Total=award.D2                                                         #The cost of D2 is given to the \'Total\' field of the user table\n            k.update_record()\n        for k in db(db.User.Award=="D3").select():\n            k.Total=award.D3                                                        #The cost of D3 is given to the \'Total\' field of the user table\n            k.update_record()\n        for k in db(db.User.Award=="ML").select():\n            k.Total=award.ML                                                        #The cost of ML is given to the \'Total\' field of the user table\n            k.update_record()\n        #db(db.stlist.Award==k).update(total="1200")\n        #response.flash = \'Students List uploaded\'\n        users1 = db().select(db.User.ALL, orderby=db.User.Name)\n        users2 = db().select(db.User.ALL, orderby=db.User.Name)\n        for i in users1:\n         for j in users2:\n           if i.id < j.id:\n              if i.RollNo == j.RollNo:\n                  db(db.User.id == i.id).update(Total=i.Total+j.Total)            #If a student gets more than one award , then the total amount will the sum of the cost of individual awards.\n                  db(db.User.id == i.id).update(Award1=j.Award)\n                  db(db.User.id == j.id).delete()  \n \n        \n   return dict()\ndef dropbook():#This fuction redirects back to the upload1 (upload book list) page after deleting the contents of the Book table to enable the admin to re-enter the list.\n   db(db.Book.id > 0).delete() \n   if request.vars.csvfile != None:\n        table = db[request.vars.table]\n        file = request.vars.csvfile.file\n        table.import_from_csv_file(file)                                          #Import from the csv file\n        response.flash = \'Books List uploaded\'\n   return dict()\n\ndef drop1m():\n  return dict() \ndef error():\n  return dict() \ndef drop1(): #This function deletes the contents of all the tables , to start the entire process afresh for the next academic year.\n  db(db.User.id > 0).delete() \n  db(db.Book.id > 0).delete() \n  db(db.UPBook.id > 0).delete() \n  \n  db(db.Lpref.id>0).delete()\n  db(db.prebook.id>0).delete()\n  db(db.auth_user.id>0).delete()\n  award = db(db.Admin.id > 0).select().first()#selects the first entry.\n  db(db.Admin.id > 0).delete()\n  return dict(award=award)\ndef label(): #This function returns the User and UPBook tables to print the labels for all the students.\n   users = users = db().select(db.User.ALL, orderby=db.User.Name)\n   books = books = db().select(db.UPBook.ALL, orderby=db.UPBook.usd)\n   return dict(users=users,books=books)\ndef admin():#This returns the variables required for the first page of the admin.\n    award = db(db.Admin.id > 0).select().first()\n    return dict(award=award)\ndef user():\n    """\n    exposes:\n    http://..../[app]/default/user/login\n    http://..../[app]/default/user/logout\n    http://..../[app]/default/user/register\n    http://..../[app]/default/user/profile\n    http://..../[app]/default/user/retrieve_password\n    http://..../[app]/default/user/change_password\n    use @auth.requires_login()\n        @auth.requires_membership(\'group name\')\n        @auth.requires_permission(\'read\',\'table name\',record_id)\n    to decorate functions that need access control\n    """\n    return dict(form=auth())\n#@auth.requires_login()\ndef choose():  #Removes the duplicates and returns the variables to print the names of all the students with hyperlinks.\n  users1 = db().select(db.User.ALL, orderby=db.User.Name)\n  users2 = db().select(db.User.ALL, orderby=db.User.Name)\n  for i in users1:\n      for j in users2:\n          if i.id < j.id:\n              if i.RollNo == j.RollNo:    \n                  db(db.User.id == i.id).update(Total=i.Total+j.Total) #(removes duplicates)If a student gets more than one award , then the total amount will the sum of the cost of individual awards.\n                  db(db.User.id == i.id).update(Award1=j.Award)\n                  db(db.User.id == j.id).delete()\n  users = db().select(db.User.ALL, orderby=db.User.Name)\n  return dict(users=users)\ndef nedit():#Allows the admin to edit the book list.\n Book = db.Book(request.args(0)) or redirect(URL(\'edit\'))\n books = db(db.Book.id==request.args(0)).select()\n \n db.Book.id.default=books[0].id\n db.Book.Name.default=books[0].Name\n db.Book.Language.default=books[0].Language\n db.Book.Cost.default=books[0].Cost\n db.Book.Copies.default=books[0].Copies\n db.Book.Type.default=books[0].Type\n form3 = crud.create(db.Book,\n         next=URL("edit"))\n return dict(books=books,form3=form3)\n \ndef show():# This function returns the variables required to display the list of available books and the books selected by the admin for each student.\n User = db.User(request.args(0)) or redirect(URL(\'choose\'))\n Books = db().select(db.Book.ALL, orderby=db.Book.Name)\n UPBooks = db(db.UPBook.usd==User.RollNo).select()\n upbooks1 = db(db.UPBook.usd==User.RollNo).select()\n upbooks = db(db.UPBook.usd==User.RollNo).select()\n \n for i in upbooks:            #This part of the code implements the function to disable multiple selections of the same book to a student by the admin.\n      for j in upbooks1:\n          if i.id < j.id:\n              if i.Bid == j.Bid:\n                 db(db.UPBook.Bid == j.Bid).delete()\n langu = db().select(db.Lpref.ALL)\n lang = db().select(db.lang.ALL)\n return dict(User=User,UPBooks=UPBooks,Books=Books,langu=langu,lang=lang)\ndef alloted():#This function returns the variables required to display the set of students whose allotment is final.\n  users = db().select(db.User.ALL, orderby=db.User.Name)\n  return dict(users=users)\ndef preference():#This function creates a form in which student can fill in his language preferences.\n  for rows in db(db.auth_user.email == session.token).select(db.auth_user.email):\n   id1=rows.email\n  db.Lpref.E.default=id1\n  form1 = crud.create(db.Lpref,\n         next=URL("index"))\n  users1 = db().select(db.Lpref.ALL)\n  users2 = db().select(db.Lpref.ALL)\n  for i in users1:\n      for j in users2:\n          if i.id > j.id:       #This part of the code deletes all the previous language preferences and stores only the recent one. \n              if i.E == j.E:\n                  db(db.Lpref.id == j.id).delete()\n  return dict(form1=form1)\ndef total(): #This function returns the variables required for the output generation.\n   users = db().select(db.User.ALL, orderby=db.User.Name)\n  # award = db().select(db.Admin.ALL).first()\n   award = db(db.Admin.id > 0).select().first()\n   return dict(users=users,award=award)\n \ndef Admin():  #This function creates a form to fill the input i.e the academic year and the award money by the admin.\n  form2 = crud.create(db.Admin,\n         next=URL("index"))\n  award = db(db.Admin.id > 0).select().first()\n  return dict(form2=form2,award=award)\ndef submit():#Implements the functionality where the student\'s name disappers from the initial list of students once the allotment to that student is final.\n db(request.args(0) == db.User.id).update(flag = 1)\n users = db().select(db.User.ALL, orderby=db.User.Name)\n return dict(users=users)\ndef upload():#This function enables the admin to upload the csv file of students list\n    if request.vars.csvfile != None:\n        table = db[request.vars.table]\n        file = request.vars.csvfile.file\n        table.import_from_csv_file(file) #Import from the csv file\n        award = db(db.Admin.id > 0).select().first()                                         \n        #query = db.stlist.flag==""\n        #db(query).update(flag="1")         \n        for k in db(db.User.Award=="D1").select():\n            k.Total=award.D1                                                       #The cost of D1 is given to the \'Total\'\n            k.update_record()\n        for k in db(db.User.Award=="D2").select():\n            k.Total=award.D2                                                       #The cost of D2 is given to the \'Total\'\n            k.update_record()\n        for k in db(db.User.Award=="D3").select():\n            k.Total=award.D3                                                       #The cost of D3 is given to the \'Total\'\n            k.update_record()\n        for k in db(db.User.Award=="ML").select():\n            k.Total=award.ML                                                       #The cost of ML is given to the \'Total\'\n            k.update_record()\n        #db(db.stlist.Award==k).update(total="1200")\n        #response.flash = \'Students List uploaded\'\n    users1 = db().select(db.User.ALL, orderby=db.User.Name)\n    users2 = db().select(db.User.ALL, orderby=db.User.Name)\n    for i in users1:\n         for j in users2:\n           if i.id < j.id:\n              if i.RollNo == j.RollNo:\n                  db(db.User.id == i.id).update(Total=i.Total+j.Total)#(removes duplicates)If a student gets more than one award , then the total amount will the sum of the cost of individual awards.\n                  db(db.User.id == i.id).update(Award1=j.Award)\n                  db(db.User.id == j.id).delete()  \n \n        \n    return dict()\n#@auth.requires_membership(\'Administrator\')\ndef upload1():#This function enables the admin to upload the csv file of books list\n     if request.vars.csvfile != None:\n        table = db[request.vars.table]\n        file = request.vars.csvfile.file\n        table.import_from_csv_file(file)                                          #Import from the csv file\n        response.flash = \'Books List uploaded\'\n     return dict()\ndef update(): #This function inserts into the UPBook table when the admin selects a book to a student.        \n  db.UPBook.insert(Stu_name=request.args(0),usd=request.args(1),Name=request.args(2),Language=request.args(3),Bid=request.args(7),Copies=request.args(8),Cost=request.args(5),Type=request.args(9)) \n  db(db.User.id ==request.args(4)).update(Uptotal=int(int(request.args(6))+int(request.args(5))))\n  db(db.Book.id ==request.args(7)).update(Copies=int(int(request.args(8))-1))\n  User = db.User(request.args(4)) or redirect(URL(\'choose\'))\n  upbooks1 = db(db.UPBook.usd==User.RollNo).select()\n  upbooks = db(db.UPBook.usd==User.RollNo).select()\n  \n  for i in upbooks:\n      for j in upbooks1:\n          if i.id < j.id:\n              if i.Bid == j.Bid:#Ensures no multiple selection of the same book.\n                 \n                  db(db.UPBook.id == j.id).delete()\n  \n  UPBooks = db(db.UPBook.usd==request.args(1)).select()\n  langu = db().select(db.Lpref.ALL)\n  lang = db().select(db.lang.ALL)\n  Books = db().select(db.Book.ALL, orderby=db.Book.Name)\n  return dict(User=User,UPBooks=UPBooks,Books=Books,lang=lang,langu=langu)\ndef delete():#This function deletes a entry from the UPBook table when the admin unselects a book for a particular student.\n  db(db.UPBook.id == request.args(2)).delete()\n  db(db.User.id ==request.args(0)).update(Uptotal=int(int(request.args(1))-int(request.args(6))))\n  db(db.Book.id ==request.args(4)).update(Copies=int(int(request.args(3))))\n  User = db.User(request.args(0)) or redirect(URL(\'choose\'))\n  UPBooks = db(db.UPBook.usd==request.args(5)).select()\n  Books = db().select(db.Book.ALL, orderby=db.Book.Name)\n  langu = db().select(db.Lpref.ALL)\n  lang = db().select(db.lang.ALL)\n  return dict(User=User,UPBooks=UPBooks,Books=Books,langu=langu,lang=lang)\ndef choose1():# This function returns the variables required to display the list of available books and the preferred books of each student.\n for rows in db(db.auth_user.email == session.token).select(db.auth_user.id):\n  id1=rows.id\n prebooks = db(db.prebook.usd == id1).select()\n Books = db().select(db.Book.ALL, orderby=db.Book.Name)\n return dict(prebooks=prebooks,Books=Books)\n\ndef update1():#This function inserts into the prebook table when the student selects a book as his preference.  \n  db.prebook.insert(usd=request.args(0),Name=request.args(1),Language=request.args(2),Bid=request.args(3),Stu_name=request.args(4),Type=request.args(6))\n  db(db.prebook.Stu_name == \'static\').delete()\n \n  prebooks2 = db(db.prebook.usd ==request.args(0)).select()\n  prebooks1 = db(db.prebook.usd ==request.args(0)).select()\n  \n  for i in prebooks2:\n      for j in prebooks1:\n          if i.id < j.id:                 #Ensures no multiple selection of the same book.\n              if i.Bid == j.Bid:\n                 \n                  db(db.prebook.id == j.id).delete()\n  prebooks = db(db.prebook.usd ==request.args(0)).select()\n  Books = db().select(db.Book.ALL, orderby=db.Book.Name)\n  return dict(prebooks=prebooks,Books=Books)\ndef delete1():#This function deletes a entry from the prebook table when the student unselects a book.\n  db(db.prebook.id == request.args(1)).delete()\n  \n  prebooks = db(db.prebook.usd == request.args(0)).select()\n  Books = db().select(db.Book.ALL, orderby=db.Book.Name)\n  return dict(prebooks=prebooks,Books=Books)\ndef download():\n    """\n    allows downloading of uploaded files\n    http://..../[app]/default/download/[filename]\n    """\n    return response.download(request,db)\n\n\ndef call():\n    """\n    exposes services. for example:\n    http://..../[app]/default/call/jsonrpc\n    decorate with @services.jsonrpc the functions to expose\n    supports xml, json, xmlrpc, jsonrpc, amfrpc, rss, csv\n    """\n    return service()\n\n\n@auth.requires_signature()\ndef data():\n    """\n    http://..../[app]/default/data/tables\n    http://..../[app]/default/data/create/[table]\n    http://..../[app]/default/data/read/[table]/[id]\n    http://..../[app]/default/data/update/[table]/[id]\n    http://..../[app]/default/data/delete/[table]/[id]\n    http://..../[app]/default/data/select/[table]\n    http://..../[app]/default/data/search/[table]\n    but URLs must be signed, i.e. linked with\n      A(\'table\',_href=URL(\'data/tables\',user_signature=True))\n    or with the signed load operator\n      LOAD(\'default\',\'data.load\',args=\'tables\',ajax=True,user_signature=True)\n    """\n    return dict(form=crud())\n\nresponse._vars=response._caller(nedit)\n'
p7
sS'snapshot'
p8
(dp9
S'exception'
p10
(dp11
S'__module__'
p12
S"'sqlite3'"
p13
sS'__getslice__'
p14
S"<method-wrapper '__getslice__' of IntegrityError object>"
p15
sS'__str__'
p16
S"<method-wrapper '__str__' of IntegrityError object>"
p17
sS'__reduce__'
p18
S'<built-in method __reduce__ of IntegrityError object>'
p19
sS'__dict__'
p20
S'{}'
p21
sS'__sizeof__'
p22
S'<built-in method __sizeof__ of IntegrityError object>'
p23
sS'__weakref__'
p24
S'None'
p25
sS'__init__'
p26
S"<method-wrapper '__init__' of IntegrityError object>"
p27
sS'__setattr__'
p28
S"<method-wrapper '__setattr__' of IntegrityError object>"
p29
sS'__reduce_ex__'
p30
S'<built-in method __reduce_ex__ of IntegrityError object>'
p31
sS'__new__'
p32
S'<built-in method __new__ of type object>'
p33
sS'__format__'
p34
S'<built-in method __format__ of IntegrityError object>'
p35
sS'__class__'
p36
S"<class 'sqlite3.IntegrityError'>"
p37
sS'__doc__'
p38
S'None'
p39
sS'__getitem__'
p40
S"<method-wrapper '__getitem__' of IntegrityError object>"
p41
sS'__setstate__'
p42
S'<built-in method __setstate__ of IntegrityError object>'
p43
sS'__getattribute__'
p44
S"<method-wrapper '__getattribute__' of IntegrityError object>"
p45
sS'args'
p46
S"('PRIMARY KEY must be unique',)"
p47
sS'__subclasshook__'
p48
S'<built-in method __subclasshook__ of type object>'
p49
sS'__unicode__'
p50
S'<built-in method __unicode__ of IntegrityError object>'
p51
sS'__delattr__'
p52
S"<method-wrapper '__delattr__' of IntegrityError object>"
p53
sS'__repr__'
p54
S"<method-wrapper '__repr__' of IntegrityError object>"
p55
sS'__hash__'
p56
S"<method-wrapper '__hash__' of IntegrityError object>"
p57
ssS'evalue'
p58
S'PRIMARY KEY must be unique'
p59
sS'request'
p60
ccopy_reg
_reconstructor
p61
(cgluon.html
BEAUTIFY
p62
c__builtin__
object
p63
NtRp64
(dp65
S'attributes'
p66
(dp67
sS'components'
p68
(lp69
g61
(cgluon.html
TABLE
p70
g63
NtRp71
(dp72
g66
(dp73
S'level'
p74
I5
ssS'parent'
p75
Nsg68
(lp76
g61
(cgluon.html
TR
p77
g63
NtRp78
(dp79
g66
(dp80
sg75
g71
sg68
(lp81
g61
(cgluon.html
TD
p82
g63
NtRp83
(dp84
g66
(dp85
S'_style'
p86
S'font-weight:bold;vertical-align:top'
p87
ssg75
g78
sg68
(lp88
S'ajax'
p89
asbag61
(g82
g63
NtRp90
(dp91
g66
(dp92
S'_valign'
p93
S'top'
p94
ssg75
g78
sg68
(lp95
S':'
asbag61
(g82
g63
NtRp96
(dp97
g66
(dp98
sg75
g78
sg68
(lp99
g61
(g62
g63
NtRp100
(dp101
g66
(dp102
g74
I5
ssg75
g96
sg68
(lp103
S'False'
p104
asbasbasbag61
(g77
g63
NtRp105
(dp106
g66
(dp107
sg75
g71
sg68
(lp108
g61
(g82
g63
NtRp109
(dp110
g66
(dp111
g86
g87
ssg75
g105
sg68
(lp112
S'application'
p113
asbag61
(g82
g63
NtRp114
(dp115
g66
(dp116
g93
g94
ssg75
g105
sg68
(lp117
S':'
asbag61
(g82
g63
NtRp118
(dp119
g66
(dp120
sg75
g105
sg68
(lp121
g61
(g62
g63
NtRp122
(dp123
g66
(dp124
g74
I5
ssg75
g118
sg68
(lp125
S'manager'
p126
asbasbasbag61
(g77
g63
NtRp127
(dp128
g66
(dp129
sg75
g71
sg68
(lp130
g61
(g82
g63
NtRp131
(dp132
g66
(dp133
g86
g87
ssg75
g127
sg68
(lp134
g46
asbag61
(g82
g63
NtRp135
(dp136
g66
(dp137
g93
g94
ssg75
g127
sg68
(lp138
S':'
asbag61
(g82
g63
NtRp139
(dp140
g66
(dp141
sg75
g127
sg68
(lp142
g61
(g62
g63
NtRp143
(dp144
g66
(dp145
g74
I5
ssg75
g139
sg68
(lp146
g61
(g70
g63
NtRp147
(dp148
g66
(dp149
g74
I4
ssg75
Nsg68
(lp150
g61
(g77
g63
NtRp151
(dp152
g66
(dp153
sg75
g147
sg68
(lp154
g61
(g82
g63
NtRp155
(dp156
g66
(dp157
sg75
g151
sg68
(lp158
g61
(g62
g63
NtRp159
(dp160
g66
(dp161
g74
I4
ssg75
g155
sg68
(lp162
S'842'
p163
asbasbasbasbasbasbasbag61
(g77
g63
NtRp164
(dp165
g66
(dp166
sg75
g71
sg68
(lp167
g61
(g82
g63
NtRp168
(dp169
g66
(dp170
g86
g87
ssg75
g164
sg68
(lp171
S'body'
p172
asbag61
(g82
g63
NtRp173
(dp174
g66
(dp175
g93
g94
ssg75
g164
sg68
(lp176
S':'
asbag61
(g82
g63
NtRp177
(dp178
g66
(dp179
sg75
g164
sg68
(lp180
g61
(g62
g63
NtRp181
(dp182
g66
(dp183
g74
I5
ssg75
g177
sg68
(lp184
S"<open file '<fdopen>', mode 'w+b' at 0xb4ae9338>"
p185
asbasbasbag61
(g77
g63
NtRp186
(dp187
g66
(dp188
sg75
g71
sg68
(lp189
g61
(g82
g63
NtRp190
(dp191
g66
(dp192
g86
g87
ssg75
g186
sg68
(lp193
S'client'
p194
asbag61
(g82
g63
NtRp195
(dp196
g66
(dp197
g93
g94
ssg75
g186
sg68
(lp198
S':'
asbag61
(g82
g63
NtRp199
(dp200
g66
(dp201
sg75
g186
sg68
(lp202
g61
(g62
g63
NtRp203
(dp204
g66
(dp205
g74
I5
ssg75
g199
sg68
(lp206
S'127.0.0.1'
p207
asbasbasbag61
(g77
g63
NtRp208
(dp209
g66
(dp210
sg75
g71
sg68
(lp211
g61
(g82
g63
NtRp212
(dp213
g66
(dp214
g86
g87
ssg75
g208
sg68
(lp215
S'controller'
p216
asbag61
(g82
g63
NtRp217
(dp218
g66
(dp219
g93
g94
ssg75
g208
sg68
(lp220
S':'
asbag61
(g82
g63
NtRp221
(dp222
g66
(dp223
sg75
g208
sg68
(lp224
g61
(g62
g63
NtRp225
(dp226
g66
(dp227
g74
I5
ssg75
g221
sg68
(lp228
S'default'
p229
asbasbasbag61
(g77
g63
NtRp230
(dp231
g66
(dp232
sg75
g71
sg68
(lp233
g61
(g82
g63
NtRp234
(dp235
g66
(dp236
g86
g87
ssg75
g230
sg68
(lp237
S'cookies'
p238
asbag61
(g82
g63
NtRp239
(dp240
g66
(dp241
g93
g94
ssg75
g230
sg68
(lp242
S':'
asbag61
(g82
g63
NtRp243
(dp244
g66
(dp245
sg75
g230
sg68
(lp246
g61
(g62
g63
NtRp247
(dp248
g66
(dp249
g74
I5
ssg75
g243
sg68
(lp250
g61
(g70
g63
NtRp251
(dp252
g66
(dp253
g74
I4
ssg75
Nsg68
(lp254
g61
(g77
g63
NtRp255
(dp256
g66
(dp257
sg75
g251
sg68
(lp258
g61
(g82
g63
NtRp259
(dp260
g66
(dp261
g86
g87
ssg75
g255
sg68
(lp262
S'session_id_admin'
p263
asbag61
(g82
g63
NtRp264
(dp265
g66
(dp266
g93
g94
ssg75
g255
sg68
(lp267
S':'
asbag61
(g82
g63
NtRp268
(dp269
g66
(dp270
sg75
g255
sg68
(lp271
g61
(g62
g63
NtRp272
(dp273
g66
(dp274
g74
I4
ssg75
g268
sg68
(lp275
g61
(g70
g63
NtRp276
(dp277
g66
(dp278
g74
I3
ssg75
Nsg68
(lp279
g61
(g77
g63
NtRp280
(dp281
g66
(dp282
sg75
g276
sg68
(lp283
g61
(g82
g63
NtRp284
(dp285
g66
(dp286
g86
g87
ssg75
g280
sg68
(lp287
S'comment'
p288
asbag61
(g82
g63
NtRp289
(dp290
g66
(dp291
g93
g94
ssg75
g280
sg68
(lp292
S':'
asbag61
(g82
g63
NtRp293
(dp294
g66
(dp295
sg75
g280
sg68
(lp296
g61
(g62
g63
NtRp297
(dp298
g66
(dp299
g74
I3
ssg75
g293
sg68
(lp300
S''
asbasbasbag61
(g77
g63
NtRp301
(dp302
g66
(dp303
sg75
g276
sg68
(lp304
g61
(g82
g63
NtRp305
(dp306
g66
(dp307
g86
g87
ssg75
g301
sg68
(lp308
S'domain'
p309
asbag61
(g82
g63
NtRp310
(dp311
g66
(dp312
g93
g94
ssg75
g301
sg68
(lp313
S':'
asbag61
(g82
g63
NtRp314
(dp315
g66
(dp316
sg75
g301
sg68
(lp317
g61
(g62
g63
NtRp318
(dp319
g66
(dp320
g74
I3
ssg75
g314
sg68
(lp321
S''
asbasbasbag61
(g77
g63
NtRp322
(dp323
g66
(dp324
sg75
g276
sg68
(lp325
g61
(g82
g63
NtRp326
(dp327
g66
(dp328
g86
g87
ssg75
g322
sg68
(lp329
S'expires'
p330
asbag61
(g82
g63
NtRp331
(dp332
g66
(dp333
g93
g94
ssg75
g322
sg68
(lp334
S':'
asbag61
(g82
g63
NtRp335
(dp336
g66
(dp337
sg75
g322
sg68
(lp338
g61
(g62
g63
NtRp339
(dp340
g66
(dp341
g74
I3
ssg75
g335
sg68
(lp342
S''
asbasbasbag61
(g77
g63
NtRp343
(dp344
g66
(dp345
sg75
g276
sg68
(lp346
g61
(g82
g63
NtRp347
(dp348
g66
(dp349
g86
g87
ssg75
g343
sg68
(lp350
S'httponly'
p351
asbag61
(g82
g63
NtRp352
(dp353
g66
(dp354
g93
g94
ssg75
g343
sg68
(lp355
S':'
asbag61
(g82
g63
NtRp356
(dp357
g66
(dp358
sg75
g343
sg68
(lp359
g61
(g62
g63
NtRp360
(dp361
g66
(dp362
g74
I3
ssg75
g356
sg68
(lp363
S''
asbasbasbag61
(g77
g63
NtRp364
(dp365
g66
(dp366
sg75
g276
sg68
(lp367
g61
(g82
g63
NtRp368
(dp369
g66
(dp370
g86
g87
ssg75
g364
sg68
(lp371
S'max-age'
p372
asbag61
(g82
g63
NtRp373
(dp374
g66
(dp375
g93
g94
ssg75
g364
sg68
(lp376
S':'
asbag61
(g82
g63
NtRp377
(dp378
g66
(dp379
sg75
g364
sg68
(lp380
g61
(g62
g63
NtRp381
(dp382
g66
(dp383
g74
I3
ssg75
g377
sg68
(lp384
S''
asbasbasbag61
(g77
g63
NtRp385
(dp386
g66
(dp387
sg75
g276
sg68
(lp388
g61
(g82
g63
NtRp389
(dp390
g66
(dp391
g86
g87
ssg75
g385
sg68
(lp392
S'path'
p393
asbag61
(g82
g63
NtRp394
(dp395
g66
(dp396
g93
g94
ssg75
g385
sg68
(lp397
S':'
asbag61
(g82
g63
NtRp398
(dp399
g66
(dp400
sg75
g385
sg68
(lp401
g61
(g62
g63
NtRp402
(dp403
g66
(dp404
g74
I3
ssg75
g398
sg68
(lp405
S''
asbasbasbag61
(g77
g63
NtRp406
(dp407
g66
(dp408
sg75
g276
sg68
(lp409
g61
(g82
g63
NtRp410
(dp411
g66
(dp412
g86
g87
ssg75
g406
sg68
(lp413
S'secure'
p414
asbag61
(g82
g63
NtRp415
(dp416
g66
(dp417
g93
g94
ssg75
g406
sg68
(lp418
S':'
asbag61
(g82
g63
NtRp419
(dp420
g66
(dp421
sg75
g406
sg68
(lp422
g61
(g62
g63
NtRp423
(dp424
g66
(dp425
g74
I3
ssg75
g419
sg68
(lp426
S''
asbasbasbag61
(g77
g63
NtRp427
(dp428
g66
(dp429
sg75
g276
sg68
(lp430
g61
(g82
g63
NtRp431
(dp432
g66
(dp433
g86
g87
ssg75
g427
sg68
(lp434
S'version'
p435
asbag61
(g82
g63
NtRp436
(dp437
g66
(dp438
g93
g94
ssg75
g427
sg68
(lp439
S':'
asbag61
(g82
g63
NtRp440
(dp441
g66
(dp442
sg75
g427
sg68
(lp443
g61
(g62
g63
NtRp444
(dp445
g66
(dp446
g74
I3
ssg75
g440
sg68
(lp447
S''
asbasbasbasbasbasbasbag61
(g77
g63
NtRp448
(dp449
g66
(dp450
sg75
g251
sg68
(lp451
g61
(g82
g63
NtRp452
(dp453
g66
(dp454
g86
g87
ssg75
g448
sg68
(lp455
S'session_id_manager'
p456
asbag61
(g82
g63
NtRp457
(dp458
g66
(dp459
g93
g94
ssg75
g448
sg68
(lp460
S':'
asbag61
(g82
g63
NtRp461
(dp462
g66
(dp463
sg75
g448
sg68
(lp464
g61
(g62
g63
NtRp465
(dp466
g66
(dp467
g74
I4
ssg75
g461
sg68
(lp468
g61
(g70
g63
NtRp469
(dp470
g66
(dp471
g74
I3
ssg75
Nsg68
(lp472
g61
(g77
g63
NtRp473
(dp474
g66
(dp475
sg75
g469
sg68
(lp476
g61
(g82
g63
NtRp477
(dp478
g66
(dp479
g86
g87
ssg75
g473
sg68
(lp480
g288
asbag61
(g82
g63
NtRp481
(dp482
g66
(dp483
g93
g94
ssg75
g473
sg68
(lp484
S':'
asbag61
(g82
g63
NtRp485
(dp486
g66
(dp487
sg75
g473
sg68
(lp488
g61
(g62
g63
NtRp489
(dp490
g66
(dp491
g74
I3
ssg75
g485
sg68
(lp492
S''
asbasbasbag61
(g77
g63
NtRp493
(dp494
g66
(dp495
sg75
g469
sg68
(lp496
g61
(g82
g63
NtRp497
(dp498
g66
(dp499
g86
g87
ssg75
g493
sg68
(lp500
g309
asbag61
(g82
g63
NtRp501
(dp502
g66
(dp503
g93
g94
ssg75
g493
sg68
(lp504
S':'
asbag61
(g82
g63
NtRp505
(dp506
g66
(dp507
sg75
g493
sg68
(lp508
g61
(g62
g63
NtRp509
(dp510
g66
(dp511
g74
I3
ssg75
g505
sg68
(lp512
S''
asbasbasbag61
(g77
g63
NtRp513
(dp514
g66
(dp515
sg75
g469
sg68
(lp516
g61
(g82
g63
NtRp517
(dp518
g66
(dp519
g86
g87
ssg75
g513
sg68
(lp520
g330
asbag61
(g82
g63
NtRp521
(dp522
g66
(dp523
g93
g94
ssg75
g513
sg68
(lp524
S':'
asbag61
(g82
g63
NtRp525
(dp526
g66
(dp527
sg75
g513
sg68
(lp528
g61
(g62
g63
NtRp529
(dp530
g66
(dp531
g74
I3
ssg75
g525
sg68
(lp532
S''
asbasbasbag61
(g77
g63
NtRp533
(dp534
g66
(dp535
sg75
g469
sg68
(lp536
g61
(g82
g63
NtRp537
(dp538
g66
(dp539
g86
g87
ssg75
g533
sg68
(lp540
g351
asbag61
(g82
g63
NtRp541
(dp542
g66
(dp543
g93
g94
ssg75
g533
sg68
(lp544
S':'
asbag61
(g82
g63
NtRp545
(dp546
g66
(dp547
sg75
g533
sg68
(lp548
g61
(g62
g63
NtRp549
(dp550
g66
(dp551
g74
I3
ssg75
g545
sg68
(lp552
S''
asbasbasbag61
(g77
g63
NtRp553
(dp554
g66
(dp555
sg75
g469
sg68
(lp556
g61
(g82
g63
NtRp557
(dp558
g66
(dp559
g86
g87
ssg75
g553
sg68
(lp560
g372
asbag61
(g82
g63
NtRp561
(dp562
g66
(dp563
g93
g94
ssg75
g553
sg68
(lp564
S':'
asbag61
(g82
g63
NtRp565
(dp566
g66
(dp567
sg75
g553
sg68
(lp568
g61
(g62
g63
NtRp569
(dp570
g66
(dp571
g74
I3
ssg75
g565
sg68
(lp572
S''
asbasbasbag61
(g77
g63
NtRp573
(dp574
g66
(dp575
sg75
g469
sg68
(lp576
g61
(g82
g63
NtRp577
(dp578
g66
(dp579
g86
g87
ssg75
g573
sg68
(lp580
g393
asbag61
(g82
g63
NtRp581
(dp582
g66
(dp583
g93
g94
ssg75
g573
sg68
(lp584
S':'
asbag61
(g82
g63
NtRp585
(dp586
g66
(dp587
sg75
g573
sg68
(lp588
g61
(g62
g63
NtRp589
(dp590
g66
(dp591
g74
I3
ssg75
g585
sg68
(lp592
S''
asbasbasbag61
(g77
g63
NtRp593
(dp594
g66
(dp595
sg75
g469
sg68
(lp596
g61
(g82
g63
NtRp597
(dp598
g66
(dp599
g86
g87
ssg75
g593
sg68
(lp600
g414
asbag61
(g82
g63
NtRp601
(dp602
g66
(dp603
g93
g94
ssg75
g593
sg68
(lp604
S':'
asbag61
(g82
g63
NtRp605
(dp606
g66
(dp607
sg75
g593
sg68
(lp608
g61
(g62
g63
NtRp609
(dp610
g66
(dp611
g74
I3
ssg75
g605
sg68
(lp612
S''
asbasbasbag61
(g77
g63
NtRp613
(dp614
g66
(dp615
sg75
g469
sg68
(lp616
g61
(g82
g63
NtRp617
(dp618
g66
(dp619
g86
g87
ssg75
g613
sg68
(lp620
g435
asbag61
(g82
g63
NtRp621
(dp622
g66
(dp623
g93
g94
ssg75
g613
sg68
(lp624
S':'
asbag61
(g82
g63
NtRp625
(dp626
g66
(dp627
sg75
g613
sg68
(lp628
g61
(g62
g63
NtRp629
(dp630
g66
(dp631
g74
I3
ssg75
g625
sg68
(lp632
S''
asbasbasbasbasbasbasbag61
(g77
g63
NtRp633
(dp634
g66
(dp635
sg75
g251
sg68
(lp636
g61
(g82
g63
NtRp637
(dp638
g66
(dp639
g86
g87
ssg75
g633
sg68
(lp640
S'session_id_managerold'
p641
asbag61
(g82
g63
NtRp642
(dp643
g66
(dp644
g93
g94
ssg75
g633
sg68
(lp645
S':'
asbag61
(g82
g63
NtRp646
(dp647
g66
(dp648
sg75
g633
sg68
(lp649
g61
(g62
g63
NtRp650
(dp651
g66
(dp652
g74
I4
ssg75
g646
sg68
(lp653
g61
(g70
g63
NtRp654
(dp655
g66
(dp656
g74
I3
ssg75
Nsg68
(lp657
g61
(g77
g63
NtRp658
(dp659
g66
(dp660
sg75
g654
sg68
(lp661
g61
(g82
g63
NtRp662
(dp663
g66
(dp664
g86
g87
ssg75
g658
sg68
(lp665
g288
asbag61
(g82
g63
NtRp666
(dp667
g66
(dp668
g93
g94
ssg75
g658
sg68
(lp669
S':'
asbag61
(g82
g63
NtRp670
(dp671
g66
(dp672
sg75
g658
sg68
(lp673
g61
(g62
g63
NtRp674
(dp675
g66
(dp676
g74
I3
ssg75
g670
sg68
(lp677
S''
asbasbasbag61
(g77
g63
NtRp678
(dp679
g66
(dp680
sg75
g654
sg68
(lp681
g61
(g82
g63
NtRp682
(dp683
g66
(dp684
g86
g87
ssg75
g678
sg68
(lp685
g309
asbag61
(g82
g63
NtRp686
(dp687
g66
(dp688
g93
g94
ssg75
g678
sg68
(lp689
S':'
asbag61
(g82
g63
NtRp690
(dp691
g66
(dp692
sg75
g678
sg68
(lp693
g61
(g62
g63
NtRp694
(dp695
g66
(dp696
g74
I3
ssg75
g690
sg68
(lp697
S''
asbasbasbag61
(g77
g63
NtRp698
(dp699
g66
(dp700
sg75
g654
sg68
(lp701
g61
(g82
g63
NtRp702
(dp703
g66
(dp704
g86
g87
ssg75
g698
sg68
(lp705
g330
asbag61
(g82
g63
NtRp706
(dp707
g66
(dp708
g93
g94
ssg75
g698
sg68
(lp709
S':'
asbag61
(g82
g63
NtRp710
(dp711
g66
(dp712
sg75
g698
sg68
(lp713
g61
(g62
g63
NtRp714
(dp715
g66
(dp716
g74
I3
ssg75
g710
sg68
(lp717
S''
asbasbasbag61
(g77
g63
NtRp718
(dp719
g66
(dp720
sg75
g654
sg68
(lp721
g61
(g82
g63
NtRp722
(dp723
g66
(dp724
g86
g87
ssg75
g718
sg68
(lp725
g351
asbag61
(g82
g63
NtRp726
(dp727
g66
(dp728
g93
g94
ssg75
g718
sg68
(lp729
S':'
asbag61
(g82
g63
NtRp730
(dp731
g66
(dp732
sg75
g718
sg68
(lp733
g61
(g62
g63
NtRp734
(dp735
g66
(dp736
g74
I3
ssg75
g730
sg68
(lp737
S''
asbasbasbag61
(g77
g63
NtRp738
(dp739
g66
(dp740
sg75
g654
sg68
(lp741
g61
(g82
g63
NtRp742
(dp743
g66
(dp744
g86
g87
ssg75
g738
sg68
(lp745
g372
asbag61
(g82
g63
NtRp746
(dp747
g66
(dp748
g93
g94
ssg75
g738
sg68
(lp749
S':'
asbag61
(g82
g63
NtRp750
(dp751
g66
(dp752
sg75
g738
sg68
(lp753
g61
(g62
g63
NtRp754
(dp755
g66
(dp756
g74
I3
ssg75
g750
sg68
(lp757
S''
asbasbasbag61
(g77
g63
NtRp758
(dp759
g66
(dp760
sg75
g654
sg68
(lp761
g61
(g82
g63
NtRp762
(dp763
g66
(dp764
g86
g87
ssg75
g758
sg68
(lp765
g393
asbag61
(g82
g63
NtRp766
(dp767
g66
(dp768
g93
g94
ssg75
g758
sg68
(lp769
S':'
asbag61
(g82
g63
NtRp770
(dp771
g66
(dp772
sg75
g758
sg68
(lp773
g61
(g62
g63
NtRp774
(dp775
g66
(dp776
g74
I3
ssg75
g770
sg68
(lp777
S''
asbasbasbag61
(g77
g63
NtRp778
(dp779
g66
(dp780
sg75
g654
sg68
(lp781
g61
(g82
g63
NtRp782
(dp783
g66
(dp784
g86
g87
ssg75
g778
sg68
(lp785
g414
asbag61
(g82
g63
NtRp786
(dp787
g66
(dp788
g93
g94
ssg75
g778
sg68
(lp789
S':'
asbag61
(g82
g63
NtRp790
(dp791
g66
(dp792
sg75
g778
sg68
(lp793
g61
(g62
g63
NtRp794
(dp795
g66
(dp796
g74
I3
ssg75
g790
sg68
(lp797
S''
asbasbasbag61
(g77
g63
NtRp798
(dp799
g66
(dp800
sg75
g654
sg68
(lp801
g61
(g82
g63
NtRp802
(dp803
g66
(dp804
g86
g87
ssg75
g798
sg68
(lp805
g435
asbag61
(g82
g63
NtRp806
(dp807
g66
(dp808
g93
g94
ssg75
g798
sg68
(lp809
S':'
asbag61
(g82
g63
NtRp810
(dp811
g66
(dp812
sg75
g798
sg68
(lp813
g61
(g62
g63
NtRp814
(dp815
g66
(dp816
g74
I3
ssg75
g810
sg68
(lp817
S''
asbasbasbasbasbasbasbag61
(g77
g63
NtRp818
(dp819
g66
(dp820
sg75
g251
sg68
(lp821
g61
(g82
g63
NtRp822
(dp823
g66
(dp824
g86
g87
ssg75
g818
sg68
(lp825
S'session_id_welcome'
p826
asbag61
(g82
g63
NtRp827
(dp828
g66
(dp829
g93
g94
ssg75
g818
sg68
(lp830
S':'
asbag61
(g82
g63
NtRp831
(dp832
g66
(dp833
sg75
g818
sg68
(lp834
g61
(g62
g63
NtRp835
(dp836
g66
(dp837
g74
I4
ssg75
g831
sg68
(lp838
g61
(g70
g63
NtRp839
(dp840
g66
(dp841
g74
I3
ssg75
Nsg68
(lp842
g61
(g77
g63
NtRp843
(dp844
g66
(dp845
sg75
g839
sg68
(lp846
g61
(g82
g63
NtRp847
(dp848
g66
(dp849
g86
g87
ssg75
g843
sg68
(lp850
g288
asbag61
(g82
g63
NtRp851
(dp852
g66
(dp853
g93
g94
ssg75
g843
sg68
(lp854
S':'
asbag61
(g82
g63
NtRp855
(dp856
g66
(dp857
sg75
g843
sg68
(lp858
g61
(g62
g63
NtRp859
(dp860
g66
(dp861
g74
I3
ssg75
g855
sg68
(lp862
S''
asbasbasbag61
(g77
g63
NtRp863
(dp864
g66
(dp865
sg75
g839
sg68
(lp866
g61
(g82
g63
NtRp867
(dp868
g66
(dp869
g86
g87
ssg75
g863
sg68
(lp870
g309
asbag61
(g82
g63
NtRp871
(dp872
g66
(dp873
g93
g94
ssg75
g863
sg68
(lp874
S':'
asbag61
(g82
g63
NtRp875
(dp876
g66
(dp877
sg75
g863
sg68
(lp878
g61
(g62
g63
NtRp879
(dp880
g66
(dp881
g74
I3
ssg75
g875
sg68
(lp882
S''
asbasbasbag61
(g77
g63
NtRp883
(dp884
g66
(dp885
sg75
g839
sg68
(lp886
g61
(g82
g63
NtRp887
(dp888
g66
(dp889
g86
g87
ssg75
g883
sg68
(lp890
g330
asbag61
(g82
g63
NtRp891
(dp892
g66
(dp893
g93
g94
ssg75
g883
sg68
(lp894
S':'
asbag61
(g82
g63
NtRp895
(dp896
g66
(dp897
sg75
g883
sg68
(lp898
g61
(g62
g63
NtRp899
(dp900
g66
(dp901
g74
I3
ssg75
g895
sg68
(lp902
S''
asbasbasbag61
(g77
g63
NtRp903
(dp904
g66
(dp905
sg75
g839
sg68
(lp906
g61
(g82
g63
NtRp907
(dp908
g66
(dp909
g86
g87
ssg75
g903
sg68
(lp910
g351
asbag61
(g82
g63
NtRp911
(dp912
g66
(dp913
g93
g94
ssg75
g903
sg68
(lp914
S':'
asbag61
(g82
g63
NtRp915
(dp916
g66
(dp917
sg75
g903
sg68
(lp918
g61
(g62
g63
NtRp919
(dp920
g66
(dp921
g74
I3
ssg75
g915
sg68
(lp922
S''
asbasbasbag61
(g77
g63
NtRp923
(dp924
g66
(dp925
sg75
g839
sg68
(lp926
g61
(g82
g63
NtRp927
(dp928
g66
(dp929
g86
g87
ssg75
g923
sg68
(lp930
g372
asbag61
(g82
g63
NtRp931
(dp932
g66
(dp933
g93
g94
ssg75
g923
sg68
(lp934
S':'
asbag61
(g82
g63
NtRp935
(dp936
g66
(dp937
sg75
g923
sg68
(lp938
g61
(g62
g63
NtRp939
(dp940
g66
(dp941
g74
I3
ssg75
g935
sg68
(lp942
S''
asbasbasbag61
(g77
g63
NtRp943
(dp944
g66
(dp945
sg75
g839
sg68
(lp946
g61
(g82
g63
NtRp947
(dp948
g66
(dp949
g86
g87
ssg75
g943
sg68
(lp950
g393
asbag61
(g82
g63
NtRp951
(dp952
g66
(dp953
g93
g94
ssg75
g943
sg68
(lp954
S':'
asbag61
(g82
g63
NtRp955
(dp956
g66
(dp957
sg75
g943
sg68
(lp958
g61
(g62
g63
NtRp959
(dp960
g66
(dp961
g74
I3
ssg75
g955
sg68
(lp962
S''
asbasbasbag61
(g77
g63
NtRp963
(dp964
g66
(dp965
sg75
g839
sg68
(lp966
g61
(g82
g63
NtRp967
(dp968
g66
(dp969
g86
g87
ssg75
g963
sg68
(lp970
g414
asbag61
(g82
g63
NtRp971
(dp972
g66
(dp973
g93
g94
ssg75
g963
sg68
(lp974
S':'
asbag61
(g82
g63
NtRp975
(dp976
g66
(dp977
sg75
g963
sg68
(lp978
g61
(g62
g63
NtRp979
(dp980
g66
(dp981
g74
I3
ssg75
g975
sg68
(lp982
S''
asbasbasbag61
(g77
g63
NtRp983
(dp984
g66
(dp985
sg75
g839
sg68
(lp986
g61
(g82
g63
NtRp987
(dp988
g66
(dp989
g86
g87
ssg75
g983
sg68
(lp990
g435
asbag61
(g82
g63
NtRp991
(dp992
g66
(dp993
g93
g94
ssg75
g983
sg68
(lp994
S':'
asbag61
(g82
g63
NtRp995
(dp996
g66
(dp997
sg75
g983
sg68
(lp998
g61
(g62
g63
NtRp999
(dp1000
g66
(dp1001
g74
I3
ssg75
g995
sg68
(lp1002
S''
asbasbasbasbasbasbasbasbasbasbasbag61
(g77
g63
NtRp1003
(dp1004
g66
(dp1005
sg75
g71
sg68
(lp1006
g61
(g82
g63
NtRp1007
(dp1008
g66
(dp1009
g86
g87
ssg75
g1003
sg68
(lp1010
S'env'
p1011
asbag61
(g82
g63
NtRp1012
(dp1013
g66
(dp1014
g93
g94
ssg75
g1003
sg68
(lp1015
S':'
asbag61
(g82
g63
NtRp1016
(dp1017
g66
(dp1018
sg75
g1003
sg68
(lp1019
g61
(g62
g63
NtRp1020
(dp1021
g66
(dp1022
g74
I5
ssg75
g1016
sg68
(lp1023
g61
(g70
g63
NtRp1024
(dp1025
g66
(dp1026
g74
I4
ssg75
Nsg68
(lp1027
g61
(g77
g63
NtRp1028
(dp1029
g66
(dp1030
sg75
g1024
sg68
(lp1031
g61
(g82
g63
NtRp1032
(dp1033
g66
(dp1034
g86
g87
ssg75
g1028
sg68
(lp1035
S'app_folders'
p1036
asbag61
(g82
g63
NtRp1037
(dp1038
g66
(dp1039
g93
g94
ssg75
g1028
sg68
(lp1040
S':'
asbag61
(g82
g63
NtRp1041
(dp1042
g66
(dp1043
sg75
g1028
sg68
(lp1044
g61
(g62
g63
NtRp1045
(dp1046
g66
(dp1047
g74
I4
ssg75
g1041
sg68
(lp1048
S"set(['/home/unic/web2py/applications/manager/', '/home/unic/web2py/applications/managerold/', '/home/unic/web2py/applications/admin/', '/home/unic/web2py/applications/welcome/'])"
p1049
asbasbasbag61
(g77
g63
NtRp1050
(dp1051
g66
(dp1052
sg75
g1024
sg68
(lp1053
g61
(g82
g63
NtRp1054
(dp1055
g66
(dp1056
g86
g87
ssg75
g1050
sg68
(lp1057
S'applications_parent'
p1058
asbag61
(g82
g63
NtRp1059
(dp1060
g66
(dp1061
g93
g94
ssg75
g1050
sg68
(lp1062
S':'
asbag61
(g82
g63
NtRp1063
(dp1064
g66
(dp1065
sg75
g1050
sg68
(lp1066
g61
(g62
g63
NtRp1067
(dp1068
g66
(dp1069
g74
I4
ssg75
g1063
sg68
(lp1070
S'/home/unic/web2py'
p1071
asbasbasbag61
(g77
g63
NtRp1072
(dp1073
g66
(dp1074
sg75
g1024
sg68
(lp1075
g61
(g82
g63
NtRp1076
(dp1077
g66
(dp1078
g86
g87
ssg75
g1072
sg68
(lp1079
S'cmd_args'
p1080
asbag61
(g82
g63
NtRp1081
(dp1082
g66
(dp1083
g93
g94
ssg75
g1072
sg68
(lp1084
S':'
asbag61
(g82
g63
NtRp1085
(dp1086
g66
(dp1087
sg75
g1072
sg68
(lp1088
g61
(g62
g63
NtRp1089
(dp1090
g66
(dp1091
g74
I4
ssg75
g1085
sg68
(lp1092
g61
(g70
g63
NtRp1093
(dp1094
g66
(dp1095
g74
I3
ssg75
Nsg68
(lp1096
sbasbasbasbag61
(g77
g63
NtRp1097
(dp1098
g66
(dp1099
sg75
g1024
sg68
(lp1100
g61
(g82
g63
NtRp1101
(dp1102
g66
(dp1103
g86
g87
ssg75
g1097
sg68
(lp1104
S'cmd_options'
p1105
asbag61
(g82
g63
NtRp1106
(dp1107
g66
(dp1108
g93
g94
ssg75
g1097
sg68
(lp1109
S':'
asbag61
(g82
g63
NtRp1110
(dp1111
g66
(dp1112
sg75
g1097
sg68
(lp1113
g61
(g62
g63
NtRp1114
(dp1115
g66
(dp1116
g74
I4
ssg75
g1110
sg68
(lp1117
S"<Values at 0x955280c: {'verbose': False, 'ip': '127.0.0.1', 'shutdown_timeout': 5, 'taskbar': False, 'port': 8000, 'maxthreads': None, 'softcron': False, 'server_name': 'unic-Inspiron-N5050', 'bpython': False, 'nogui': False, 'nocron': False, 'extcron': False, 'debuglevel': 30, 'test': None, 'folder': '/home/unic/web2py', 'config': '', 'import_models': False, 'winservice': '', 'shell': None, 'run': '', 'log_filename': 'httpserver.log', 'args': [''], 'socket_timeout': 1, 'profiler_filename': None, 'ssl_private_key': '', 'password': '<ask>', 'request_queue_size': 5, 'ssl_certificate': '', 'cronjob': False, 'plain': False, 'quiet': False, 'interfaces': None, 'minthreads': None, 'timeout': 10, 'numthreads': None, 'nobanner': False, 'pid_filename': 'httpserver.pid'}>"
p1118
asbasbasbag61
(g77
g63
NtRp1119
(dp1120
g66
(dp1121
sg75
g1024
sg68
(lp1122
g61
(g82
g63
NtRp1123
(dp1124
g66
(dp1125
g86
g87
ssg75
g1119
sg68
(lp1126
S'content_length'
p1127
asbag61
(g82
g63
NtRp1128
(dp1129
g66
(dp1130
g93
g94
ssg75
g1119
sg68
(lp1131
S':'
asbag61
(g82
g63
NtRp1132
(dp1133
g66
(dp1134
sg75
g1119
sg68
(lp1135
g61
(g62
g63
NtRp1136
(dp1137
g66
(dp1138
g74
I4
ssg75
g1132
sg68
(lp1139
S'1021'
p1140
asbasbasbag61
(g77
g63
NtRp1141
(dp1142
g66
(dp1143
sg75
g1024
sg68
(lp1144
g61
(g82
g63
NtRp1145
(dp1146
g66
(dp1147
g86
g87
ssg75
g1141
sg68
(lp1148
S'content_type'
p1149
asbag61
(g82
g63
NtRp1150
(dp1151
g66
(dp1152
g93
g94
ssg75
g1141
sg68
(lp1153
S':'
asbag61
(g82
g63
NtRp1154
(dp1155
g66
(dp1156
sg75
g1141
sg68
(lp1157
g61
(g62
g63
NtRp1158
(dp1159
g66
(dp1160
g74
I4
ssg75
g1154
sg68
(lp1161
S'multipart/form-data; boundary=---------------------------134854560516615857720543851'
p1162
asbasbasbag61
(g77
g63
NtRp1163
(dp1164
g66
(dp1165
sg75
g1024
sg68
(lp1166
g61
(g82
g63
NtRp1167
(dp1168
g66
(dp1169
g86
g87
ssg75
g1163
sg68
(lp1170
S'db_sessions'
p1171
asbag61
(g82
g63
NtRp1172
(dp1173
g66
(dp1174
g93
g94
ssg75
g1163
sg68
(lp1175
S':'
asbag61
(g82
g63
NtRp1176
(dp1177
g66
(dp1178
sg75
g1163
sg68
(lp1179
g61
(g62
g63
NtRp1180
(dp1181
g66
(dp1182
g74
I4
ssg75
g1176
sg68
(lp1183
S'set([])'
p1184
asbasbasbag61
(g77
g63
NtRp1185
(dp1186
g66
(dp1187
sg75
g1024
sg68
(lp1188
g61
(g82
g63
NtRp1189
(dp1190
g66
(dp1191
g86
g87
ssg75
g1185
sg68
(lp1192
S'debugging'
p1193
asbag61
(g82
g63
NtRp1194
(dp1195
g66
(dp1196
g93
g94
ssg75
g1185
sg68
(lp1197
S':'
asbag61
(g82
g63
NtRp1198
(dp1199
g66
(dp1200
sg75
g1185
sg68
(lp1201
g61
(g62
g63
NtRp1202
(dp1203
g66
(dp1204
g74
I4
ssg75
g1198
sg68
(lp1205
g104
asbasbasbag61
(g77
g63
NtRp1206
(dp1207
g66
(dp1208
sg75
g1024
sg68
(lp1209
g61
(g82
g63
NtRp1210
(dp1211
g66
(dp1212
g86
g87
ssg75
g1206
sg68
(lp1213
S'gluon_parent'
p1214
asbag61
(g82
g63
NtRp1215
(dp1216
g66
(dp1217
g93
g94
ssg75
g1206
sg68
(lp1218
S':'
asbag61
(g82
g63
NtRp1219
(dp1220
g66
(dp1221
sg75
g1206
sg68
(lp1222
g61
(g62
g63
NtRp1223
(dp1224
g66
(dp1225
g74
I4
ssg75
g1219
sg68
(lp1226
S'/usr/share/web2py'
p1227
asbasbasbag61
(g77
g63
NtRp1228
(dp1229
g66
(dp1230
sg75
g1024
sg68
(lp1231
g61
(g82
g63
NtRp1232
(dp1233
g66
(dp1234
g86
g87
ssg75
g1228
sg68
(lp1235
S'http_accept'
p1236
asbag61
(g82
g63
NtRp1237
(dp1238
g66
(dp1239
g93
g94
ssg75
g1228
sg68
(lp1240
S':'
asbag61
(g82
g63
NtRp1241
(dp1242
g66
(dp1243
sg75
g1228
sg68
(lp1244
g61
(g62
g63
NtRp1245
(dp1246
g66
(dp1247
g74
I4
ssg75
g1241
sg68
(lp1248
S'text/html,application/xhtml+xml,application/xml;q=0.9,*/*;q=0.8'
p1249
asbasbasbag61
(g77
g63
NtRp1250
(dp1251
g66
(dp1252
sg75
g1024
sg68
(lp1253
g61
(g82
g63
NtRp1254
(dp1255
g66
(dp1256
g86
g87
ssg75
g1250
sg68
(lp1257
S'http_accept_encoding'
p1258
asbag61
(g82
g63
NtRp1259
(dp1260
g66
(dp1261
g93
g94
ssg75
g1250
sg68
(lp1262
S':'
asbag61
(g82
g63
NtRp1263
(dp1264
g66
(dp1265
sg75
g1250
sg68
(lp1266
g61
(g62
g63
NtRp1267
(dp1268
g66
(dp1269
g74
I4
ssg75
g1263
sg68
(lp1270
S'gzip, deflate'
p1271
asbasbasbag61
(g77
g63
NtRp1272
(dp1273
g66
(dp1274
sg75
g1024
sg68
(lp1275
g61
(g82
g63
NtRp1276
(dp1277
g66
(dp1278
g86
g87
ssg75
g1272
sg68
(lp1279
S'http_accept_language'
p1280
asbag61
(g82
g63
NtRp1281
(dp1282
g66
(dp1283
g93
g94
ssg75
g1272
sg68
(lp1284
S':'
asbag61
(g82
g63
NtRp1285
(dp1286
g66
(dp1287
sg75
g1272
sg68
(lp1288
g61
(g62
g63
NtRp1289
(dp1290
g66
(dp1291
g74
I4
ssg75
g1285
sg68
(lp1292
S'en-us,en;q=0.5'
p1293
asbasbasbag61
(g77
g63
NtRp1294
(dp1295
g66
(dp1296
sg75
g1024
sg68
(lp1297
g61
(g82
g63
NtRp1298
(dp1299
g66
(dp1300
g86
g87
ssg75
g1294
sg68
(lp1301
S'http_connection'
p1302
asbag61
(g82
g63
NtRp1303
(dp1304
g66
(dp1305
g93
g94
ssg75
g1294
sg68
(lp1306
S':'
asbag61
(g82
g63
NtRp1307
(dp1308
g66
(dp1309
sg75
g1294
sg68
(lp1310
g61
(g62
g63
NtRp1311
(dp1312
g66
(dp1313
g74
I4
ssg75
g1307
sg68
(lp1314
S'keep-alive'
p1315
asbasbasbag61
(g77
g63
NtRp1316
(dp1317
g66
(dp1318
sg75
g1024
sg68
(lp1319
g61
(g82
g63
NtRp1320
(dp1321
g66
(dp1322
g86
g87
ssg75
g1316
sg68
(lp1323
S'http_content_length'
p1324
asbag61
(g82
g63
NtRp1325
(dp1326
g66
(dp1327
g93
g94
ssg75
g1316
sg68
(lp1328
S':'
asbag61
(g82
g63
NtRp1329
(dp1330
g66
(dp1331
sg75
g1316
sg68
(lp1332
g61
(g62
g63
NtRp1333
(dp1334
g66
(dp1335
g74
I4
ssg75
g1329
sg68
(lp1336
g1140
asbasbasbag61
(g77
g63
NtRp1337
(dp1338
g66
(dp1339
sg75
g1024
sg68
(lp1340
g61
(g82
g63
NtRp1341
(dp1342
g66
(dp1343
g86
g87
ssg75
g1337
sg68
(lp1344
S'http_content_type'
p1345
asbag61
(g82
g63
NtRp1346
(dp1347
g66
(dp1348
g93
g94
ssg75
g1337
sg68
(lp1349
S':'
asbag61
(g82
g63
NtRp1350
(dp1351
g66
(dp1352
sg75
g1337
sg68
(lp1353
g61
(g62
g63
NtRp1354
(dp1355
g66
(dp1356
g74
I4
ssg75
g1350
sg68
(lp1357
g1162
asbasbasbag61
(g77
g63
NtRp1358
(dp1359
g66
(dp1360
sg75
g1024
sg68
(lp1361
g61
(g82
g63
NtRp1362
(dp1363
g66
(dp1364
g86
g87
ssg75
g1358
sg68
(lp1365
S'http_cookie'
p1366
asbag61
(g82
g63
NtRp1367
(dp1368
g66
(dp1369
g93
g94
ssg75
g1358
sg68
(lp1370
S':'
asbag61
(g82
g63
NtRp1371
(dp1372
g66
(dp1373
sg75
g1358
sg68
(lp1374
g61
(g62
g63
NtRp1375
(dp1376
g66
(dp1377
g74
I4
ssg75
g1371
sg68
(lp1378
S'session_id_welcome=127.0.0.1-c761915d-b2ec-45f7-816d-33b669eb24bf; session_id_admin=127.0.0.1-4c6378b6-76f7-4935-8b02-824504518b8b; session_id_manager=127.0.0.1-9680a272-d22f-48db-9899-03542bdb9e98; session_id_managerold=127.0.0.1-e7a9f8ab-f73b-4ba5-99c7-7af84382aa04'
p1379
asbasbasbag61
(g77
g63
NtRp1380
(dp1381
g66
(dp1382
sg75
g1024
sg68
(lp1383
g61
(g82
g63
NtRp1384
(dp1385
g66
(dp1386
g86
g87
ssg75
g1380
sg68
(lp1387
S'http_host'
p1388
asbag61
(g82
g63
NtRp1389
(dp1390
g66
(dp1391
g93
g94
ssg75
g1380
sg68
(lp1392
S':'
asbag61
(g82
g63
NtRp1393
(dp1394
g66
(dp1395
sg75
g1380
sg68
(lp1396
g61
(g62
g63
NtRp1397
(dp1398
g66
(dp1399
g74
I4
ssg75
g1393
sg68
(lp1400
S'127.0.0.1:8000'
p1401
asbasbasbag61
(g77
g63
NtRp1402
(dp1403
g66
(dp1404
sg75
g1024
sg68
(lp1405
g61
(g82
g63
NtRp1406
(dp1407
g66
(dp1408
g86
g87
ssg75
g1402
sg68
(lp1409
S'http_referer'
p1410
asbag61
(g82
g63
NtRp1411
(dp1412
g66
(dp1413
g93
g94
ssg75
g1402
sg68
(lp1414
S':'
asbag61
(g82
g63
NtRp1415
(dp1416
g66
(dp1417
sg75
g1402
sg68
(lp1418
g61
(g62
g63
NtRp1419
(dp1420
g66
(dp1421
g74
I4
ssg75
g1415
sg68
(lp1422
S'http://127.0.0.1:8000/manager/default/nedit/842'
p1423
asbasbasbag61
(g77
g63
NtRp1424
(dp1425
g66
(dp1426
sg75
g1024
sg68
(lp1427
g61
(g82
g63
NtRp1428
(dp1429
g66
(dp1430
g86
g87
ssg75
g1424
sg68
(lp1431
S'http_user_agent'
p1432
asbag61
(g82
g63
NtRp1433
(dp1434
g66
(dp1435
g93
g94
ssg75
g1424
sg68
(lp1436
S':'
asbag61
(g82
g63
NtRp1437
(dp1438
g66
(dp1439
sg75
g1424
sg68
(lp1440
g61
(g62
g63
NtRp1441
(dp1442
g66
(dp1443
g74
I4
ssg75
g1437
sg68
(lp1444
S'Mozilla/5.0 (X11; Ubuntu; Linux i686; rv:14.0) Gecko/20100101 Firefox/14.0.1'
p1445
asbasbasbag61
(g77
g63
NtRp1446
(dp1447
g66
(dp1448
sg75
g1024
sg68
(lp1449
g61
(g82
g63
NtRp1450
(dp1451
g66
(dp1452
g86
g87
ssg75
g1446
sg68
(lp1453
S'is_jython'
p1454
asbag61
(g82
g63
NtRp1455
(dp1456
g66
(dp1457
g93
g94
ssg75
g1446
sg68
(lp1458
S':'
asbag61
(g82
g63
NtRp1459
(dp1460
g66
(dp1461
sg75
g1446
sg68
(lp1462
g61
(g62
g63
NtRp1463
(dp1464
g66
(dp1465
g74
I4
ssg75
g1459
sg68
(lp1466
g104
asbasbasbag61
(g77
g63
NtRp1467
(dp1468
g66
(dp1469
sg75
g1024
sg68
(lp1470
g61
(g82
g63
NtRp1471
(dp1472
g66
(dp1473
g86
g87
ssg75
g1467
sg68
(lp1474
S'is_pypy'
p1475
asbag61
(g82
g63
NtRp1476
(dp1477
g66
(dp1478
g93
g94
ssg75
g1467
sg68
(lp1479
S':'
asbag61
(g82
g63
NtRp1480
(dp1481
g66
(dp1482
sg75
g1467
sg68
(lp1483
g61
(g62
g63
NtRp1484
(dp1485
g66
(dp1486
g74
I4
ssg75
g1480
sg68
(lp1487
g104
asbasbasbag61
(g77
g63
NtRp1488
(dp1489
g66
(dp1490
sg75
g1024
sg68
(lp1491
g61
(g82
g63
NtRp1492
(dp1493
g66
(dp1494
g86
g87
ssg75
g1488
sg68
(lp1495
S'path_info'
p1496
asbag61
(g82
g63
NtRp1497
(dp1498
g66
(dp1499
g93
g94
ssg75
g1488
sg68
(lp1500
S':'
asbag61
(g82
g63
NtRp1501
(dp1502
g66
(dp1503
sg75
g1488
sg68
(lp1504
g61
(g62
g63
NtRp1505
(dp1506
g66
(dp1507
g74
I4
ssg75
g1501
sg68
(lp1508
S'/manager/default/nedit/842'
p1509
asbasbasbag61
(g77
g63
NtRp1510
(dp1511
g66
(dp1512
sg75
g1024
sg68
(lp1513
g61
(g82
g63
NtRp1514
(dp1515
g66
(dp1516
g86
g87
ssg75
g1510
sg68
(lp1517
S'query_string'
p1518
asbag61
(g82
g63
NtRp1519
(dp1520
g66
(dp1521
g93
g94
ssg75
g1510
sg68
(lp1522
S':'
asbag61
(g82
g63
NtRp1523
(dp1524
g66
(dp1525
sg75
g1510
sg68
(lp1526
g61
(g62
g63
NtRp1527
(dp1528
g66
(dp1529
g74
I4
ssg75
g1523
sg68
(lp1530
S''
asbasbasbag61
(g77
g63
NtRp1531
(dp1532
g66
(dp1533
sg75
g1024
sg68
(lp1534
g61
(g82
g63
NtRp1535
(dp1536
g66
(dp1537
g86
g87
ssg75
g1531
sg68
(lp1538
S'remote_addr'
p1539
asbag61
(g82
g63
NtRp1540
(dp1541
g66
(dp1542
g93
g94
ssg75
g1531
sg68
(lp1543
S':'
asbag61
(g82
g63
NtRp1544
(dp1545
g66
(dp1546
sg75
g1531
sg68
(lp1547
g61
(g62
g63
NtRp1548
(dp1549
g66
(dp1550
g74
I4
ssg75
g1544
sg68
(lp1551
g207
asbasbasbag61
(g77
g63
NtRp1552
(dp1553
g66
(dp1554
sg75
g1024
sg68
(lp1555
g61
(g82
g63
NtRp1556
(dp1557
g66
(dp1558
g86
g87
ssg75
g1552
sg68
(lp1559
S'remote_port'
p1560
asbag61
(g82
g63
NtRp1561
(dp1562
g66
(dp1563
g93
g94
ssg75
g1552
sg68
(lp1564
S':'
asbag61
(g82
g63
NtRp1565
(dp1566
g66
(dp1567
sg75
g1552
sg68
(lp1568
g61
(g62
g63
NtRp1569
(dp1570
g66
(dp1571
g74
I4
ssg75
g1565
sg68
(lp1572
S'38761'
p1573
asbasbasbag61
(g77
g63
NtRp1574
(dp1575
g66
(dp1576
sg75
g1024
sg68
(lp1577
g61
(g82
g63
NtRp1578
(dp1579
g66
(dp1580
g86
g87
ssg75
g1574
sg68
(lp1581
S'request_method'
p1582
asbag61
(g82
g63
NtRp1583
(dp1584
g66
(dp1585
g93
g94
ssg75
g1574
sg68
(lp1586
S':'
asbag61
(g82
g63
NtRp1587
(dp1588
g66
(dp1589
sg75
g1574
sg68
(lp1590
g61
(g62
g63
NtRp1591
(dp1592
g66
(dp1593
g74
I4
ssg75
g1587
sg68
(lp1594
S'POST'
p1595
asbasbasbag61
(g77
g63
NtRp1596
(dp1597
g66
(dp1598
sg75
g1024
sg68
(lp1599
g61
(g82
g63
NtRp1600
(dp1601
g66
(dp1602
g86
g87
ssg75
g1596
sg68
(lp1603
S'script_name'
p1604
asbag61
(g82
g63
NtRp1605
(dp1606
g66
(dp1607
g93
g94
ssg75
g1596
sg68
(lp1608
S':'
asbag61
(g82
g63
NtRp1609
(dp1610
g66
(dp1611
sg75
g1596
sg68
(lp1612
g61
(g62
g63
NtRp1613
(dp1614
g66
(dp1615
g74
I4
ssg75
g1609
sg68
(lp1616
S''
asbasbasbag61
(g77
g63
NtRp1617
(dp1618
g66
(dp1619
sg75
g1024
sg68
(lp1620
g61
(g82
g63
NtRp1621
(dp1622
g66
(dp1623
g86
g87
ssg75
g1617
sg68
(lp1624
S'server_name'
p1625
asbag61
(g82
g63
NtRp1626
(dp1627
g66
(dp1628
g93
g94
ssg75
g1617
sg68
(lp1629
S':'
asbag61
(g82
g63
NtRp1630
(dp1631
g66
(dp1632
sg75
g1617
sg68
(lp1633
g61
(g62
g63
NtRp1634
(dp1635
g66
(dp1636
g74
I4
ssg75
g1630
sg68
(lp1637
S'unic-Inspiron-N5050'
p1638
asbasbasbag61
(g77
g63
NtRp1639
(dp1640
g66
(dp1641
sg75
g1024
sg68
(lp1642
g61
(g82
g63
NtRp1643
(dp1644
g66
(dp1645
g86
g87
ssg75
g1639
sg68
(lp1646
S'server_port'
p1647
asbag61
(g82
g63
NtRp1648
(dp1649
g66
(dp1650
g93
g94
ssg75
g1639
sg68
(lp1651
S':'
asbag61
(g82
g63
NtRp1652
(dp1653
g66
(dp1654
sg75
g1639
sg68
(lp1655
g61
(g62
g63
NtRp1656
(dp1657
g66
(dp1658
g74
I4
ssg75
g1652
sg68
(lp1659
S'8000'
p1660
asbasbasbag61
(g77
g63
NtRp1661
(dp1662
g66
(dp1663
sg75
g1024
sg68
(lp1664
g61
(g82
g63
NtRp1665
(dp1666
g66
(dp1667
g86
g87
ssg75
g1661
sg68
(lp1668
S'server_protocol'
p1669
asbag61
(g82
g63
NtRp1670
(dp1671
g66
(dp1672
g93
g94
ssg75
g1661
sg68
(lp1673
S':'
asbag61
(g82
g63
NtRp1674
(dp1675
g66
(dp1676
sg75
g1661
sg68
(lp1677
g61
(g62
g63
NtRp1678
(dp1679
g66
(dp1680
g74
I4
ssg75
g1674
sg68
(lp1681
S'HTTP/1.1'
p1682
asbasbasbag61
(g77
g63
NtRp1683
(dp1684
g66
(dp1685
sg75
g1024
sg68
(lp1686
g61
(g82
g63
NtRp1687
(dp1688
g66
(dp1689
g86
g87
ssg75
g1683
sg68
(lp1690
S'server_software'
p1691
asbag61
(g82
g63
NtRp1692
(dp1693
g66
(dp1694
g93
g94
ssg75
g1683
sg68
(lp1695
S':'
asbag61
(g82
g63
NtRp1696
(dp1697
g66
(dp1698
sg75
g1683
sg68
(lp1699
g61
(g62
g63
NtRp1700
(dp1701
g66
(dp1702
g74
I4
ssg75
g1696
sg68
(lp1703
S'Rocket 1.2.4'
p1704
asbasbasbag61
(g77
g63
NtRp1705
(dp1706
g66
(dp1707
sg75
g1024
sg68
(lp1708
g61
(g82
g63
NtRp1709
(dp1710
g66
(dp1711
g86
g87
ssg75
g1705
sg68
(lp1712
S'web2py_crontype'
p1713
asbag61
(g82
g63
NtRp1714
(dp1715
g66
(dp1716
g93
g94
ssg75
g1705
sg68
(lp1717
S':'
asbag61
(g82
g63
NtRp1718
(dp1719
g66
(dp1720
sg75
g1705
sg68
(lp1721
g61
(g62
g63
NtRp1722
(dp1723
g66
(dp1724
g74
I4
ssg75
g1718
sg68
(lp1725
S'hard'
p1726
asbasbasbag61
(g77
g63
NtRp1727
(dp1728
g66
(dp1729
sg75
g1024
sg68
(lp1730
g61
(g82
g63
NtRp1731
(dp1732
g66
(dp1733
g86
g87
ssg75
g1727
sg68
(lp1734
S'web2py_path'
p1735
asbag61
(g82
g63
NtRp1736
(dp1737
g66
(dp1738
g93
g94
ssg75
g1727
sg68
(lp1739
S':'
asbag61
(g82
g63
NtRp1740
(dp1741
g66
(dp1742
sg75
g1727
sg68
(lp1743
g61
(g62
g63
NtRp1744
(dp1745
g66
(dp1746
g74
I4
ssg75
g1740
sg68
(lp1747
g1071
asbasbasbag61
(g77
g63
NtRp1748
(dp1749
g66
(dp1750
sg75
g1024
sg68
(lp1751
g61
(g82
g63
NtRp1752
(dp1753
g66
(dp1754
g86
g87
ssg75
g1748
sg68
(lp1755
S'web2py_version'
p1756
asbag61
(g82
g63
NtRp1757
(dp1758
g66
(dp1759
g93
g94
ssg75
g1748
sg68
(lp1760
S':'
asbag61
(g82
g63
NtRp1761
(dp1762
g66
(dp1763
sg75
g1748
sg68
(lp1764
g61
(g62
g63
NtRp1765
(dp1766
g66
(dp1767
g74
I4
ssg75
g1761
sg68
(lp1768
g61
(g70
g63
NtRp1769
(dp1770
g66
(dp1771
g74
I3
ssg75
Nsg68
(lp1772
g61
(g77
g63
NtRp1773
(dp1774
g66
(dp1775
sg75
g1769
sg68
(lp1776
g61
(g82
g63
NtRp1777
(dp1778
g66
(dp1779
sg75
g1773
sg68
(lp1780
g61
(g62
g63
NtRp1781
(dp1782
g66
(dp1783
g74
I3
ssg75
g1777
sg68
(lp1784
S'1'
asbasbasbag61
(g77
g63
NtRp1785
(dp1786
g66
(dp1787
sg75
g1769
sg68
(lp1788
g61
(g82
g63
NtRp1789
(dp1790
g66
(dp1791
sg75
g1785
sg68
(lp1792
g61
(g62
g63
NtRp1793
(dp1794
g66
(dp1795
g74
I3
ssg75
g1789
sg68
(lp1796
S'99'
p1797
asbasbasbag61
(g77
g63
NtRp1798
(dp1799
g66
(dp1800
sg75
g1769
sg68
(lp1801
g61
(g82
g63
NtRp1802
(dp1803
g66
(dp1804
sg75
g1798
sg68
(lp1805
g61
(g62
g63
NtRp1806
(dp1807
g66
(dp1808
g74
I3
ssg75
g1802
sg68
(lp1809
S'4'
asbasbasbag61
(g77
g63
NtRp1810
(dp1811
g66
(dp1812
sg75
g1769
sg68
(lp1813
g61
(g82
g63
NtRp1814
(dp1815
g66
(dp1816
sg75
g1810
sg68
(lp1817
g61
(g62
g63
NtRp1818
(dp1819
g66
(dp1820
g74
I3
ssg75
g1814
sg68
(lp1821
S'datetime.datetime(2011, 12, 14, 14, 46, 14)'
p1822
asbasbasbag61
(g77
g63
NtRp1823
(dp1824
g66
(dp1825
sg75
g1769
sg68
(lp1826
g61
(g82
g63
NtRp1827
(dp1828
g66
(dp1829
sg75
g1823
sg68
(lp1830
g61
(g62
g63
NtRp1831
(dp1832
g66
(dp1833
g74
I3
ssg75
g1827
sg68
(lp1834
S'stable'
p1835
asbasbasbasbasbasbasbag61
(g77
g63
NtRp1836
(dp1837
g66
(dp1838
sg75
g1024
sg68
(lp1839
g61
(g82
g63
NtRp1840
(dp1841
g66
(dp1842
g86
g87
ssg75
g1836
sg68
(lp1843
S'wsgi_errors'
p1844
asbag61
(g82
g63
NtRp1845
(dp1846
g66
(dp1847
g93
g94
ssg75
g1836
sg68
(lp1848
S':'
asbag61
(g82
g63
NtRp1849
(dp1850
g66
(dp1851
sg75
g1836
sg68
(lp1852
g61
(g62
g63
NtRp1853
(dp1854
g66
(dp1855
g74
I4
ssg75
g1849
sg68
(lp1856
S"<open file '<stderr>', mode 'w' at 0xb73370d0>"
p1857
asbasbasbag61
(g77
g63
NtRp1858
(dp1859
g66
(dp1860
sg75
g1024
sg68
(lp1861
g61
(g82
g63
NtRp1862
(dp1863
g66
(dp1864
g86
g87
ssg75
g1858
sg68
(lp1865
S'wsgi_file_wrapper'
p1866
asbag61
(g82
g63
NtRp1867
(dp1868
g66
(dp1869
g93
g94
ssg75
g1858
sg68
(lp1870
S':'
asbag61
(g82
g63
NtRp1871
(dp1872
g66
(dp1873
sg75
g1858
sg68
(lp1874
g61
(g62
g63
NtRp1875
(dp1876
g66
(dp1877
g74
I4
ssg75
g1871
sg68
(lp1878
S'<class wsgiref.util.FileWrapper at 0x94fd4ac>'
p1879
asbasbasbag61
(g77
g63
NtRp1880
(dp1881
g66
(dp1882
sg75
g1024
sg68
(lp1883
g61
(g82
g63
NtRp1884
(dp1885
g66
(dp1886
g86
g87
ssg75
g1880
sg68
(lp1887
S'wsgi_input'
p1888
asbag61
(g82
g63
NtRp1889
(dp1890
g66
(dp1891
g93
g94
ssg75
g1880
sg68
(lp1892
S':'
asbag61
(g82
g63
NtRp1893
(dp1894
g66
(dp1895
sg75
g1880
sg68
(lp1896
g61
(g62
g63
NtRp1897
(dp1898
g66
(dp1899
g74
I4
ssg75
g1893
sg68
(lp1900
S'<socket._fileobject object at 0x99e412c>'
p1901
asbasbasbag61
(g77
g63
NtRp1902
(dp1903
g66
(dp1904
sg75
g1024
sg68
(lp1905
g61
(g82
g63
NtRp1906
(dp1907
g66
(dp1908
g86
g87
ssg75
g1902
sg68
(lp1909
S'wsgi_multiprocess'
p1910
asbag61
(g82
g63
NtRp1911
(dp1912
g66
(dp1913
g93
g94
ssg75
g1902
sg68
(lp1914
S':'
asbag61
(g82
g63
NtRp1915
(dp1916
g66
(dp1917
sg75
g1902
sg68
(lp1918
g61
(g62
g63
NtRp1919
(dp1920
g66
(dp1921
g74
I4
ssg75
g1915
sg68
(lp1922
g104
asbasbasbag61
(g77
g63
NtRp1923
(dp1924
g66
(dp1925
sg75
g1024
sg68
(lp1926
g61
(g82
g63
NtRp1927
(dp1928
g66
(dp1929
g86
g87
ssg75
g1923
sg68
(lp1930
S'wsgi_multithread'
p1931
asbag61
(g82
g63
NtRp1932
(dp1933
g66
(dp1934
g93
g94
ssg75
g1923
sg68
(lp1935
S':'
asbag61
(g82
g63
NtRp1936
(dp1937
g66
(dp1938
sg75
g1923
sg68
(lp1939
g61
(g62
g63
NtRp1940
(dp1941
g66
(dp1942
g74
I4
ssg75
g1936
sg68
(lp1943
S'True'
p1944
asbasbasbag61
(g77
g63
NtRp1945
(dp1946
g66
(dp1947
sg75
g1024
sg68
(lp1948
g61
(g82
g63
NtRp1949
(dp1950
g66
(dp1951
g86
g87
ssg75
g1945
sg68
(lp1952
S'wsgi_run_once'
p1953
asbag61
(g82
g63
NtRp1954
(dp1955
g66
(dp1956
g93
g94
ssg75
g1945
sg68
(lp1957
S':'
asbag61
(g82
g63
NtRp1958
(dp1959
g66
(dp1960
sg75
g1945
sg68
(lp1961
g61
(g62
g63
NtRp1962
(dp1963
g66
(dp1964
g74
I4
ssg75
g1958
sg68
(lp1965
g104
asbasbasbag61
(g77
g63
NtRp1966
(dp1967
g66
(dp1968
sg75
g1024
sg68
(lp1969
g61
(g82
g63
NtRp1970
(dp1971
g66
(dp1972
g86
g87
ssg75
g1966
sg68
(lp1973
S'wsgi_url_scheme'
p1974
asbag61
(g82
g63
NtRp1975
(dp1976
g66
(dp1977
g93
g94
ssg75
g1966
sg68
(lp1978
S':'
asbag61
(g82
g63
NtRp1979
(dp1980
g66
(dp1981
sg75
g1966
sg68
(lp1982
g61
(g62
g63
NtRp1983
(dp1984
g66
(dp1985
g74
I4
ssg75
g1979
sg68
(lp1986
S'http'
p1987
asbasbasbag61
(g77
g63
NtRp1988
(dp1989
g66
(dp1990
sg75
g1024
sg68
(lp1991
g61
(g82
g63
NtRp1992
(dp1993
g66
(dp1994
g86
g87
ssg75
g1988
sg68
(lp1995
S'wsgi_version'
p1996
asbag61
(g82
g63
NtRp1997
(dp1998
g66
(dp1999
g93
g94
ssg75
g1988
sg68
(lp2000
S':'
asbag61
(g82
g63
NtRp2001
(dp2002
g66
(dp2003
sg75
g1988
sg68
(lp2004
g61
(g62
g63
NtRp2005
(dp2006
g66
(dp2007
g74
I4
ssg75
g2001
sg68
(lp2008
g61
(g70
g63
NtRp2009
(dp2010
g66
(dp2011
g74
I3
ssg75
Nsg68
(lp2012
g61
(g77
g63
NtRp2013
(dp2014
g66
(dp2015
sg75
g2009
sg68
(lp2016
g61
(g82
g63
NtRp2017
(dp2018
g66
(dp2019
sg75
g2013
sg68
(lp2020
g61
(g62
g63
NtRp2021
(dp2022
g66
(dp2023
g74
I3
ssg75
g2017
sg68
(lp2024
S'1'
asbasbasbag61
(g77
g63
NtRp2025
(dp2026
g66
(dp2027
sg75
g2009
sg68
(lp2028
g61
(g82
g63
NtRp2029
(dp2030
g66
(dp2031
sg75
g2025
sg68
(lp2032
g61
(g62
g63
NtRp2033
(dp2034
g66
(dp2035
g74
I3
ssg75
g2029
sg68
(lp2036
S'0'
asbasbasbasbasbasbasbasbasbasbasbag61
(g77
g63
NtRp2037
(dp2038
g66
(dp2039
sg75
g71
sg68
(lp2040
g61
(g82
g63
NtRp2041
(dp2042
g66
(dp2043
g86
g87
ssg75
g2037
sg68
(lp2044
S'extension'
p2045
asbag61
(g82
g63
NtRp2046
(dp2047
g66
(dp2048
g93
g94
ssg75
g2037
sg68
(lp2049
S':'
asbag61
(g82
g63
NtRp2050
(dp2051
g66
(dp2052
sg75
g2037
sg68
(lp2053
g61
(g62
g63
NtRp2054
(dp2055
g66
(dp2056
g74
I5
ssg75
g2050
sg68
(lp2057
S'html'
p2058
asbasbasbag61
(g77
g63
NtRp2059
(dp2060
g66
(dp2061
sg75
g71
sg68
(lp2062
g61
(g82
g63
NtRp2063
(dp2064
g66
(dp2065
g86
g87
ssg75
g2059
sg68
(lp2066
S'folder'
p2067
asbag61
(g82
g63
NtRp2068
(dp2069
g66
(dp2070
g93
g94
ssg75
g2059
sg68
(lp2071
S':'
asbag61
(g82
g63
NtRp2072
(dp2073
g66
(dp2074
sg75
g2059
sg68
(lp2075
g61
(g62
g63
NtRp2076
(dp2077
g66
(dp2078
g74
I5
ssg75
g2072
sg68
(lp2079
S'/home/unic/web2py/applications/manager/'
p2080
asbasbasbag61
(g77
g63
NtRp2081
(dp2082
g66
(dp2083
sg75
g71
sg68
(lp2084
g61
(g82
g63
NtRp2085
(dp2086
g66
(dp2087
g86
g87
ssg75
g2081
sg68
(lp2088
S'function'
p2089
asbag61
(g82
g63
NtRp2090
(dp2091
g66
(dp2092
g93
g94
ssg75
g2081
sg68
(lp2093
S':'
asbag61
(g82
g63
NtRp2094
(dp2095
g66
(dp2096
sg75
g2081
sg68
(lp2097
g61
(g62
g63
NtRp2098
(dp2099
g66
(dp2100
g74
I5
ssg75
g2094
sg68
(lp2101
S'nedit'
p2102
asbasbasbag61
(g77
g63
NtRp2103
(dp2104
g66
(dp2105
sg75
g71
sg68
(lp2106
g61
(g82
g63
NtRp2107
(dp2108
g66
(dp2109
g86
g87
ssg75
g2103
sg68
(lp2110
S'get_vars'
p2111
asbag61
(g82
g63
NtRp2112
(dp2113
g66
(dp2114
g93
g94
ssg75
g2103
sg68
(lp2115
S':'
asbag61
(g82
g63
NtRp2116
(dp2117
g66
(dp2118
sg75
g2103
sg68
(lp2119
g61
(g62
g63
NtRp2120
(dp2121
g66
(dp2122
g74
I5
ssg75
g2116
sg68
(lp2123
g61
(g70
g63
NtRp2124
(dp2125
g66
(dp2126
g74
I4
ssg75
Nsg68
(lp2127
sbasbasbasbag61
(g77
g63
NtRp2128
(dp2129
g66
(dp2130
sg75
g71
sg68
(lp2131
g61
(g82
g63
NtRp2132
(dp2133
g66
(dp2134
g86
g87
ssg75
g2128
sg68
(lp2135
S'global_settings'
p2136
asbag61
(g82
g63
NtRp2137
(dp2138
g66
(dp2139
g93
g94
ssg75
g2128
sg68
(lp2140
S':'
asbag61
(g82
g63
NtRp2141
(dp2142
g66
(dp2143
sg75
g2128
sg68
(lp2144
g61
(g62
g63
NtRp2145
(dp2146
g66
(dp2147
g74
I5
ssg75
g2141
sg68
(lp2148
g61
(g70
g63
NtRp2149
(dp2150
g66
(dp2151
g74
I4
ssg75
Nsg68
(lp2152
g61
(g77
g63
NtRp2153
(dp2154
g66
(dp2155
sg75
g2149
sg68
(lp2156
g61
(g82
g63
NtRp2157
(dp2158
g66
(dp2159
g86
g87
ssg75
g2153
sg68
(lp2160
g1036
asbag61
(g82
g63
NtRp2161
(dp2162
g66
(dp2163
g93
g94
ssg75
g2153
sg68
(lp2164
S':'
asbag61
(g82
g63
NtRp2165
(dp2166
g66
(dp2167
sg75
g2153
sg68
(lp2168
g61
(g62
g63
NtRp2169
(dp2170
g66
(dp2171
g74
I4
ssg75
g2165
sg68
(lp2172
S"set(['/home/unic/web2py/applications/manager/', '/home/unic/web2py/applications/managerold/', '/home/unic/web2py/applications/admin/', '/home/unic/web2py/applications/welcome/'])"
p2173
asbasbasbag61
(g77
g63
NtRp2174
(dp2175
g66
(dp2176
sg75
g2149
sg68
(lp2177
g61
(g82
g63
NtRp2178
(dp2179
g66
(dp2180
g86
g87
ssg75
g2174
sg68
(lp2181
g1058
asbag61
(g82
g63
NtRp2182
(dp2183
g66
(dp2184
g93
g94
ssg75
g2174
sg68
(lp2185
S':'
asbag61
(g82
g63
NtRp2186
(dp2187
g66
(dp2188
sg75
g2174
sg68
(lp2189
g61
(g62
g63
NtRp2190
(dp2191
g66
(dp2192
g74
I4
ssg75
g2186
sg68
(lp2193
g1071
asbasbasbag61
(g77
g63
NtRp2194
(dp2195
g66
(dp2196
sg75
g2149
sg68
(lp2197
g61
(g82
g63
NtRp2198
(dp2199
g66
(dp2200
g86
g87
ssg75
g2194
sg68
(lp2201
g1080
asbag61
(g82
g63
NtRp2202
(dp2203
g66
(dp2204
g93
g94
ssg75
g2194
sg68
(lp2205
S':'
asbag61
(g82
g63
NtRp2206
(dp2207
g66
(dp2208
sg75
g2194
sg68
(lp2209
g61
(g62
g63
NtRp2210
(dp2211
g66
(dp2212
g74
I4
ssg75
g2206
sg68
(lp2213
g61
(g70
g63
NtRp2214
(dp2215
g66
(dp2216
g74
I3
ssg75
Nsg68
(lp2217
sbasbasbasbag61
(g77
g63
NtRp2218
(dp2219
g66
(dp2220
sg75
g2149
sg68
(lp2221
g61
(g82
g63
NtRp2222
(dp2223
g66
(dp2224
g86
g87
ssg75
g2218
sg68
(lp2225
g1105
asbag61
(g82
g63
NtRp2226
(dp2227
g66
(dp2228
g93
g94
ssg75
g2218
sg68
(lp2229
S':'
asbag61
(g82
g63
NtRp2230
(dp2231
g66
(dp2232
sg75
g2218
sg68
(lp2233
g61
(g62
g63
NtRp2234
(dp2235
g66
(dp2236
g74
I4
ssg75
g2230
sg68
(lp2237
S"<Values at 0x955280c: {'verbose': False, 'ip': '127.0.0.1', 'shutdown_timeout': 5, 'taskbar': False, 'port': 8000, 'maxthreads': None, 'softcron': False, 'server_name': 'unic-Inspiron-N5050', 'bpython': False, 'nogui': False, 'nocron': False, 'extcron': False, 'debuglevel': 30, 'test': None, 'folder': '/home/unic/web2py', 'config': '', 'import_models': False, 'winservice': '', 'shell': None, 'run': '', 'log_filename': 'httpserver.log', 'args': [''], 'socket_timeout': 1, 'profiler_filename': None, 'ssl_private_key': '', 'password': '<ask>', 'request_queue_size': 5, 'ssl_certificate': '', 'cronjob': False, 'plain': False, 'quiet': False, 'interfaces': None, 'minthreads': None, 'timeout': 10, 'numthreads': None, 'nobanner': False, 'pid_filename': 'httpserver.pid'}>"
p2238
asbasbasbag61
(g77
g63
NtRp2239
(dp2240
g66
(dp2241
sg75
g2149
sg68
(lp2242
g61
(g82
g63
NtRp2243
(dp2244
g66
(dp2245
g86
g87
ssg75
g2239
sg68
(lp2246
g1171
asbag61
(g82
g63
NtRp2247
(dp2248
g66
(dp2249
g93
g94
ssg75
g2239
sg68
(lp2250
S':'
asbag61
(g82
g63
NtRp2251
(dp2252
g66
(dp2253
sg75
g2239
sg68
(lp2254
g61
(g62
g63
NtRp2255
(dp2256
g66
(dp2257
g74
I4
ssg75
g2251
sg68
(lp2258
S'set([])'
p2259
asbasbasbag61
(g77
g63
NtRp2260
(dp2261
g66
(dp2262
sg75
g2149
sg68
(lp2263
g61
(g82
g63
NtRp2264
(dp2265
g66
(dp2266
g86
g87
ssg75
g2260
sg68
(lp2267
g1193
asbag61
(g82
g63
NtRp2268
(dp2269
g66
(dp2270
g93
g94
ssg75
g2260
sg68
(lp2271
S':'
asbag61
(g82
g63
NtRp2272
(dp2273
g66
(dp2274
sg75
g2260
sg68
(lp2275
g61
(g62
g63
NtRp2276
(dp2277
g66
(dp2278
g74
I4
ssg75
g2272
sg68
(lp2279
g104
asbasbasbag61
(g77
g63
NtRp2280
(dp2281
g66
(dp2282
sg75
g2149
sg68
(lp2283
g61
(g82
g63
NtRp2284
(dp2285
g66
(dp2286
g86
g87
ssg75
g2280
sg68
(lp2287
g1214
asbag61
(g82
g63
NtRp2288
(dp2289
g66
(dp2290
g93
g94
ssg75
g2280
sg68
(lp2291
S':'
asbag61
(g82
g63
NtRp2292
(dp2293
g66
(dp2294
sg75
g2280
sg68
(lp2295
g61
(g62
g63
NtRp2296
(dp2297
g66
(dp2298
g74
I4
ssg75
g2292
sg68
(lp2299
g1227
asbasbasbag61
(g77
g63
NtRp2300
(dp2301
g66
(dp2302
sg75
g2149
sg68
(lp2303
g61
(g82
g63
NtRp2304
(dp2305
g66
(dp2306
g86
g87
ssg75
g2300
sg68
(lp2307
g1454
asbag61
(g82
g63
NtRp2308
(dp2309
g66
(dp2310
g93
g94
ssg75
g2300
sg68
(lp2311
S':'
asbag61
(g82
g63
NtRp2312
(dp2313
g66
(dp2314
sg75
g2300
sg68
(lp2315
g61
(g62
g63
NtRp2316
(dp2317
g66
(dp2318
g74
I4
ssg75
g2312
sg68
(lp2319
g104
asbasbasbag61
(g77
g63
NtRp2320
(dp2321
g66
(dp2322
sg75
g2149
sg68
(lp2323
g61
(g82
g63
NtRp2324
(dp2325
g66
(dp2326
g86
g87
ssg75
g2320
sg68
(lp2327
g1475
asbag61
(g82
g63
NtRp2328
(dp2329
g66
(dp2330
g93
g94
ssg75
g2320
sg68
(lp2331
S':'
asbag61
(g82
g63
NtRp2332
(dp2333
g66
(dp2334
sg75
g2320
sg68
(lp2335
g61
(g62
g63
NtRp2336
(dp2337
g66
(dp2338
g74
I4
ssg75
g2332
sg68
(lp2339
g104
asbasbasbag61
(g77
g63
NtRp2340
(dp2341
g66
(dp2342
sg75
g2149
sg68
(lp2343
g61
(g82
g63
NtRp2344
(dp2345
g66
(dp2346
g86
g87
ssg75
g2340
sg68
(lp2347
g1713
asbag61
(g82
g63
NtRp2348
(dp2349
g66
(dp2350
g93
g94
ssg75
g2340
sg68
(lp2351
S':'
asbag61
(g82
g63
NtRp2352
(dp2353
g66
(dp2354
sg75
g2340
sg68
(lp2355
g61
(g62
g63
NtRp2356
(dp2357
g66
(dp2358
g74
I4
ssg75
g2352
sg68
(lp2359
g1726
asbasbasbag61
(g77
g63
NtRp2360
(dp2361
g66
(dp2362
sg75
g2149
sg68
(lp2363
g61
(g82
g63
NtRp2364
(dp2365
g66
(dp2366
g86
g87
ssg75
g2360
sg68
(lp2367
g1756
asbag61
(g82
g63
NtRp2368
(dp2369
g66
(dp2370
g93
g94
ssg75
g2360
sg68
(lp2371
S':'
asbag61
(g82
g63
NtRp2372
(dp2373
g66
(dp2374
sg75
g2360
sg68
(lp2375
g61
(g62
g63
NtRp2376
(dp2377
g66
(dp2378
g74
I4
ssg75
g2372
sg68
(lp2379
g61
(g70
g63
NtRp2380
(dp2381
g66
(dp2382
g74
I3
ssg75
Nsg68
(lp2383
g61
(g77
g63
NtRp2384
(dp2385
g66
(dp2386
sg75
g2380
sg68
(lp2387
g61
(g82
g63
NtRp2388
(dp2389
g66
(dp2390
sg75
g2384
sg68
(lp2391
g61
(g62
g63
NtRp2392
(dp2393
g66
(dp2394
g74
I3
ssg75
g2388
sg68
(lp2395
S'1'
asbasbasbag61
(g77
g63
NtRp2396
(dp2397
g66
(dp2398
sg75
g2380
sg68
(lp2399
g61
(g82
g63
NtRp2400
(dp2401
g66
(dp2402
sg75
g2396
sg68
(lp2403
g61
(g62
g63
NtRp2404
(dp2405
g66
(dp2406
g74
I3
ssg75
g2400
sg68
(lp2407
S'99'
p2408
asbasbasbag61
(g77
g63
NtRp2409
(dp2410
g66
(dp2411
sg75
g2380
sg68
(lp2412
g61
(g82
g63
NtRp2413
(dp2414
g66
(dp2415
sg75
g2409
sg68
(lp2416
g61
(g62
g63
NtRp2417
(dp2418
g66
(dp2419
g74
I3
ssg75
g2413
sg68
(lp2420
S'4'
asbasbasbag61
(g77
g63
NtRp2421
(dp2422
g66
(dp2423
sg75
g2380
sg68
(lp2424
g61
(g82
g63
NtRp2425
(dp2426
g66
(dp2427
sg75
g2421
sg68
(lp2428
g61
(g62
g63
NtRp2429
(dp2430
g66
(dp2431
g74
I3
ssg75
g2425
sg68
(lp2432
S'datetime.datetime(2011, 12, 14, 14, 46, 14)'
p2433
asbasbasbag61
(g77
g63
NtRp2434
(dp2435
g66
(dp2436
sg75
g2380
sg68
(lp2437
g61
(g82
g63
NtRp2438
(dp2439
g66
(dp2440
sg75
g2434
sg68
(lp2441
g61
(g62
g63
NtRp2442
(dp2443
g66
(dp2444
g74
I3
ssg75
g2438
sg68
(lp2445
g1835
asbasbasbasbasbasbasbasbasbasbasbag61
(g77
g63
NtRp2446
(dp2447
g66
(dp2448
sg75
g71
sg68
(lp2449
g61
(g82
g63
NtRp2450
(dp2451
g66
(dp2452
g86
g87
ssg75
g2446
sg68
(lp2453
S'is_https'
p2454
asbag61
(g82
g63
NtRp2455
(dp2456
g66
(dp2457
g93
g94
ssg75
g2446
sg68
(lp2458
S':'
asbag61
(g82
g63
NtRp2459
(dp2460
g66
(dp2461
sg75
g2446
sg68
(lp2462
g61
(g62
g63
NtRp2463
(dp2464
g66
(dp2465
g74
I5
ssg75
g2459
sg68
(lp2466
g104
asbasbasbag61
(g77
g63
NtRp2467
(dp2468
g66
(dp2469
sg75
g71
sg68
(lp2470
g61
(g82
g63
NtRp2471
(dp2472
g66
(dp2473
g86
g87
ssg75
g2467
sg68
(lp2474
S'is_local'
p2475
asbag61
(g82
g63
NtRp2476
(dp2477
g66
(dp2478
g93
g94
ssg75
g2467
sg68
(lp2479
S':'
asbag61
(g82
g63
NtRp2480
(dp2481
g66
(dp2482
sg75
g2467
sg68
(lp2483
g61
(g62
g63
NtRp2484
(dp2485
g66
(dp2486
g74
I5
ssg75
g2480
sg68
(lp2487
g1944
asbasbasbag61
(g77
g63
NtRp2488
(dp2489
g66
(dp2490
sg75
g71
sg68
(lp2491
g61
(g82
g63
NtRp2492
(dp2493
g66
(dp2494
g86
g87
ssg75
g2488
sg68
(lp2495
S'is_restful'
p2496
asbag61
(g82
g63
NtRp2497
(dp2498
g66
(dp2499
g93
g94
ssg75
g2488
sg68
(lp2500
S':'
asbag61
(g82
g63
NtRp2501
(dp2502
g66
(dp2503
sg75
g2488
sg68
(lp2504
g61
(g62
g63
NtRp2505
(dp2506
g66
(dp2507
g74
I5
ssg75
g2501
sg68
(lp2508
g104
asbasbasbag61
(g77
g63
NtRp2509
(dp2510
g66
(dp2511
sg75
g71
sg68
(lp2512
g61
(g82
g63
NtRp2513
(dp2514
g66
(dp2515
g86
g87
ssg75
g2509
sg68
(lp2516
S'now'
p2517
asbag61
(g82
g63
NtRp2518
(dp2519
g66
(dp2520
g93
g94
ssg75
g2509
sg68
(lp2521
S':'
asbag61
(g82
g63
NtRp2522
(dp2523
g66
(dp2524
sg75
g2509
sg68
(lp2525
g61
(g62
g63
NtRp2526
(dp2527
g66
(dp2528
g74
I5
ssg75
g2522
sg68
(lp2529
S'datetime.datetime(2012, 11, 14, 19, 52, 4, 990191)'
p2530
asbasbasbag61
(g77
g63
NtRp2531
(dp2532
g66
(dp2533
sg75
g71
sg68
(lp2534
g61
(g82
g63
NtRp2535
(dp2536
g66
(dp2537
g86
g87
ssg75
g2531
sg68
(lp2538
S'post_vars'
p2539
asbag61
(g82
g63
NtRp2540
(dp2541
g66
(dp2542
g93
g94
ssg75
g2531
sg68
(lp2543
S':'
asbag61
(g82
g63
NtRp2544
(dp2545
g66
(dp2546
sg75
g2531
sg68
(lp2547
g61
(g62
g63
NtRp2548
(dp2549
g66
(dp2550
g74
I5
ssg75
g2544
sg68
(lp2551
g61
(g70
g63
NtRp2552
(dp2553
g66
(dp2554
g74
I4
ssg75
Nsg68
(lp2555
g61
(g77
g63
NtRp2556
(dp2557
g66
(dp2558
sg75
g2552
sg68
(lp2559
g61
(g82
g63
NtRp2560
(dp2561
g66
(dp2562
g86
g87
ssg75
g2556
sg68
(lp2563
S'Copies'
p2564
asbag61
(g82
g63
NtRp2565
(dp2566
g66
(dp2567
g93
g94
ssg75
g2556
sg68
(lp2568
S':'
asbag61
(g82
g63
NtRp2569
(dp2570
g66
(dp2571
sg75
g2556
sg68
(lp2572
g61
(g62
g63
NtRp2573
(dp2574
g66
(dp2575
g74
I4
ssg75
g2569
sg68
(lp2576
S'0'
asbasbasbag61
(g77
g63
NtRp2577
(dp2578
g66
(dp2579
sg75
g2552
sg68
(lp2580
g61
(g82
g63
NtRp2581
(dp2582
g66
(dp2583
g86
g87
ssg75
g2577
sg68
(lp2584
S'Cost'
p2585
asbag61
(g82
g63
NtRp2586
(dp2587
g66
(dp2588
g93
g94
ssg75
g2577
sg68
(lp2589
S':'
asbag61
(g82
g63
NtRp2590
(dp2591
g66
(dp2592
sg75
g2577
sg68
(lp2593
g61
(g62
g63
NtRp2594
(dp2595
g66
(dp2596
g74
I4
ssg75
g2590
sg68
(lp2597
S'500'
p2598
asbasbasbag61
(g77
g63
NtRp2599
(dp2600
g66
(dp2601
sg75
g2552
sg68
(lp2602
g61
(g82
g63
NtRp2603
(dp2604
g66
(dp2605
g86
g87
ssg75
g2599
sg68
(lp2606
S'Language'
p2607
asbag61
(g82
g63
NtRp2608
(dp2609
g66
(dp2610
g93
g94
ssg75
g2599
sg68
(lp2611
S':'
asbag61
(g82
g63
NtRp2612
(dp2613
g66
(dp2614
sg75
g2599
sg68
(lp2615
g61
(g62
g63
NtRp2616
(dp2617
g66
(dp2618
g74
I4
ssg75
g2612
sg68
(lp2619
S'english'
p2620
asbasbasbag61
(g77
g63
NtRp2621
(dp2622
g66
(dp2623
sg75
g2552
sg68
(lp2624
g61
(g82
g63
NtRp2625
(dp2626
g66
(dp2627
g86
g87
ssg75
g2621
sg68
(lp2628
S'Name'
p2629
asbag61
(g82
g63
NtRp2630
(dp2631
g66
(dp2632
g93
g94
ssg75
g2621
sg68
(lp2633
S':'
asbag61
(g82
g63
NtRp2634
(dp2635
g66
(dp2636
sg75
g2621
sg68
(lp2637
g61
(g62
g63
NtRp2638
(dp2639
g66
(dp2640
g74
I4
ssg75
g2634
sg68
(lp2641
S'HarryPotter'
p2642
asbasbasbag61
(g77
g63
NtRp2643
(dp2644
g66
(dp2645
sg75
g2552
sg68
(lp2646
g61
(g82
g63
NtRp2647
(dp2648
g66
(dp2649
g86
g87
ssg75
g2643
sg68
(lp2650
S'Type'
p2651
asbag61
(g82
g63
NtRp2652
(dp2653
g66
(dp2654
g93
g94
ssg75
g2643
sg68
(lp2655
S':'
asbag61
(g82
g63
NtRp2656
(dp2657
g66
(dp2658
sg75
g2643
sg68
(lp2659
g61
(g62
g63
NtRp2660
(dp2661
g66
(dp2662
g74
I4
ssg75
g2656
sg68
(lp2663
S'1'
asbasbasbasbasbasbasbag61
(g77
g63
NtRp2664
(dp2665
g66
(dp2666
sg75
g71
sg68
(lp2667
g61
(g82
g63
NtRp2668
(dp2669
g66
(dp2670
g86
g87
ssg75
g2664
sg68
(lp2671
S'raw_args'
p2672
asbag61
(g82
g63
NtRp2673
(dp2674
g66
(dp2675
g93
g94
ssg75
g2664
sg68
(lp2676
S':'
asbag61
(g82
g63
NtRp2677
(dp2678
g66
(dp2679
sg75
g2664
sg68
(lp2680
g61
(g62
g63
NtRp2681
(dp2682
g66
(dp2683
g74
I5
ssg75
g2677
sg68
(lp2684
g163
asbasbasbag61
(g77
g63
NtRp2685
(dp2686
g66
(dp2687
sg75
g71
sg68
(lp2688
g61
(g82
g63
NtRp2689
(dp2690
g66
(dp2691
g86
g87
ssg75
g2685
sg68
(lp2692
S'url'
p2693
asbag61
(g82
g63
NtRp2694
(dp2695
g66
(dp2696
g93
g94
ssg75
g2685
sg68
(lp2697
S':'
asbag61
(g82
g63
NtRp2698
(dp2699
g66
(dp2700
sg75
g2685
sg68
(lp2701
g61
(g62
g63
NtRp2702
(dp2703
g66
(dp2704
g74
I5
ssg75
g2698
sg68
(lp2705
S'/manager/default/nedit/842'
p2706
asbasbasbag61
(g77
g63
NtRp2707
(dp2708
g66
(dp2709
sg75
g71
sg68
(lp2710
g61
(g82
g63
NtRp2711
(dp2712
g66
(dp2713
g86
g87
ssg75
g2707
sg68
(lp2714
S'utcnow'
p2715
asbag61
(g82
g63
NtRp2716
(dp2717
g66
(dp2718
g93
g94
ssg75
g2707
sg68
(lp2719
S':'
asbag61
(g82
g63
NtRp2720
(dp2721
g66
(dp2722
sg75
g2707
sg68
(lp2723
g61
(g62
g63
NtRp2724
(dp2725
g66
(dp2726
g74
I5
ssg75
g2720
sg68
(lp2727
S'datetime.datetime(2012, 11, 14, 14, 22, 4, 990259)'
p2728
asbasbasbag61
(g77
g63
NtRp2729
(dp2730
g66
(dp2731
sg75
g71
sg68
(lp2732
g61
(g82
g63
NtRp2733
(dp2734
g66
(dp2735
g86
g87
ssg75
g2729
sg68
(lp2736
S'uuid'
p2737
asbag61
(g82
g63
NtRp2738
(dp2739
g66
(dp2740
g93
g94
ssg75
g2729
sg68
(lp2741
S':'
asbag61
(g82
g63
NtRp2742
(dp2743
g66
(dp2744
sg75
g2729
sg68
(lp2745
g61
(g62
g63
NtRp2746
(dp2747
g66
(dp2748
g74
I5
ssg75
g2742
sg68
(lp2749
S'manager/127.0.0.1.2012-11-14.19-52-04.21574c1e-a75c-456c-be6b-67e965d25929'
p2750
asbasbasbag61
(g77
g63
NtRp2751
(dp2752
g66
(dp2753
sg75
g71
sg68
(lp2754
g61
(g82
g63
NtRp2755
(dp2756
g66
(dp2757
g86
g87
ssg75
g2751
sg68
(lp2758
S'vars'
p2759
asbag61
(g82
g63
NtRp2760
(dp2761
g66
(dp2762
g93
g94
ssg75
g2751
sg68
(lp2763
S':'
asbag61
(g82
g63
NtRp2764
(dp2765
g66
(dp2766
sg75
g2751
sg68
(lp2767
g61
(g62
g63
NtRp2768
(dp2769
g66
(dp2770
g74
I5
ssg75
g2764
sg68
(lp2771
g61
(g70
g63
NtRp2772
(dp2773
g66
(dp2774
g74
I4
ssg75
Nsg68
(lp2775
g61
(g77
g63
NtRp2776
(dp2777
g66
(dp2778
sg75
g2772
sg68
(lp2779
g61
(g82
g63
NtRp2780
(dp2781
g66
(dp2782
g86
g87
ssg75
g2776
sg68
(lp2783
g2564
asbag61
(g82
g63
NtRp2784
(dp2785
g66
(dp2786
g93
g94
ssg75
g2776
sg68
(lp2787
S':'
asbag61
(g82
g63
NtRp2788
(dp2789
g66
(dp2790
sg75
g2776
sg68
(lp2791
g61
(g62
g63
NtRp2792
(dp2793
g66
(dp2794
g74
I4
ssg75
g2788
sg68
(lp2795
S'0'
asbasbasbag61
(g77
g63
NtRp2796
(dp2797
g66
(dp2798
sg75
g2772
sg68
(lp2799
g61
(g82
g63
NtRp2800
(dp2801
g66
(dp2802
g86
g87
ssg75
g2796
sg68
(lp2803
g2585
asbag61
(g82
g63
NtRp2804
(dp2805
g66
(dp2806
g93
g94
ssg75
g2796
sg68
(lp2807
S':'
asbag61
(g82
g63
NtRp2808
(dp2809
g66
(dp2810
sg75
g2796
sg68
(lp2811
g61
(g62
g63
NtRp2812
(dp2813
g66
(dp2814
g74
I4
ssg75
g2808
sg68
(lp2815
g2598
asbasbasbag61
(g77
g63
NtRp2816
(dp2817
g66
(dp2818
sg75
g2772
sg68
(lp2819
g61
(g82
g63
NtRp2820
(dp2821
g66
(dp2822
g86
g87
ssg75
g2816
sg68
(lp2823
g2607
asbag61
(g82
g63
NtRp2824
(dp2825
g66
(dp2826
g93
g94
ssg75
g2816
sg68
(lp2827
S':'
asbag61
(g82
g63
NtRp2828
(dp2829
g66
(dp2830
sg75
g2816
sg68
(lp2831
g61
(g62
g63
NtRp2832
(dp2833
g66
(dp2834
g74
I4
ssg75
g2828
sg68
(lp2835
g2620
asbasbasbag61
(g77
g63
NtRp2836
(dp2837
g66
(dp2838
sg75
g2772
sg68
(lp2839
g61
(g82
g63
NtRp2840
(dp2841
g66
(dp2842
g86
g87
ssg75
g2836
sg68
(lp2843
g2629
asbag61
(g82
g63
NtRp2844
(dp2845
g66
(dp2846
g93
g94
ssg75
g2836
sg68
(lp2847
S':'
asbag61
(g82
g63
NtRp2848
(dp2849
g66
(dp2850
sg75
g2836
sg68
(lp2851
g61
(g62
g63
NtRp2852
(dp2853
g66
(dp2854
g74
I4
ssg75
g2848
sg68
(lp2855
g2642
asbasbasbag61
(g77
g63
NtRp2856
(dp2857
g66
(dp2858
sg75
g2772
sg68
(lp2859
g61
(g82
g63
NtRp2860
(dp2861
g66
(dp2862
g86
g87
ssg75
g2856
sg68
(lp2863
g2651
asbag61
(g82
g63
NtRp2864
(dp2865
g66
(dp2866
g93
g94
ssg75
g2856
sg68
(lp2867
S':'
asbag61
(g82
g63
NtRp2868
(dp2869
g66
(dp2870
sg75
g2856
sg68
(lp2871
g61
(g62
g63
NtRp2872
(dp2873
g66
(dp2874
g74
I4
ssg75
g2868
sg68
(lp2875
S'1'
asbasbasbasbasbasbasbag61
(g77
g63
NtRp2876
(dp2877
g66
(dp2878
sg75
g71
sg68
(lp2879
g61
(g82
g63
NtRp2880
(dp2881
g66
(dp2882
g86
g87
ssg75
g2876
sg68
(lp2883
S'wsgi'
p2884
asbag61
(g82
g63
NtRp2885
(dp2886
g66
(dp2887
g93
g94
ssg75
g2876
sg68
(lp2888
S':'
asbag61
(g82
g63
NtRp2889
(dp2890
g66
(dp2891
sg75
g2876
sg68
(lp2892
g61
(g62
g63
NtRp2893
(dp2894
g66
(dp2895
g74
I5
ssg75
g2889
sg68
(lp2896
g61
(g70
g63
NtRp2897
(dp2898
g66
(dp2899
g74
I4
ssg75
Nsg68
(lp2900
g61
(g77
g63
NtRp2901
(dp2902
g66
(dp2903
sg75
g2897
sg68
(lp2904
g61
(g82
g63
NtRp2905
(dp2906
g66
(dp2907
g86
g87
ssg75
g2901
sg68
(lp2908
S'environ'
p2909
asbag61
(g82
g63
NtRp2910
(dp2911
g66
(dp2912
g93
g94
ssg75
g2901
sg68
(lp2913
S':'
asbag61
(g82
g63
NtRp2914
(dp2915
g66
(dp2916
sg75
g2901
sg68
(lp2917
g61
(g62
g63
NtRp2918
(dp2919
g66
(dp2920
g74
I4
ssg75
g2914
sg68
(lp2921
g61
(g70
g63
NtRp2922
(dp2923
g66
(dp2924
g74
I3
ssg75
Nsg68
(lp2925
g61
(g77
g63
NtRp2926
(dp2927
g66
(dp2928
sg75
g2922
sg68
(lp2929
g61
(g82
g63
NtRp2930
(dp2931
g66
(dp2932
g86
g87
ssg75
g2926
sg68
(lp2933
S'CONTENT_LENGTH'
p2934
asbag61
(g82
g63
NtRp2935
(dp2936
g66
(dp2937
g93
g94
ssg75
g2926
sg68
(lp2938
S':'
asbag61
(g82
g63
NtRp2939
(dp2940
g66
(dp2941
sg75
g2926
sg68
(lp2942
g61
(g62
g63
NtRp2943
(dp2944
g66
(dp2945
g74
I3
ssg75
g2939
sg68
(lp2946
g1140
asbasbasbag61
(g77
g63
NtRp2947
(dp2948
g66
(dp2949
sg75
g2922
sg68
(lp2950
g61
(g82
g63
NtRp2951
(dp2952
g66
(dp2953
g86
g87
ssg75
g2947
sg68
(lp2954
S'CONTENT_TYPE'
p2955
asbag61
(g82
g63
NtRp2956
(dp2957
g66
(dp2958
g93
g94
ssg75
g2947
sg68
(lp2959
S':'
asbag61
(g82
g63
NtRp2960
(dp2961
g66
(dp2962
sg75
g2947
sg68
(lp2963
g61
(g62
g63
NtRp2964
(dp2965
g66
(dp2966
g74
I3
ssg75
g2960
sg68
(lp2967
g1162
asbasbasbag61
(g77
g63
NtRp2968
(dp2969
g66
(dp2970
sg75
g2922
sg68
(lp2971
g61
(g82
g63
NtRp2972
(dp2973
g66
(dp2974
g86
g87
ssg75
g2968
sg68
(lp2975
S'HTTP_ACCEPT'
p2976
asbag61
(g82
g63
NtRp2977
(dp2978
g66
(dp2979
g93
g94
ssg75
g2968
sg68
(lp2980
S':'
asbag61
(g82
g63
NtRp2981
(dp2982
g66
(dp2983
sg75
g2968
sg68
(lp2984
g61
(g62
g63
NtRp2985
(dp2986
g66
(dp2987
g74
I3
ssg75
g2981
sg68
(lp2988
g1249
asbasbasbag61
(g77
g63
NtRp2989
(dp2990
g66
(dp2991
sg75
g2922
sg68
(lp2992
g61
(g82
g63
NtRp2993
(dp2994
g66
(dp2995
g86
g87
ssg75
g2989
sg68
(lp2996
S'HTTP_ACCEPT_ENCODING'
p2997
asbag61
(g82
g63
NtRp2998
(dp2999
g66
(dp3000
g93
g94
ssg75
g2989
sg68
(lp3001
S':'
asbag61
(g82
g63
NtRp3002
(dp3003
g66
(dp3004
sg75
g2989
sg68
(lp3005
g61
(g62
g63
NtRp3006
(dp3007
g66
(dp3008
g74
I3
ssg75
g3002
sg68
(lp3009
g1271
asbasbasbag61
(g77
g63
NtRp3010
(dp3011
g66
(dp3012
sg75
g2922
sg68
(lp3013
g61
(g82
g63
NtRp3014
(dp3015
g66
(dp3016
g86
g87
ssg75
g3010
sg68
(lp3017
S'HTTP_ACCEPT_LANGUAGE'
p3018
asbag61
(g82
g63
NtRp3019
(dp3020
g66
(dp3021
g93
g94
ssg75
g3010
sg68
(lp3022
S':'
asbag61
(g82
g63
NtRp3023
(dp3024
g66
(dp3025
sg75
g3010
sg68
(lp3026
g61
(g62
g63
NtRp3027
(dp3028
g66
(dp3029
g74
I3
ssg75
g3023
sg68
(lp3030
g1293
asbasbasbag61
(g77
g63
NtRp3031
(dp3032
g66
(dp3033
sg75
g2922
sg68
(lp3034
g61
(g82
g63
NtRp3035
(dp3036
g66
(dp3037
g86
g87
ssg75
g3031
sg68
(lp3038
S'HTTP_CONNECTION'
p3039
asbag61
(g82
g63
NtRp3040
(dp3041
g66
(dp3042
g93
g94
ssg75
g3031
sg68
(lp3043
S':'
asbag61
(g82
g63
NtRp3044
(dp3045
g66
(dp3046
sg75
g3031
sg68
(lp3047
g61
(g62
g63
NtRp3048
(dp3049
g66
(dp3050
g74
I3
ssg75
g3044
sg68
(lp3051
g1315
asbasbasbag61
(g77
g63
NtRp3052
(dp3053
g66
(dp3054
sg75
g2922
sg68
(lp3055
g61
(g82
g63
NtRp3056
(dp3057
g66
(dp3058
g86
g87
ssg75
g3052
sg68
(lp3059
S'HTTP_CONTENT_LENGTH'
p3060
asbag61
(g82
g63
NtRp3061
(dp3062
g66
(dp3063
g93
g94
ssg75
g3052
sg68
(lp3064
S':'
asbag61
(g82
g63
NtRp3065
(dp3066
g66
(dp3067
sg75
g3052
sg68
(lp3068
g61
(g62
g63
NtRp3069
(dp3070
g66
(dp3071
g74
I3
ssg75
g3065
sg68
(lp3072
g1140
asbasbasbag61
(g77
g63
NtRp3073
(dp3074
g66
(dp3075
sg75
g2922
sg68
(lp3076
g61
(g82
g63
NtRp3077
(dp3078
g66
(dp3079
g86
g87
ssg75
g3073
sg68
(lp3080
S'HTTP_CONTENT_TYPE'
p3081
asbag61
(g82
g63
NtRp3082
(dp3083
g66
(dp3084
g93
g94
ssg75
g3073
sg68
(lp3085
S':'
asbag61
(g82
g63
NtRp3086
(dp3087
g66
(dp3088
sg75
g3073
sg68
(lp3089
g61
(g62
g63
NtRp3090
(dp3091
g66
(dp3092
g74
I3
ssg75
g3086
sg68
(lp3093
g1162
asbasbasbag61
(g77
g63
NtRp3094
(dp3095
g66
(dp3096
sg75
g2922
sg68
(lp3097
g61
(g82
g63
NtRp3098
(dp3099
g66
(dp3100
g86
g87
ssg75
g3094
sg68
(lp3101
S'HTTP_COOKIE'
p3102
asbag61
(g82
g63
NtRp3103
(dp3104
g66
(dp3105
g93
g94
ssg75
g3094
sg68
(lp3106
S':'
asbag61
(g82
g63
NtRp3107
(dp3108
g66
(dp3109
sg75
g3094
sg68
(lp3110
g61
(g62
g63
NtRp3111
(dp3112
g66
(dp3113
g74
I3
ssg75
g3107
sg68
(lp3114
g1379
asbasbasbag61
(g77
g63
NtRp3115
(dp3116
g66
(dp3117
sg75
g2922
sg68
(lp3118
g61
(g82
g63
NtRp3119
(dp3120
g66
(dp3121
g86
g87
ssg75
g3115
sg68
(lp3122
S'HTTP_HOST'
p3123
asbag61
(g82
g63
NtRp3124
(dp3125
g66
(dp3126
g93
g94
ssg75
g3115
sg68
(lp3127
S':'
asbag61
(g82
g63
NtRp3128
(dp3129
g66
(dp3130
sg75
g3115
sg68
(lp3131
g61
(g62
g63
NtRp3132
(dp3133
g66
(dp3134
g74
I3
ssg75
g3128
sg68
(lp3135
g1401
asbasbasbag61
(g77
g63
NtRp3136
(dp3137
g66
(dp3138
sg75
g2922
sg68
(lp3139
g61
(g82
g63
NtRp3140
(dp3141
g66
(dp3142
g86
g87
ssg75
g3136
sg68
(lp3143
S'HTTP_REFERER'
p3144
asbag61
(g82
g63
NtRp3145
(dp3146
g66
(dp3147
g93
g94
ssg75
g3136
sg68
(lp3148
S':'
asbag61
(g82
g63
NtRp3149
(dp3150
g66
(dp3151
sg75
g3136
sg68
(lp3152
g61
(g62
g63
NtRp3153
(dp3154
g66
(dp3155
g74
I3
ssg75
g3149
sg68
(lp3156
g1423
asbasbasbag61
(g77
g63
NtRp3157
(dp3158
g66
(dp3159
sg75
g2922
sg68
(lp3160
g61
(g82
g63
NtRp3161
(dp3162
g66
(dp3163
g86
g87
ssg75
g3157
sg68
(lp3164
S'HTTP_USER_AGENT'
p3165
asbag61
(g82
g63
NtRp3166
(dp3167
g66
(dp3168
g93
g94
ssg75
g3157
sg68
(lp3169
S':'
asbag61
(g82
g63
NtRp3170
(dp3171
g66
(dp3172
sg75
g3157
sg68
(lp3173
g61
(g62
g63
NtRp3174
(dp3175
g66
(dp3176
g74
I3
ssg75
g3170
sg68
(lp3177
g1445
asbasbasbag61
(g77
g63
NtRp3178
(dp3179
g66
(dp3180
sg75
g2922
sg68
(lp3181
g61
(g82
g63
NtRp3182
(dp3183
g66
(dp3184
g86
g87
ssg75
g3178
sg68
(lp3185
S'PATH_INFO'
p3186
asbag61
(g82
g63
NtRp3187
(dp3188
g66
(dp3189
g93
g94
ssg75
g3178
sg68
(lp3190
S':'
asbag61
(g82
g63
NtRp3191
(dp3192
g66
(dp3193
sg75
g3178
sg68
(lp3194
g61
(g62
g63
NtRp3195
(dp3196
g66
(dp3197
g74
I3
ssg75
g3191
sg68
(lp3198
g1509
asbasbasbag61
(g77
g63
NtRp3199
(dp3200
g66
(dp3201
sg75
g2922
sg68
(lp3202
g61
(g82
g63
NtRp3203
(dp3204
g66
(dp3205
g86
g87
ssg75
g3199
sg68
(lp3206
S'QUERY_STRING'
p3207
asbag61
(g82
g63
NtRp3208
(dp3209
g66
(dp3210
g93
g94
ssg75
g3199
sg68
(lp3211
S':'
asbag61
(g82
g63
NtRp3212
(dp3213
g66
(dp3214
sg75
g3199
sg68
(lp3215
g61
(g62
g63
NtRp3216
(dp3217
g66
(dp3218
g74
I3
ssg75
g3212
sg68
(lp3219
S''
asbasbasbag61
(g77
g63
NtRp3220
(dp3221
g66
(dp3222
sg75
g2922
sg68
(lp3223
g61
(g82
g63
NtRp3224
(dp3225
g66
(dp3226
g86
g87
ssg75
g3220
sg68
(lp3227
S'REMOTE_ADDR'
p3228
asbag61
(g82
g63
NtRp3229
(dp3230
g66
(dp3231
g93
g94
ssg75
g3220
sg68
(lp3232
S':'
asbag61
(g82
g63
NtRp3233
(dp3234
g66
(dp3235
sg75
g3220
sg68
(lp3236
g61
(g62
g63
NtRp3237
(dp3238
g66
(dp3239
g74
I3
ssg75
g3233
sg68
(lp3240
g207
asbasbasbag61
(g77
g63
NtRp3241
(dp3242
g66
(dp3243
sg75
g2922
sg68
(lp3244
g61
(g82
g63
NtRp3245
(dp3246
g66
(dp3247
g86
g87
ssg75
g3241
sg68
(lp3248
S'REMOTE_PORT'
p3249
asbag61
(g82
g63
NtRp3250
(dp3251
g66
(dp3252
g93
g94
ssg75
g3241
sg68
(lp3253
S':'
asbag61
(g82
g63
NtRp3254
(dp3255
g66
(dp3256
sg75
g3241
sg68
(lp3257
g61
(g62
g63
NtRp3258
(dp3259
g66
(dp3260
g74
I3
ssg75
g3254
sg68
(lp3261
g1573
asbasbasbag61
(g77
g63
NtRp3262
(dp3263
g66
(dp3264
sg75
g2922
sg68
(lp3265
g61
(g82
g63
NtRp3266
(dp3267
g66
(dp3268
g86
g87
ssg75
g3262
sg68
(lp3269
S'REQUEST_METHOD'
p3270
asbag61
(g82
g63
NtRp3271
(dp3272
g66
(dp3273
g93
g94
ssg75
g3262
sg68
(lp3274
S':'
asbag61
(g82
g63
NtRp3275
(dp3276
g66
(dp3277
sg75
g3262
sg68
(lp3278
g61
(g62
g63
NtRp3279
(dp3280
g66
(dp3281
g74
I3
ssg75
g3275
sg68
(lp3282
g1595
asbasbasbag61
(g77
g63
NtRp3283
(dp3284
g66
(dp3285
sg75
g2922
sg68
(lp3286
g61
(g82
g63
NtRp3287
(dp3288
g66
(dp3289
g86
g87
ssg75
g3283
sg68
(lp3290
S'SCRIPT_NAME'
p3291
asbag61
(g82
g63
NtRp3292
(dp3293
g66
(dp3294
g93
g94
ssg75
g3283
sg68
(lp3295
S':'
asbag61
(g82
g63
NtRp3296
(dp3297
g66
(dp3298
sg75
g3283
sg68
(lp3299
g61
(g62
g63
NtRp3300
(dp3301
g66
(dp3302
g74
I3
ssg75
g3296
sg68
(lp3303
S''
asbasbasbag61
(g77
g63
NtRp3304
(dp3305
g66
(dp3306
sg75
g2922
sg68
(lp3307
g61
(g82
g63
NtRp3308
(dp3309
g66
(dp3310
g86
g87
ssg75
g3304
sg68
(lp3311
S'SERVER_NAME'
p3312
asbag61
(g82
g63
NtRp3313
(dp3314
g66
(dp3315
g93
g94
ssg75
g3304
sg68
(lp3316
S':'
asbag61
(g82
g63
NtRp3317
(dp3318
g66
(dp3319
sg75
g3304
sg68
(lp3320
g61
(g62
g63
NtRp3321
(dp3322
g66
(dp3323
g74
I3
ssg75
g3317
sg68
(lp3324
g1638
asbasbasbag61
(g77
g63
NtRp3325
(dp3326
g66
(dp3327
sg75
g2922
sg68
(lp3328
g61
(g82
g63
NtRp3329
(dp3330
g66
(dp3331
g86
g87
ssg75
g3325
sg68
(lp3332
S'SERVER_PORT'
p3333
asbag61
(g82
g63
NtRp3334
(dp3335
g66
(dp3336
g93
g94
ssg75
g3325
sg68
(lp3337
S':'
asbag61
(g82
g63
NtRp3338
(dp3339
g66
(dp3340
sg75
g3325
sg68
(lp3341
g61
(g62
g63
NtRp3342
(dp3343
g66
(dp3344
g74
I3
ssg75
g3338
sg68
(lp3345
g1660
asbasbasbag61
(g77
g63
NtRp3346
(dp3347
g66
(dp3348
sg75
g2922
sg68
(lp3349
g61
(g82
g63
NtRp3350
(dp3351
g66
(dp3352
g86
g87
ssg75
g3346
sg68
(lp3353
S'SERVER_PROTOCOL'
p3354
asbag61
(g82
g63
NtRp3355
(dp3356
g66
(dp3357
g93
g94
ssg75
g3346
sg68
(lp3358
S':'
asbag61
(g82
g63
NtRp3359
(dp3360
g66
(dp3361
sg75
g3346
sg68
(lp3362
g61
(g62
g63
NtRp3363
(dp3364
g66
(dp3365
g74
I3
ssg75
g3359
sg68
(lp3366
g1682
asbasbasbag61
(g77
g63
NtRp3367
(dp3368
g66
(dp3369
sg75
g2922
sg68
(lp3370
g61
(g82
g63
NtRp3371
(dp3372
g66
(dp3373
g86
g87
ssg75
g3367
sg68
(lp3374
S'SERVER_SOFTWARE'
p3375
asbag61
(g82
g63
NtRp3376
(dp3377
g66
(dp3378
g93
g94
ssg75
g3367
sg68
(lp3379
S':'
asbag61
(g82
g63
NtRp3380
(dp3381
g66
(dp3382
sg75
g3367
sg68
(lp3383
g61
(g62
g63
NtRp3384
(dp3385
g66
(dp3386
g74
I3
ssg75
g3380
sg68
(lp3387
g1704
asbasbasbag61
(g77
g63
NtRp3388
(dp3389
g66
(dp3390
sg75
g2922
sg68
(lp3391
g61
(g82
g63
NtRp3392
(dp3393
g66
(dp3394
g86
g87
ssg75
g3388
sg68
(lp3395
S'wsgi.errors'
p3396
asbag61
(g82
g63
NtRp3397
(dp3398
g66
(dp3399
g93
g94
ssg75
g3388
sg68
(lp3400
S':'
asbag61
(g82
g63
NtRp3401
(dp3402
g66
(dp3403
sg75
g3388
sg68
(lp3404
g61
(g62
g63
NtRp3405
(dp3406
g66
(dp3407
g74
I3
ssg75
g3401
sg68
(lp3408
S"<open file '<stderr>', mode 'w' at 0xb73370d0>"
p3409
asbasbasbag61
(g77
g63
NtRp3410
(dp3411
g66
(dp3412
sg75
g2922
sg68
(lp3413
g61
(g82
g63
NtRp3414
(dp3415
g66
(dp3416
g86
g87
ssg75
g3410
sg68
(lp3417
S'wsgi.file_wrapper'
p3418
asbag61
(g82
g63
NtRp3419
(dp3420
g66
(dp3421
g93
g94
ssg75
g3410
sg68
(lp3422
S':'
asbag61
(g82
g63
NtRp3423
(dp3424
g66
(dp3425
sg75
g3410
sg68
(lp3426
g61
(g62
g63
NtRp3427
(dp3428
g66
(dp3429
g74
I3
ssg75
g3423
sg68
(lp3430
S'<class wsgiref.util.FileWrapper at 0x94fd4ac>'
p3431
asbasbasbag61
(g77
g63
NtRp3432
(dp3433
g66
(dp3434
sg75
g2922
sg68
(lp3435
g61
(g82
g63
NtRp3436
(dp3437
g66
(dp3438
g86
g87
ssg75
g3432
sg68
(lp3439
S'wsgi.input'
p3440
asbag61
(g82
g63
NtRp3441
(dp3442
g66
(dp3443
g93
g94
ssg75
g3432
sg68
(lp3444
S':'
asbag61
(g82
g63
NtRp3445
(dp3446
g66
(dp3447
sg75
g3432
sg68
(lp3448
g61
(g62
g63
NtRp3449
(dp3450
g66
(dp3451
g74
I3
ssg75
g3445
sg68
(lp3452
S"<open file '<fdopen>', mode 'w+b' at 0xb4ae9338>"
p3453
asbasbasbag61
(g77
g63
NtRp3454
(dp3455
g66
(dp3456
sg75
g2922
sg68
(lp3457
g61
(g82
g63
NtRp3458
(dp3459
g66
(dp3460
g86
g87
ssg75
g3454
sg68
(lp3461
S'wsgi.multiprocess'
p3462
asbag61
(g82
g63
NtRp3463
(dp3464
g66
(dp3465
g93
g94
ssg75
g3454
sg68
(lp3466
S':'
asbag61
(g82
g63
NtRp3467
(dp3468
g66
(dp3469
sg75
g3454
sg68
(lp3470
g61
(g62
g63
NtRp3471
(dp3472
g66
(dp3473
g74
I3
ssg75
g3467
sg68
(lp3474
g104
asbasbasbag61
(g77
g63
NtRp3475
(dp3476
g66
(dp3477
sg75
g2922
sg68
(lp3478
g61
(g82
g63
NtRp3479
(dp3480
g66
(dp3481
g86
g87
ssg75
g3475
sg68
(lp3482
S'wsgi.multithread'
p3483
asbag61
(g82
g63
NtRp3484
(dp3485
g66
(dp3486
g93
g94
ssg75
g3475
sg68
(lp3487
S':'
asbag61
(g82
g63
NtRp3488
(dp3489
g66
(dp3490
sg75
g3475
sg68
(lp3491
g61
(g62
g63
NtRp3492
(dp3493
g66
(dp3494
g74
I3
ssg75
g3488
sg68
(lp3495
g1944
asbasbasbag61
(g77
g63
NtRp3496
(dp3497
g66
(dp3498
sg75
g2922
sg68
(lp3499
g61
(g82
g63
NtRp3500
(dp3501
g66
(dp3502
g86
g87
ssg75
g3496
sg68
(lp3503
S'wsgi.run_once'
p3504
asbag61
(g82
g63
NtRp3505
(dp3506
g66
(dp3507
g93
g94
ssg75
g3496
sg68
(lp3508
S':'
asbag61
(g82
g63
NtRp3509
(dp3510
g66
(dp3511
sg75
g3496
sg68
(lp3512
g61
(g62
g63
NtRp3513
(dp3514
g66
(dp3515
g74
I3
ssg75
g3509
sg68
(lp3516
g104
asbasbasbag61
(g77
g63
NtRp3517
(dp3518
g66
(dp3519
sg75
g2922
sg68
(lp3520
g61
(g82
g63
NtRp3521
(dp3522
g66
(dp3523
g86
g87
ssg75
g3517
sg68
(lp3524
S'wsgi.url_scheme'
p3525
asbag61
(g82
g63
NtRp3526
(dp3527
g66
(dp3528
g93
g94
ssg75
g3517
sg68
(lp3529
S':'
asbag61
(g82
g63
NtRp3530
(dp3531
g66
(dp3532
sg75
g3517
sg68
(lp3533
g61
(g62
g63
NtRp3534
(dp3535
g66
(dp3536
g74
I3
ssg75
g3530
sg68
(lp3537
g1987
asbasbasbag61
(g77
g63
NtRp3538
(dp3539
g66
(dp3540
sg75
g2922
sg68
(lp3541
g61
(g82
g63
NtRp3542
(dp3543
g66
(dp3544
g86
g87
ssg75
g3538
sg68
(lp3545
S'wsgi.version'
p3546
asbag61
(g82
g63
NtRp3547
(dp3548
g66
(dp3549
g93
g94
ssg75
g3538
sg68
(lp3550
S':'
asbag61
(g82
g63
NtRp3551
(dp3552
g66
(dp3553
sg75
g3538
sg68
(lp3554
g61
(g62
g63
NtRp3555
(dp3556
g66
(dp3557
g74
I3
ssg75
g3551
sg68
(lp3558
S'1'
asbasbasbasbasbasbasbasbasbasbasbasbasbsS'frames'
p3559
(lp3560
(dp3561
S'file'
p3562
S'/usr/lib/pymodules/python2.7/gluon/restricted.py'
p3563
sS'dump'
p3564
(dp3565
S'environment'
p3566
S"{'A': <class 'gluon.html.A'>, 'Admin': <function Admin>, 'Auth': <class 'gluon.tools.Auth'>, 'B': <class 'gluon.html.B'>, 'BEAUTIFY': <class 'gluon.html.BEAUTIFY'>, 'BODY': <class 'gluon.html.BODY'>, 'BR': <class 'gluon.html.BR'>, 'BUTTON': <class 'gluon.html.BUTTON'>, 'CAS': <Storage {'check_url': 'https://login.iiit.ac.in...: 'http://127.0.0.1:8000/manager/default/login'}>, 'CAT': <class 'gluon.html.CAT'>, ...}"
p3567
sS'ccode'
p3568
S'<code object <module> at 0xaae0c380, file "/home...ications/manager/controllers/default.py", line 5>'
p3569
ssS'lnum'
p3570
I204
sS'lines'
p3571
(dp3572
I199
S'    try:'
p3573
sI200
S'        if type(code) == types.CodeType:'
p3574
sI201
S'            ccode = code'
p3575
sI202
S'        else:'
p3576
sI203
S'            ccode = compile2(code,layer)'
p3577
sI204
S'        exec ccode in environment'
p3578
sI205
S'    except HTTP:'
p3579
sI206
S'        raise'
p3580
sI207
S'    except RestrictedError:'
p3581
sI208
S'        # do not encapsulate (obfuscate) the original RestrictedError'
p3582
ssS'call'
p3583
S"(code='################################################...=crud())\\n\\nresponse._vars=response._caller(nedit)\\n', environment={'A': <class 'gluon.html.A'>, 'Admin': <function Admin>, 'Auth': <class 'gluon.tools.Auth'>, 'B': <class 'gluon.html.B'>, 'BEAUTIFY': <class 'gluon.html.BEAUTIFY'>, 'BODY': <class 'gluon.html.BODY'>, 'BR': <class 'gluon.html.BR'>, 'BUTTON': <class 'gluon.html.BUTTON'>, 'CAS': <Storage {'check_url': 'https://login.iiit.ac.in...: 'http://127.0.0.1:8000/manager/default/login'}>, 'CAT': <class 'gluon.html.CAT'>, ...}, layer='/home/unic/web2py/applications/manager/controllers/default.py')"
p3584
sS'func'
p3585
S'restricted'
p3586
sa(dp3587
g3562
S'/home/unic/web2py/applications/manager/controllers/default.py'
p3588
sg3564
(dp3589
sg3570
I400
sg3571
(dp3590
I389
S'    http://..../[app]/default/data/update/[table]/[id]'
p3591
sI390
S'    http://..../[app]/default/data/delete/[table]/[id]'
p3592
sI391
S'    http://..../[app]/default/data/select/[table]'
p3593
sI392
S'    http://..../[app]/default/data/search/[table]'
p3594
sI393
S'    but URLs must be signed, i.e. linked with'
p3595
sI394
S"      A('table',_href=URL('data/tables',user_signature=True))"
p3596
sI395
S'    or with the signed load operator'
p3597
sI396
S"      LOAD('default','data.load',args='tables',ajax=True,user_signature=True)"
p3598
sI397
S'    """'
p3599
sI398
S'    return dict(form=crud())'
p3600
ssg3583
S'()'
p3601
sg3585
S'<module>'
p3602
sa(dp3603
g3562
S'/usr/lib/pymodules/python2.7/gluon/globals.py'
p3604
sg3564
(dp3605
S'self'
p3606
S'undefined'
p3607
sS'f'
S'<function nedit>'
p3608
ssg3570
I172
sg3571
(dp3609
I167
S'        self.meta = Storage()      # used by web2py_ajax.html'
p3610
sI168
S'        self.menu = []             # used by the default view layout'
p3611
sI169
S'        self.files = []            # used by web2py_ajax.html'
p3612
sI170
S'        self.generic_patterns = [] # patterns to allow generic views'
p3613
sI171
S'        self._vars = None'
p3614
sI172
S'        self._caller = lambda f: f()'
p3615
sI173
S'        self._view_environment = None'
p3616
sI174
S'        self._custom_commit = None'
p3617
sI175
S'        self._custom_rollback = None'
p3618
sI176
S''
ssg3583
S'(f=<function nedit>)'
p3619
sg3585
S'<lambda>'
p3620
sa(dp3621
g3562
S'/home/unic/web2py/applications/manager/controllers/default.py'
p3622
sg3564
(dp3623
S'global URL'
p3624
S'<function URL>'
p3625
sS'builtinnext'
p3626
S'<built-in function next>'
p3627
ssg3570
I214
sg3571
(dp3628
I209
S' db.Book.Language.default=books[0].Language'
p3629
sI210
S' db.Book.Cost.default=books[0].Cost'
p3630
sI211
S' db.Book.Copies.default=books[0].Copies'
p3631
sI212
S' db.Book.Type.default=books[0].Type'
p3632
sI213
S' form3 = crud.create(db.Book,'
p3633
sI214
S'         next=URL("edit"))'
p3634
sI215
S' return dict(books=books,form3=form3)'
p3635
sI216
S''
sI217
S'def show():# This function returns the variables required to display the list of available books and the books selected by the admin for each student.'
p3636
sI218
S" User = db.User(request.args(0)) or redirect(URL('choose'))"
p3637
ssg3583
S'()'
p3638
sg3585
S'nedit'
p3639
sa(dp3640
g3562
S'/usr/lib/pymodules/python2.7/gluon/tools.py'
p3641
sg3564
(dp3642
S'formname'
p3643
S'<function <lambda>>'
p3644
ssg3570
I3126
sg3571
(dp3645
I3121
S'            onvalidation=onvalidation,'
p3646
sI3122
S'            onaccept=onaccept,'
p3647
sI3123
S'            log=log,'
p3648
sI3124
S'            message=message,'
p3649
sI3125
S'            deletable=False,'
p3650
sI3126
S'            formname=formname,'
p3651
sI3127
S'            )'
p3652
sI3128
S''
sI3129
S'    def read(self, table, record):'
p3653
sI3130
S'        if not (isinstance(table, self.db.Table) or table in self.db.tables) \\'
p3654
ssg3583
S"(self=<gluon.tools.Crud object>, table=<Table {'_plural': 'Books', 'ALL': <gluon.dal.SQ...c>, 'id': <gluon.dal.Field object at 0x9f48bcc>}>, next='/manager/default/edit', onvalidation=<Storage {}>, onaccept=<Storage {}>, log='Record %(id)s created', message='Record Created', formname=<function <lambda>>)"
p3655
sg3585
S'create'
p3656
sa(dp3657
g3562
S'/usr/lib/pymodules/python2.7/gluon/tools.py'
p3658
sg3564
(dp3659
S'detect_record_change'
p3660
g3607
sS'self'
p3661
S'<gluon.tools.Crud object>'
p3662
sS'self.settings'
p3663
S"<Storage {'showid': False, 'delete_onaccept': <S...ble': True, 'create_onvalidation': <Storage {}>}>"
p3664
sS'self.settings.detect_record_change'
p3665
g1944
ssg3570
I3069
sg3571
(dp3666
I3072
S'            if log:'
p3667
sI3073
S'                self.log_event(log, form.vars)'
p3668
sI3064
S'        if isinstance(onvalidation,StorageList):'
p3669
sI3065
S'            onvalidation=onvalidation.get(table._tablename, [])'
p3670
sI3066
S'        if form.accepts(request, _session, formname=_formname,'
p3671
sI3067
S'                        onvalidation=onvalidation, keepvalues=keepvalues,'
p3672
sI3068
S'                        hideerror=self.settings.hideerror,'
p3673
sI3069
S'                        detect_record_change = self.settings.detect_record_change):'
p3674
sI3070
S'            self.accepted = True'
p3675
sI3071
S'            response.flash = message'
p3676
ssg3583
S"(self=<gluon.tools.Crud object>, table=<Table {'_plural': 'Books', 'ALL': <gluon.dal.SQ...c>, 'id': <gluon.dal.Field object at 0x9f48bcc>}>, record=None, next='/manager/default/edit', onvalidation=[], onaccept=<Storage {}>, ondelete=<Storage {}>, log='Record %(id)s created', message='Record Created', deletable=False, formname=<function <lambda>>)"
p3677
sg3585
S'update'
p3678
sa(dp3679
g3562
S'/usr/lib/pymodules/python2.7/gluon/sqlhtml.py'
p3680
sg3564
(dp3681
S'self.vars.id'
p3682
S'None'
p3683
sS'fields'
p3684
S"{'Copies': 0, 'Cost': 500, 'Language': 'english', 'Name': 'HarryPotter', 'Type': 1}"
p3685
sS'self'
p3686
S'<gluon.sqlhtml.SQLFORM object>'
p3687
sS'self.vars'
p3688
S"<Storage {'Cost': 500, 'Type': 1, 'Name': 'HarryPotter', 'Language': 'english', 'Copies': 0}>"
p3689
sS'self.table.insert'
p3690
S"<bound method Table.insert of <Table {'_plural':...>, 'id': <gluon.dal.Field object at 0x9f48bcc>}>>"
p3691
sS'self.table'
p3692
S"<Table {'_plural': 'Books', 'ALL': <gluon.dal.SQ...c>, 'id': <gluon.dal.Field object at 0x9f48bcc>}>"
p3693
ssg3570
I1267
sg3571
(dp3694
I1262
S'                if record_id:'
p3695
sI1263
S'                    self.vars.id = self.record.id'
p3696
sI1264
S'                    if fields:'
p3697
sI1265
S'                        self.table._db(self.table._id == self.record.id).update(**fields)'
p3698
sI1266
S'                else:'
p3699
sI1267
S'                    self.vars.id = self.table.insert(**fields)'
p3700
sI1268
S'        self.accepted = ret'
p3701
sI1269
S'        return ret'
p3702
sI1270
S''
sI1271
S'    @staticmethod'
p3703
ssg3583
S"(self=<gluon.sqlhtml.SQLFORM object>, request_vars=<Storage {'Name': 'HarryPotter', 'Language': 'en...ad21c96', 'Type': '1', '_formname': 'Book/None'}>, session=<Storage {'LOGGEDIN': 0, '_formkey[Book/None]': ...5d2991-d56d-45f7-abfb-f0d090c32f87', 'login': 0}>, formname='Book/None', keepvalues=False, onvalidation=[], dbio=True, hideerror=False, detect_record_change=True)"
p3704
sg3585
S'accepts'
p3705
sa(dp3706
g3562
S'/usr/lib/pymodules/python2.7/gluon/dal.py'
p3707
sg3564
(dp3708
S'self._listify'
p3709
S"<bound method Table._listify of <Table {'_plural...>, 'id': <gluon.dal.Field object at 0x9f48bcc>}>>"
p3710
sS'fields'
p3711
S"{'Copies': 0, 'Cost': 500, 'Language': 'english', 'Name': 'HarryPotter', 'Type': 1}"
p3712
sS'self'
p3713
S"<Table {'_plural': 'Books', 'ALL': <gluon.dal.SQ...c>, 'id': <gluon.dal.Field object at 0x9f48bcc>}>"
p3714
sS'self._db._adapter'
p3715
S'<gluon.dal.SQLiteAdapter object>'
p3716
sS'self._db._adapter.insert'
p3717
S'<bound method SQLiteAdapter.insert of <gluon.dal.SQLiteAdapter object>>'
p3718
sS'self._db'
p3719
S"<DAL {'auth_event': <Table {'origin': <gluon.dal...'_id': <gluon.dal.Field object at 0xab4b1f0c>}>}>"
p3720
ssg3570
I5597
sg3571
(dp3721
I5600
S'        response = Row()'
p3722
sI5601
S'        response.errors = Row()'
p3723
sI5592
S''
sI5593
S'    def _insert(self, **fields):'
p3724
sI5594
S'        return self._db._adapter._insert(self,self._listify(fields))'
p3725
sI5595
S''
sI5596
S'    def insert(self, **fields):'
p3726
sI5597
S'        return self._db._adapter.insert(self,self._listify(fields))'
p3727
sI5598
S''
sI5599
S'    def validate_and_insert(self,**fields):'
p3728
ssg3583
S"(self=<Table {'_plural': 'Books', 'ALL': <gluon.dal.SQ...c>, 'id': <gluon.dal.Field object at 0x9f48bcc>}>, **fields={'Copies': 0, 'Cost': 500, 'Language': 'english', 'Name': 'HarryPotter', 'Type': 1})"
p3729
sg3585
S'insert'
p3730
sa(dp3731
g3562
S'/usr/lib/pymodules/python2.7/gluon/dal.py'
p3732
sg3564
(dp3733
S'e'
S"IntegrityError('PRIMARY KEY must be unique',)"
p3734
ssg3570
I914
sg3571
(dp3735
I909
S'        try:'
p3736
sI910
S'            self.execute(query)'
p3737
sI911
S'        except Exception, e:'
p3738
sI912
S'            if isinstance(e,self.integrity_error_class()):'
p3739
sI913
S'                return None'
p3740
sI914
S'            raise e'
p3741
sI915
S"        if hasattr(table,'_primarykey'):"
p3742
sI916
S'            return dict([(k[0].name, k[1]) for k in fields \\'
p3743
sI917
S'                             if k[0].name in table._primarykey])'
p3744
sI918
S'        id = self.lastrowid(table)'
p3745
ssg3583
S"(self=<gluon.dal.SQLiteAdapter object>, table=<Table {'_plural': 'Books', 'ALL': <gluon.dal.SQ...c>, 'id': <gluon.dal.Field object at 0x9f48bcc>}>, fields=[(<gluon.dal.Field object>, 500), (<gluon.dal.Field object>, 1), (<gluon.dal.Field object>, 'HarryPotter'), (<gluon.dal.Field object>, 'english'), (<gluon.dal.Field object>, 0), (<gluon.dal.Field object>, 842)])"
p3746
sg3585
g3730
sasS'pyver'
p3747
S'Python 2.7.3: /usr/bin/python'
p3748
sS'session'
p3749
g61
(g62
g63
NtRp3750
(dp3751
g66
(dp3752
sg68
(lp3753
g61
(g70
g63
NtRp3754
(dp3755
g66
(dp3756
g74
I5
ssg75
Nsg68
(lp3757
g61
(g77
g63
NtRp3758
(dp3759
g66
(dp3760
sg75
g3754
sg68
(lp3761
g61
(g82
g63
NtRp3762
(dp3763
g66
(dp3764
g86
g87
ssg75
g3758
sg68
(lp3765
S'LOGGEDIN'
p3766
asbag61
(g82
g63
NtRp3767
(dp3768
g66
(dp3769
g93
g94
ssg75
g3758
sg68
(lp3770
S':'
asbag61
(g82
g63
NtRp3771
(dp3772
g66
(dp3773
sg75
g3758
sg68
(lp3774
g61
(g62
g63
NtRp3775
(dp3776
g66
(dp3777
g74
I5
ssg75
g3771
sg68
(lp3778
S'0'
asbasbasbag61
(g77
g63
NtRp3779
(dp3780
g66
(dp3781
sg75
g3754
sg68
(lp3782
g61
(g82
g63
NtRp3783
(dp3784
g66
(dp3785
g86
g87
ssg75
g3779
sg68
(lp3786
S'login'
p3787
asbag61
(g82
g63
NtRp3788
(dp3789
g66
(dp3790
g93
g94
ssg75
g3779
sg68
(lp3791
S':'
asbag61
(g82
g63
NtRp3792
(dp3793
g66
(dp3794
sg75
g3779
sg68
(lp3795
g61
(g62
g63
NtRp3796
(dp3797
g66
(dp3798
g74
I5
ssg75
g3792
sg68
(lp3799
S'0'
asbasbasbag61
(g77
g63
NtRp3800
(dp3801
g66
(dp3802
sg75
g3754
sg68
(lp3803
g61
(g82
g63
NtRp3804
(dp3805
g66
(dp3806
g86
g87
ssg75
g3800
sg68
(lp3807
S'token'
p3808
asbag61
(g82
g63
NtRp3809
(dp3810
g66
(dp3811
g93
g94
ssg75
g3800
sg68
(lp3812
S':'
asbag61
(g82
g63
NtRp3813
(dp3814
g66
(dp3815
sg75
g3800
sg68
(lp3816
g61
(g62
g63
NtRp3817
(dp3818
g66
(dp3819
g74
I5
ssg75
g3813
sg68
(lp3820
S'neeharikak.v@students.iiit.ac.in'
p3821
asbasbasbasbasbsS'etype'
p3822
S"<class 'sqlite3.IntegrityError'>"
p3823
sS'date'
p3824
S'Wed Nov 14 19:52:05 2012'
p3825
sS'response'
p3826
g61
(g62
g63
NtRp3827
(dp3828
g66
(dp3829
sg68
(lp3830
g61
(g70
g63
NtRp3831
(dp3832
g66
(dp3833
g74
I5
ssg75
Nsg68
(lp3834
g61
(g77
g63
NtRp3835
(dp3836
g66
(dp3837
sg75
g3831
sg68
(lp3838
g61
(g82
g63
NtRp3839
(dp3840
g66
(dp3841
g86
g87
ssg75
g3835
sg68
(lp3842
g172
asbag61
(g82
g63
NtRp3843
(dp3844
g66
(dp3845
g93
g94
ssg75
g3835
sg68
(lp3846
S':'
asbag61
(g82
g63
NtRp3847
(dp3848
g66
(dp3849
sg75
g3835
sg68
(lp3850
g61
(g62
g63
NtRp3851
(dp3852
g66
(dp3853
g74
I5
ssg75
g3847
sg68
(lp3854
S'<cStringIO.StringO object at 0xab4ae4c0>'
p3855
asbasbasbag61
(g77
g63
NtRp3856
(dp3857
g66
(dp3858
sg75
g3831
sg68
(lp3859
g61
(g82
g63
NtRp3860
(dp3861
g66
(dp3862
g86
g87
ssg75
g3856
sg68
(lp3863
g238
asbag61
(g82
g63
NtRp3864
(dp3865
g66
(dp3866
g93
g94
ssg75
g3856
sg68
(lp3867
S':'
asbag61
(g82
g63
NtRp3868
(dp3869
g66
(dp3870
sg75
g3856
sg68
(lp3871
g61
(g62
g63
NtRp3872
(dp3873
g66
(dp3874
g74
I5
ssg75
g3868
sg68
(lp3875
g61
(g70
g63
NtRp3876
(dp3877
g66
(dp3878
g74
I4
ssg75
Nsg68
(lp3879
g61
(g77
g63
NtRp3880
(dp3881
g66
(dp3882
sg75
g3876
sg68
(lp3883
g61
(g82
g63
NtRp3884
(dp3885
g66
(dp3886
g86
g87
ssg75
g3880
sg68
(lp3887
S'session_id_manager'
p3888
asbag61
(g82
g63
NtRp3889
(dp3890
g66
(dp3891
g93
g94
ssg75
g3880
sg68
(lp3892
S':'
asbag61
(g82
g63
NtRp3893
(dp3894
g66
(dp3895
sg75
g3880
sg68
(lp3896
g61
(g62
g63
NtRp3897
(dp3898
g66
(dp3899
g74
I4
ssg75
g3893
sg68
(lp3900
g61
(g70
g63
NtRp3901
(dp3902
g66
(dp3903
g74
I3
ssg75
Nsg68
(lp3904
g61
(g77
g63
NtRp3905
(dp3906
g66
(dp3907
sg75
g3901
sg68
(lp3908
g61
(g82
g63
NtRp3909
(dp3910
g66
(dp3911
g86
g87
ssg75
g3905
sg68
(lp3912
g288
asbag61
(g82
g63
NtRp3913
(dp3914
g66
(dp3915
g93
g94
ssg75
g3905
sg68
(lp3916
S':'
asbag61
(g82
g63
NtRp3917
(dp3918
g66
(dp3919
sg75
g3905
sg68
(lp3920
g61
(g62
g63
NtRp3921
(dp3922
g66
(dp3923
g74
I3
ssg75
g3917
sg68
(lp3924
S''
asbasbasbag61
(g77
g63
NtRp3925
(dp3926
g66
(dp3927
sg75
g3901
sg68
(lp3928
g61
(g82
g63
NtRp3929
(dp3930
g66
(dp3931
g86
g87
ssg75
g3925
sg68
(lp3932
g309
asbag61
(g82
g63
NtRp3933
(dp3934
g66
(dp3935
g93
g94
ssg75
g3925
sg68
(lp3936
S':'
asbag61
(g82
g63
NtRp3937
(dp3938
g66
(dp3939
sg75
g3925
sg68
(lp3940
g61
(g62
g63
NtRp3941
(dp3942
g66
(dp3943
g74
I3
ssg75
g3937
sg68
(lp3944
S''
asbasbasbag61
(g77
g63
NtRp3945
(dp3946
g66
(dp3947
sg75
g3901
sg68
(lp3948
g61
(g82
g63
NtRp3949
(dp3950
g66
(dp3951
g86
g87
ssg75
g3945
sg68
(lp3952
g330
asbag61
(g82
g63
NtRp3953
(dp3954
g66
(dp3955
g93
g94
ssg75
g3945
sg68
(lp3956
S':'
asbag61
(g82
g63
NtRp3957
(dp3958
g66
(dp3959
sg75
g3945
sg68
(lp3960
g61
(g62
g63
NtRp3961
(dp3962
g66
(dp3963
g74
I3
ssg75
g3957
sg68
(lp3964
S''
asbasbasbag61
(g77
g63
NtRp3965
(dp3966
g66
(dp3967
sg75
g3901
sg68
(lp3968
g61
(g82
g63
NtRp3969
(dp3970
g66
(dp3971
g86
g87
ssg75
g3965
sg68
(lp3972
g351
asbag61
(g82
g63
NtRp3973
(dp3974
g66
(dp3975
g93
g94
ssg75
g3965
sg68
(lp3976
S':'
asbag61
(g82
g63
NtRp3977
(dp3978
g66
(dp3979
sg75
g3965
sg68
(lp3980
g61
(g62
g63
NtRp3981
(dp3982
g66
(dp3983
g74
I3
ssg75
g3977
sg68
(lp3984
S''
asbasbasbag61
(g77
g63
NtRp3985
(dp3986
g66
(dp3987
sg75
g3901
sg68
(lp3988
g61
(g82
g63
NtRp3989
(dp3990
g66
(dp3991
g86
g87
ssg75
g3985
sg68
(lp3992
g372
asbag61
(g82
g63
NtRp3993
(dp3994
g66
(dp3995
g93
g94
ssg75
g3985
sg68
(lp3996
S':'
asbag61
(g82
g63
NtRp3997
(dp3998
g66
(dp3999
sg75
g3985
sg68
(lp4000
g61
(g62
g63
NtRp4001
(dp4002
g66
(dp4003
g74
I3
ssg75
g3997
sg68
(lp4004
S''
asbasbasbag61
(g77
g63
NtRp4005
(dp4006
g66
(dp4007
sg75
g3901
sg68
(lp4008
g61
(g82
g63
NtRp4009
(dp4010
g66
(dp4011
g86
g87
ssg75
g4005
sg68
(lp4012
g393
asbag61
(g82
g63
NtRp4013
(dp4014
g66
(dp4015
g93
g94
ssg75
g4005
sg68
(lp4016
S':'
asbag61
(g82
g63
NtRp4017
(dp4018
g66
(dp4019
sg75
g4005
sg68
(lp4020
g61
(g62
g63
NtRp4021
(dp4022
g66
(dp4023
g74
I3
ssg75
g4017
sg68
(lp4024
S'/'
asbasbasbag61
(g77
g63
NtRp4025
(dp4026
g66
(dp4027
sg75
g3901
sg68
(lp4028
g61
(g82
g63
NtRp4029
(dp4030
g66
(dp4031
g86
g87
ssg75
g4025
sg68
(lp4032
g414
asbag61
(g82
g63
NtRp4033
(dp4034
g66
(dp4035
g93
g94
ssg75
g4025
sg68
(lp4036
S':'
asbag61
(g82
g63
NtRp4037
(dp4038
g66
(dp4039
sg75
g4025
sg68
(lp4040
g61
(g62
g63
NtRp4041
(dp4042
g66
(dp4043
g74
I3
ssg75
g4037
sg68
(lp4044
S''
asbasbasbag61
(g77
g63
NtRp4045
(dp4046
g66
(dp4047
sg75
g3901
sg68
(lp4048
g61
(g82
g63
NtRp4049
(dp4050
g66
(dp4051
g86
g87
ssg75
g4045
sg68
(lp4052
g435
asbag61
(g82
g63
NtRp4053
(dp4054
g66
(dp4055
g93
g94
ssg75
g4045
sg68
(lp4056
S':'
asbag61
(g82
g63
NtRp4057
(dp4058
g66
(dp4059
sg75
g4045
sg68
(lp4060
g61
(g62
g63
NtRp4061
(dp4062
g66
(dp4063
g74
I3
ssg75
g4057
sg68
(lp4064
S''
asbasbasbasbasbasbasbasbasbasbasbag61
(g77
g63
NtRp4065
(dp4066
g66
(dp4067
sg75
g3831
sg68
(lp4068
g61
(g82
g63
NtRp4069
(dp4070
g66
(dp4071
g86
g87
ssg75
g4065
sg68
(lp4072
S'files'
p4073
asbag61
(g82
g63
NtRp4074
(dp4075
g66
(dp4076
g93
g94
ssg75
g4065
sg68
(lp4077
S':'
asbag61
(g82
g63
NtRp4078
(dp4079
g66
(dp4080
sg75
g4065
sg68
(lp4081
g61
(g62
g63
NtRp4082
(dp4083
g66
(dp4084
g74
I5
ssg75
g4078
sg68
(lp4085
g61
(g70
g63
NtRp4086
(dp4087
g66
(dp4088
g74
I4
ssg75
Nsg68
(lp4089
sbasbasbasbag61
(g77
g63
NtRp4090
(dp4091
g66
(dp4092
sg75
g3831
sg68
(lp4093
g61
(g82
g63
NtRp4094
(dp4095
g66
(dp4096
g86
g87
ssg75
g4090
sg68
(lp4097
S'flash'
p4098
asbag61
(g82
g63
NtRp4099
(dp4100
g66
(dp4101
g93
g94
ssg75
g4090
sg68
(lp4102
S':'
asbag61
(g82
g63
NtRp4103
(dp4104
g66
(dp4105
sg75
g4090
sg68
(lp4106
g61
(g62
g63
NtRp4107
(dp4108
g66
(dp4109
g74
I5
ssg75
g4103
sg68
(lp4110
S''
asbasbasbag61
(g77
g63
NtRp4111
(dp4112
g66
(dp4113
sg75
g3831
sg68
(lp4114
g61
(g82
g63
NtRp4115
(dp4116
g66
(dp4117
g86
g87
ssg75
g4111
sg68
(lp4118
S'generic_patterns'
p4119
asbag61
(g82
g63
NtRp4120
(dp4121
g66
(dp4122
g93
g94
ssg75
g4111
sg68
(lp4123
S':'
asbag61
(g82
g63
NtRp4124
(dp4125
g66
(dp4126
sg75
g4111
sg68
(lp4127
g61
(g62
g63
NtRp4128
(dp4129
g66
(dp4130
g74
I5
ssg75
g4124
sg68
(lp4131
g61
(g70
g63
NtRp4132
(dp4133
g66
(dp4134
g74
I4
ssg75
Nsg68
(lp4135
g61
(g77
g63
NtRp4136
(dp4137
g66
(dp4138
sg75
g4132
sg68
(lp4139
g61
(g82
g63
NtRp4140
(dp4141
g66
(dp4142
sg75
g4136
sg68
(lp4143
g61
(g62
g63
NtRp4144
(dp4145
g66
(dp4146
g74
I4
ssg75
g4140
sg68
(lp4147
S'*'
asbasbasbasbasbasbasbag61
(g77
g63
NtRp4148
(dp4149
g66
(dp4150
sg75
g3831
sg68
(lp4151
g61
(g82
g63
NtRp4152
(dp4153
g66
(dp4154
g86
g87
ssg75
g4148
sg68
(lp4155
S'headers'
p4156
asbag61
(g82
g63
NtRp4157
(dp4158
g66
(dp4159
g93
g94
ssg75
g4148
sg68
(lp4160
S':'
asbag61
(g82
g63
NtRp4161
(dp4162
g66
(dp4163
sg75
g4148
sg68
(lp4164
g61
(g62
g63
NtRp4165
(dp4166
g66
(dp4167
g74
I5
ssg75
g4161
sg68
(lp4168
g61
(g70
g63
NtRp4169
(dp4170
g66
(dp4171
g74
I4
ssg75
Nsg68
(lp4172
g61
(g77
g63
NtRp4173
(dp4174
g66
(dp4175
sg75
g4169
sg68
(lp4176
g61
(g82
g63
NtRp4177
(dp4178
g66
(dp4179
g86
g87
ssg75
g4173
sg68
(lp4180
S'Cache-Control'
p4181
asbag61
(g82
g63
NtRp4182
(dp4183
g66
(dp4184
g93
g94
ssg75
g4173
sg68
(lp4185
S':'
asbag61
(g82
g63
NtRp4186
(dp4187
g66
(dp4188
sg75
g4173
sg68
(lp4189
g61
(g62
g63
NtRp4190
(dp4191
g66
(dp4192
g74
I4
ssg75
g4186
sg68
(lp4193
S'no-store, no-cache, must-revalidate, post-check=0, pre-check=0'
p4194
asbasbasbag61
(g77
g63
NtRp4195
(dp4196
g66
(dp4197
sg75
g4169
sg68
(lp4198
g61
(g82
g63
NtRp4199
(dp4200
g66
(dp4201
g86
g87
ssg75
g4195
sg68
(lp4202
S'Content-Type'
p4203
asbag61
(g82
g63
NtRp4204
(dp4205
g66
(dp4206
g93
g94
ssg75
g4195
sg68
(lp4207
S':'
asbag61
(g82
g63
NtRp4208
(dp4209
g66
(dp4210
sg75
g4195
sg68
(lp4211
g61
(g62
g63
NtRp4212
(dp4213
g66
(dp4214
g74
I4
ssg75
g4208
sg68
(lp4215
S'text/html; charset=utf-8'
p4216
asbasbasbag61
(g77
g63
NtRp4217
(dp4218
g66
(dp4219
sg75
g4169
sg68
(lp4220
g61
(g82
g63
NtRp4221
(dp4222
g66
(dp4223
g86
g87
ssg75
g4217
sg68
(lp4224
S'Expires'
p4225
asbag61
(g82
g63
NtRp4226
(dp4227
g66
(dp4228
g93
g94
ssg75
g4217
sg68
(lp4229
S':'
asbag61
(g82
g63
NtRp4230
(dp4231
g66
(dp4232
sg75
g4217
sg68
(lp4233
g61
(g62
g63
NtRp4234
(dp4235
g66
(dp4236
g74
I4
ssg75
g4230
sg68
(lp4237
S'Wed, 14 Nov 2012 14:22:04 GMT'
p4238
asbasbasbag61
(g77
g63
NtRp4239
(dp4240
g66
(dp4241
sg75
g4169
sg68
(lp4242
g61
(g82
g63
NtRp4243
(dp4244
g66
(dp4245
g86
g87
ssg75
g4239
sg68
(lp4246
S'Pragma'
p4247
asbag61
(g82
g63
NtRp4248
(dp4249
g66
(dp4250
g93
g94
ssg75
g4239
sg68
(lp4251
S':'
asbag61
(g82
g63
NtRp4252
(dp4253
g66
(dp4254
sg75
g4239
sg68
(lp4255
g61
(g62
g63
NtRp4256
(dp4257
g66
(dp4258
g74
I4
ssg75
g4252
sg68
(lp4259
S'no-cache'
p4260
asbasbasbag61
(g77
g63
NtRp4261
(dp4262
g66
(dp4263
sg75
g4169
sg68
(lp4264
g61
(g82
g63
NtRp4265
(dp4266
g66
(dp4267
g86
g87
ssg75
g4261
sg68
(lp4268
S'X-Powered-By'
p4269
asbag61
(g82
g63
NtRp4270
(dp4271
g66
(dp4272
g93
g94
ssg75
g4261
sg68
(lp4273
S':'
asbag61
(g82
g63
NtRp4274
(dp4275
g66
(dp4276
sg75
g4261
sg68
(lp4277
g61
(g62
g63
NtRp4278
(dp4279
g66
(dp4280
g74
I4
ssg75
g4274
sg68
(lp4281
S'web2py'
p4282
asbasbasbasbasbasbasbag61
(g77
g63
NtRp4283
(dp4284
g66
(dp4285
sg75
g3831
sg68
(lp4286
g61
(g82
g63
NtRp4287
(dp4288
g66
(dp4289
g86
g87
ssg75
g4283
sg68
(lp4290
S'menu'
p4291
asbag61
(g82
g63
NtRp4292
(dp4293
g66
(dp4294
g93
g94
ssg75
g4283
sg68
(lp4295
S':'
asbag61
(g82
g63
NtRp4296
(dp4297
g66
(dp4298
sg75
g4283
sg68
(lp4299
g61
(g62
g63
NtRp4300
(dp4301
g66
(dp4302
g74
I5
ssg75
g4296
sg68
(lp4303
g61
(g70
g63
NtRp4304
(dp4305
g66
(dp4306
g74
I4
ssg75
Nsg68
(lp4307
g61
(g77
g63
NtRp4308
(dp4309
g66
(dp4310
sg75
g4304
sg68
(lp4311
g61
(g82
g63
NtRp4312
(dp4313
g66
(dp4314
sg75
g4308
sg68
(lp4315
g61
(g62
g63
NtRp4316
(dp4317
g66
(dp4318
g74
I4
ssg75
g4312
sg68
(lp4319
g61
(g70
g63
NtRp4320
(dp4321
g66
(dp4322
g74
I3
ssg75
Nsg68
(lp4323
g61
(g77
g63
NtRp4324
(dp4325
g66
(dp4326
sg75
g4320
sg68
(lp4327
g61
(g82
g63
NtRp4328
(dp4329
g66
(dp4330
sg75
g4324
sg68
(lp4331
g61
(g62
g63
NtRp4332
(dp4333
g66
(dp4334
g74
I3
ssg75
g4328
sg68
(lp4335
cgluon.languages
lazyT_unpickle
p4336
(S't\x04\x00\x00\x00Home'
tRp4337
asbasbasbag61
(g77
g63
NtRp4338
(dp4339
g66
(dp4340
sg75
g4320
sg68
(lp4341
g61
(g82
g63
NtRp4342
(dp4343
g66
(dp4344
sg75
g4338
sg68
(lp4345
g61
(g62
g63
NtRp4346
(dp4347
g66
(dp4348
g74
I3
ssg75
g4342
sg68
(lp4349
g104
asbasbasbag61
(g77
g63
NtRp4350
(dp4351
g66
(dp4352
sg75
g4320
sg68
(lp4353
g61
(g82
g63
NtRp4354
(dp4355
g66
(dp4356
sg75
g4350
sg68
(lp4357
g61
(g62
g63
NtRp4358
(dp4359
g66
(dp4360
g74
I3
ssg75
g4354
sg68
(lp4361
S'/manager/default/index'
p4362
asbasbasbasbasbasbasbag61
(g77
g63
NtRp4363
(dp4364
g66
(dp4365
sg75
g4304
sg68
(lp4366
g61
(g82
g63
NtRp4367
(dp4368
g66
(dp4369
sg75
g4363
sg68
(lp4370
g61
(g62
g63
NtRp4371
(dp4372
g66
(dp4373
g74
I4
ssg75
g4367
sg68
(lp4374
g61
(g70
g63
NtRp4375
(dp4376
g66
(dp4377
g74
I3
ssg75
Nsg68
(lp4378
g61
(g77
g63
NtRp4379
(dp4380
g66
(dp4381
sg75
g4375
sg68
(lp4382
g61
(g82
g63
NtRp4383
(dp4384
g66
(dp4385
sg75
g4379
sg68
(lp4386
g61
(g62
g63
NtRp4387
(dp4388
g66
(dp4389
g74
I3
ssg75
g4383
sg68
(lp4390
g4336
(S't\x06\x00\x00\x00logout'
tRp4391
asbasbasbag61
(g77
g63
NtRp4392
(dp4393
g66
(dp4394
sg75
g4375
sg68
(lp4395
g61
(g82
g63
NtRp4396
(dp4397
g66
(dp4398
sg75
g4392
sg68
(lp4399
g61
(g62
g63
NtRp4400
(dp4401
g66
(dp4402
g74
I3
ssg75
g4396
sg68
(lp4403
g104
asbasbasbag61
(g77
g63
NtRp4404
(dp4405
g66
(dp4406
sg75
g4375
sg68
(lp4407
g61
(g82
g63
NtRp4408
(dp4409
g66
(dp4410
sg75
g4404
sg68
(lp4411
g61
(g62
g63
NtRp4412
(dp4413
g66
(dp4414
g74
I3
ssg75
g4408
sg68
(lp4415
S'/manager/default/logout'
p4416
asbasbasbasbasbasbasbasbasbasbasbag61
(g77
g63
NtRp4417
(dp4418
g66
(dp4419
sg75
g3831
sg68
(lp4420
g61
(g82
g63
NtRp4421
(dp4422
g66
(dp4423
g86
g87
ssg75
g4417
sg68
(lp4424
S'meta'
p4425
asbag61
(g82
g63
NtRp4426
(dp4427
g66
(dp4428
g93
g94
ssg75
g4417
sg68
(lp4429
S':'
asbag61
(g82
g63
NtRp4430
(dp4431
g66
(dp4432
sg75
g4417
sg68
(lp4433
g61
(g62
g63
NtRp4434
(dp4435
g66
(dp4436
g74
I5
ssg75
g4430
sg68
(lp4437
g61
(g70
g63
NtRp4438
(dp4439
g66
(dp4440
g74
I4
ssg75
Nsg68
(lp4441
g61
(g77
g63
NtRp4442
(dp4443
g66
(dp4444
sg75
g4438
sg68
(lp4445
g61
(g82
g63
NtRp4446
(dp4447
g66
(dp4448
g86
g87
ssg75
g4442
sg68
(lp4449
S'author'
p4450
asbag61
(g82
g63
NtRp4451
(dp4452
g66
(dp4453
g93
g94
ssg75
g4442
sg68
(lp4454
S':'
asbag61
(g82
g63
NtRp4455
(dp4456
g66
(dp4457
sg75
g4442
sg68
(lp4458
g61
(g62
g63
NtRp4459
(dp4460
g66
(dp4461
g74
I4
ssg75
g4455
sg68
(lp4462
S'Your Name <you@example.com>'
p4463
asbasbasbag61
(g77
g63
NtRp4464
(dp4465
g66
(dp4466
sg75
g4438
sg68
(lp4467
g61
(g82
g63
NtRp4468
(dp4469
g66
(dp4470
g86
g87
ssg75
g4464
sg68
(lp4471
S'copyright'
p4472
asbag61
(g82
g63
NtRp4473
(dp4474
g66
(dp4475
g93
g94
ssg75
g4464
sg68
(lp4476
S':'
asbag61
(g82
g63
NtRp4477
(dp4478
g66
(dp4479
sg75
g4464
sg68
(lp4480
g61
(g62
g63
NtRp4481
(dp4482
g66
(dp4483
g74
I4
ssg75
g4477
sg68
(lp4484
S'Copyright 2011'
p4485
asbasbasbag61
(g77
g63
NtRp4486
(dp4487
g66
(dp4488
sg75
g4438
sg68
(lp4489
g61
(g82
g63
NtRp4490
(dp4491
g66
(dp4492
g86
g87
ssg75
g4486
sg68
(lp4493
S'description'
p4494
asbag61
(g82
g63
NtRp4495
(dp4496
g66
(dp4497
g93
g94
ssg75
g4486
sg68
(lp4498
S':'
asbag61
(g82
g63
NtRp4499
(dp4500
g66
(dp4501
sg75
g4486
sg68
(lp4502
g61
(g62
g63
NtRp4503
(dp4504
g66
(dp4505
g74
I4
ssg75
g4499
sg68
(lp4506
S'a cool new app'
p4507
asbasbasbag61
(g77
g63
NtRp4508
(dp4509
g66
(dp4510
sg75
g4438
sg68
(lp4511
g61
(g82
g63
NtRp4512
(dp4513
g66
(dp4514
g86
g87
ssg75
g4508
sg68
(lp4515
S'generator'
p4516
asbag61
(g82
g63
NtRp4517
(dp4518
g66
(dp4519
g93
g94
ssg75
g4508
sg68
(lp4520
S':'
asbag61
(g82
g63
NtRp4521
(dp4522
g66
(dp4523
sg75
g4508
sg68
(lp4524
g61
(g62
g63
NtRp4525
(dp4526
g66
(dp4527
g74
I4
ssg75
g4521
sg68
(lp4528
S'Web2py Web Framework'
p4529
asbasbasbag61
(g77
g63
NtRp4530
(dp4531
g66
(dp4532
sg75
g4438
sg68
(lp4533
g61
(g82
g63
NtRp4534
(dp4535
g66
(dp4536
g86
g87
ssg75
g4530
sg68
(lp4537
S'keywords'
p4538
asbag61
(g82
g63
NtRp4539
(dp4540
g66
(dp4541
g93
g94
ssg75
g4530
sg68
(lp4542
S':'
asbag61
(g82
g63
NtRp4543
(dp4544
g66
(dp4545
sg75
g4530
sg68
(lp4546
g61
(g62
g63
NtRp4547
(dp4548
g66
(dp4549
g74
I4
ssg75
g4543
sg68
(lp4550
S'web2py, python, framework'
p4551
asbasbasbasbasbasbasbag61
(g77
g63
NtRp4552
(dp4553
g66
(dp4554
sg75
g3831
sg68
(lp4555
g61
(g82
g63
NtRp4556
(dp4557
g66
(dp4558
g86
g87
ssg75
g4552
sg68
(lp4559
S'postprocessing'
p4560
asbag61
(g82
g63
NtRp4561
(dp4562
g66
(dp4563
g93
g94
ssg75
g4552
sg68
(lp4564
S':'
asbag61
(g82
g63
NtRp4565
(dp4566
g66
(dp4567
sg75
g4552
sg68
(lp4568
g61
(g62
g63
NtRp4569
(dp4570
g66
(dp4571
g74
I5
ssg75
g4565
sg68
(lp4572
g61
(g70
g63
NtRp4573
(dp4574
g66
(dp4575
g74
I4
ssg75
Nsg68
(lp4576
sbasbasbasbag61
(g77
g63
NtRp4577
(dp4578
g66
(dp4579
sg75
g3831
sg68
(lp4580
g61
(g82
g63
NtRp4581
(dp4582
g66
(dp4583
g86
g87
ssg75
g4577
sg68
(lp4584
S'session_file'
p4585
asbag61
(g82
g63
NtRp4586
(dp4587
g66
(dp4588
g93
g94
ssg75
g4577
sg68
(lp4589
S':'
asbag61
(g82
g63
NtRp4590
(dp4591
g66
(dp4592
sg75
g4577
sg68
(lp4593
g61
(g62
g63
NtRp4594
(dp4595
g66
(dp4596
g74
I5
ssg75
g4590
sg68
(lp4597
S"<open file '/home/unic/web2py/applications/manager/sessions/127.0.0.1-9680a272-d22f-48db-9899-03542bdb9e98', mode 'rb+' at 0xab73d650>"
p4598
asbasbasbag61
(g77
g63
NtRp4599
(dp4600
g66
(dp4601
sg75
g3831
sg68
(lp4602
g61
(g82
g63
NtRp4603
(dp4604
g66
(dp4605
g86
g87
ssg75
g4599
sg68
(lp4606
S'session_filename'
p4607
asbag61
(g82
g63
NtRp4608
(dp4609
g66
(dp4610
g93
g94
ssg75
g4599
sg68
(lp4611
S':'
asbag61
(g82
g63
NtRp4612
(dp4613
g66
(dp4614
sg75
g4599
sg68
(lp4615
g61
(g62
g63
NtRp4616
(dp4617
g66
(dp4618
g74
I5
ssg75
g4612
sg68
(lp4619
S'/home/unic/web2py/applications/manager/sessions/127.0.0.1-9680a272-d22f-48db-9899-03542bdb9e98'
p4620
asbasbasbag61
(g77
g63
NtRp4621
(dp4622
g66
(dp4623
sg75
g3831
sg68
(lp4624
g61
(g82
g63
NtRp4625
(dp4626
g66
(dp4627
g86
g87
ssg75
g4621
sg68
(lp4628
S'session_id'
p4629
asbag61
(g82
g63
NtRp4630
(dp4631
g66
(dp4632
g93
g94
ssg75
g4621
sg68
(lp4633
S':'
asbag61
(g82
g63
NtRp4634
(dp4635
g66
(dp4636
sg75
g4621
sg68
(lp4637
g61
(g62
g63
NtRp4638
(dp4639
g66
(dp4640
g74
I5
ssg75
g4634
sg68
(lp4641
S'127.0.0.1-9680a272-d22f-48db-9899-03542bdb9e98'
p4642
asbasbasbag61
(g77
g63
NtRp4643
(dp4644
g66
(dp4645
sg75
g3831
sg68
(lp4646
g61
(g82
g63
NtRp4647
(dp4648
g66
(dp4649
g86
g87
ssg75
g4643
sg68
(lp4650
S'session_id_name'
p4651
asbag61
(g82
g63
NtRp4652
(dp4653
g66
(dp4654
g93
g94
ssg75
g4643
sg68
(lp4655
S':'
asbag61
(g82
g63
NtRp4656
(dp4657
g66
(dp4658
sg75
g4643
sg68
(lp4659
g61
(g62
g63
NtRp4660
(dp4661
g66
(dp4662
g74
I5
ssg75
g4656
sg68
(lp4663
g3888
asbasbasbag61
(g77
g63
NtRp4664
(dp4665
g66
(dp4666
sg75
g3831
sg68
(lp4667
g61
(g82
g63
NtRp4668
(dp4669
g66
(dp4670
g86
g87
ssg75
g4664
sg68
(lp4671
S'session_locked'
p4672
asbag61
(g82
g63
NtRp4673
(dp4674
g66
(dp4675
g93
g94
ssg75
g4664
sg68
(lp4676
S':'
asbag61
(g82
g63
NtRp4677
(dp4678
g66
(dp4679
sg75
g4664
sg68
(lp4680
g61
(g62
g63
NtRp4681
(dp4682
g66
(dp4683
g74
I5
ssg75
g4677
sg68
(lp4684
g1944
asbasbasbag61
(g77
g63
NtRp4685
(dp4686
g66
(dp4687
sg75
g3831
sg68
(lp4688
g61
(g82
g63
NtRp4689
(dp4690
g66
(dp4691
g86
g87
ssg75
g4685
sg68
(lp4692
S'session_new'
p4693
asbag61
(g82
g63
NtRp4694
(dp4695
g66
(dp4696
g93
g94
ssg75
g4685
sg68
(lp4697
S':'
asbag61
(g82
g63
NtRp4698
(dp4699
g66
(dp4700
sg75
g4685
sg68
(lp4701
g61
(g62
g63
NtRp4702
(dp4703
g66
(dp4704
g74
I5
ssg75
g4698
sg68
(lp4705
g104
asbasbasbag61
(g77
g63
NtRp4706
(dp4707
g66
(dp4708
sg75
g3831
sg68
(lp4709
g61
(g82
g63
NtRp4710
(dp4711
g66
(dp4712
g86
g87
ssg75
g4706
sg68
(lp4713
S'status'
p4714
asbag61
(g82
g63
NtRp4715
(dp4716
g66
(dp4717
g93
g94
ssg75
g4706
sg68
(lp4718
S':'
asbag61
(g82
g63
NtRp4719
(dp4720
g66
(dp4721
sg75
g4706
sg68
(lp4722
g61
(g62
g63
NtRp4723
(dp4724
g66
(dp4725
g74
I5
ssg75
g4719
sg68
(lp4726
S'200'
p4727
asbasbasbag61
(g77
g63
NtRp4728
(dp4729
g66
(dp4730
sg75
g3831
sg68
(lp4731
g61
(g82
g63
NtRp4732
(dp4733
g66
(dp4734
g86
g87
ssg75
g4728
sg68
(lp4735
S'subtitle'
p4736
asbag61
(g82
g63
NtRp4737
(dp4738
g66
(dp4739
g93
g94
ssg75
g4728
sg68
(lp4740
S':'
asbag61
(g82
g63
NtRp4741
(dp4742
g66
(dp4743
sg75
g4728
sg68
(lp4744
g61
(g62
g63
NtRp4745
(dp4746
g66
(dp4747
g74
I5
ssg75
g4741
sg68
(lp4748
g4336
(S's\r\x00\x00\x00customize me!'
tRp4749
asbasbasbag61
(g77
g63
NtRp4750
(dp4751
g66
(dp4752
sg75
g3831
sg68
(lp4753
g61
(g82
g63
NtRp4754
(dp4755
g66
(dp4756
g86
g87
ssg75
g4750
sg68
(lp4757
S'title'
p4758
asbag61
(g82
g63
NtRp4759
(dp4760
g66
(dp4761
g93
g94
ssg75
g4750
sg68
(lp4762
S':'
asbag61
(g82
g63
NtRp4763
(dp4764
g66
(dp4765
sg75
g4750
sg68
(lp4766
g61
(g62
g63
NtRp4767
(dp4768
g66
(dp4769
g74
I5
ssg75
g4763
sg68
(lp4770
S'Manager'
p4771
asbasbasbag61
(g77
g63
NtRp4772
(dp4773
g66
(dp4774
sg75
g3831
sg68
(lp4775
g61
(g82
g63
NtRp4776
(dp4777
g66
(dp4778
g86
g87
ssg75
g4772
sg68
(lp4779
g2737
asbag61
(g82
g63
NtRp4780
(dp4781
g66
(dp4782
g93
g94
ssg75
g4772
sg68
(lp4783
S':'
asbag61
(g82
g63
NtRp4784
(dp4785
g66
(dp4786
sg75
g4772
sg68
(lp4787
g61
(g62
g63
NtRp4788
(dp4789
g66
(dp4790
g74
I5
ssg75
g4784
sg68
(lp4791
g2750
asbasbasbag61
(g77
g63
NtRp4792
(dp4793
g66
(dp4794
sg75
g3831
sg68
(lp4795
g61
(g82
g63
NtRp4796
(dp4797
g66
(dp4798
g86
g87
ssg75
g4792
sg68
(lp4799
S'view'
p4800
asbag61
(g82
g63
NtRp4801
(dp4802
g66
(dp4803
g93
g94
ssg75
g4792
sg68
(lp4804
S':'
asbag61
(g82
g63
NtRp4805
(dp4806
g66
(dp4807
sg75
g4792
sg68
(lp4808
g61
(g62
g63
NtRp4809
(dp4810
g66
(dp4811
g74
I5
ssg75
g4805
sg68
(lp4812
S'default/nedit.html'
p4813
asbasbasbasbasbsS'locals'
p4814
(dp4815
S'query'
p4816
S'"INSERT INTO Book(Cost,Type,Name,Language,Copies,id) VALUES (500,1,\'HarryPotter\',\'english\',0,842);"'
p4817
sS'self'
p4818
S'<gluon.dal.SQLiteAdapter object>'
p4819
sS'e'
S"IntegrityError('PRIMARY KEY must be unique',)"
p4820
sS'fields'
p4821
S"[(<gluon.dal.Field object>, 500), (<gluon.dal.Field object>, 1), (<gluon.dal.Field object>, 'HarryPotter'), (<gluon.dal.Field object>, 'english'), (<gluon.dal.Field object>, 0), (<gluon.dal.Field object>, 842)]"
p4822
sS'table'
p4823
S"<Table {'_plural': 'Books', 'ALL': <gluon.dal.SQ...c>, 'id': <gluon.dal.Field object at 0x9f48bcc>}>"
p4824
sssS'traceback'
p4825
S'Traceback (most recent call last):\n  File "/usr/lib/pymodules/python2.7/gluon/restricted.py", line 204, in restricted\n    exec ccode in environment\n  File "/home/unic/web2py/applications/manager/controllers/default.py", line 400, in <module>\n  File "/usr/lib/pymodules/python2.7/gluon/globals.py", line 172, in <lambda>\n    self._caller = lambda f: f()\n  File "/home/unic/web2py/applications/manager/controllers/default.py", line 214, in nedit\n    next=URL("edit"))\n  File "/usr/lib/pymodules/python2.7/gluon/tools.py", line 3126, in create\n    formname=formname,\n  File "/usr/lib/pymodules/python2.7/gluon/tools.py", line 3069, in update\n    detect_record_change = self.settings.detect_record_change):\n  File "/usr/lib/pymodules/python2.7/gluon/sqlhtml.py", line 1267, in accepts\n    self.vars.id = self.table.insert(**fields)\n  File "/usr/lib/pymodules/python2.7/gluon/dal.py", line 5597, in insert\n    return self._db._adapter.insert(self,self._listify(fields))\n  File "/usr/lib/pymodules/python2.7/gluon/dal.py", line 914, in insert\n    raise e\nIntegrityError: PRIMARY KEY must be unique\n'
p4826
s.