(dp1
S'output'
p2
S"<type 'exceptions.TypeError'> id() takes exactly one argument (0 given)"
p3
sS'layer'
p4
S'/home/abhishek/Desktop/web2py/applications/manager/controllers/default.py'
p5
sS'code'
p6
S'# -*- coding: utf-8 -*-\n# this file is released under public domain and you can use without limitations\n\n#########################################################################\n## This is a samples controller\n## - index is the default action of any application\n## - user is required for authentication and authorization\n## - download is for downloading files uploaded in the db (does streaming)\n## - call exposes all registered services (none by default)\n#########################################################################\nfrom gluon.sqlhtml import form_factory\nimport socket\n\n\nCAS.login_url=\'https://login.iiit.ac.in/cas/login\'\nCAS.check_url=\'https://login.iiit.ac.in/cas/validate\'\nCAS.logout_url=\'https://login.iiit.ac.in/cas/logout\'\nCAS.my_url=\'http://127.0.0.1:8000/manager/default/login\'\n\nif not session.token and not request.function==\'login\':\n    redirect(URL(r=request, f=\'login\'))\n\ndef login():\n    session.login = 0 \n    session.token = CAS.login(request)\n    return dict()\n    \n      \n\ndef logout():\n    session.token=None\n    CAS.logout()\n\n\ndef index():\n  """\n  example action using the internationalization operator T and flash\n  rendered by views/default/index.html or views/generic.html\n  """\n  name=session.token.split(\'@\')[0]\n  first_name=name.split(\'.\')[0]\n  last_name=name.split(\'.\')[1]\n  test1 = db(db.auth_user.email == session.token).select()\n  if(len(test1)==0):\n        db.auth_user.insert(\n        first_name=first_name,\n        last_name=last_name,\n        email=session.token)\n  session.login = 0\n  session.LOGGEDIN = 0\n  users1 = db().select(db.Lpref.ALL)\n  users2 = db().select(db.Lpref.ALL)\n  for i in users1:\n      for j in users2:\n          if i.id > j.id:\n              if i.E == j.E:\n                  db(db.Lpref.id == j.id).delete()\n  images=db().select(db.Book.ALL)\n #   return dict(message=T(\'Hello World\'))\n  return dict(images=images,t=session.token)\n\ndef admin():\n    award = db(db.Admin.id > 0).select().first()\n    return dict(award=award)\ndef user():\n    """\n    exposes:\n    http://..../[app]/default/user/login\n    http://..../[app]/default/user/logout\n    http://..../[app]/default/user/register\n    http://..../[app]/default/user/profile\n    http://..../[app]/default/user/retrieve_password\n    http://..../[app]/default/user/change_password\n    use @auth.requires_login()\n        @auth.requires_membership(\'group name\')\n        @auth.requires_permission(\'read\',\'table name\',record_id)\n    to decorate functions that need access control\n    """\n    return dict(form=auth())\n#@auth.requires_login()\ndef choose():\n  users1 = db().select(db.User.ALL, orderby=db.User.Name)\n  users2 = db().select(db.User.ALL, orderby=db.User.Name)\n  for i in users1:\n      for j in users2:\n          if i.id < j.id:\n              if i.RollNo == j.RollNo:\n                  db(db.User.id == i.id).update(Total=i.Total+j.Total)\n                  db(db.User.id == i.id).update(Award1=j.Award)\n                  db(db.User.id == j.id).delete()\n  users = db().select(db.User.ALL, orderby=db.User.Name)\n  return dict(users=users)\n\ndef show():\n User = db.User(request.args(0)) or redirect(URL(\'choose\'))\n Books = db().select(db.Book.ALL, orderby=db.Book.Name)\n UPBooks = db(db.UPBook.usd==User.RollNo).select()\n upbooks1 = db(db.UPBook.usd==User.RollNo).select()\n upbooks = db(db.UPBook.usd==User.RollNo).select()\n \n for i in upbooks:\n      for j in upbooks1:\n          if i.id < j.id:\n              if i.Bid == j.Bid:\n                 db(db.UPBook.Bid == j.Bid).delete()\n langu = db().select(db.Lpref.ALL)\n lang = db().select(db.lang.ALL)\n return dict(User=User,UPBooks=UPBooks,Books=Books,langu=langu,lang=lang)\ndef alloted():\n  users = db().select(db.User.ALL, orderby=db.User.Name)\n  return dict(users=users)\ndef preference():\n  for rows in db(db.auth_user.email == session.token).select(db.auth_user.email):\n   id1=rows.email\n  db.Lpref.E.default=id\n  form1 = crud.create(db.Lpref,\n         next=URL("index"))\n  users1 = db().select(db.Lpref.ALL)\n  users2 = db().select(db.Lpref.ALL)\n  for i in users1:\n      for j in users2:\n          if i.id > j.id:\n              if i.E == j.E:\n                  db(db.Lpref.id == j.id).delete()\n  return dict(form1=form1)\ndef total():\n   users = db().select(db.User.ALL, orderby=db.User.Name)\n  # award = db().select(db.Admin.ALL).first()\n   award = db(db.Admin.id > 0).select().first()\n   return dict(users=users,award=award)\ndef Admin():  \n  form2 = crud.create(db.Admin,\n         next=URL("admin"))\n  \n  return dict(form2=form2)\ndef submit():\n db(request.args(0) == db.User.id).update(flag = 1)\n users = db().select(db.User.ALL, orderby=db.User.Name)\n return dict(users=users)\ndef upload():\n    if request.vars.csvfile != None:\n        table = db[request.vars.table]\n        file = request.vars.csvfile.file\n        table.import_from_csv_file(file) #Import from the csv file\n        award = db(db.Admin.id > 0).select().first()                                         \n        #query = db.stlist.flag==""\n        #db(query).update(flag="1")         \n        for k in db(db.User.Award=="D1").select():\n            k.Total=award.D1                                                        #Change the value to change the cost of D1\n            k.update_record()\n        for k in db(db.User.Award=="D2").select():\n            k.Total=award.D2                                                        #change the value to cost of D2\n            k.update_record()\n        for k in db(db.User.Award=="D3").select():\n            k.Total=award.D3                                                       #Change the value to change the cost of D3\n            k.update_record()\n        for k in db(db.User.Award=="ML").select():\n            k.Total=award.ML                                                       #Change the value to change the cost of ML\n            k.update_record()\n        #db(db.stlist.Award==k).update(total="1200")\n        #response.flash = \'Students List uploaded\'\n    users1 = db().select(db.User.ALL, orderby=db.User.Name)\n    users2 = db().select(db.User.ALL, orderby=db.User.Name)\n    for i in users1:\n         for j in users2:\n           if i.id < j.id:\n              if i.RollNo == j.RollNo:\n                  db(db.User.id == i.id).update(Total=i.Total+j.Total)\n                  db(db.User.id == i.id).update(Award1=j.Award)\n                  db(db.User.id == j.id).delete()  \n \n        \n    return dict()\n#@auth.requires_membership(\'Administrator\')\ndef upload1():\n     if request.vars.csvfile != None:\n        table = db[request.vars.table]\n        file = request.vars.csvfile.file\n        table.import_from_csv_file(file)                                          #Import from the csv file\n        response.flash = \'Books List uploaded\'\n     return dict()\ndef update():\n  db.UPBook.insert(Stu_name=request.args(0),usd=request.args(1),Name=request.args(2),Language=request.args(3),Bid=request.args(7),Copies=request.args(8),Cost=request.args(5))\n  db(db.User.id ==request.args(4)).update(Uptotal=int(int(request.args(6))+int(request.args(5))))\n  db(db.Book.id ==request.args(7)).update(Copies=int(int(request.args(8))-1))\n  #db.UPBook.Stu_name.default = request.args(0)\n  #db.UPBook.usd.default = request.args(1))\n  #db.UPBook.Name.default=request.args(2)\n  #db.UPBook.Language.default=request.args(3)\n  #return dict(redirect(URL(\'show\')))\n  User = db.User(request.args(4)) or redirect(URL(\'choose\'))\n  upbooks1 = db(db.UPBook.usd==User.RollNo).select()\n  upbooks = db(db.UPBook.usd==User.RollNo).select()\n  \n  for i in upbooks:\n      for j in upbooks1:\n          if i.id < j.id:\n              if i.Bid == j.Bid:\n                 \n                  db(db.UPBook.id == j.id).delete()\n  \n  UPBooks = db(db.UPBook.usd==request.args(1)).select()\n  langu = db().select(db.Lpref.ALL)\n  lang = db().select(db.lang.ALL)\n  Books = db().select(db.Book.ALL, orderby=db.Book.Name)\n  return dict(User=User,UPBooks=UPBooks,Books=Books,lang=lang,langu=langu)\ndef delete():\n  db(db.UPBook.id == request.args(2)).delete()\n  db(db.User.id ==request.args(0)).update(Uptotal=int(int(request.args(1))-int(request.args(6))))\n  db(db.Book.id ==request.args(4)).update(Copies=int(int(request.args(3))))\n  User = db.User(request.args(0)) or redirect(URL(\'choose\'))\n  UPBooks = db(db.UPBook.usd==request.args(5)).select()\n  Books = db().select(db.Book.ALL, orderby=db.Book.Name)\n  langu = db().select(db.Lpref.ALL)\n  lang = db().select(db.lang.ALL)\n  return dict(User=User,UPBooks=UPBooks,Books=Books,langu=langu,lang=lang)\ndef choose1():\n for rows in db(db.auth_user.email == session.token).select(db.auth_user.id):\n  id1=rows.id\n prebooks = db(db.prebook.usd == id1).select()\n Books = db().select(db.Book.ALL, orderby=db.Book.Name)\n return dict(prebooks=prebooks,Books=Books)\n \n \n\ndef update1():\n  db.prebook.insert(usd=request.args(0),Name=request.args(1),Language=request.args(2),Bid=request.args(3),Stu_name=request.args(4))\n  db(db.prebook.Stu_name == \'static\').delete()\n \n  #db.UPBook.Stu_name.default = request.args(0)\n  #db.UPBook.usd.default = request.args(1))\n  #db.UPBook.Name.default=request.args(2)\n  #db.UPBook.Language.default=request.args(3)\n  #return dict(redirect(URL(\'show\')))\n # User = db.User(request.args(0)) or redirect(URL(\'choose1\'))\n\n  \n  prebooks2 = db(db.prebook.usd ==request.args(0)).select()\n  prebooks1 = db(db.prebook.usd ==request.args(0)).select()\n  \n  for i in prebooks2:\n      for j in prebooks1:\n          if i.id < j.id:\n              if i.Bid == j.Bid:\n                 \n                  db(db.prebook.id == j.id).delete()\n  prebooks = db(db.prebook.usd ==request.args(0)).select()\n  Books = db().select(db.Book.ALL, orderby=db.Book.Name)\n  return dict(prebooks=prebooks,Books=Books)\ndef delete1():\n  db(db.prebook.id == request.args(1)).delete()\n  \n  prebooks = db(db.prebook.usd == request.args(0)).select()\n  Books = db().select(db.Book.ALL, orderby=db.Book.Name)\n  return dict(prebooks=prebooks,Books=Books)\ndef download():\n    """\n    allows downloading of uploaded files\n    http://..../[app]/default/download/[filename]\n    """\n    return response.download(request,db)\n\n\ndef call():\n    """\n    exposes services. for example:\n    http://..../[app]/default/call/jsonrpc\n    decorate with @services.jsonrpc the functions to expose\n    supports xml, json, xmlrpc, jsonrpc, amfrpc, rss, csv\n    """\n    return service()\n\n\n@auth.requires_signature()\ndef data():\n    """\n    http://..../[app]/default/data/tables\n    http://..../[app]/default/data/create/[table]\n    http://..../[app]/default/data/read/[table]/[id]\n    http://..../[app]/default/data/update/[table]/[id]\n    http://..../[app]/default/data/delete/[table]/[id]\n    http://..../[app]/default/data/select/[table]\n    http://..../[app]/default/data/search/[table]\n    but URLs must be signed, i.e. linked with\n      A(\'table\',_href=URL(\'data/tables\',user_signature=True))\n    or with the signed load operator\n      LOAD(\'default\',\'data.load\',args=\'tables\',ajax=True,user_signature=True)\n    """\n    return dict(form=crud())\ndef manage():\n    grid = SQLFORM.smartgrid(db.UPBook)\n    return dict(grid=grid)\n\nresponse._vars=response._caller(preference)\n'
p7
sS'snapshot'
p8
(dp9
S'exception'
p10
(dp11
S'__hash__'
p12
S"<method-wrapper '__hash__' of exceptions.TypeError object>"
p13
sS'__setattr__'
p14
S"<method-wrapper '__setattr__' of exceptions.TypeError object>"
p15
sS'__reduce_ex__'
p16
S'<built-in method __reduce_ex__ of exceptions.TypeError object>'
p17
sS'__getslice__'
p18
S"<method-wrapper '__getslice__' of exceptions.TypeError object>"
p19
sS'__getitem__'
p20
S"<method-wrapper '__getitem__' of exceptions.TypeError object>"
p21
sS'__setstate__'
p22
S'<built-in method __setstate__ of exceptions.TypeError object>'
p23
sS'args'
p24
S"('id() takes exactly one argument (0 given)',)"
p25
sS'__reduce__'
p26
S'<built-in method __reduce__ of exceptions.TypeError object>'
p27
sS'__str__'
p28
S"<method-wrapper '__str__' of exceptions.TypeError object>"
p29
sS'__format__'
p30
S'<built-in method __format__ of exceptions.TypeError object>'
p31
sS'__getattribute__'
p32
S"<method-wrapper '__getattribute__' of exceptions.TypeError object>"
p33
sS'__class__'
p34
S"<type 'exceptions.TypeError'>"
p35
sS'__unicode__'
p36
S'<built-in method __unicode__ of exceptions.TypeError object>'
p37
sS'__delattr__'
p38
S"<method-wrapper '__delattr__' of exceptions.TypeError object>"
p39
sS'__subclasshook__'
p40
S'<built-in method __subclasshook__ of type object>'
p41
sS'__repr__'
p42
S"<method-wrapper '__repr__' of exceptions.TypeError object>"
p43
sS'__dict__'
p44
S'{}'
p45
sS'__sizeof__'
p46
S'<built-in method __sizeof__ of exceptions.TypeError object>'
p47
sS'__doc__'
p48
S"'Inappropriate argument type.'"
p49
sS'__init__'
p50
S"<method-wrapper '__init__' of exceptions.TypeError object>"
p51
sS'__new__'
p52
S'<built-in method __new__ of type object>'
p53
ssS'evalue'
p54
S'id() takes exactly one argument (0 given)'
p55
sS'request'
p56
ccopy_reg
_reconstructor
p57
(cgluon.html
BEAUTIFY
p58
c__builtin__
object
p59
NtRp60
(dp61
S'attributes'
p62
(dp63
sS'components'
p64
(lp65
g57
(cgluon.html
TABLE
p66
g59
NtRp67
(dp68
g62
(dp69
S'level'
p70
I5
ssS'parent'
p71
Nsg64
(lp72
g57
(cgluon.html
TR
p73
g59
NtRp74
(dp75
g62
(dp76
sg71
g67
sg64
(lp77
g57
(cgluon.html
TD
p78
g59
NtRp79
(dp80
g62
(dp81
S'_style'
p82
S'font-weight:bold;vertical-align:top'
p83
ssg71
g74
sg64
(lp84
S'ajax'
p85
asbag57
(g78
g59
NtRp86
(dp87
g62
(dp88
S'_valign'
p89
S'top'
p90
ssg71
g74
sg64
(lp91
S':'
asbag57
(g78
g59
NtRp92
(dp93
g62
(dp94
sg71
g74
sg64
(lp95
g57
(g58
g59
NtRp96
(dp97
g62
(dp98
g70
I5
ssg71
g92
sg64
(lp99
S'False'
p100
asbasbasbag57
(g73
g59
NtRp101
(dp102
g62
(dp103
sg71
g67
sg64
(lp104
g57
(g78
g59
NtRp105
(dp106
g62
(dp107
g82
g83
ssg71
g101
sg64
(lp108
S'application'
p109
asbag57
(g78
g59
NtRp110
(dp111
g62
(dp112
g89
g90
ssg71
g101
sg64
(lp113
S':'
asbag57
(g78
g59
NtRp114
(dp115
g62
(dp116
sg71
g101
sg64
(lp117
g57
(g58
g59
NtRp118
(dp119
g62
(dp120
g70
I5
ssg71
g114
sg64
(lp121
S'manager'
p122
asbasbasbag57
(g73
g59
NtRp123
(dp124
g62
(dp125
sg71
g67
sg64
(lp126
g57
(g78
g59
NtRp127
(dp128
g62
(dp129
g82
g83
ssg71
g123
sg64
(lp130
g24
asbag57
(g78
g59
NtRp131
(dp132
g62
(dp133
g89
g90
ssg71
g123
sg64
(lp134
S':'
asbag57
(g78
g59
NtRp135
(dp136
g62
(dp137
sg71
g123
sg64
(lp138
g57
(g58
g59
NtRp139
(dp140
g62
(dp141
g70
I5
ssg71
g135
sg64
(lp142
g57
(g66
g59
NtRp143
(dp144
g62
(dp145
g70
I4
ssg71
Nsg64
(lp146
sbasbasbasbag57
(g73
g59
NtRp147
(dp148
g62
(dp149
sg71
g67
sg64
(lp150
g57
(g78
g59
NtRp151
(dp152
g62
(dp153
g82
g83
ssg71
g147
sg64
(lp154
S'body'
p155
asbag57
(g78
g59
NtRp156
(dp157
g62
(dp158
g89
g90
ssg71
g147
sg64
(lp159
S':'
asbag57
(g78
g59
NtRp160
(dp161
g62
(dp162
sg71
g147
sg64
(lp163
g57
(g58
g59
NtRp164
(dp165
g62
(dp166
g70
I5
ssg71
g160
sg64
(lp167
S"<open file '<fdopen>', mode 'w+b' at 0x19528a0>"
p168
asbasbasbag57
(g73
g59
NtRp169
(dp170
g62
(dp171
sg71
g67
sg64
(lp172
g57
(g78
g59
NtRp173
(dp174
g62
(dp175
g82
g83
ssg71
g169
sg64
(lp176
S'client'
p177
asbag57
(g78
g59
NtRp178
(dp179
g62
(dp180
g89
g90
ssg71
g169
sg64
(lp181
S':'
asbag57
(g78
g59
NtRp182
(dp183
g62
(dp184
sg71
g169
sg64
(lp185
g57
(g58
g59
NtRp186
(dp187
g62
(dp188
g70
I5
ssg71
g182
sg64
(lp189
S'127.0.0.1'
p190
asbasbasbag57
(g73
g59
NtRp191
(dp192
g62
(dp193
sg71
g67
sg64
(lp194
g57
(g78
g59
NtRp195
(dp196
g62
(dp197
g82
g83
ssg71
g191
sg64
(lp198
S'controller'
p199
asbag57
(g78
g59
NtRp200
(dp201
g62
(dp202
g89
g90
ssg71
g191
sg64
(lp203
S':'
asbag57
(g78
g59
NtRp204
(dp205
g62
(dp206
sg71
g191
sg64
(lp207
g57
(g58
g59
NtRp208
(dp209
g62
(dp210
g70
I5
ssg71
g204
sg64
(lp211
S'default'
p212
asbasbasbag57
(g73
g59
NtRp213
(dp214
g62
(dp215
sg71
g67
sg64
(lp216
g57
(g78
g59
NtRp217
(dp218
g62
(dp219
g82
g83
ssg71
g213
sg64
(lp220
S'cookies'
p221
asbag57
(g78
g59
NtRp222
(dp223
g62
(dp224
g89
g90
ssg71
g213
sg64
(lp225
S':'
asbag57
(g78
g59
NtRp226
(dp227
g62
(dp228
sg71
g213
sg64
(lp229
g57
(g58
g59
NtRp230
(dp231
g62
(dp232
g70
I5
ssg71
g226
sg64
(lp233
g57
(g66
g59
NtRp234
(dp235
g62
(dp236
g70
I4
ssg71
Nsg64
(lp237
g57
(g73
g59
NtRp238
(dp239
g62
(dp240
sg71
g234
sg64
(lp241
g57
(g78
g59
NtRp242
(dp243
g62
(dp244
g82
g83
ssg71
g238
sg64
(lp245
S'session_id_admin'
p246
asbag57
(g78
g59
NtRp247
(dp248
g62
(dp249
g89
g90
ssg71
g238
sg64
(lp250
S':'
asbag57
(g78
g59
NtRp251
(dp252
g62
(dp253
sg71
g238
sg64
(lp254
g57
(g58
g59
NtRp255
(dp256
g62
(dp257
g70
I4
ssg71
g251
sg64
(lp258
g57
(g66
g59
NtRp259
(dp260
g62
(dp261
g70
I3
ssg71
Nsg64
(lp262
g57
(g73
g59
NtRp263
(dp264
g62
(dp265
sg71
g259
sg64
(lp266
g57
(g78
g59
NtRp267
(dp268
g62
(dp269
g82
g83
ssg71
g263
sg64
(lp270
S'comment'
p271
asbag57
(g78
g59
NtRp272
(dp273
g62
(dp274
g89
g90
ssg71
g263
sg64
(lp275
S':'
asbag57
(g78
g59
NtRp276
(dp277
g62
(dp278
sg71
g263
sg64
(lp279
g57
(g58
g59
NtRp280
(dp281
g62
(dp282
g70
I3
ssg71
g276
sg64
(lp283
S''
asbasbasbag57
(g73
g59
NtRp284
(dp285
g62
(dp286
sg71
g259
sg64
(lp287
g57
(g78
g59
NtRp288
(dp289
g62
(dp290
g82
g83
ssg71
g284
sg64
(lp291
S'domain'
p292
asbag57
(g78
g59
NtRp293
(dp294
g62
(dp295
g89
g90
ssg71
g284
sg64
(lp296
S':'
asbag57
(g78
g59
NtRp297
(dp298
g62
(dp299
sg71
g284
sg64
(lp300
g57
(g58
g59
NtRp301
(dp302
g62
(dp303
g70
I3
ssg71
g297
sg64
(lp304
S''
asbasbasbag57
(g73
g59
NtRp305
(dp306
g62
(dp307
sg71
g259
sg64
(lp308
g57
(g78
g59
NtRp309
(dp310
g62
(dp311
g82
g83
ssg71
g305
sg64
(lp312
S'expires'
p313
asbag57
(g78
g59
NtRp314
(dp315
g62
(dp316
g89
g90
ssg71
g305
sg64
(lp317
S':'
asbag57
(g78
g59
NtRp318
(dp319
g62
(dp320
sg71
g305
sg64
(lp321
g57
(g58
g59
NtRp322
(dp323
g62
(dp324
g70
I3
ssg71
g318
sg64
(lp325
S''
asbasbasbag57
(g73
g59
NtRp326
(dp327
g62
(dp328
sg71
g259
sg64
(lp329
g57
(g78
g59
NtRp330
(dp331
g62
(dp332
g82
g83
ssg71
g326
sg64
(lp333
S'httponly'
p334
asbag57
(g78
g59
NtRp335
(dp336
g62
(dp337
g89
g90
ssg71
g326
sg64
(lp338
S':'
asbag57
(g78
g59
NtRp339
(dp340
g62
(dp341
sg71
g326
sg64
(lp342
g57
(g58
g59
NtRp343
(dp344
g62
(dp345
g70
I3
ssg71
g339
sg64
(lp346
S''
asbasbasbag57
(g73
g59
NtRp347
(dp348
g62
(dp349
sg71
g259
sg64
(lp350
g57
(g78
g59
NtRp351
(dp352
g62
(dp353
g82
g83
ssg71
g347
sg64
(lp354
S'max-age'
p355
asbag57
(g78
g59
NtRp356
(dp357
g62
(dp358
g89
g90
ssg71
g347
sg64
(lp359
S':'
asbag57
(g78
g59
NtRp360
(dp361
g62
(dp362
sg71
g347
sg64
(lp363
g57
(g58
g59
NtRp364
(dp365
g62
(dp366
g70
I3
ssg71
g360
sg64
(lp367
S''
asbasbasbag57
(g73
g59
NtRp368
(dp369
g62
(dp370
sg71
g259
sg64
(lp371
g57
(g78
g59
NtRp372
(dp373
g62
(dp374
g82
g83
ssg71
g368
sg64
(lp375
S'path'
p376
asbag57
(g78
g59
NtRp377
(dp378
g62
(dp379
g89
g90
ssg71
g368
sg64
(lp380
S':'
asbag57
(g78
g59
NtRp381
(dp382
g62
(dp383
sg71
g368
sg64
(lp384
g57
(g58
g59
NtRp385
(dp386
g62
(dp387
g70
I3
ssg71
g381
sg64
(lp388
S''
asbasbasbag57
(g73
g59
NtRp389
(dp390
g62
(dp391
sg71
g259
sg64
(lp392
g57
(g78
g59
NtRp393
(dp394
g62
(dp395
g82
g83
ssg71
g389
sg64
(lp396
S'secure'
p397
asbag57
(g78
g59
NtRp398
(dp399
g62
(dp400
g89
g90
ssg71
g389
sg64
(lp401
S':'
asbag57
(g78
g59
NtRp402
(dp403
g62
(dp404
sg71
g389
sg64
(lp405
g57
(g58
g59
NtRp406
(dp407
g62
(dp408
g70
I3
ssg71
g402
sg64
(lp409
S''
asbasbasbag57
(g73
g59
NtRp410
(dp411
g62
(dp412
sg71
g259
sg64
(lp413
g57
(g78
g59
NtRp414
(dp415
g62
(dp416
g82
g83
ssg71
g410
sg64
(lp417
S'version'
p418
asbag57
(g78
g59
NtRp419
(dp420
g62
(dp421
g89
g90
ssg71
g410
sg64
(lp422
S':'
asbag57
(g78
g59
NtRp423
(dp424
g62
(dp425
sg71
g410
sg64
(lp426
g57
(g58
g59
NtRp427
(dp428
g62
(dp429
g70
I3
ssg71
g423
sg64
(lp430
S''
asbasbasbasbasbasbasbag57
(g73
g59
NtRp431
(dp432
g62
(dp433
sg71
g234
sg64
(lp434
g57
(g78
g59
NtRp435
(dp436
g62
(dp437
g82
g83
ssg71
g431
sg64
(lp438
S'session_id_award_manager'
p439
asbag57
(g78
g59
NtRp440
(dp441
g62
(dp442
g89
g90
ssg71
g431
sg64
(lp443
S':'
asbag57
(g78
g59
NtRp444
(dp445
g62
(dp446
sg71
g431
sg64
(lp447
g57
(g58
g59
NtRp448
(dp449
g62
(dp450
g70
I4
ssg71
g444
sg64
(lp451
g57
(g66
g59
NtRp452
(dp453
g62
(dp454
g70
I3
ssg71
Nsg64
(lp455
g57
(g73
g59
NtRp456
(dp457
g62
(dp458
sg71
g452
sg64
(lp459
g57
(g78
g59
NtRp460
(dp461
g62
(dp462
g82
g83
ssg71
g456
sg64
(lp463
g271
asbag57
(g78
g59
NtRp464
(dp465
g62
(dp466
g89
g90
ssg71
g456
sg64
(lp467
S':'
asbag57
(g78
g59
NtRp468
(dp469
g62
(dp470
sg71
g456
sg64
(lp471
g57
(g58
g59
NtRp472
(dp473
g62
(dp474
g70
I3
ssg71
g468
sg64
(lp475
S''
asbasbasbag57
(g73
g59
NtRp476
(dp477
g62
(dp478
sg71
g452
sg64
(lp479
g57
(g78
g59
NtRp480
(dp481
g62
(dp482
g82
g83
ssg71
g476
sg64
(lp483
g292
asbag57
(g78
g59
NtRp484
(dp485
g62
(dp486
g89
g90
ssg71
g476
sg64
(lp487
S':'
asbag57
(g78
g59
NtRp488
(dp489
g62
(dp490
sg71
g476
sg64
(lp491
g57
(g58
g59
NtRp492
(dp493
g62
(dp494
g70
I3
ssg71
g488
sg64
(lp495
S''
asbasbasbag57
(g73
g59
NtRp496
(dp497
g62
(dp498
sg71
g452
sg64
(lp499
g57
(g78
g59
NtRp500
(dp501
g62
(dp502
g82
g83
ssg71
g496
sg64
(lp503
g313
asbag57
(g78
g59
NtRp504
(dp505
g62
(dp506
g89
g90
ssg71
g496
sg64
(lp507
S':'
asbag57
(g78
g59
NtRp508
(dp509
g62
(dp510
sg71
g496
sg64
(lp511
g57
(g58
g59
NtRp512
(dp513
g62
(dp514
g70
I3
ssg71
g508
sg64
(lp515
S''
asbasbasbag57
(g73
g59
NtRp516
(dp517
g62
(dp518
sg71
g452
sg64
(lp519
g57
(g78
g59
NtRp520
(dp521
g62
(dp522
g82
g83
ssg71
g516
sg64
(lp523
g334
asbag57
(g78
g59
NtRp524
(dp525
g62
(dp526
g89
g90
ssg71
g516
sg64
(lp527
S':'
asbag57
(g78
g59
NtRp528
(dp529
g62
(dp530
sg71
g516
sg64
(lp531
g57
(g58
g59
NtRp532
(dp533
g62
(dp534
g70
I3
ssg71
g528
sg64
(lp535
S''
asbasbasbag57
(g73
g59
NtRp536
(dp537
g62
(dp538
sg71
g452
sg64
(lp539
g57
(g78
g59
NtRp540
(dp541
g62
(dp542
g82
g83
ssg71
g536
sg64
(lp543
g355
asbag57
(g78
g59
NtRp544
(dp545
g62
(dp546
g89
g90
ssg71
g536
sg64
(lp547
S':'
asbag57
(g78
g59
NtRp548
(dp549
g62
(dp550
sg71
g536
sg64
(lp551
g57
(g58
g59
NtRp552
(dp553
g62
(dp554
g70
I3
ssg71
g548
sg64
(lp555
S''
asbasbasbag57
(g73
g59
NtRp556
(dp557
g62
(dp558
sg71
g452
sg64
(lp559
g57
(g78
g59
NtRp560
(dp561
g62
(dp562
g82
g83
ssg71
g556
sg64
(lp563
g376
asbag57
(g78
g59
NtRp564
(dp565
g62
(dp566
g89
g90
ssg71
g556
sg64
(lp567
S':'
asbag57
(g78
g59
NtRp568
(dp569
g62
(dp570
sg71
g556
sg64
(lp571
g57
(g58
g59
NtRp572
(dp573
g62
(dp574
g70
I3
ssg71
g568
sg64
(lp575
S''
asbasbasbag57
(g73
g59
NtRp576
(dp577
g62
(dp578
sg71
g452
sg64
(lp579
g57
(g78
g59
NtRp580
(dp581
g62
(dp582
g82
g83
ssg71
g576
sg64
(lp583
g397
asbag57
(g78
g59
NtRp584
(dp585
g62
(dp586
g89
g90
ssg71
g576
sg64
(lp587
S':'
asbag57
(g78
g59
NtRp588
(dp589
g62
(dp590
sg71
g576
sg64
(lp591
g57
(g58
g59
NtRp592
(dp593
g62
(dp594
g70
I3
ssg71
g588
sg64
(lp595
S''
asbasbasbag57
(g73
g59
NtRp596
(dp597
g62
(dp598
sg71
g452
sg64
(lp599
g57
(g78
g59
NtRp600
(dp601
g62
(dp602
g82
g83
ssg71
g596
sg64
(lp603
g418
asbag57
(g78
g59
NtRp604
(dp605
g62
(dp606
g89
g90
ssg71
g596
sg64
(lp607
S':'
asbag57
(g78
g59
NtRp608
(dp609
g62
(dp610
sg71
g596
sg64
(lp611
g57
(g58
g59
NtRp612
(dp613
g62
(dp614
g70
I3
ssg71
g608
sg64
(lp615
S''
asbasbasbasbasbasbasbag57
(g73
g59
NtRp616
(dp617
g62
(dp618
sg71
g234
sg64
(lp619
g57
(g78
g59
NtRp620
(dp621
g62
(dp622
g82
g83
ssg71
g616
sg64
(lp623
S'session_id_manager'
p624
asbag57
(g78
g59
NtRp625
(dp626
g62
(dp627
g89
g90
ssg71
g616
sg64
(lp628
S':'
asbag57
(g78
g59
NtRp629
(dp630
g62
(dp631
sg71
g616
sg64
(lp632
g57
(g58
g59
NtRp633
(dp634
g62
(dp635
g70
I4
ssg71
g629
sg64
(lp636
g57
(g66
g59
NtRp637
(dp638
g62
(dp639
g70
I3
ssg71
Nsg64
(lp640
g57
(g73
g59
NtRp641
(dp642
g62
(dp643
sg71
g637
sg64
(lp644
g57
(g78
g59
NtRp645
(dp646
g62
(dp647
g82
g83
ssg71
g641
sg64
(lp648
g271
asbag57
(g78
g59
NtRp649
(dp650
g62
(dp651
g89
g90
ssg71
g641
sg64
(lp652
S':'
asbag57
(g78
g59
NtRp653
(dp654
g62
(dp655
sg71
g641
sg64
(lp656
g57
(g58
g59
NtRp657
(dp658
g62
(dp659
g70
I3
ssg71
g653
sg64
(lp660
S''
asbasbasbag57
(g73
g59
NtRp661
(dp662
g62
(dp663
sg71
g637
sg64
(lp664
g57
(g78
g59
NtRp665
(dp666
g62
(dp667
g82
g83
ssg71
g661
sg64
(lp668
g292
asbag57
(g78
g59
NtRp669
(dp670
g62
(dp671
g89
g90
ssg71
g661
sg64
(lp672
S':'
asbag57
(g78
g59
NtRp673
(dp674
g62
(dp675
sg71
g661
sg64
(lp676
g57
(g58
g59
NtRp677
(dp678
g62
(dp679
g70
I3
ssg71
g673
sg64
(lp680
S''
asbasbasbag57
(g73
g59
NtRp681
(dp682
g62
(dp683
sg71
g637
sg64
(lp684
g57
(g78
g59
NtRp685
(dp686
g62
(dp687
g82
g83
ssg71
g681
sg64
(lp688
g313
asbag57
(g78
g59
NtRp689
(dp690
g62
(dp691
g89
g90
ssg71
g681
sg64
(lp692
S':'
asbag57
(g78
g59
NtRp693
(dp694
g62
(dp695
sg71
g681
sg64
(lp696
g57
(g58
g59
NtRp697
(dp698
g62
(dp699
g70
I3
ssg71
g693
sg64
(lp700
S''
asbasbasbag57
(g73
g59
NtRp701
(dp702
g62
(dp703
sg71
g637
sg64
(lp704
g57
(g78
g59
NtRp705
(dp706
g62
(dp707
g82
g83
ssg71
g701
sg64
(lp708
g334
asbag57
(g78
g59
NtRp709
(dp710
g62
(dp711
g89
g90
ssg71
g701
sg64
(lp712
S':'
asbag57
(g78
g59
NtRp713
(dp714
g62
(dp715
sg71
g701
sg64
(lp716
g57
(g58
g59
NtRp717
(dp718
g62
(dp719
g70
I3
ssg71
g713
sg64
(lp720
S''
asbasbasbag57
(g73
g59
NtRp721
(dp722
g62
(dp723
sg71
g637
sg64
(lp724
g57
(g78
g59
NtRp725
(dp726
g62
(dp727
g82
g83
ssg71
g721
sg64
(lp728
g355
asbag57
(g78
g59
NtRp729
(dp730
g62
(dp731
g89
g90
ssg71
g721
sg64
(lp732
S':'
asbag57
(g78
g59
NtRp733
(dp734
g62
(dp735
sg71
g721
sg64
(lp736
g57
(g58
g59
NtRp737
(dp738
g62
(dp739
g70
I3
ssg71
g733
sg64
(lp740
S''
asbasbasbag57
(g73
g59
NtRp741
(dp742
g62
(dp743
sg71
g637
sg64
(lp744
g57
(g78
g59
NtRp745
(dp746
g62
(dp747
g82
g83
ssg71
g741
sg64
(lp748
g376
asbag57
(g78
g59
NtRp749
(dp750
g62
(dp751
g89
g90
ssg71
g741
sg64
(lp752
S':'
asbag57
(g78
g59
NtRp753
(dp754
g62
(dp755
sg71
g741
sg64
(lp756
g57
(g58
g59
NtRp757
(dp758
g62
(dp759
g70
I3
ssg71
g753
sg64
(lp760
S''
asbasbasbag57
(g73
g59
NtRp761
(dp762
g62
(dp763
sg71
g637
sg64
(lp764
g57
(g78
g59
NtRp765
(dp766
g62
(dp767
g82
g83
ssg71
g761
sg64
(lp768
g397
asbag57
(g78
g59
NtRp769
(dp770
g62
(dp771
g89
g90
ssg71
g761
sg64
(lp772
S':'
asbag57
(g78
g59
NtRp773
(dp774
g62
(dp775
sg71
g761
sg64
(lp776
g57
(g58
g59
NtRp777
(dp778
g62
(dp779
g70
I3
ssg71
g773
sg64
(lp780
S''
asbasbasbag57
(g73
g59
NtRp781
(dp782
g62
(dp783
sg71
g637
sg64
(lp784
g57
(g78
g59
NtRp785
(dp786
g62
(dp787
g82
g83
ssg71
g781
sg64
(lp788
g418
asbag57
(g78
g59
NtRp789
(dp790
g62
(dp791
g89
g90
ssg71
g781
sg64
(lp792
S':'
asbag57
(g78
g59
NtRp793
(dp794
g62
(dp795
sg71
g781
sg64
(lp796
g57
(g58
g59
NtRp797
(dp798
g62
(dp799
g70
I3
ssg71
g793
sg64
(lp800
S''
asbasbasbasbasbasbasbag57
(g73
g59
NtRp801
(dp802
g62
(dp803
sg71
g234
sg64
(lp804
g57
(g78
g59
NtRp805
(dp806
g62
(dp807
g82
g83
ssg71
g801
sg64
(lp808
S'session_id_welcome'
p809
asbag57
(g78
g59
NtRp810
(dp811
g62
(dp812
g89
g90
ssg71
g801
sg64
(lp813
S':'
asbag57
(g78
g59
NtRp814
(dp815
g62
(dp816
sg71
g801
sg64
(lp817
g57
(g58
g59
NtRp818
(dp819
g62
(dp820
g70
I4
ssg71
g814
sg64
(lp821
g57
(g66
g59
NtRp822
(dp823
g62
(dp824
g70
I3
ssg71
Nsg64
(lp825
g57
(g73
g59
NtRp826
(dp827
g62
(dp828
sg71
g822
sg64
(lp829
g57
(g78
g59
NtRp830
(dp831
g62
(dp832
g82
g83
ssg71
g826
sg64
(lp833
g271
asbag57
(g78
g59
NtRp834
(dp835
g62
(dp836
g89
g90
ssg71
g826
sg64
(lp837
S':'
asbag57
(g78
g59
NtRp838
(dp839
g62
(dp840
sg71
g826
sg64
(lp841
g57
(g58
g59
NtRp842
(dp843
g62
(dp844
g70
I3
ssg71
g838
sg64
(lp845
S''
asbasbasbag57
(g73
g59
NtRp846
(dp847
g62
(dp848
sg71
g822
sg64
(lp849
g57
(g78
g59
NtRp850
(dp851
g62
(dp852
g82
g83
ssg71
g846
sg64
(lp853
g292
asbag57
(g78
g59
NtRp854
(dp855
g62
(dp856
g89
g90
ssg71
g846
sg64
(lp857
S':'
asbag57
(g78
g59
NtRp858
(dp859
g62
(dp860
sg71
g846
sg64
(lp861
g57
(g58
g59
NtRp862
(dp863
g62
(dp864
g70
I3
ssg71
g858
sg64
(lp865
S''
asbasbasbag57
(g73
g59
NtRp866
(dp867
g62
(dp868
sg71
g822
sg64
(lp869
g57
(g78
g59
NtRp870
(dp871
g62
(dp872
g82
g83
ssg71
g866
sg64
(lp873
g313
asbag57
(g78
g59
NtRp874
(dp875
g62
(dp876
g89
g90
ssg71
g866
sg64
(lp877
S':'
asbag57
(g78
g59
NtRp878
(dp879
g62
(dp880
sg71
g866
sg64
(lp881
g57
(g58
g59
NtRp882
(dp883
g62
(dp884
g70
I3
ssg71
g878
sg64
(lp885
S''
asbasbasbag57
(g73
g59
NtRp886
(dp887
g62
(dp888
sg71
g822
sg64
(lp889
g57
(g78
g59
NtRp890
(dp891
g62
(dp892
g82
g83
ssg71
g886
sg64
(lp893
g334
asbag57
(g78
g59
NtRp894
(dp895
g62
(dp896
g89
g90
ssg71
g886
sg64
(lp897
S':'
asbag57
(g78
g59
NtRp898
(dp899
g62
(dp900
sg71
g886
sg64
(lp901
g57
(g58
g59
NtRp902
(dp903
g62
(dp904
g70
I3
ssg71
g898
sg64
(lp905
S''
asbasbasbag57
(g73
g59
NtRp906
(dp907
g62
(dp908
sg71
g822
sg64
(lp909
g57
(g78
g59
NtRp910
(dp911
g62
(dp912
g82
g83
ssg71
g906
sg64
(lp913
g355
asbag57
(g78
g59
NtRp914
(dp915
g62
(dp916
g89
g90
ssg71
g906
sg64
(lp917
S':'
asbag57
(g78
g59
NtRp918
(dp919
g62
(dp920
sg71
g906
sg64
(lp921
g57
(g58
g59
NtRp922
(dp923
g62
(dp924
g70
I3
ssg71
g918
sg64
(lp925
S''
asbasbasbag57
(g73
g59
NtRp926
(dp927
g62
(dp928
sg71
g822
sg64
(lp929
g57
(g78
g59
NtRp930
(dp931
g62
(dp932
g82
g83
ssg71
g926
sg64
(lp933
g376
asbag57
(g78
g59
NtRp934
(dp935
g62
(dp936
g89
g90
ssg71
g926
sg64
(lp937
S':'
asbag57
(g78
g59
NtRp938
(dp939
g62
(dp940
sg71
g926
sg64
(lp941
g57
(g58
g59
NtRp942
(dp943
g62
(dp944
g70
I3
ssg71
g938
sg64
(lp945
S''
asbasbasbag57
(g73
g59
NtRp946
(dp947
g62
(dp948
sg71
g822
sg64
(lp949
g57
(g78
g59
NtRp950
(dp951
g62
(dp952
g82
g83
ssg71
g946
sg64
(lp953
g397
asbag57
(g78
g59
NtRp954
(dp955
g62
(dp956
g89
g90
ssg71
g946
sg64
(lp957
S':'
asbag57
(g78
g59
NtRp958
(dp959
g62
(dp960
sg71
g946
sg64
(lp961
g57
(g58
g59
NtRp962
(dp963
g62
(dp964
g70
I3
ssg71
g958
sg64
(lp965
S''
asbasbasbag57
(g73
g59
NtRp966
(dp967
g62
(dp968
sg71
g822
sg64
(lp969
g57
(g78
g59
NtRp970
(dp971
g62
(dp972
g82
g83
ssg71
g966
sg64
(lp973
g418
asbag57
(g78
g59
NtRp974
(dp975
g62
(dp976
g89
g90
ssg71
g966
sg64
(lp977
S':'
asbag57
(g78
g59
NtRp978
(dp979
g62
(dp980
sg71
g966
sg64
(lp981
g57
(g58
g59
NtRp982
(dp983
g62
(dp984
g70
I3
ssg71
g978
sg64
(lp985
S''
asbasbasbasbasbasbasbasbasbasbasbag57
(g73
g59
NtRp986
(dp987
g62
(dp988
sg71
g67
sg64
(lp989
g57
(g78
g59
NtRp990
(dp991
g62
(dp992
g82
g83
ssg71
g986
sg64
(lp993
S'env'
p994
asbag57
(g78
g59
NtRp995
(dp996
g62
(dp997
g89
g90
ssg71
g986
sg64
(lp998
S':'
asbag57
(g78
g59
NtRp999
(dp1000
g62
(dp1001
sg71
g986
sg64
(lp1002
g57
(g58
g59
NtRp1003
(dp1004
g62
(dp1005
g70
I5
ssg71
g999
sg64
(lp1006
g57
(g66
g59
NtRp1007
(dp1008
g62
(dp1009
g70
I4
ssg71
Nsg64
(lp1010
g57
(g73
g59
NtRp1011
(dp1012
g62
(dp1013
sg71
g1007
sg64
(lp1014
g57
(g78
g59
NtRp1015
(dp1016
g62
(dp1017
g82
g83
ssg71
g1011
sg64
(lp1018
S'app_folders'
p1019
asbag57
(g78
g59
NtRp1020
(dp1021
g62
(dp1022
g89
g90
ssg71
g1011
sg64
(lp1023
S':'
asbag57
(g78
g59
NtRp1024
(dp1025
g62
(dp1026
sg71
g1011
sg64
(lp1027
g57
(g58
g59
NtRp1028
(dp1029
g62
(dp1030
g70
I4
ssg71
g1024
sg64
(lp1031
S"set(['/home/abhishek/Desktop/web2py/applications/Award_Manager/', '/home/abhishek/Desktop/web2py/applications/welcome/', '/home/abhishek/Desktop/web2py/applications/admin/', '/home/abhishek/Desktop/web2py/applications/manager/'])"
p1032
asbasbasbag57
(g73
g59
NtRp1033
(dp1034
g62
(dp1035
sg71
g1007
sg64
(lp1036
g57
(g78
g59
NtRp1037
(dp1038
g62
(dp1039
g82
g83
ssg71
g1033
sg64
(lp1040
S'applications_parent'
p1041
asbag57
(g78
g59
NtRp1042
(dp1043
g62
(dp1044
g89
g90
ssg71
g1033
sg64
(lp1045
S':'
asbag57
(g78
g59
NtRp1046
(dp1047
g62
(dp1048
sg71
g1033
sg64
(lp1049
g57
(g58
g59
NtRp1050
(dp1051
g62
(dp1052
g70
I4
ssg71
g1046
sg64
(lp1053
S'/home/abhishek/Desktop/web2py'
p1054
asbasbasbag57
(g73
g59
NtRp1055
(dp1056
g62
(dp1057
sg71
g1007
sg64
(lp1058
g57
(g78
g59
NtRp1059
(dp1060
g62
(dp1061
g82
g83
ssg71
g1055
sg64
(lp1062
S'cmd_args'
p1063
asbag57
(g78
g59
NtRp1064
(dp1065
g62
(dp1066
g89
g90
ssg71
g1055
sg64
(lp1067
S':'
asbag57
(g78
g59
NtRp1068
(dp1069
g62
(dp1070
sg71
g1055
sg64
(lp1071
g57
(g58
g59
NtRp1072
(dp1073
g62
(dp1074
g70
I4
ssg71
g1068
sg64
(lp1075
g57
(g66
g59
NtRp1076
(dp1077
g62
(dp1078
g70
I3
ssg71
Nsg64
(lp1079
sbasbasbasbag57
(g73
g59
NtRp1080
(dp1081
g62
(dp1082
sg71
g1007
sg64
(lp1083
g57
(g78
g59
NtRp1084
(dp1085
g62
(dp1086
g82
g83
ssg71
g1080
sg64
(lp1087
S'cmd_options'
p1088
asbag57
(g78
g59
NtRp1089
(dp1090
g62
(dp1091
g89
g90
ssg71
g1080
sg64
(lp1092
S':'
asbag57
(g78
g59
NtRp1093
(dp1094
g62
(dp1095
sg71
g1080
sg64
(lp1096
g57
(g58
g59
NtRp1097
(dp1098
g62
(dp1099
g70
I4
ssg71
g1093
sg64
(lp1100
S"<Values at 0x1547098: {'verbose': False, 'ip': '127.0.0.1', 'shutdown_timeout': 5, 'taskbar': False, 'nocron': False, 'pid_filename': 'httpserver.pid', 'maxthreads': None, 'softcron': False, 'server_name': 'ubuntu', 'bpython': False, 'nogui': False, 'port': 8000, 'extcron': False, 'debuglevel': 30, 'test': None, 'folder': '/home/abhishek/Desktop/web2py', 'config': '', 'import_models': False, 'winservice': '', 'shell': None, 'run': '', 'log_filename': 'httpserver.log', 'args': [''], 'socket_timeout': 5, 'ssl_ca_certificate': None, 'scheduler': None, 'profiler_filename': None, 'ssl_private_key': '', 'password': 'i', 'request_queue_size': 5, 'ssl_certificate': '', 'cronjob': False, 'numthreads': None, 'quiet': False, 'interfaces': None, 'minthreads': None, 'timeout': 10, 'plain': False, 'nobanner': False}>"
p1101
asbasbasbag57
(g73
g59
NtRp1102
(dp1103
g62
(dp1104
sg71
g1007
sg64
(lp1105
g57
(g78
g59
NtRp1106
(dp1107
g62
(dp1108
g82
g83
ssg71
g1102
sg64
(lp1109
S'content_length'
p1110
asbag57
(g78
g59
NtRp1111
(dp1112
g62
(dp1113
g89
g90
ssg71
g1102
sg64
(lp1114
S':'
asbag57
(g78
g59
NtRp1115
(dp1116
g62
(dp1117
sg71
g1102
sg64
(lp1118
g57
(g58
g59
NtRp1119
(dp1120
g62
(dp1121
g70
I4
ssg71
g1115
sg64
(lp1122
S'690'
p1123
asbasbasbag57
(g73
g59
NtRp1124
(dp1125
g62
(dp1126
sg71
g1007
sg64
(lp1127
g57
(g78
g59
NtRp1128
(dp1129
g62
(dp1130
g82
g83
ssg71
g1124
sg64
(lp1131
S'content_type'
p1132
asbag57
(g78
g59
NtRp1133
(dp1134
g62
(dp1135
g89
g90
ssg71
g1124
sg64
(lp1136
S':'
asbag57
(g78
g59
NtRp1137
(dp1138
g62
(dp1139
sg71
g1124
sg64
(lp1140
g57
(g58
g59
NtRp1141
(dp1142
g62
(dp1143
g70
I4
ssg71
g1137
sg64
(lp1144
S'multipart/form-data; boundary=---------------------------10989308084159910531003072419'
p1145
asbasbasbag57
(g73
g59
NtRp1146
(dp1147
g62
(dp1148
sg71
g1007
sg64
(lp1149
g57
(g78
g59
NtRp1150
(dp1151
g62
(dp1152
g82
g83
ssg71
g1146
sg64
(lp1153
S'db_sessions'
p1154
asbag57
(g78
g59
NtRp1155
(dp1156
g62
(dp1157
g89
g90
ssg71
g1146
sg64
(lp1158
S':'
asbag57
(g78
g59
NtRp1159
(dp1160
g62
(dp1161
sg71
g1146
sg64
(lp1162
g57
(g58
g59
NtRp1163
(dp1164
g62
(dp1165
g70
I4
ssg71
g1159
sg64
(lp1166
S'set([])'
p1167
asbasbasbag57
(g73
g59
NtRp1168
(dp1169
g62
(dp1170
sg71
g1007
sg64
(lp1171
g57
(g78
g59
NtRp1172
(dp1173
g62
(dp1174
g82
g83
ssg71
g1168
sg64
(lp1175
S'debugging'
p1176
asbag57
(g78
g59
NtRp1177
(dp1178
g62
(dp1179
g89
g90
ssg71
g1168
sg64
(lp1180
S':'
asbag57
(g78
g59
NtRp1181
(dp1182
g62
(dp1183
sg71
g1168
sg64
(lp1184
g57
(g58
g59
NtRp1185
(dp1186
g62
(dp1187
g70
I4
ssg71
g1181
sg64
(lp1188
g100
asbasbasbag57
(g73
g59
NtRp1189
(dp1190
g62
(dp1191
sg71
g1007
sg64
(lp1192
g57
(g78
g59
NtRp1193
(dp1194
g62
(dp1195
g82
g83
ssg71
g1189
sg64
(lp1196
S'gluon_parent'
p1197
asbag57
(g78
g59
NtRp1198
(dp1199
g62
(dp1200
g89
g90
ssg71
g1189
sg64
(lp1201
S':'
asbag57
(g78
g59
NtRp1202
(dp1203
g62
(dp1204
sg71
g1189
sg64
(lp1205
g57
(g58
g59
NtRp1206
(dp1207
g62
(dp1208
g70
I4
ssg71
g1202
sg64
(lp1209
S'/home/abhishek/Desktop/web2py'
p1210
asbasbasbag57
(g73
g59
NtRp1211
(dp1212
g62
(dp1213
sg71
g1007
sg64
(lp1214
g57
(g78
g59
NtRp1215
(dp1216
g62
(dp1217
g82
g83
ssg71
g1211
sg64
(lp1218
S'http_accept'
p1219
asbag57
(g78
g59
NtRp1220
(dp1221
g62
(dp1222
g89
g90
ssg71
g1211
sg64
(lp1223
S':'
asbag57
(g78
g59
NtRp1224
(dp1225
g62
(dp1226
sg71
g1211
sg64
(lp1227
g57
(g58
g59
NtRp1228
(dp1229
g62
(dp1230
g70
I4
ssg71
g1224
sg64
(lp1231
S'text/html,application/xhtml+xml,application/xml;q=0.9,*/*;q=0.8'
p1232
asbasbasbag57
(g73
g59
NtRp1233
(dp1234
g62
(dp1235
sg71
g1007
sg64
(lp1236
g57
(g78
g59
NtRp1237
(dp1238
g62
(dp1239
g82
g83
ssg71
g1233
sg64
(lp1240
S'http_accept_encoding'
p1241
asbag57
(g78
g59
NtRp1242
(dp1243
g62
(dp1244
g89
g90
ssg71
g1233
sg64
(lp1245
S':'
asbag57
(g78
g59
NtRp1246
(dp1247
g62
(dp1248
sg71
g1233
sg64
(lp1249
g57
(g58
g59
NtRp1250
(dp1251
g62
(dp1252
g70
I4
ssg71
g1246
sg64
(lp1253
S'gzip, deflate'
p1254
asbasbasbag57
(g73
g59
NtRp1255
(dp1256
g62
(dp1257
sg71
g1007
sg64
(lp1258
g57
(g78
g59
NtRp1259
(dp1260
g62
(dp1261
g82
g83
ssg71
g1255
sg64
(lp1262
S'http_accept_language'
p1263
asbag57
(g78
g59
NtRp1264
(dp1265
g62
(dp1266
g89
g90
ssg71
g1255
sg64
(lp1267
S':'
asbag57
(g78
g59
NtRp1268
(dp1269
g62
(dp1270
sg71
g1255
sg64
(lp1271
g57
(g58
g59
NtRp1272
(dp1273
g62
(dp1274
g70
I4
ssg71
g1268
sg64
(lp1275
S'en-us,en;q=0.5'
p1276
asbasbasbag57
(g73
g59
NtRp1277
(dp1278
g62
(dp1279
sg71
g1007
sg64
(lp1280
g57
(g78
g59
NtRp1281
(dp1282
g62
(dp1283
g82
g83
ssg71
g1277
sg64
(lp1284
S'http_connection'
p1285
asbag57
(g78
g59
NtRp1286
(dp1287
g62
(dp1288
g89
g90
ssg71
g1277
sg64
(lp1289
S':'
asbag57
(g78
g59
NtRp1290
(dp1291
g62
(dp1292
sg71
g1277
sg64
(lp1293
g57
(g58
g59
NtRp1294
(dp1295
g62
(dp1296
g70
I4
ssg71
g1290
sg64
(lp1297
S'keep-alive'
p1298
asbasbasbag57
(g73
g59
NtRp1299
(dp1300
g62
(dp1301
sg71
g1007
sg64
(lp1302
g57
(g78
g59
NtRp1303
(dp1304
g62
(dp1305
g82
g83
ssg71
g1299
sg64
(lp1306
S'http_content_length'
p1307
asbag57
(g78
g59
NtRp1308
(dp1309
g62
(dp1310
g89
g90
ssg71
g1299
sg64
(lp1311
S':'
asbag57
(g78
g59
NtRp1312
(dp1313
g62
(dp1314
sg71
g1299
sg64
(lp1315
g57
(g58
g59
NtRp1316
(dp1317
g62
(dp1318
g70
I4
ssg71
g1312
sg64
(lp1319
g1123
asbasbasbag57
(g73
g59
NtRp1320
(dp1321
g62
(dp1322
sg71
g1007
sg64
(lp1323
g57
(g78
g59
NtRp1324
(dp1325
g62
(dp1326
g82
g83
ssg71
g1320
sg64
(lp1327
S'http_content_type'
p1328
asbag57
(g78
g59
NtRp1329
(dp1330
g62
(dp1331
g89
g90
ssg71
g1320
sg64
(lp1332
S':'
asbag57
(g78
g59
NtRp1333
(dp1334
g62
(dp1335
sg71
g1320
sg64
(lp1336
g57
(g58
g59
NtRp1337
(dp1338
g62
(dp1339
g70
I4
ssg71
g1333
sg64
(lp1340
g1145
asbasbasbag57
(g73
g59
NtRp1341
(dp1342
g62
(dp1343
sg71
g1007
sg64
(lp1344
g57
(g78
g59
NtRp1345
(dp1346
g62
(dp1347
g82
g83
ssg71
g1341
sg64
(lp1348
S'http_cookie'
p1349
asbag57
(g78
g59
NtRp1350
(dp1351
g62
(dp1352
g89
g90
ssg71
g1341
sg64
(lp1353
S':'
asbag57
(g78
g59
NtRp1354
(dp1355
g62
(dp1356
sg71
g1341
sg64
(lp1357
g57
(g58
g59
NtRp1358
(dp1359
g62
(dp1360
g70
I4
ssg71
g1354
sg64
(lp1361
S'session_id_welcome=127.0.0.1-aa9e5449-4f15-4394-bc77-91fc94c19e6d; session_id_admin=127.0.0.1-c687fc5f-9799-42f6-bbfa-48426c52f801; session_id_award_manager=127.0.0.1-85764ff2-57fa-46ee-8f40-8e1ec51d9e33; session_id_manager=127.0.0.1-83f49e94-1764-4f07-a75c-c117b06aedbf'
p1362
asbasbasbag57
(g73
g59
NtRp1363
(dp1364
g62
(dp1365
sg71
g1007
sg64
(lp1366
g57
(g78
g59
NtRp1367
(dp1368
g62
(dp1369
g82
g83
ssg71
g1363
sg64
(lp1370
S'http_host'
p1371
asbag57
(g78
g59
NtRp1372
(dp1373
g62
(dp1374
g89
g90
ssg71
g1363
sg64
(lp1375
S':'
asbag57
(g78
g59
NtRp1376
(dp1377
g62
(dp1378
sg71
g1363
sg64
(lp1379
g57
(g58
g59
NtRp1380
(dp1381
g62
(dp1382
g70
I4
ssg71
g1376
sg64
(lp1383
S'127.0.0.1:8000'
p1384
asbasbasbag57
(g73
g59
NtRp1385
(dp1386
g62
(dp1387
sg71
g1007
sg64
(lp1388
g57
(g78
g59
NtRp1389
(dp1390
g62
(dp1391
g82
g83
ssg71
g1385
sg64
(lp1392
S'http_referer'
p1393
asbag57
(g78
g59
NtRp1394
(dp1395
g62
(dp1396
g89
g90
ssg71
g1385
sg64
(lp1397
S':'
asbag57
(g78
g59
NtRp1398
(dp1399
g62
(dp1400
sg71
g1385
sg64
(lp1401
g57
(g58
g59
NtRp1402
(dp1403
g62
(dp1404
g70
I4
ssg71
g1398
sg64
(lp1405
S'http://127.0.0.1:8000/manager/default/preference'
p1406
asbasbasbag57
(g73
g59
NtRp1407
(dp1408
g62
(dp1409
sg71
g1007
sg64
(lp1410
g57
(g78
g59
NtRp1411
(dp1412
g62
(dp1413
g82
g83
ssg71
g1407
sg64
(lp1414
S'http_user_agent'
p1415
asbag57
(g78
g59
NtRp1416
(dp1417
g62
(dp1418
g89
g90
ssg71
g1407
sg64
(lp1419
S':'
asbag57
(g78
g59
NtRp1420
(dp1421
g62
(dp1422
sg71
g1407
sg64
(lp1423
g57
(g58
g59
NtRp1424
(dp1425
g62
(dp1426
g70
I4
ssg71
g1420
sg64
(lp1427
S'Mozilla/5.0 (X11; Ubuntu; Linux x86_64; rv:15.0) Gecko/20100101 Firefox/15.0.1'
p1428
asbasbasbag57
(g73
g59
NtRp1429
(dp1430
g62
(dp1431
sg71
g1007
sg64
(lp1432
g57
(g78
g59
NtRp1433
(dp1434
g62
(dp1435
g82
g83
ssg71
g1429
sg64
(lp1436
S'is_jython'
p1437
asbag57
(g78
g59
NtRp1438
(dp1439
g62
(dp1440
g89
g90
ssg71
g1429
sg64
(lp1441
S':'
asbag57
(g78
g59
NtRp1442
(dp1443
g62
(dp1444
sg71
g1429
sg64
(lp1445
g57
(g58
g59
NtRp1446
(dp1447
g62
(dp1448
g70
I4
ssg71
g1442
sg64
(lp1449
g100
asbasbasbag57
(g73
g59
NtRp1450
(dp1451
g62
(dp1452
sg71
g1007
sg64
(lp1453
g57
(g78
g59
NtRp1454
(dp1455
g62
(dp1456
g82
g83
ssg71
g1450
sg64
(lp1457
S'is_pypy'
p1458
asbag57
(g78
g59
NtRp1459
(dp1460
g62
(dp1461
g89
g90
ssg71
g1450
sg64
(lp1462
S':'
asbag57
(g78
g59
NtRp1463
(dp1464
g62
(dp1465
sg71
g1450
sg64
(lp1466
g57
(g58
g59
NtRp1467
(dp1468
g62
(dp1469
g70
I4
ssg71
g1463
sg64
(lp1470
g100
asbasbasbag57
(g73
g59
NtRp1471
(dp1472
g62
(dp1473
sg71
g1007
sg64
(lp1474
g57
(g78
g59
NtRp1475
(dp1476
g62
(dp1477
g82
g83
ssg71
g1471
sg64
(lp1478
S'path_info'
p1479
asbag57
(g78
g59
NtRp1480
(dp1481
g62
(dp1482
g89
g90
ssg71
g1471
sg64
(lp1483
S':'
asbag57
(g78
g59
NtRp1484
(dp1485
g62
(dp1486
sg71
g1471
sg64
(lp1487
g57
(g58
g59
NtRp1488
(dp1489
g62
(dp1490
g70
I4
ssg71
g1484
sg64
(lp1491
S'/manager/default/preference'
p1492
asbasbasbag57
(g73
g59
NtRp1493
(dp1494
g62
(dp1495
sg71
g1007
sg64
(lp1496
g57
(g78
g59
NtRp1497
(dp1498
g62
(dp1499
g82
g83
ssg71
g1493
sg64
(lp1500
S'query_string'
p1501
asbag57
(g78
g59
NtRp1502
(dp1503
g62
(dp1504
g89
g90
ssg71
g1493
sg64
(lp1505
S':'
asbag57
(g78
g59
NtRp1506
(dp1507
g62
(dp1508
sg71
g1493
sg64
(lp1509
g57
(g58
g59
NtRp1510
(dp1511
g62
(dp1512
g70
I4
ssg71
g1506
sg64
(lp1513
S''
asbasbasbag57
(g73
g59
NtRp1514
(dp1515
g62
(dp1516
sg71
g1007
sg64
(lp1517
g57
(g78
g59
NtRp1518
(dp1519
g62
(dp1520
g82
g83
ssg71
g1514
sg64
(lp1521
S'remote_addr'
p1522
asbag57
(g78
g59
NtRp1523
(dp1524
g62
(dp1525
g89
g90
ssg71
g1514
sg64
(lp1526
S':'
asbag57
(g78
g59
NtRp1527
(dp1528
g62
(dp1529
sg71
g1514
sg64
(lp1530
g57
(g58
g59
NtRp1531
(dp1532
g62
(dp1533
g70
I4
ssg71
g1527
sg64
(lp1534
g190
asbasbasbag57
(g73
g59
NtRp1535
(dp1536
g62
(dp1537
sg71
g1007
sg64
(lp1538
g57
(g78
g59
NtRp1539
(dp1540
g62
(dp1541
g82
g83
ssg71
g1535
sg64
(lp1542
S'remote_port'
p1543
asbag57
(g78
g59
NtRp1544
(dp1545
g62
(dp1546
g89
g90
ssg71
g1535
sg64
(lp1547
S':'
asbag57
(g78
g59
NtRp1548
(dp1549
g62
(dp1550
sg71
g1535
sg64
(lp1551
g57
(g58
g59
NtRp1552
(dp1553
g62
(dp1554
g70
I4
ssg71
g1548
sg64
(lp1555
S'53395'
p1556
asbasbasbag57
(g73
g59
NtRp1557
(dp1558
g62
(dp1559
sg71
g1007
sg64
(lp1560
g57
(g78
g59
NtRp1561
(dp1562
g62
(dp1563
g82
g83
ssg71
g1557
sg64
(lp1564
S'request_method'
p1565
asbag57
(g78
g59
NtRp1566
(dp1567
g62
(dp1568
g89
g90
ssg71
g1557
sg64
(lp1569
S':'
asbag57
(g78
g59
NtRp1570
(dp1571
g62
(dp1572
sg71
g1557
sg64
(lp1573
g57
(g58
g59
NtRp1574
(dp1575
g62
(dp1576
g70
I4
ssg71
g1570
sg64
(lp1577
S'POST'
p1578
asbasbasbag57
(g73
g59
NtRp1579
(dp1580
g62
(dp1581
sg71
g1007
sg64
(lp1582
g57
(g78
g59
NtRp1583
(dp1584
g62
(dp1585
g82
g83
ssg71
g1579
sg64
(lp1586
S'script_name'
p1587
asbag57
(g78
g59
NtRp1588
(dp1589
g62
(dp1590
g89
g90
ssg71
g1579
sg64
(lp1591
S':'
asbag57
(g78
g59
NtRp1592
(dp1593
g62
(dp1594
sg71
g1579
sg64
(lp1595
g57
(g58
g59
NtRp1596
(dp1597
g62
(dp1598
g70
I4
ssg71
g1592
sg64
(lp1599
S''
asbasbasbag57
(g73
g59
NtRp1600
(dp1601
g62
(dp1602
sg71
g1007
sg64
(lp1603
g57
(g78
g59
NtRp1604
(dp1605
g62
(dp1606
g82
g83
ssg71
g1600
sg64
(lp1607
S'server_name'
p1608
asbag57
(g78
g59
NtRp1609
(dp1610
g62
(dp1611
g89
g90
ssg71
g1600
sg64
(lp1612
S':'
asbag57
(g78
g59
NtRp1613
(dp1614
g62
(dp1615
sg71
g1600
sg64
(lp1616
g57
(g58
g59
NtRp1617
(dp1618
g62
(dp1619
g70
I4
ssg71
g1613
sg64
(lp1620
S'ubuntu'
p1621
asbasbasbag57
(g73
g59
NtRp1622
(dp1623
g62
(dp1624
sg71
g1007
sg64
(lp1625
g57
(g78
g59
NtRp1626
(dp1627
g62
(dp1628
g82
g83
ssg71
g1622
sg64
(lp1629
S'server_port'
p1630
asbag57
(g78
g59
NtRp1631
(dp1632
g62
(dp1633
g89
g90
ssg71
g1622
sg64
(lp1634
S':'
asbag57
(g78
g59
NtRp1635
(dp1636
g62
(dp1637
sg71
g1622
sg64
(lp1638
g57
(g58
g59
NtRp1639
(dp1640
g62
(dp1641
g70
I4
ssg71
g1635
sg64
(lp1642
S'8000'
p1643
asbasbasbag57
(g73
g59
NtRp1644
(dp1645
g62
(dp1646
sg71
g1007
sg64
(lp1647
g57
(g78
g59
NtRp1648
(dp1649
g62
(dp1650
g82
g83
ssg71
g1644
sg64
(lp1651
S'server_protocol'
p1652
asbag57
(g78
g59
NtRp1653
(dp1654
g62
(dp1655
g89
g90
ssg71
g1644
sg64
(lp1656
S':'
asbag57
(g78
g59
NtRp1657
(dp1658
g62
(dp1659
sg71
g1644
sg64
(lp1660
g57
(g58
g59
NtRp1661
(dp1662
g62
(dp1663
g70
I4
ssg71
g1657
sg64
(lp1664
S'HTTP/1.1'
p1665
asbasbasbag57
(g73
g59
NtRp1666
(dp1667
g62
(dp1668
sg71
g1007
sg64
(lp1669
g57
(g78
g59
NtRp1670
(dp1671
g62
(dp1672
g82
g83
ssg71
g1666
sg64
(lp1673
S'server_software'
p1674
asbag57
(g78
g59
NtRp1675
(dp1676
g62
(dp1677
g89
g90
ssg71
g1666
sg64
(lp1678
S':'
asbag57
(g78
g59
NtRp1679
(dp1680
g62
(dp1681
sg71
g1666
sg64
(lp1682
g57
(g58
g59
NtRp1683
(dp1684
g62
(dp1685
g70
I4
ssg71
g1679
sg64
(lp1686
S'Rocket 1.2.4'
p1687
asbasbasbag57
(g73
g59
NtRp1688
(dp1689
g62
(dp1690
sg71
g1007
sg64
(lp1691
g57
(g78
g59
NtRp1692
(dp1693
g62
(dp1694
g82
g83
ssg71
g1688
sg64
(lp1695
S'web2py_crontype'
p1696
asbag57
(g78
g59
NtRp1697
(dp1698
g62
(dp1699
g89
g90
ssg71
g1688
sg64
(lp1700
S':'
asbag57
(g78
g59
NtRp1701
(dp1702
g62
(dp1703
sg71
g1688
sg64
(lp1704
g57
(g58
g59
NtRp1705
(dp1706
g62
(dp1707
g70
I4
ssg71
g1701
sg64
(lp1708
S'hard'
p1709
asbasbasbag57
(g73
g59
NtRp1710
(dp1711
g62
(dp1712
sg71
g1007
sg64
(lp1713
g57
(g78
g59
NtRp1714
(dp1715
g62
(dp1716
g82
g83
ssg71
g1710
sg64
(lp1717
S'web2py_path'
p1718
asbag57
(g78
g59
NtRp1719
(dp1720
g62
(dp1721
g89
g90
ssg71
g1710
sg64
(lp1722
S':'
asbag57
(g78
g59
NtRp1723
(dp1724
g62
(dp1725
sg71
g1710
sg64
(lp1726
g57
(g58
g59
NtRp1727
(dp1728
g62
(dp1729
g70
I4
ssg71
g1723
sg64
(lp1730
g1054
asbasbasbag57
(g73
g59
NtRp1731
(dp1732
g62
(dp1733
sg71
g1007
sg64
(lp1734
g57
(g78
g59
NtRp1735
(dp1736
g62
(dp1737
g82
g83
ssg71
g1731
sg64
(lp1738
S'web2py_version'
p1739
asbag57
(g78
g59
NtRp1740
(dp1741
g62
(dp1742
g89
g90
ssg71
g1731
sg64
(lp1743
S':'
asbag57
(g78
g59
NtRp1744
(dp1745
g62
(dp1746
sg71
g1731
sg64
(lp1747
g57
(g58
g59
NtRp1748
(dp1749
g62
(dp1750
g70
I4
ssg71
g1744
sg64
(lp1751
g57
(g66
g59
NtRp1752
(dp1753
g62
(dp1754
g70
I3
ssg71
Nsg64
(lp1755
g57
(g73
g59
NtRp1756
(dp1757
g62
(dp1758
sg71
g1752
sg64
(lp1759
g57
(g78
g59
NtRp1760
(dp1761
g62
(dp1762
sg71
g1756
sg64
(lp1763
g57
(g58
g59
NtRp1764
(dp1765
g62
(dp1766
g70
I3
ssg71
g1760
sg64
(lp1767
S'1'
asbasbasbag57
(g73
g59
NtRp1768
(dp1769
g62
(dp1770
sg71
g1752
sg64
(lp1771
g57
(g78
g59
NtRp1772
(dp1773
g62
(dp1774
sg71
g1768
sg64
(lp1775
g57
(g58
g59
NtRp1776
(dp1777
g62
(dp1778
g70
I3
ssg71
g1772
sg64
(lp1779
S'99'
p1780
asbasbasbag57
(g73
g59
NtRp1781
(dp1782
g62
(dp1783
sg71
g1752
sg64
(lp1784
g57
(g78
g59
NtRp1785
(dp1786
g62
(dp1787
sg71
g1781
sg64
(lp1788
g57
(g58
g59
NtRp1789
(dp1790
g62
(dp1791
g70
I3
ssg71
g1785
sg64
(lp1792
S'7'
asbasbasbag57
(g73
g59
NtRp1793
(dp1794
g62
(dp1795
sg71
g1752
sg64
(lp1796
g57
(g78
g59
NtRp1797
(dp1798
g62
(dp1799
sg71
g1793
sg64
(lp1800
g57
(g58
g59
NtRp1801
(dp1802
g62
(dp1803
g70
I3
ssg71
g1797
sg64
(lp1804
S'datetime.datetime(2012, 3, 4, 22, 12, 8)'
p1805
asbasbasbag57
(g73
g59
NtRp1806
(dp1807
g62
(dp1808
sg71
g1752
sg64
(lp1809
g57
(g78
g59
NtRp1810
(dp1811
g62
(dp1812
sg71
g1806
sg64
(lp1813
g57
(g58
g59
NtRp1814
(dp1815
g62
(dp1816
g70
I3
ssg71
g1810
sg64
(lp1817
S'stable'
p1818
asbasbasbasbasbasbasbag57
(g73
g59
NtRp1819
(dp1820
g62
(dp1821
sg71
g1007
sg64
(lp1822
g57
(g78
g59
NtRp1823
(dp1824
g62
(dp1825
g82
g83
ssg71
g1819
sg64
(lp1826
S'wsgi_errors'
p1827
asbag57
(g78
g59
NtRp1828
(dp1829
g62
(dp1830
g89
g90
ssg71
g1819
sg64
(lp1831
S':'
asbag57
(g78
g59
NtRp1832
(dp1833
g62
(dp1834
sg71
g1819
sg64
(lp1835
g57
(g58
g59
NtRp1836
(dp1837
g62
(dp1838
g70
I4
ssg71
g1832
sg64
(lp1839
S"<open file '<stderr>', mode 'w' at 0x7f60a8e41270>"
p1840
asbasbasbag57
(g73
g59
NtRp1841
(dp1842
g62
(dp1843
sg71
g1007
sg64
(lp1844
g57
(g78
g59
NtRp1845
(dp1846
g62
(dp1847
g82
g83
ssg71
g1841
sg64
(lp1848
S'wsgi_file_wrapper'
p1849
asbag57
(g78
g59
NtRp1850
(dp1851
g62
(dp1852
g89
g90
ssg71
g1841
sg64
(lp1853
S':'
asbag57
(g78
g59
NtRp1854
(dp1855
g62
(dp1856
sg71
g1841
sg64
(lp1857
g57
(g58
g59
NtRp1858
(dp1859
g62
(dp1860
g70
I4
ssg71
g1854
sg64
(lp1861
S'<class wsgiref.util.FileWrapper at 0x147d3f8>'
p1862
asbasbasbag57
(g73
g59
NtRp1863
(dp1864
g62
(dp1865
sg71
g1007
sg64
(lp1866
g57
(g78
g59
NtRp1867
(dp1868
g62
(dp1869
g82
g83
ssg71
g1863
sg64
(lp1870
S'wsgi_input'
p1871
asbag57
(g78
g59
NtRp1872
(dp1873
g62
(dp1874
g89
g90
ssg71
g1863
sg64
(lp1875
S':'
asbag57
(g78
g59
NtRp1876
(dp1877
g62
(dp1878
sg71
g1863
sg64
(lp1879
g57
(g58
g59
NtRp1880
(dp1881
g62
(dp1882
g70
I4
ssg71
g1876
sg64
(lp1883
S'<socket._fileobject object at 0x19466d0>'
p1884
asbasbasbag57
(g73
g59
NtRp1885
(dp1886
g62
(dp1887
sg71
g1007
sg64
(lp1888
g57
(g78
g59
NtRp1889
(dp1890
g62
(dp1891
g82
g83
ssg71
g1885
sg64
(lp1892
S'wsgi_multiprocess'
p1893
asbag57
(g78
g59
NtRp1894
(dp1895
g62
(dp1896
g89
g90
ssg71
g1885
sg64
(lp1897
S':'
asbag57
(g78
g59
NtRp1898
(dp1899
g62
(dp1900
sg71
g1885
sg64
(lp1901
g57
(g58
g59
NtRp1902
(dp1903
g62
(dp1904
g70
I4
ssg71
g1898
sg64
(lp1905
g100
asbasbasbag57
(g73
g59
NtRp1906
(dp1907
g62
(dp1908
sg71
g1007
sg64
(lp1909
g57
(g78
g59
NtRp1910
(dp1911
g62
(dp1912
g82
g83
ssg71
g1906
sg64
(lp1913
S'wsgi_multithread'
p1914
asbag57
(g78
g59
NtRp1915
(dp1916
g62
(dp1917
g89
g90
ssg71
g1906
sg64
(lp1918
S':'
asbag57
(g78
g59
NtRp1919
(dp1920
g62
(dp1921
sg71
g1906
sg64
(lp1922
g57
(g58
g59
NtRp1923
(dp1924
g62
(dp1925
g70
I4
ssg71
g1919
sg64
(lp1926
S'True'
p1927
asbasbasbag57
(g73
g59
NtRp1928
(dp1929
g62
(dp1930
sg71
g1007
sg64
(lp1931
g57
(g78
g59
NtRp1932
(dp1933
g62
(dp1934
g82
g83
ssg71
g1928
sg64
(lp1935
S'wsgi_run_once'
p1936
asbag57
(g78
g59
NtRp1937
(dp1938
g62
(dp1939
g89
g90
ssg71
g1928
sg64
(lp1940
S':'
asbag57
(g78
g59
NtRp1941
(dp1942
g62
(dp1943
sg71
g1928
sg64
(lp1944
g57
(g58
g59
NtRp1945
(dp1946
g62
(dp1947
g70
I4
ssg71
g1941
sg64
(lp1948
g100
asbasbasbag57
(g73
g59
NtRp1949
(dp1950
g62
(dp1951
sg71
g1007
sg64
(lp1952
g57
(g78
g59
NtRp1953
(dp1954
g62
(dp1955
g82
g83
ssg71
g1949
sg64
(lp1956
S'wsgi_url_scheme'
p1957
asbag57
(g78
g59
NtRp1958
(dp1959
g62
(dp1960
g89
g90
ssg71
g1949
sg64
(lp1961
S':'
asbag57
(g78
g59
NtRp1962
(dp1963
g62
(dp1964
sg71
g1949
sg64
(lp1965
g57
(g58
g59
NtRp1966
(dp1967
g62
(dp1968
g70
I4
ssg71
g1962
sg64
(lp1969
S'http'
p1970
asbasbasbag57
(g73
g59
NtRp1971
(dp1972
g62
(dp1973
sg71
g1007
sg64
(lp1974
g57
(g78
g59
NtRp1975
(dp1976
g62
(dp1977
g82
g83
ssg71
g1971
sg64
(lp1978
S'wsgi_version'
p1979
asbag57
(g78
g59
NtRp1980
(dp1981
g62
(dp1982
g89
g90
ssg71
g1971
sg64
(lp1983
S':'
asbag57
(g78
g59
NtRp1984
(dp1985
g62
(dp1986
sg71
g1971
sg64
(lp1987
g57
(g58
g59
NtRp1988
(dp1989
g62
(dp1990
g70
I4
ssg71
g1984
sg64
(lp1991
g57
(g66
g59
NtRp1992
(dp1993
g62
(dp1994
g70
I3
ssg71
Nsg64
(lp1995
g57
(g73
g59
NtRp1996
(dp1997
g62
(dp1998
sg71
g1992
sg64
(lp1999
g57
(g78
g59
NtRp2000
(dp2001
g62
(dp2002
sg71
g1996
sg64
(lp2003
g57
(g58
g59
NtRp2004
(dp2005
g62
(dp2006
g70
I3
ssg71
g2000
sg64
(lp2007
S'1'
asbasbasbag57
(g73
g59
NtRp2008
(dp2009
g62
(dp2010
sg71
g1992
sg64
(lp2011
g57
(g78
g59
NtRp2012
(dp2013
g62
(dp2014
sg71
g2008
sg64
(lp2015
g57
(g58
g59
NtRp2016
(dp2017
g62
(dp2018
g70
I3
ssg71
g2012
sg64
(lp2019
S'0'
asbasbasbasbasbasbasbasbasbasbasbag57
(g73
g59
NtRp2020
(dp2021
g62
(dp2022
sg71
g67
sg64
(lp2023
g57
(g78
g59
NtRp2024
(dp2025
g62
(dp2026
g82
g83
ssg71
g2020
sg64
(lp2027
S'extension'
p2028
asbag57
(g78
g59
NtRp2029
(dp2030
g62
(dp2031
g89
g90
ssg71
g2020
sg64
(lp2032
S':'
asbag57
(g78
g59
NtRp2033
(dp2034
g62
(dp2035
sg71
g2020
sg64
(lp2036
g57
(g58
g59
NtRp2037
(dp2038
g62
(dp2039
g70
I5
ssg71
g2033
sg64
(lp2040
S'html'
p2041
asbasbasbag57
(g73
g59
NtRp2042
(dp2043
g62
(dp2044
sg71
g67
sg64
(lp2045
g57
(g78
g59
NtRp2046
(dp2047
g62
(dp2048
g82
g83
ssg71
g2042
sg64
(lp2049
S'folder'
p2050
asbag57
(g78
g59
NtRp2051
(dp2052
g62
(dp2053
g89
g90
ssg71
g2042
sg64
(lp2054
S':'
asbag57
(g78
g59
NtRp2055
(dp2056
g62
(dp2057
sg71
g2042
sg64
(lp2058
g57
(g58
g59
NtRp2059
(dp2060
g62
(dp2061
g70
I5
ssg71
g2055
sg64
(lp2062
S'/home/abhishek/Desktop/web2py/applications/manager/'
p2063
asbasbasbag57
(g73
g59
NtRp2064
(dp2065
g62
(dp2066
sg71
g67
sg64
(lp2067
g57
(g78
g59
NtRp2068
(dp2069
g62
(dp2070
g82
g83
ssg71
g2064
sg64
(lp2071
S'function'
p2072
asbag57
(g78
g59
NtRp2073
(dp2074
g62
(dp2075
g89
g90
ssg71
g2064
sg64
(lp2076
S':'
asbag57
(g78
g59
NtRp2077
(dp2078
g62
(dp2079
sg71
g2064
sg64
(lp2080
g57
(g58
g59
NtRp2081
(dp2082
g62
(dp2083
g70
I5
ssg71
g2077
sg64
(lp2084
S'preference'
p2085
asbasbasbag57
(g73
g59
NtRp2086
(dp2087
g62
(dp2088
sg71
g67
sg64
(lp2089
g57
(g78
g59
NtRp2090
(dp2091
g62
(dp2092
g82
g83
ssg71
g2086
sg64
(lp2093
S'get_vars'
p2094
asbag57
(g78
g59
NtRp2095
(dp2096
g62
(dp2097
g89
g90
ssg71
g2086
sg64
(lp2098
S':'
asbag57
(g78
g59
NtRp2099
(dp2100
g62
(dp2101
sg71
g2086
sg64
(lp2102
g57
(g58
g59
NtRp2103
(dp2104
g62
(dp2105
g70
I5
ssg71
g2099
sg64
(lp2106
g57
(g66
g59
NtRp2107
(dp2108
g62
(dp2109
g70
I4
ssg71
Nsg64
(lp2110
sbasbasbasbag57
(g73
g59
NtRp2111
(dp2112
g62
(dp2113
sg71
g67
sg64
(lp2114
g57
(g78
g59
NtRp2115
(dp2116
g62
(dp2117
g82
g83
ssg71
g2111
sg64
(lp2118
S'global_settings'
p2119
asbag57
(g78
g59
NtRp2120
(dp2121
g62
(dp2122
g89
g90
ssg71
g2111
sg64
(lp2123
S':'
asbag57
(g78
g59
NtRp2124
(dp2125
g62
(dp2126
sg71
g2111
sg64
(lp2127
g57
(g58
g59
NtRp2128
(dp2129
g62
(dp2130
g70
I5
ssg71
g2124
sg64
(lp2131
g57
(g66
g59
NtRp2132
(dp2133
g62
(dp2134
g70
I4
ssg71
Nsg64
(lp2135
g57
(g73
g59
NtRp2136
(dp2137
g62
(dp2138
sg71
g2132
sg64
(lp2139
g57
(g78
g59
NtRp2140
(dp2141
g62
(dp2142
g82
g83
ssg71
g2136
sg64
(lp2143
g1019
asbag57
(g78
g59
NtRp2144
(dp2145
g62
(dp2146
g89
g90
ssg71
g2136
sg64
(lp2147
S':'
asbag57
(g78
g59
NtRp2148
(dp2149
g62
(dp2150
sg71
g2136
sg64
(lp2151
g57
(g58
g59
NtRp2152
(dp2153
g62
(dp2154
g70
I4
ssg71
g2148
sg64
(lp2155
S"set(['/home/abhishek/Desktop/web2py/applications/Award_Manager/', '/home/abhishek/Desktop/web2py/applications/welcome/', '/home/abhishek/Desktop/web2py/applications/admin/', '/home/abhishek/Desktop/web2py/applications/manager/'])"
p2156
asbasbasbag57
(g73
g59
NtRp2157
(dp2158
g62
(dp2159
sg71
g2132
sg64
(lp2160
g57
(g78
g59
NtRp2161
(dp2162
g62
(dp2163
g82
g83
ssg71
g2157
sg64
(lp2164
g1041
asbag57
(g78
g59
NtRp2165
(dp2166
g62
(dp2167
g89
g90
ssg71
g2157
sg64
(lp2168
S':'
asbag57
(g78
g59
NtRp2169
(dp2170
g62
(dp2171
sg71
g2157
sg64
(lp2172
g57
(g58
g59
NtRp2173
(dp2174
g62
(dp2175
g70
I4
ssg71
g2169
sg64
(lp2176
g1054
asbasbasbag57
(g73
g59
NtRp2177
(dp2178
g62
(dp2179
sg71
g2132
sg64
(lp2180
g57
(g78
g59
NtRp2181
(dp2182
g62
(dp2183
g82
g83
ssg71
g2177
sg64
(lp2184
g1063
asbag57
(g78
g59
NtRp2185
(dp2186
g62
(dp2187
g89
g90
ssg71
g2177
sg64
(lp2188
S':'
asbag57
(g78
g59
NtRp2189
(dp2190
g62
(dp2191
sg71
g2177
sg64
(lp2192
g57
(g58
g59
NtRp2193
(dp2194
g62
(dp2195
g70
I4
ssg71
g2189
sg64
(lp2196
g57
(g66
g59
NtRp2197
(dp2198
g62
(dp2199
g70
I3
ssg71
Nsg64
(lp2200
sbasbasbasbag57
(g73
g59
NtRp2201
(dp2202
g62
(dp2203
sg71
g2132
sg64
(lp2204
g57
(g78
g59
NtRp2205
(dp2206
g62
(dp2207
g82
g83
ssg71
g2201
sg64
(lp2208
g1088
asbag57
(g78
g59
NtRp2209
(dp2210
g62
(dp2211
g89
g90
ssg71
g2201
sg64
(lp2212
S':'
asbag57
(g78
g59
NtRp2213
(dp2214
g62
(dp2215
sg71
g2201
sg64
(lp2216
g57
(g58
g59
NtRp2217
(dp2218
g62
(dp2219
g70
I4
ssg71
g2213
sg64
(lp2220
S"<Values at 0x1547098: {'verbose': False, 'ip': '127.0.0.1', 'shutdown_timeout': 5, 'taskbar': False, 'nocron': False, 'pid_filename': 'httpserver.pid', 'maxthreads': None, 'softcron': False, 'server_name': 'ubuntu', 'bpython': False, 'nogui': False, 'port': 8000, 'extcron': False, 'debuglevel': 30, 'test': None, 'folder': '/home/abhishek/Desktop/web2py', 'config': '', 'import_models': False, 'winservice': '', 'shell': None, 'run': '', 'log_filename': 'httpserver.log', 'args': [''], 'socket_timeout': 5, 'ssl_ca_certificate': None, 'scheduler': None, 'profiler_filename': None, 'ssl_private_key': '', 'password': 'i', 'request_queue_size': 5, 'ssl_certificate': '', 'cronjob': False, 'numthreads': None, 'quiet': False, 'interfaces': None, 'minthreads': None, 'timeout': 10, 'plain': False, 'nobanner': False}>"
p2221
asbasbasbag57
(g73
g59
NtRp2222
(dp2223
g62
(dp2224
sg71
g2132
sg64
(lp2225
g57
(g78
g59
NtRp2226
(dp2227
g62
(dp2228
g82
g83
ssg71
g2222
sg64
(lp2229
g1154
asbag57
(g78
g59
NtRp2230
(dp2231
g62
(dp2232
g89
g90
ssg71
g2222
sg64
(lp2233
S':'
asbag57
(g78
g59
NtRp2234
(dp2235
g62
(dp2236
sg71
g2222
sg64
(lp2237
g57
(g58
g59
NtRp2238
(dp2239
g62
(dp2240
g70
I4
ssg71
g2234
sg64
(lp2241
S'set([])'
p2242
asbasbasbag57
(g73
g59
NtRp2243
(dp2244
g62
(dp2245
sg71
g2132
sg64
(lp2246
g57
(g78
g59
NtRp2247
(dp2248
g62
(dp2249
g82
g83
ssg71
g2243
sg64
(lp2250
g1176
asbag57
(g78
g59
NtRp2251
(dp2252
g62
(dp2253
g89
g90
ssg71
g2243
sg64
(lp2254
S':'
asbag57
(g78
g59
NtRp2255
(dp2256
g62
(dp2257
sg71
g2243
sg64
(lp2258
g57
(g58
g59
NtRp2259
(dp2260
g62
(dp2261
g70
I4
ssg71
g2255
sg64
(lp2262
g100
asbasbasbag57
(g73
g59
NtRp2263
(dp2264
g62
(dp2265
sg71
g2132
sg64
(lp2266
g57
(g78
g59
NtRp2267
(dp2268
g62
(dp2269
g82
g83
ssg71
g2263
sg64
(lp2270
g1197
asbag57
(g78
g59
NtRp2271
(dp2272
g62
(dp2273
g89
g90
ssg71
g2263
sg64
(lp2274
S':'
asbag57
(g78
g59
NtRp2275
(dp2276
g62
(dp2277
sg71
g2263
sg64
(lp2278
g57
(g58
g59
NtRp2279
(dp2280
g62
(dp2281
g70
I4
ssg71
g2275
sg64
(lp2282
g1210
asbasbasbag57
(g73
g59
NtRp2283
(dp2284
g62
(dp2285
sg71
g2132
sg64
(lp2286
g57
(g78
g59
NtRp2287
(dp2288
g62
(dp2289
g82
g83
ssg71
g2283
sg64
(lp2290
g1437
asbag57
(g78
g59
NtRp2291
(dp2292
g62
(dp2293
g89
g90
ssg71
g2283
sg64
(lp2294
S':'
asbag57
(g78
g59
NtRp2295
(dp2296
g62
(dp2297
sg71
g2283
sg64
(lp2298
g57
(g58
g59
NtRp2299
(dp2300
g62
(dp2301
g70
I4
ssg71
g2295
sg64
(lp2302
g100
asbasbasbag57
(g73
g59
NtRp2303
(dp2304
g62
(dp2305
sg71
g2132
sg64
(lp2306
g57
(g78
g59
NtRp2307
(dp2308
g62
(dp2309
g82
g83
ssg71
g2303
sg64
(lp2310
g1458
asbag57
(g78
g59
NtRp2311
(dp2312
g62
(dp2313
g89
g90
ssg71
g2303
sg64
(lp2314
S':'
asbag57
(g78
g59
NtRp2315
(dp2316
g62
(dp2317
sg71
g2303
sg64
(lp2318
g57
(g58
g59
NtRp2319
(dp2320
g62
(dp2321
g70
I4
ssg71
g2315
sg64
(lp2322
g100
asbasbasbag57
(g73
g59
NtRp2323
(dp2324
g62
(dp2325
sg71
g2132
sg64
(lp2326
g57
(g78
g59
NtRp2327
(dp2328
g62
(dp2329
g82
g83
ssg71
g2323
sg64
(lp2330
g1696
asbag57
(g78
g59
NtRp2331
(dp2332
g62
(dp2333
g89
g90
ssg71
g2323
sg64
(lp2334
S':'
asbag57
(g78
g59
NtRp2335
(dp2336
g62
(dp2337
sg71
g2323
sg64
(lp2338
g57
(g58
g59
NtRp2339
(dp2340
g62
(dp2341
g70
I4
ssg71
g2335
sg64
(lp2342
g1709
asbasbasbag57
(g73
g59
NtRp2343
(dp2344
g62
(dp2345
sg71
g2132
sg64
(lp2346
g57
(g78
g59
NtRp2347
(dp2348
g62
(dp2349
g82
g83
ssg71
g2343
sg64
(lp2350
g1739
asbag57
(g78
g59
NtRp2351
(dp2352
g62
(dp2353
g89
g90
ssg71
g2343
sg64
(lp2354
S':'
asbag57
(g78
g59
NtRp2355
(dp2356
g62
(dp2357
sg71
g2343
sg64
(lp2358
g57
(g58
g59
NtRp2359
(dp2360
g62
(dp2361
g70
I4
ssg71
g2355
sg64
(lp2362
g57
(g66
g59
NtRp2363
(dp2364
g62
(dp2365
g70
I3
ssg71
Nsg64
(lp2366
g57
(g73
g59
NtRp2367
(dp2368
g62
(dp2369
sg71
g2363
sg64
(lp2370
g57
(g78
g59
NtRp2371
(dp2372
g62
(dp2373
sg71
g2367
sg64
(lp2374
g57
(g58
g59
NtRp2375
(dp2376
g62
(dp2377
g70
I3
ssg71
g2371
sg64
(lp2378
S'1'
asbasbasbag57
(g73
g59
NtRp2379
(dp2380
g62
(dp2381
sg71
g2363
sg64
(lp2382
g57
(g78
g59
NtRp2383
(dp2384
g62
(dp2385
sg71
g2379
sg64
(lp2386
g57
(g58
g59
NtRp2387
(dp2388
g62
(dp2389
g70
I3
ssg71
g2383
sg64
(lp2390
S'99'
p2391
asbasbasbag57
(g73
g59
NtRp2392
(dp2393
g62
(dp2394
sg71
g2363
sg64
(lp2395
g57
(g78
g59
NtRp2396
(dp2397
g62
(dp2398
sg71
g2392
sg64
(lp2399
g57
(g58
g59
NtRp2400
(dp2401
g62
(dp2402
g70
I3
ssg71
g2396
sg64
(lp2403
S'7'
asbasbasbag57
(g73
g59
NtRp2404
(dp2405
g62
(dp2406
sg71
g2363
sg64
(lp2407
g57
(g78
g59
NtRp2408
(dp2409
g62
(dp2410
sg71
g2404
sg64
(lp2411
g57
(g58
g59
NtRp2412
(dp2413
g62
(dp2414
g70
I3
ssg71
g2408
sg64
(lp2415
S'datetime.datetime(2012, 3, 4, 22, 12, 8)'
p2416
asbasbasbag57
(g73
g59
NtRp2417
(dp2418
g62
(dp2419
sg71
g2363
sg64
(lp2420
g57
(g78
g59
NtRp2421
(dp2422
g62
(dp2423
sg71
g2417
sg64
(lp2424
g57
(g58
g59
NtRp2425
(dp2426
g62
(dp2427
g70
I3
ssg71
g2421
sg64
(lp2428
g1818
asbasbasbasbasbasbasbasbasbasbasbag57
(g73
g59
NtRp2429
(dp2430
g62
(dp2431
sg71
g67
sg64
(lp2432
g57
(g78
g59
NtRp2433
(dp2434
g62
(dp2435
g82
g83
ssg71
g2429
sg64
(lp2436
S'is_https'
p2437
asbag57
(g78
g59
NtRp2438
(dp2439
g62
(dp2440
g89
g90
ssg71
g2429
sg64
(lp2441
S':'
asbag57
(g78
g59
NtRp2442
(dp2443
g62
(dp2444
sg71
g2429
sg64
(lp2445
g57
(g58
g59
NtRp2446
(dp2447
g62
(dp2448
g70
I5
ssg71
g2442
sg64
(lp2449
g100
asbasbasbag57
(g73
g59
NtRp2450
(dp2451
g62
(dp2452
sg71
g67
sg64
(lp2453
g57
(g78
g59
NtRp2454
(dp2455
g62
(dp2456
g82
g83
ssg71
g2450
sg64
(lp2457
S'is_local'
p2458
asbag57
(g78
g59
NtRp2459
(dp2460
g62
(dp2461
g89
g90
ssg71
g2450
sg64
(lp2462
S':'
asbag57
(g78
g59
NtRp2463
(dp2464
g62
(dp2465
sg71
g2450
sg64
(lp2466
g57
(g58
g59
NtRp2467
(dp2468
g62
(dp2469
g70
I5
ssg71
g2463
sg64
(lp2470
g1927
asbasbasbag57
(g73
g59
NtRp2471
(dp2472
g62
(dp2473
sg71
g67
sg64
(lp2474
g57
(g78
g59
NtRp2475
(dp2476
g62
(dp2477
g82
g83
ssg71
g2471
sg64
(lp2478
S'is_restful'
p2479
asbag57
(g78
g59
NtRp2480
(dp2481
g62
(dp2482
g89
g90
ssg71
g2471
sg64
(lp2483
S':'
asbag57
(g78
g59
NtRp2484
(dp2485
g62
(dp2486
sg71
g2471
sg64
(lp2487
g57
(g58
g59
NtRp2488
(dp2489
g62
(dp2490
g70
I5
ssg71
g2484
sg64
(lp2491
g100
asbasbasbag57
(g73
g59
NtRp2492
(dp2493
g62
(dp2494
sg71
g67
sg64
(lp2495
g57
(g78
g59
NtRp2496
(dp2497
g62
(dp2498
g82
g83
ssg71
g2492
sg64
(lp2499
S'now'
p2500
asbag57
(g78
g59
NtRp2501
(dp2502
g62
(dp2503
g89
g90
ssg71
g2492
sg64
(lp2504
S':'
asbag57
(g78
g59
NtRp2505
(dp2506
g62
(dp2507
sg71
g2492
sg64
(lp2508
g57
(g58
g59
NtRp2509
(dp2510
g62
(dp2511
g70
I5
ssg71
g2505
sg64
(lp2512
S'datetime.datetime(2012, 11, 6, 9, 43, 27, 48042)'
p2513
asbasbasbag57
(g73
g59
NtRp2514
(dp2515
g62
(dp2516
sg71
g67
sg64
(lp2517
g57
(g78
g59
NtRp2518
(dp2519
g62
(dp2520
g82
g83
ssg71
g2514
sg64
(lp2521
S'post_vars'
p2522
asbag57
(g78
g59
NtRp2523
(dp2524
g62
(dp2525
g89
g90
ssg71
g2514
sg64
(lp2526
S':'
asbag57
(g78
g59
NtRp2527
(dp2528
g62
(dp2529
sg71
g2514
sg64
(lp2530
g57
(g58
g59
NtRp2531
(dp2532
g62
(dp2533
g70
I5
ssg71
g2527
sg64
(lp2534
g57
(g66
g59
NtRp2535
(dp2536
g62
(dp2537
g70
I4
ssg71
Nsg64
(lp2538
g57
(g73
g59
NtRp2539
(dp2540
g62
(dp2541
sg71
g2535
sg64
(lp2542
g57
(g78
g59
NtRp2543
(dp2544
g62
(dp2545
g82
g83
ssg71
g2539
sg64
(lp2546
S'First'
p2547
asbag57
(g78
g59
NtRp2548
(dp2549
g62
(dp2550
g89
g90
ssg71
g2539
sg64
(lp2551
S':'
asbag57
(g78
g59
NtRp2552
(dp2553
g62
(dp2554
sg71
g2539
sg64
(lp2555
g57
(g58
g59
NtRp2556
(dp2557
g62
(dp2558
g70
I4
ssg71
g2552
sg64
(lp2559
S'4'
asbasbasbag57
(g73
g59
NtRp2560
(dp2561
g62
(dp2562
sg71
g2535
sg64
(lp2563
g57
(g78
g59
NtRp2564
(dp2565
g62
(dp2566
g82
g83
ssg71
g2560
sg64
(lp2567
S'Second'
p2568
asbag57
(g78
g59
NtRp2569
(dp2570
g62
(dp2571
g89
g90
ssg71
g2560
sg64
(lp2572
S':'
asbag57
(g78
g59
NtRp2573
(dp2574
g62
(dp2575
sg71
g2560
sg64
(lp2576
g57
(g58
g59
NtRp2577
(dp2578
g62
(dp2579
g70
I4
ssg71
g2573
sg64
(lp2580
S'4'
asbasbasbasbasbasbasbag57
(g73
g59
NtRp2581
(dp2582
g62
(dp2583
sg71
g67
sg64
(lp2584
g57
(g78
g59
NtRp2585
(dp2586
g62
(dp2587
g82
g83
ssg71
g2581
sg64
(lp2588
S'url'
p2589
asbag57
(g78
g59
NtRp2590
(dp2591
g62
(dp2592
g89
g90
ssg71
g2581
sg64
(lp2593
S':'
asbag57
(g78
g59
NtRp2594
(dp2595
g62
(dp2596
sg71
g2581
sg64
(lp2597
g57
(g58
g59
NtRp2598
(dp2599
g62
(dp2600
g70
I5
ssg71
g2594
sg64
(lp2601
S'/manager/default/preference'
p2602
asbasbasbag57
(g73
g59
NtRp2603
(dp2604
g62
(dp2605
sg71
g67
sg64
(lp2606
g57
(g78
g59
NtRp2607
(dp2608
g62
(dp2609
g82
g83
ssg71
g2603
sg64
(lp2610
S'utcnow'
p2611
asbag57
(g78
g59
NtRp2612
(dp2613
g62
(dp2614
g89
g90
ssg71
g2603
sg64
(lp2615
S':'
asbag57
(g78
g59
NtRp2616
(dp2617
g62
(dp2618
sg71
g2603
sg64
(lp2619
g57
(g58
g59
NtRp2620
(dp2621
g62
(dp2622
g70
I5
ssg71
g2616
sg64
(lp2623
S'datetime.datetime(2012, 11, 6, 4, 13, 27, 48092)'
p2624
asbasbasbag57
(g73
g59
NtRp2625
(dp2626
g62
(dp2627
sg71
g67
sg64
(lp2628
g57
(g78
g59
NtRp2629
(dp2630
g62
(dp2631
g82
g83
ssg71
g2625
sg64
(lp2632
S'uuid'
p2633
asbag57
(g78
g59
NtRp2634
(dp2635
g62
(dp2636
g89
g90
ssg71
g2625
sg64
(lp2637
S':'
asbag57
(g78
g59
NtRp2638
(dp2639
g62
(dp2640
sg71
g2625
sg64
(lp2641
g57
(g58
g59
NtRp2642
(dp2643
g62
(dp2644
g70
I5
ssg71
g2638
sg64
(lp2645
S'manager/127.0.0.1.2012-11-06.09-43-27.6a392f79-2e57-40f9-a3a0-85c8ffee603e'
p2646
asbasbasbag57
(g73
g59
NtRp2647
(dp2648
g62
(dp2649
sg71
g67
sg64
(lp2650
g57
(g78
g59
NtRp2651
(dp2652
g62
(dp2653
g82
g83
ssg71
g2647
sg64
(lp2654
S'vars'
p2655
asbag57
(g78
g59
NtRp2656
(dp2657
g62
(dp2658
g89
g90
ssg71
g2647
sg64
(lp2659
S':'
asbag57
(g78
g59
NtRp2660
(dp2661
g62
(dp2662
sg71
g2647
sg64
(lp2663
g57
(g58
g59
NtRp2664
(dp2665
g62
(dp2666
g70
I5
ssg71
g2660
sg64
(lp2667
g57
(g66
g59
NtRp2668
(dp2669
g62
(dp2670
g70
I4
ssg71
Nsg64
(lp2671
g57
(g73
g59
NtRp2672
(dp2673
g62
(dp2674
sg71
g2668
sg64
(lp2675
g57
(g78
g59
NtRp2676
(dp2677
g62
(dp2678
g82
g83
ssg71
g2672
sg64
(lp2679
g2547
asbag57
(g78
g59
NtRp2680
(dp2681
g62
(dp2682
g89
g90
ssg71
g2672
sg64
(lp2683
S':'
asbag57
(g78
g59
NtRp2684
(dp2685
g62
(dp2686
sg71
g2672
sg64
(lp2687
g57
(g58
g59
NtRp2688
(dp2689
g62
(dp2690
g70
I4
ssg71
g2684
sg64
(lp2691
S'4'
asbasbasbag57
(g73
g59
NtRp2692
(dp2693
g62
(dp2694
sg71
g2668
sg64
(lp2695
g57
(g78
g59
NtRp2696
(dp2697
g62
(dp2698
g82
g83
ssg71
g2692
sg64
(lp2699
g2568
asbag57
(g78
g59
NtRp2700
(dp2701
g62
(dp2702
g89
g90
ssg71
g2692
sg64
(lp2703
S':'
asbag57
(g78
g59
NtRp2704
(dp2705
g62
(dp2706
sg71
g2692
sg64
(lp2707
g57
(g58
g59
NtRp2708
(dp2709
g62
(dp2710
g70
I4
ssg71
g2704
sg64
(lp2711
S'4'
asbasbasbasbasbasbasbag57
(g73
g59
NtRp2712
(dp2713
g62
(dp2714
sg71
g67
sg64
(lp2715
g57
(g78
g59
NtRp2716
(dp2717
g62
(dp2718
g82
g83
ssg71
g2712
sg64
(lp2719
S'wsgi'
p2720
asbag57
(g78
g59
NtRp2721
(dp2722
g62
(dp2723
g89
g90
ssg71
g2712
sg64
(lp2724
S':'
asbag57
(g78
g59
NtRp2725
(dp2726
g62
(dp2727
sg71
g2712
sg64
(lp2728
g57
(g58
g59
NtRp2729
(dp2730
g62
(dp2731
g70
I5
ssg71
g2725
sg64
(lp2732
g57
(g66
g59
NtRp2733
(dp2734
g62
(dp2735
g70
I4
ssg71
Nsg64
(lp2736
g57
(g73
g59
NtRp2737
(dp2738
g62
(dp2739
sg71
g2733
sg64
(lp2740
g57
(g78
g59
NtRp2741
(dp2742
g62
(dp2743
g82
g83
ssg71
g2737
sg64
(lp2744
S'environ'
p2745
asbag57
(g78
g59
NtRp2746
(dp2747
g62
(dp2748
g89
g90
ssg71
g2737
sg64
(lp2749
S':'
asbag57
(g78
g59
NtRp2750
(dp2751
g62
(dp2752
sg71
g2737
sg64
(lp2753
g57
(g58
g59
NtRp2754
(dp2755
g62
(dp2756
g70
I4
ssg71
g2750
sg64
(lp2757
g57
(g66
g59
NtRp2758
(dp2759
g62
(dp2760
g70
I3
ssg71
Nsg64
(lp2761
g57
(g73
g59
NtRp2762
(dp2763
g62
(dp2764
sg71
g2758
sg64
(lp2765
g57
(g78
g59
NtRp2766
(dp2767
g62
(dp2768
g82
g83
ssg71
g2762
sg64
(lp2769
S'CONTENT_LENGTH'
p2770
asbag57
(g78
g59
NtRp2771
(dp2772
g62
(dp2773
g89
g90
ssg71
g2762
sg64
(lp2774
S':'
asbag57
(g78
g59
NtRp2775
(dp2776
g62
(dp2777
sg71
g2762
sg64
(lp2778
g57
(g58
g59
NtRp2779
(dp2780
g62
(dp2781
g70
I3
ssg71
g2775
sg64
(lp2782
g1123
asbasbasbag57
(g73
g59
NtRp2783
(dp2784
g62
(dp2785
sg71
g2758
sg64
(lp2786
g57
(g78
g59
NtRp2787
(dp2788
g62
(dp2789
g82
g83
ssg71
g2783
sg64
(lp2790
S'CONTENT_TYPE'
p2791
asbag57
(g78
g59
NtRp2792
(dp2793
g62
(dp2794
g89
g90
ssg71
g2783
sg64
(lp2795
S':'
asbag57
(g78
g59
NtRp2796
(dp2797
g62
(dp2798
sg71
g2783
sg64
(lp2799
g57
(g58
g59
NtRp2800
(dp2801
g62
(dp2802
g70
I3
ssg71
g2796
sg64
(lp2803
g1145
asbasbasbag57
(g73
g59
NtRp2804
(dp2805
g62
(dp2806
sg71
g2758
sg64
(lp2807
g57
(g78
g59
NtRp2808
(dp2809
g62
(dp2810
g82
g83
ssg71
g2804
sg64
(lp2811
S'HTTP_ACCEPT'
p2812
asbag57
(g78
g59
NtRp2813
(dp2814
g62
(dp2815
g89
g90
ssg71
g2804
sg64
(lp2816
S':'
asbag57
(g78
g59
NtRp2817
(dp2818
g62
(dp2819
sg71
g2804
sg64
(lp2820
g57
(g58
g59
NtRp2821
(dp2822
g62
(dp2823
g70
I3
ssg71
g2817
sg64
(lp2824
g1232
asbasbasbag57
(g73
g59
NtRp2825
(dp2826
g62
(dp2827
sg71
g2758
sg64
(lp2828
g57
(g78
g59
NtRp2829
(dp2830
g62
(dp2831
g82
g83
ssg71
g2825
sg64
(lp2832
S'HTTP_ACCEPT_ENCODING'
p2833
asbag57
(g78
g59
NtRp2834
(dp2835
g62
(dp2836
g89
g90
ssg71
g2825
sg64
(lp2837
S':'
asbag57
(g78
g59
NtRp2838
(dp2839
g62
(dp2840
sg71
g2825
sg64
(lp2841
g57
(g58
g59
NtRp2842
(dp2843
g62
(dp2844
g70
I3
ssg71
g2838
sg64
(lp2845
g1254
asbasbasbag57
(g73
g59
NtRp2846
(dp2847
g62
(dp2848
sg71
g2758
sg64
(lp2849
g57
(g78
g59
NtRp2850
(dp2851
g62
(dp2852
g82
g83
ssg71
g2846
sg64
(lp2853
S'HTTP_ACCEPT_LANGUAGE'
p2854
asbag57
(g78
g59
NtRp2855
(dp2856
g62
(dp2857
g89
g90
ssg71
g2846
sg64
(lp2858
S':'
asbag57
(g78
g59
NtRp2859
(dp2860
g62
(dp2861
sg71
g2846
sg64
(lp2862
g57
(g58
g59
NtRp2863
(dp2864
g62
(dp2865
g70
I3
ssg71
g2859
sg64
(lp2866
g1276
asbasbasbag57
(g73
g59
NtRp2867
(dp2868
g62
(dp2869
sg71
g2758
sg64
(lp2870
g57
(g78
g59
NtRp2871
(dp2872
g62
(dp2873
g82
g83
ssg71
g2867
sg64
(lp2874
S'HTTP_CONNECTION'
p2875
asbag57
(g78
g59
NtRp2876
(dp2877
g62
(dp2878
g89
g90
ssg71
g2867
sg64
(lp2879
S':'
asbag57
(g78
g59
NtRp2880
(dp2881
g62
(dp2882
sg71
g2867
sg64
(lp2883
g57
(g58
g59
NtRp2884
(dp2885
g62
(dp2886
g70
I3
ssg71
g2880
sg64
(lp2887
g1298
asbasbasbag57
(g73
g59
NtRp2888
(dp2889
g62
(dp2890
sg71
g2758
sg64
(lp2891
g57
(g78
g59
NtRp2892
(dp2893
g62
(dp2894
g82
g83
ssg71
g2888
sg64
(lp2895
S'HTTP_CONTENT_LENGTH'
p2896
asbag57
(g78
g59
NtRp2897
(dp2898
g62
(dp2899
g89
g90
ssg71
g2888
sg64
(lp2900
S':'
asbag57
(g78
g59
NtRp2901
(dp2902
g62
(dp2903
sg71
g2888
sg64
(lp2904
g57
(g58
g59
NtRp2905
(dp2906
g62
(dp2907
g70
I3
ssg71
g2901
sg64
(lp2908
g1123
asbasbasbag57
(g73
g59
NtRp2909
(dp2910
g62
(dp2911
sg71
g2758
sg64
(lp2912
g57
(g78
g59
NtRp2913
(dp2914
g62
(dp2915
g82
g83
ssg71
g2909
sg64
(lp2916
S'HTTP_CONTENT_TYPE'
p2917
asbag57
(g78
g59
NtRp2918
(dp2919
g62
(dp2920
g89
g90
ssg71
g2909
sg64
(lp2921
S':'
asbag57
(g78
g59
NtRp2922
(dp2923
g62
(dp2924
sg71
g2909
sg64
(lp2925
g57
(g58
g59
NtRp2926
(dp2927
g62
(dp2928
g70
I3
ssg71
g2922
sg64
(lp2929
g1145
asbasbasbag57
(g73
g59
NtRp2930
(dp2931
g62
(dp2932
sg71
g2758
sg64
(lp2933
g57
(g78
g59
NtRp2934
(dp2935
g62
(dp2936
g82
g83
ssg71
g2930
sg64
(lp2937
S'HTTP_COOKIE'
p2938
asbag57
(g78
g59
NtRp2939
(dp2940
g62
(dp2941
g89
g90
ssg71
g2930
sg64
(lp2942
S':'
asbag57
(g78
g59
NtRp2943
(dp2944
g62
(dp2945
sg71
g2930
sg64
(lp2946
g57
(g58
g59
NtRp2947
(dp2948
g62
(dp2949
g70
I3
ssg71
g2943
sg64
(lp2950
g1362
asbasbasbag57
(g73
g59
NtRp2951
(dp2952
g62
(dp2953
sg71
g2758
sg64
(lp2954
g57
(g78
g59
NtRp2955
(dp2956
g62
(dp2957
g82
g83
ssg71
g2951
sg64
(lp2958
S'HTTP_HOST'
p2959
asbag57
(g78
g59
NtRp2960
(dp2961
g62
(dp2962
g89
g90
ssg71
g2951
sg64
(lp2963
S':'
asbag57
(g78
g59
NtRp2964
(dp2965
g62
(dp2966
sg71
g2951
sg64
(lp2967
g57
(g58
g59
NtRp2968
(dp2969
g62
(dp2970
g70
I3
ssg71
g2964
sg64
(lp2971
g1384
asbasbasbag57
(g73
g59
NtRp2972
(dp2973
g62
(dp2974
sg71
g2758
sg64
(lp2975
g57
(g78
g59
NtRp2976
(dp2977
g62
(dp2978
g82
g83
ssg71
g2972
sg64
(lp2979
S'HTTP_REFERER'
p2980
asbag57
(g78
g59
NtRp2981
(dp2982
g62
(dp2983
g89
g90
ssg71
g2972
sg64
(lp2984
S':'
asbag57
(g78
g59
NtRp2985
(dp2986
g62
(dp2987
sg71
g2972
sg64
(lp2988
g57
(g58
g59
NtRp2989
(dp2990
g62
(dp2991
g70
I3
ssg71
g2985
sg64
(lp2992
g1406
asbasbasbag57
(g73
g59
NtRp2993
(dp2994
g62
(dp2995
sg71
g2758
sg64
(lp2996
g57
(g78
g59
NtRp2997
(dp2998
g62
(dp2999
g82
g83
ssg71
g2993
sg64
(lp3000
S'HTTP_USER_AGENT'
p3001
asbag57
(g78
g59
NtRp3002
(dp3003
g62
(dp3004
g89
g90
ssg71
g2993
sg64
(lp3005
S':'
asbag57
(g78
g59
NtRp3006
(dp3007
g62
(dp3008
sg71
g2993
sg64
(lp3009
g57
(g58
g59
NtRp3010
(dp3011
g62
(dp3012
g70
I3
ssg71
g3006
sg64
(lp3013
g1428
asbasbasbag57
(g73
g59
NtRp3014
(dp3015
g62
(dp3016
sg71
g2758
sg64
(lp3017
g57
(g78
g59
NtRp3018
(dp3019
g62
(dp3020
g82
g83
ssg71
g3014
sg64
(lp3021
S'PATH_INFO'
p3022
asbag57
(g78
g59
NtRp3023
(dp3024
g62
(dp3025
g89
g90
ssg71
g3014
sg64
(lp3026
S':'
asbag57
(g78
g59
NtRp3027
(dp3028
g62
(dp3029
sg71
g3014
sg64
(lp3030
g57
(g58
g59
NtRp3031
(dp3032
g62
(dp3033
g70
I3
ssg71
g3027
sg64
(lp3034
g1492
asbasbasbag57
(g73
g59
NtRp3035
(dp3036
g62
(dp3037
sg71
g2758
sg64
(lp3038
g57
(g78
g59
NtRp3039
(dp3040
g62
(dp3041
g82
g83
ssg71
g3035
sg64
(lp3042
S'QUERY_STRING'
p3043
asbag57
(g78
g59
NtRp3044
(dp3045
g62
(dp3046
g89
g90
ssg71
g3035
sg64
(lp3047
S':'
asbag57
(g78
g59
NtRp3048
(dp3049
g62
(dp3050
sg71
g3035
sg64
(lp3051
g57
(g58
g59
NtRp3052
(dp3053
g62
(dp3054
g70
I3
ssg71
g3048
sg64
(lp3055
S''
asbasbasbag57
(g73
g59
NtRp3056
(dp3057
g62
(dp3058
sg71
g2758
sg64
(lp3059
g57
(g78
g59
NtRp3060
(dp3061
g62
(dp3062
g82
g83
ssg71
g3056
sg64
(lp3063
S'REMOTE_ADDR'
p3064
asbag57
(g78
g59
NtRp3065
(dp3066
g62
(dp3067
g89
g90
ssg71
g3056
sg64
(lp3068
S':'
asbag57
(g78
g59
NtRp3069
(dp3070
g62
(dp3071
sg71
g3056
sg64
(lp3072
g57
(g58
g59
NtRp3073
(dp3074
g62
(dp3075
g70
I3
ssg71
g3069
sg64
(lp3076
g190
asbasbasbag57
(g73
g59
NtRp3077
(dp3078
g62
(dp3079
sg71
g2758
sg64
(lp3080
g57
(g78
g59
NtRp3081
(dp3082
g62
(dp3083
g82
g83
ssg71
g3077
sg64
(lp3084
S'REMOTE_PORT'
p3085
asbag57
(g78
g59
NtRp3086
(dp3087
g62
(dp3088
g89
g90
ssg71
g3077
sg64
(lp3089
S':'
asbag57
(g78
g59
NtRp3090
(dp3091
g62
(dp3092
sg71
g3077
sg64
(lp3093
g57
(g58
g59
NtRp3094
(dp3095
g62
(dp3096
g70
I3
ssg71
g3090
sg64
(lp3097
g1556
asbasbasbag57
(g73
g59
NtRp3098
(dp3099
g62
(dp3100
sg71
g2758
sg64
(lp3101
g57
(g78
g59
NtRp3102
(dp3103
g62
(dp3104
g82
g83
ssg71
g3098
sg64
(lp3105
S'REQUEST_METHOD'
p3106
asbag57
(g78
g59
NtRp3107
(dp3108
g62
(dp3109
g89
g90
ssg71
g3098
sg64
(lp3110
S':'
asbag57
(g78
g59
NtRp3111
(dp3112
g62
(dp3113
sg71
g3098
sg64
(lp3114
g57
(g58
g59
NtRp3115
(dp3116
g62
(dp3117
g70
I3
ssg71
g3111
sg64
(lp3118
g1578
asbasbasbag57
(g73
g59
NtRp3119
(dp3120
g62
(dp3121
sg71
g2758
sg64
(lp3122
g57
(g78
g59
NtRp3123
(dp3124
g62
(dp3125
g82
g83
ssg71
g3119
sg64
(lp3126
S'SCRIPT_NAME'
p3127
asbag57
(g78
g59
NtRp3128
(dp3129
g62
(dp3130
g89
g90
ssg71
g3119
sg64
(lp3131
S':'
asbag57
(g78
g59
NtRp3132
(dp3133
g62
(dp3134
sg71
g3119
sg64
(lp3135
g57
(g58
g59
NtRp3136
(dp3137
g62
(dp3138
g70
I3
ssg71
g3132
sg64
(lp3139
S''
asbasbasbag57
(g73
g59
NtRp3140
(dp3141
g62
(dp3142
sg71
g2758
sg64
(lp3143
g57
(g78
g59
NtRp3144
(dp3145
g62
(dp3146
g82
g83
ssg71
g3140
sg64
(lp3147
S'SERVER_NAME'
p3148
asbag57
(g78
g59
NtRp3149
(dp3150
g62
(dp3151
g89
g90
ssg71
g3140
sg64
(lp3152
S':'
asbag57
(g78
g59
NtRp3153
(dp3154
g62
(dp3155
sg71
g3140
sg64
(lp3156
g57
(g58
g59
NtRp3157
(dp3158
g62
(dp3159
g70
I3
ssg71
g3153
sg64
(lp3160
g1621
asbasbasbag57
(g73
g59
NtRp3161
(dp3162
g62
(dp3163
sg71
g2758
sg64
(lp3164
g57
(g78
g59
NtRp3165
(dp3166
g62
(dp3167
g82
g83
ssg71
g3161
sg64
(lp3168
S'SERVER_PORT'
p3169
asbag57
(g78
g59
NtRp3170
(dp3171
g62
(dp3172
g89
g90
ssg71
g3161
sg64
(lp3173
S':'
asbag57
(g78
g59
NtRp3174
(dp3175
g62
(dp3176
sg71
g3161
sg64
(lp3177
g57
(g58
g59
NtRp3178
(dp3179
g62
(dp3180
g70
I3
ssg71
g3174
sg64
(lp3181
g1643
asbasbasbag57
(g73
g59
NtRp3182
(dp3183
g62
(dp3184
sg71
g2758
sg64
(lp3185
g57
(g78
g59
NtRp3186
(dp3187
g62
(dp3188
g82
g83
ssg71
g3182
sg64
(lp3189
S'SERVER_PROTOCOL'
p3190
asbag57
(g78
g59
NtRp3191
(dp3192
g62
(dp3193
g89
g90
ssg71
g3182
sg64
(lp3194
S':'
asbag57
(g78
g59
NtRp3195
(dp3196
g62
(dp3197
sg71
g3182
sg64
(lp3198
g57
(g58
g59
NtRp3199
(dp3200
g62
(dp3201
g70
I3
ssg71
g3195
sg64
(lp3202
g1665
asbasbasbag57
(g73
g59
NtRp3203
(dp3204
g62
(dp3205
sg71
g2758
sg64
(lp3206
g57
(g78
g59
NtRp3207
(dp3208
g62
(dp3209
g82
g83
ssg71
g3203
sg64
(lp3210
S'SERVER_SOFTWARE'
p3211
asbag57
(g78
g59
NtRp3212
(dp3213
g62
(dp3214
g89
g90
ssg71
g3203
sg64
(lp3215
S':'
asbag57
(g78
g59
NtRp3216
(dp3217
g62
(dp3218
sg71
g3203
sg64
(lp3219
g57
(g58
g59
NtRp3220
(dp3221
g62
(dp3222
g70
I3
ssg71
g3216
sg64
(lp3223
g1687
asbasbasbag57
(g73
g59
NtRp3224
(dp3225
g62
(dp3226
sg71
g2758
sg64
(lp3227
g57
(g78
g59
NtRp3228
(dp3229
g62
(dp3230
g82
g83
ssg71
g3224
sg64
(lp3231
S'wsgi.errors'
p3232
asbag57
(g78
g59
NtRp3233
(dp3234
g62
(dp3235
g89
g90
ssg71
g3224
sg64
(lp3236
S':'
asbag57
(g78
g59
NtRp3237
(dp3238
g62
(dp3239
sg71
g3224
sg64
(lp3240
g57
(g58
g59
NtRp3241
(dp3242
g62
(dp3243
g70
I3
ssg71
g3237
sg64
(lp3244
S"<open file '<stderr>', mode 'w' at 0x7f60a8e41270>"
p3245
asbasbasbag57
(g73
g59
NtRp3246
(dp3247
g62
(dp3248
sg71
g2758
sg64
(lp3249
g57
(g78
g59
NtRp3250
(dp3251
g62
(dp3252
g82
g83
ssg71
g3246
sg64
(lp3253
S'wsgi.file_wrapper'
p3254
asbag57
(g78
g59
NtRp3255
(dp3256
g62
(dp3257
g89
g90
ssg71
g3246
sg64
(lp3258
S':'
asbag57
(g78
g59
NtRp3259
(dp3260
g62
(dp3261
sg71
g3246
sg64
(lp3262
g57
(g58
g59
NtRp3263
(dp3264
g62
(dp3265
g70
I3
ssg71
g3259
sg64
(lp3266
S'<class wsgiref.util.FileWrapper at 0x147d3f8>'
p3267
asbasbasbag57
(g73
g59
NtRp3268
(dp3269
g62
(dp3270
sg71
g2758
sg64
(lp3271
g57
(g78
g59
NtRp3272
(dp3273
g62
(dp3274
g82
g83
ssg71
g3268
sg64
(lp3275
S'wsgi.input'
p3276
asbag57
(g78
g59
NtRp3277
(dp3278
g62
(dp3279
g89
g90
ssg71
g3268
sg64
(lp3280
S':'
asbag57
(g78
g59
NtRp3281
(dp3282
g62
(dp3283
sg71
g3268
sg64
(lp3284
g57
(g58
g59
NtRp3285
(dp3286
g62
(dp3287
g70
I3
ssg71
g3281
sg64
(lp3288
S"<open file '<fdopen>', mode 'w+b' at 0x19528a0>"
p3289
asbasbasbag57
(g73
g59
NtRp3290
(dp3291
g62
(dp3292
sg71
g2758
sg64
(lp3293
g57
(g78
g59
NtRp3294
(dp3295
g62
(dp3296
g82
g83
ssg71
g3290
sg64
(lp3297
S'wsgi.multiprocess'
p3298
asbag57
(g78
g59
NtRp3299
(dp3300
g62
(dp3301
g89
g90
ssg71
g3290
sg64
(lp3302
S':'
asbag57
(g78
g59
NtRp3303
(dp3304
g62
(dp3305
sg71
g3290
sg64
(lp3306
g57
(g58
g59
NtRp3307
(dp3308
g62
(dp3309
g70
I3
ssg71
g3303
sg64
(lp3310
g100
asbasbasbag57
(g73
g59
NtRp3311
(dp3312
g62
(dp3313
sg71
g2758
sg64
(lp3314
g57
(g78
g59
NtRp3315
(dp3316
g62
(dp3317
g82
g83
ssg71
g3311
sg64
(lp3318
S'wsgi.multithread'
p3319
asbag57
(g78
g59
NtRp3320
(dp3321
g62
(dp3322
g89
g90
ssg71
g3311
sg64
(lp3323
S':'
asbag57
(g78
g59
NtRp3324
(dp3325
g62
(dp3326
sg71
g3311
sg64
(lp3327
g57
(g58
g59
NtRp3328
(dp3329
g62
(dp3330
g70
I3
ssg71
g3324
sg64
(lp3331
g1927
asbasbasbag57
(g73
g59
NtRp3332
(dp3333
g62
(dp3334
sg71
g2758
sg64
(lp3335
g57
(g78
g59
NtRp3336
(dp3337
g62
(dp3338
g82
g83
ssg71
g3332
sg64
(lp3339
S'wsgi.run_once'
p3340
asbag57
(g78
g59
NtRp3341
(dp3342
g62
(dp3343
g89
g90
ssg71
g3332
sg64
(lp3344
S':'
asbag57
(g78
g59
NtRp3345
(dp3346
g62
(dp3347
sg71
g3332
sg64
(lp3348
g57
(g58
g59
NtRp3349
(dp3350
g62
(dp3351
g70
I3
ssg71
g3345
sg64
(lp3352
g100
asbasbasbag57
(g73
g59
NtRp3353
(dp3354
g62
(dp3355
sg71
g2758
sg64
(lp3356
g57
(g78
g59
NtRp3357
(dp3358
g62
(dp3359
g82
g83
ssg71
g3353
sg64
(lp3360
S'wsgi.url_scheme'
p3361
asbag57
(g78
g59
NtRp3362
(dp3363
g62
(dp3364
g89
g90
ssg71
g3353
sg64
(lp3365
S':'
asbag57
(g78
g59
NtRp3366
(dp3367
g62
(dp3368
sg71
g3353
sg64
(lp3369
g57
(g58
g59
NtRp3370
(dp3371
g62
(dp3372
g70
I3
ssg71
g3366
sg64
(lp3373
g1970
asbasbasbag57
(g73
g59
NtRp3374
(dp3375
g62
(dp3376
sg71
g2758
sg64
(lp3377
g57
(g78
g59
NtRp3378
(dp3379
g62
(dp3380
g82
g83
ssg71
g3374
sg64
(lp3381
S'wsgi.version'
p3382
asbag57
(g78
g59
NtRp3383
(dp3384
g62
(dp3385
g89
g90
ssg71
g3374
sg64
(lp3386
S':'
asbag57
(g78
g59
NtRp3387
(dp3388
g62
(dp3389
sg71
g3374
sg64
(lp3390
g57
(g58
g59
NtRp3391
(dp3392
g62
(dp3393
g70
I3
ssg71
g3387
sg64
(lp3394
S'1'
asbasbasbasbasbasbasbasbasbasbasbasbasbsS'frames'
p3395
(lp3396
(dp3397
S'file'
p3398
S'/home/abhishek/Desktop/web2py/gluon/restricted.py'
p3399
sS'dump'
p3400
(dp3401
S'environment'
p3402
S"{'A': <class 'gluon.html.A'>, 'Admin': <function Admin>, 'Auth': <class 'gluon.tools.Auth'>, 'B': <class 'gluon.html.B'>, 'BEAUTIFY': <class 'gluon.html.BEAUTIFY'>, 'BODY': <class 'gluon.html.BODY'>, 'BR': <class 'gluon.html.BR'>, 'BUTTON': <class 'gluon.html.BUTTON'>, 'CAS': <Storage {'check_url': 'https://login.iiit.ac.in...: 'http://127.0.0.1:8000/manager/default/login'}>, 'CAT': <class 'gluon.html.CAT'>, ...}"
p3403
sS'ccode'
p3404
S'<code object <module> at 0x19570b0, file "/home/...cations/manager/controllers/default.py", line 11>'
p3405
ssS'lnum'
p3406
I205
sS'lines'
p3407
(dp3408
I200
S'    try:'
p3409
sI201
S'        if type(code) == types.CodeType:'
p3410
sI202
S'            ccode = code'
p3411
sI203
S'        else:'
p3412
sI204
S'            ccode = compile2(code,layer)'
p3413
sI205
S'        exec ccode in environment'
p3414
sI206
S'    except HTTP:'
p3415
sI207
S'        raise'
p3416
sI208
S'    except RestrictedError:'
p3417
sI209
S'        # do not encapsulate (obfuscate) the original RestrictedError'
p3418
ssS'call'
p3419
S"(code='# -*- coding: utf-8 -*-\\n# this file is released ...id)\\n\\nresponse._vars=response._caller(preference)\\n', environment={'A': <class 'gluon.html.A'>, 'Admin': <function Admin>, 'Auth': <class 'gluon.tools.Auth'>, 'B': <class 'gluon.html.B'>, 'BEAUTIFY': <class 'gluon.html.BEAUTIFY'>, 'BODY': <class 'gluon.html.BODY'>, 'BR': <class 'gluon.html.BR'>, 'BUTTON': <class 'gluon.html.BUTTON'>, 'CAS': <Storage {'check_url': 'https://login.iiit.ac.in...: 'http://127.0.0.1:8000/manager/default/login'}>, 'CAT': <class 'gluon.html.CAT'>, ...}, layer='/home/abhishek/Desktop/web2py/applications/manager/controllers/default.py')"
p3420
sS'func'
p3421
S'restricted'
p3422
sa(dp3423
g3398
S'/home/abhishek/Desktop/web2py/applications/manager/controllers/default.py'
p3424
sg3400
(dp3425
sg3406
I294
sg3407
(dp3426
I288
S'    """'
p3427
sI289
S'    return dict(form=crud())'
p3428
sI290
S'def manage():'
p3429
sI291
S'    grid = SQLFORM.smartgrid(db.UPBook)'
p3430
sI292
S'    return dict(grid=grid)'
p3431
sI283
S'    http://..../[app]/default/data/search/[table]'
p3432
sI284
S'    but URLs must be signed, i.e. linked with'
p3433
sI285
S"      A('table',_href=URL('data/tables',user_signature=True))"
p3434
sI286
S'    or with the signed load operator'
p3435
sI287
S"      LOAD('default','data.load',args='tables',ajax=True,user_signature=True)"
p3436
ssg3419
S'()'
p3437
sg3421
S'<module>'
p3438
sa(dp3439
g3398
S'/home/abhishek/Desktop/web2py/gluon/globals.py'
p3440
sg3400
(dp3441
S'self'
p3442
S'undefined'
p3443
sS'f'
S'<function preference>'
p3444
ssg3406
I173
sg3407
(dp3445
I168
S'        self.menu = []             # used by the default view layout'
p3446
sI169
S'        self.files = []            # used by web2py_ajax.html'
p3447
sI170
S'        self.generic_patterns = [] # patterns to allow generic views'
p3448
sI171
S"        self.delimiters = ('{{','}}')"
p3449
sI172
S'        self._vars = None'
p3450
sI173
S'        self._caller = lambda f: f()'
p3451
sI174
S'        self._view_environment = None'
p3452
sI175
S'        self._custom_commit = None'
p3453
sI176
S'        self._custom_rollback = None'
p3454
sI177
S''
ssg3419
S'(f=<function preference>)'
p3455
sg3421
S'<lambda>'
p3456
sa(dp3457
g3398
S'/home/abhishek/Desktop/web2py/applications/manager/controllers/default.py'
p3458
sg3400
(dp3459
S'global URL'
p3460
S'<function URL>'
p3461
sS'builtinnext'
p3462
S'<built-in function next>'
p3463
ssg3406
I117
sg3407
(dp3464
I112
S'def preference():'
p3465
sI113
S'  for rows in db(db.auth_user.email == session.token).select(db.auth_user.email):'
p3466
sI114
S'   id1=rows.email'
p3467
sI115
S'  db.Lpref.E.default=id'
p3468
sI116
S'  form1 = crud.create(db.Lpref,'
p3469
sI117
S'         next=URL("index"))'
p3470
sI118
S'  users1 = db().select(db.Lpref.ALL)'
p3471
sI119
S'  users2 = db().select(db.Lpref.ALL)'
p3472
sI120
S'  for i in users1:'
p3473
sI121
S'      for j in users2:'
p3474
ssg3419
S'()'
p3475
sg3421
S'preference'
p3476
sa(dp3477
g3398
S'/home/abhishek/Desktop/web2py/gluon/tools.py'
p3478
sg3400
(dp3479
S'formname'
p3480
S'<function <lambda>>'
p3481
ssg3406
I3172
sg3407
(dp3482
I3168
S'            onaccept=onaccept,'
p3483
sI3169
S'            log=log,'
p3484
sI3170
S'            message=message,'
p3485
sI3171
S'            deletable=False,'
p3486
sI3172
S'            formname=formname,'
p3487
sI3173
S'            )'
p3488
sI3174
S''
sI3175
S'    def read(self, table, record):'
p3489
sI3176
S'        if not (isinstance(table, self.db.Table) or table in self.db.tables) \\'
p3490
sI3167
S'            onvalidation=onvalidation,'
p3491
ssg3419
S"(self=<gluon.tools.Crud object>, table=<Table {'ALL': <gluon.dal.SQLALL object at 0x193... 'First': <gluon.dal.Field object at 0x1931390>}>, next='/manager/default/index', onvalidation=<Storage {}>, onaccept=<Storage {}>, log='Record %(id)s created', message='Record Created', formname=<function <lambda>>)"
p3492
sg3421
S'create'
p3493
sa(dp3494
g3398
S'/home/abhishek/Desktop/web2py/gluon/tools.py'
p3495
sg3400
(dp3496
S'detect_record_change'
p3497
g3443
sS'self'
p3498
S'<gluon.tools.Crud object>'
p3499
sS'self.settings'
p3500
S"<Storage {'showid': False, 'delete_onaccept': <S...ble': True, 'create_onvalidation': <Storage {}>}>"
p3501
sS'self.settings.detect_record_change'
p3502
g1927
ssg3406
I3115
sg3407
(dp3503
I3110
S'        if isinstance(onvalidation,StorageList):'
p3504
sI3111
S'            onvalidation=onvalidation.get(table._tablename, [])'
p3505
sI3112
S'        if form.accepts(request, _session, formname=_formname,'
p3506
sI3113
S'                        onvalidation=onvalidation, keepvalues=keepvalues,'
p3507
sI3114
S'                        hideerror=self.settings.hideerror,'
p3508
sI3115
S'                        detect_record_change = self.settings.detect_record_change):'
p3509
sI3116
S'            self.accepted = True'
p3510
sI3117
S'            response.flash = message'
p3511
sI3118
S'            if log:'
p3512
sI3119
S'                self.log_event(log, form.vars)'
p3513
ssg3419
S"(self=<gluon.tools.Crud object>, table=<Table {'ALL': <gluon.dal.SQLALL object at 0x193... 'First': <gluon.dal.Field object at 0x1931390>}>, record=None, next='/manager/default/index', onvalidation=[], onaccept=<Storage {}>, ondelete=<Storage {}>, log='Record %(id)s created', message='Record Created', deletable=False, formname=<function <lambda>>)"
p3514
sg3421
S'update'
p3515
sa(dp3516
g3398
S'/home/abhishek/Desktop/web2py/gluon/sqlhtml.py'
p3517
sg3400
(dp3518
S'self.vars.id'
p3519
S'None'
p3520
sS'fields'
p3521
S"{'E': <built-in function id>, 'First': 4, 'Second': 4}"
p3522
sS'self'
p3523
S'<gluon.sqlhtml.SQLFORM object>'
p3524
sS'self.vars'
p3525
S"<Storage {'Second': '4', 'First': '4'}>"
p3526
sS'self.table.insert'
p3527
S"<bound method Table.insert of <Table {'ALL': <gl...'First': <gluon.dal.Field object at 0x1931390>}>>"
p3528
sS'self.table'
p3529
S"<Table {'ALL': <gluon.dal.SQLALL object at 0x193... 'First': <gluon.dal.Field object at 0x1931390>}>"
p3530
ssg3406
I1274
sg3407
(dp3531
I1269
S'                if record_id:'
p3532
sI1270
S'                    self.vars.id = self.record[self.id_field_name]'
p3533
sI1271
S'                    if fields:'
p3534
sI1272
S'                        self.table._db(self.table._id == self.record[self.id_field_name]).update(**fields)'
p3535
sI1273
S'                else:'
p3536
sI1274
S'                    self.vars.id = self.table.insert(**fields)'
p3537
sI1275
S'        self.accepted = ret'
p3538
sI1276
S'        return ret'
p3539
sI1277
S''
sI1278
S'    @staticmethod'
p3540
ssg3419
S"(self=<gluon.sqlhtml.SQLFORM object>, request_vars=<Storage {'_formname': 'Lpref/None', 'Second': '...1890-a3b7-475a-8348-426130eff077', 'First': '4'}>, session=<Storage {'login': 0, 'LOGGEDIN': 0, 'token': 'c..._hash': '-\\xf1\\xb7\\xa7U#\\xac)ge9T\\xb21\\xc7\\xa9'}>, formname='Lpref/None', keepvalues=False, onvalidation=[], dbio=True, hideerror=False, detect_record_change=True)"
p3541
sg3421
S'accepts'
p3542
sa(dp3543
g3398
S'/home/abhishek/Desktop/web2py/gluon/dal.py'
p3544
sg3400
(dp3545
S'self._listify'
p3546
S"<bound method Table._listify of <Table {'ALL': <...'First': <gluon.dal.Field object at 0x1931390>}>>"
p3547
sS'fields'
p3548
S"{'E': <built-in function id>, 'First': 4, 'Second': 4}"
p3549
sS'self'
p3550
S"<Table {'ALL': <gluon.dal.SQLALL object at 0x193... 'First': <gluon.dal.Field object at 0x1931390>}>"
p3551
sS'self._db._adapter'
p3552
S'<gluon.dal.SQLiteAdapter object>'
p3553
sS'self._db._adapter.insert'
p3554
S'<bound method SQLiteAdapter.insert of <gluon.dal.SQLiteAdapter object>>'
p3555
sS'self._db'
p3556
S"<DAL {'auth_event': <Table {'origin': <gluon.dal...n_key': <gluon.dal.Field object at 0x194a790>}>}>"
p3557
ssg3406
I6829
sg3407
(dp3558
I6824
S''
sI6825
S'    def _insert(self, **fields):'
p3559
sI6826
S'        return self._db._adapter._insert(self,self._listify(fields))'
p3560
sI6827
S''
sI6828
S'    def insert(self, **fields):'
p3561
sI6829
S'        return self._db._adapter.insert(self,self._listify(fields))'
p3562
sI6830
S''
sI6831
S'    def validate_and_insert(self,**fields):'
p3563
sI6832
S'        response = Row()'
p3564
sI6833
S'        response.errors = Row()'
p3565
ssg3419
S"(self=<Table {'ALL': <gluon.dal.SQLALL object at 0x193... 'First': <gluon.dal.Field object at 0x1931390>}>, **fields={'E': <built-in function id>, 'First': 4, 'Second': 4})"
p3566
sg3421
S'insert'
p3567
sa(dp3568
g3398
S'/home/abhishek/Desktop/web2py/gluon/dal.py'
p3569
sg3400
(dp3570
S'self._insert'
p3571
S'<bound method SQLiteAdapter._insert of <gluon.dal.SQLiteAdapter object>>'
p3572
sS'query'
p3573
g3443
sS'self'
p3574
S'<gluon.dal.SQLiteAdapter object>'
p3575
sS'fields'
p3576
S'[(<gluon.dal.Field object>, 4), (<gluon.dal.Field object>, <built-in function id>), (<gluon.dal.Field object>, 4)]'
p3577
sS'table'
p3578
S"<Table {'ALL': <gluon.dal.SQLALL object at 0x193... 'First': <gluon.dal.Field object at 0x1931390>}>"
p3579
ssg3406
I922
sg3407
(dp3580
I917
S"        keys = ','.join(f.name for f,v in fields)"
p3581
sI918
S"        values = ','.join(self.expand(v,f.type) for f,v in fields)"
p3582
sI919
S"        return 'INSERT INTO %s(%s) VALUES (%s);' % (table, keys, values)"
p3583
sI920
S''
sI921
S'    def insert(self, table, fields):'
p3584
sI922
S'        query = self._insert(table,fields)'
p3585
sI923
S'        try:'
p3586
sI924
S'            self.execute(query)'
p3587
sI925
S'        except Exception, e:'
p3588
sI926
S'            if isinstance(e,self.integrity_error_class()):'
p3589
ssg3419
S"(self=<gluon.dal.SQLiteAdapter object>, table=<Table {'ALL': <gluon.dal.SQLALL object at 0x193... 'First': <gluon.dal.Field object at 0x1931390>}>, fields=[(<gluon.dal.Field object>, 4), (<gluon.dal.Field object>, <built-in function id>), (<gluon.dal.Field object>, 4)])"
p3590
sg3421
g3567
sa(dp3591
g3398
S'/home/abhishek/Desktop/web2py/gluon/dal.py'
p3592
sg3400
(dp3593
S'f'
g3443
sS'fields'
p3594
S'[(<gluon.dal.Field object>, 4), (<gluon.dal.Field object>, <built-in function id>), (<gluon.dal.Field object>, 4)]'
p3595
sS'self'
p3596
S'<gluon.dal.SQLiteAdapter object>'
p3597
sS'values'
p3598
g3443
sS'v'
g3443
sS'self.expand'
p3599
S'<bound method SQLiteAdapter.expand of <gluon.dal.SQLiteAdapter object>>'
p3600
ssg3406
I918
sg3407
(dp3601
I913
S'            self.file_delete(table._dbt)'
p3602
sI914
S"            logfile.write('success!\\n')"
p3603
sI915
S''
sI916
S'    def _insert(self, table, fields):'
p3604
sI917
S"        keys = ','.join(f.name for f,v in fields)"
p3605
sI918
S"        values = ','.join(self.expand(v,f.type) for f,v in fields)"
p3606
sI919
S"        return 'INSERT INTO %s(%s) VALUES (%s);' % (table, keys, values)"
p3607
sI920
S''
sI921
S'    def insert(self, table, fields):'
p3608
sI922
S'        query = self._insert(table,fields)'
p3609
ssg3419
S"(self=<gluon.dal.SQLiteAdapter object>, table=<Table {'ALL': <gluon.dal.SQLALL object at 0x193... 'First': <gluon.dal.Field object at 0x1931390>}>, fields=[(<gluon.dal.Field object>, 4), (<gluon.dal.Field object>, <built-in function id>), (<gluon.dal.Field object>, 4)])"
p3610
sg3421
S'_insert'
p3611
sa(dp3612
g3398
S'/home/abhishek/Desktop/web2py/gluon/dal.py'
p3613
sg3400
(dp3614
S'f'
S'<gluon.dal.Field object>'
p3615
sS'fields'
p3616
g3443
sS'self'
p3617
S'<gluon.dal.SQLiteAdapter object>'
p3618
sS'f.type'
p3619
S"'string'"
p3620
sS'values'
p3621
g3443
sS'v'
S'<built-in function id>'
p3622
sS'self.expand'
p3623
S'<bound method SQLiteAdapter.expand of <gluon.dal.SQLiteAdapter object>>'
p3624
ssg3406
I918
sg3407
(dp3625
I913
S'            self.file_delete(table._dbt)'
p3626
sI914
S"            logfile.write('success!\\n')"
p3627
sI915
S''
sI916
S'    def _insert(self, table, fields):'
p3628
sI917
S"        keys = ','.join(f.name for f,v in fields)"
p3629
sI918
S"        values = ','.join(self.expand(v,f.type) for f,v in fields)"
p3630
sI919
S"        return 'INSERT INTO %s(%s) VALUES (%s);' % (table, keys, values)"
p3631
sI920
S''
sI921
S'    def insert(self, table, fields):'
p3632
sI922
S'        query = self._insert(table,fields)'
p3633
ssg3419
S'((f=<gluon.dal.Field object>, v=<built-in function id>))'
p3634
sg3421
S'<genexpr>'
p3635
sa(dp3636
g3398
S'/home/abhishek/Desktop/web2py/gluon/dal.py'
p3637
sg3400
(dp3638
S'builtinstr'
p3639
S"<type 'str'>"
p3640
sS'field_type'
p3641
S"'string'"
p3642
sS'self'
p3643
S'<gluon.dal.SQLiteAdapter object>'
p3644
sS'expression'
p3645
S'<built-in function id>'
p3646
sS'self.represent'
p3647
S'<bound method SQLiteAdapter.represent of <gluon.dal.SQLiteAdapter object>>'
p3648
ssg3406
I1054
sg3407
(dp3649
I1056
S"            return ','.join(self.represent(item,field_type) for item in expression)"
p3650
sI1057
S'        else:'
p3651
sI1058
S'            return str(expression)'
p3652
sI1049
S'            elif not isinstance(expression.op, str):'
p3653
sI1050
S'                return expression.op()'
p3654
sI1051
S'            else:'
p3655
sI1052
S"                return '(%s)' % expression.op"
p3656
sI1053
S'        elif field_type:'
p3657
sI1054
S'            return str(self.represent(expression,field_type))'
p3658
sI1055
S'        elif isinstance(expression,(list,tuple)):'
p3659
ssg3419
S"(self=<gluon.dal.SQLiteAdapter object>, expression=<built-in function id>, field_type='string')"
p3660
sg3421
S'expand'
p3661
sa(dp3662
g3398
S'/home/abhishek/Desktop/web2py/gluon/dal.py'
p3663
sg3400
(dp3664
S'obj'
p3665
S'<built-in function id>'
p3666
ssg3406
I1396
sg3407
(dp3667
I1391
S'    def execute(self, *a, **b):'
p3668
sI1392
S'        return self.log_execute(*a, **b)'
p3669
sI1393
S''
sI1394
S'    def represent(self, obj, fieldtype):'
p3670
sI1395
S'        if isinstance(obj, CALLABLETYPES):'
p3671
sI1396
S'            obj = obj()'
p3672
sI1397
S'        if isinstance(fieldtype, SQLCustomType):'
p3673
sI1398
S'            return fieldtype.encoder(obj)'
p3674
sI1399
S'        if isinstance(obj, (Expression, Field)):'
p3675
sI1400
S'            return str(obj)'
p3676
ssg3419
S"(self=<gluon.dal.SQLiteAdapter object>, obj=<built-in function id>, fieldtype='string')"
p3677
sg3421
S'represent'
p3678
sasS'pyver'
p3679
S'Python 2.7.2+: /usr/bin/python'
p3680
sS'session'
p3681
g57
(g58
g59
NtRp3682
(dp3683
g62
(dp3684
sg64
(lp3685
g57
(g66
g59
NtRp3686
(dp3687
g62
(dp3688
g70
I5
ssg71
Nsg64
(lp3689
g57
(g73
g59
NtRp3690
(dp3691
g62
(dp3692
sg71
g3686
sg64
(lp3693
g57
(g78
g59
NtRp3694
(dp3695
g62
(dp3696
g82
g83
ssg71
g3690
sg64
(lp3697
S'LOGGEDIN'
p3698
asbag57
(g78
g59
NtRp3699
(dp3700
g62
(dp3701
g89
g90
ssg71
g3690
sg64
(lp3702
S':'
asbag57
(g78
g59
NtRp3703
(dp3704
g62
(dp3705
sg71
g3690
sg64
(lp3706
g57
(g58
g59
NtRp3707
(dp3708
g62
(dp3709
g70
I5
ssg71
g3703
sg64
(lp3710
S'0'
asbasbasbag57
(g73
g59
NtRp3711
(dp3712
g62
(dp3713
sg71
g3686
sg64
(lp3714
g57
(g78
g59
NtRp3715
(dp3716
g62
(dp3717
g82
g83
ssg71
g3711
sg64
(lp3718
S'login'
p3719
asbag57
(g78
g59
NtRp3720
(dp3721
g62
(dp3722
g89
g90
ssg71
g3711
sg64
(lp3723
S':'
asbag57
(g78
g59
NtRp3724
(dp3725
g62
(dp3726
sg71
g3711
sg64
(lp3727
g57
(g58
g59
NtRp3728
(dp3729
g62
(dp3730
g70
I5
ssg71
g3724
sg64
(lp3731
S'0'
asbasbasbag57
(g73
g59
NtRp3732
(dp3733
g62
(dp3734
sg71
g3686
sg64
(lp3735
g57
(g78
g59
NtRp3736
(dp3737
g62
(dp3738
g82
g83
ssg71
g3732
sg64
(lp3739
S'token'
p3740
asbag57
(g78
g59
NtRp3741
(dp3742
g62
(dp3743
g89
g90
ssg71
g3732
sg64
(lp3744
S':'
asbag57
(g78
g59
NtRp3745
(dp3746
g62
(dp3747
sg71
g3732
sg64
(lp3748
g57
(g58
g59
NtRp3749
(dp3750
g62
(dp3751
g70
I5
ssg71
g3745
sg64
(lp3752
S'chinni.abhishek@students.iiit.ac.in'
p3753
asbasbasbasbasbsS'etype'
p3754
S"<type 'exceptions.TypeError'>"
p3755
sS'date'
p3756
S'Tue Nov  6 09:43:27 2012'
p3757
sS'response'
p3758
g57
(g58
g59
NtRp3759
(dp3760
g62
(dp3761
sg64
(lp3762
g57
(g66
g59
NtRp3763
(dp3764
g62
(dp3765
g70
I5
ssg71
Nsg64
(lp3766
g57
(g73
g59
NtRp3767
(dp3768
g62
(dp3769
sg71
g3763
sg64
(lp3770
g57
(g78
g59
NtRp3771
(dp3772
g62
(dp3773
g82
g83
ssg71
g3767
sg64
(lp3774
g155
asbag57
(g78
g59
NtRp3775
(dp3776
g62
(dp3777
g89
g90
ssg71
g3767
sg64
(lp3778
S':'
asbag57
(g78
g59
NtRp3779
(dp3780
g62
(dp3781
sg71
g3767
sg64
(lp3782
g57
(g58
g59
NtRp3783
(dp3784
g62
(dp3785
g70
I5
ssg71
g3779
sg64
(lp3786
S'<cStringIO.StringO object at 0x1940490>'
p3787
asbasbasbag57
(g73
g59
NtRp3788
(dp3789
g62
(dp3790
sg71
g3763
sg64
(lp3791
g57
(g78
g59
NtRp3792
(dp3793
g62
(dp3794
g82
g83
ssg71
g3788
sg64
(lp3795
g221
asbag57
(g78
g59
NtRp3796
(dp3797
g62
(dp3798
g89
g90
ssg71
g3788
sg64
(lp3799
S':'
asbag57
(g78
g59
NtRp3800
(dp3801
g62
(dp3802
sg71
g3788
sg64
(lp3803
g57
(g58
g59
NtRp3804
(dp3805
g62
(dp3806
g70
I5
ssg71
g3800
sg64
(lp3807
g57
(g66
g59
NtRp3808
(dp3809
g62
(dp3810
g70
I4
ssg71
Nsg64
(lp3811
g57
(g73
g59
NtRp3812
(dp3813
g62
(dp3814
sg71
g3808
sg64
(lp3815
g57
(g78
g59
NtRp3816
(dp3817
g62
(dp3818
g82
g83
ssg71
g3812
sg64
(lp3819
S'session_id_manager'
p3820
asbag57
(g78
g59
NtRp3821
(dp3822
g62
(dp3823
g89
g90
ssg71
g3812
sg64
(lp3824
S':'
asbag57
(g78
g59
NtRp3825
(dp3826
g62
(dp3827
sg71
g3812
sg64
(lp3828
g57
(g58
g59
NtRp3829
(dp3830
g62
(dp3831
g70
I4
ssg71
g3825
sg64
(lp3832
g57
(g66
g59
NtRp3833
(dp3834
g62
(dp3835
g70
I3
ssg71
Nsg64
(lp3836
g57
(g73
g59
NtRp3837
(dp3838
g62
(dp3839
sg71
g3833
sg64
(lp3840
g57
(g78
g59
NtRp3841
(dp3842
g62
(dp3843
g82
g83
ssg71
g3837
sg64
(lp3844
g271
asbag57
(g78
g59
NtRp3845
(dp3846
g62
(dp3847
g89
g90
ssg71
g3837
sg64
(lp3848
S':'
asbag57
(g78
g59
NtRp3849
(dp3850
g62
(dp3851
sg71
g3837
sg64
(lp3852
g57
(g58
g59
NtRp3853
(dp3854
g62
(dp3855
g70
I3
ssg71
g3849
sg64
(lp3856
S''
asbasbasbag57
(g73
g59
NtRp3857
(dp3858
g62
(dp3859
sg71
g3833
sg64
(lp3860
g57
(g78
g59
NtRp3861
(dp3862
g62
(dp3863
g82
g83
ssg71
g3857
sg64
(lp3864
g292
asbag57
(g78
g59
NtRp3865
(dp3866
g62
(dp3867
g89
g90
ssg71
g3857
sg64
(lp3868
S':'
asbag57
(g78
g59
NtRp3869
(dp3870
g62
(dp3871
sg71
g3857
sg64
(lp3872
g57
(g58
g59
NtRp3873
(dp3874
g62
(dp3875
g70
I3
ssg71
g3869
sg64
(lp3876
S''
asbasbasbag57
(g73
g59
NtRp3877
(dp3878
g62
(dp3879
sg71
g3833
sg64
(lp3880
g57
(g78
g59
NtRp3881
(dp3882
g62
(dp3883
g82
g83
ssg71
g3877
sg64
(lp3884
g313
asbag57
(g78
g59
NtRp3885
(dp3886
g62
(dp3887
g89
g90
ssg71
g3877
sg64
(lp3888
S':'
asbag57
(g78
g59
NtRp3889
(dp3890
g62
(dp3891
sg71
g3877
sg64
(lp3892
g57
(g58
g59
NtRp3893
(dp3894
g62
(dp3895
g70
I3
ssg71
g3889
sg64
(lp3896
S''
asbasbasbag57
(g73
g59
NtRp3897
(dp3898
g62
(dp3899
sg71
g3833
sg64
(lp3900
g57
(g78
g59
NtRp3901
(dp3902
g62
(dp3903
g82
g83
ssg71
g3897
sg64
(lp3904
g334
asbag57
(g78
g59
NtRp3905
(dp3906
g62
(dp3907
g89
g90
ssg71
g3897
sg64
(lp3908
S':'
asbag57
(g78
g59
NtRp3909
(dp3910
g62
(dp3911
sg71
g3897
sg64
(lp3912
g57
(g58
g59
NtRp3913
(dp3914
g62
(dp3915
g70
I3
ssg71
g3909
sg64
(lp3916
S''
asbasbasbag57
(g73
g59
NtRp3917
(dp3918
g62
(dp3919
sg71
g3833
sg64
(lp3920
g57
(g78
g59
NtRp3921
(dp3922
g62
(dp3923
g82
g83
ssg71
g3917
sg64
(lp3924
g355
asbag57
(g78
g59
NtRp3925
(dp3926
g62
(dp3927
g89
g90
ssg71
g3917
sg64
(lp3928
S':'
asbag57
(g78
g59
NtRp3929
(dp3930
g62
(dp3931
sg71
g3917
sg64
(lp3932
g57
(g58
g59
NtRp3933
(dp3934
g62
(dp3935
g70
I3
ssg71
g3929
sg64
(lp3936
S''
asbasbasbag57
(g73
g59
NtRp3937
(dp3938
g62
(dp3939
sg71
g3833
sg64
(lp3940
g57
(g78
g59
NtRp3941
(dp3942
g62
(dp3943
g82
g83
ssg71
g3937
sg64
(lp3944
g376
asbag57
(g78
g59
NtRp3945
(dp3946
g62
(dp3947
g89
g90
ssg71
g3937
sg64
(lp3948
S':'
asbag57
(g78
g59
NtRp3949
(dp3950
g62
(dp3951
sg71
g3937
sg64
(lp3952
g57
(g58
g59
NtRp3953
(dp3954
g62
(dp3955
g70
I3
ssg71
g3949
sg64
(lp3956
S'/'
asbasbasbag57
(g73
g59
NtRp3957
(dp3958
g62
(dp3959
sg71
g3833
sg64
(lp3960
g57
(g78
g59
NtRp3961
(dp3962
g62
(dp3963
g82
g83
ssg71
g3957
sg64
(lp3964
g397
asbag57
(g78
g59
NtRp3965
(dp3966
g62
(dp3967
g89
g90
ssg71
g3957
sg64
(lp3968
S':'
asbag57
(g78
g59
NtRp3969
(dp3970
g62
(dp3971
sg71
g3957
sg64
(lp3972
g57
(g58
g59
NtRp3973
(dp3974
g62
(dp3975
g70
I3
ssg71
g3969
sg64
(lp3976
S''
asbasbasbag57
(g73
g59
NtRp3977
(dp3978
g62
(dp3979
sg71
g3833
sg64
(lp3980
g57
(g78
g59
NtRp3981
(dp3982
g62
(dp3983
g82
g83
ssg71
g3977
sg64
(lp3984
g418
asbag57
(g78
g59
NtRp3985
(dp3986
g62
(dp3987
g89
g90
ssg71
g3977
sg64
(lp3988
S':'
asbag57
(g78
g59
NtRp3989
(dp3990
g62
(dp3991
sg71
g3977
sg64
(lp3992
g57
(g58
g59
NtRp3993
(dp3994
g62
(dp3995
g70
I3
ssg71
g3989
sg64
(lp3996
S''
asbasbasbasbasbasbasbasbasbasbasbag57
(g73
g59
NtRp3997
(dp3998
g62
(dp3999
sg71
g3763
sg64
(lp4000
g57
(g78
g59
NtRp4001
(dp4002
g62
(dp4003
g82
g83
ssg71
g3997
sg64
(lp4004
S'delimiters'
p4005
asbag57
(g78
g59
NtRp4006
(dp4007
g62
(dp4008
g89
g90
ssg71
g3997
sg64
(lp4009
S':'
asbag57
(g78
g59
NtRp4010
(dp4011
g62
(dp4012
sg71
g3997
sg64
(lp4013
g57
(g58
g59
NtRp4014
(dp4015
g62
(dp4016
g70
I5
ssg71
g4010
sg64
(lp4017
g57
(g66
g59
NtRp4018
(dp4019
g62
(dp4020
g70
I4
ssg71
Nsg64
(lp4021
g57
(g73
g59
NtRp4022
(dp4023
g62
(dp4024
sg71
g4018
sg64
(lp4025
g57
(g78
g59
NtRp4026
(dp4027
g62
(dp4028
sg71
g4022
sg64
(lp4029
g57
(g58
g59
NtRp4030
(dp4031
g62
(dp4032
g70
I4
ssg71
g4026
sg64
(lp4033
S'{{'
p4034
asbasbasbag57
(g73
g59
NtRp4035
(dp4036
g62
(dp4037
sg71
g4018
sg64
(lp4038
g57
(g78
g59
NtRp4039
(dp4040
g62
(dp4041
sg71
g4035
sg64
(lp4042
g57
(g58
g59
NtRp4043
(dp4044
g62
(dp4045
g70
I4
ssg71
g4039
sg64
(lp4046
S'}}'
p4047
asbasbasbasbasbasbasbag57
(g73
g59
NtRp4048
(dp4049
g62
(dp4050
sg71
g3763
sg64
(lp4051
g57
(g78
g59
NtRp4052
(dp4053
g62
(dp4054
g82
g83
ssg71
g4048
sg64
(lp4055
S'files'
p4056
asbag57
(g78
g59
NtRp4057
(dp4058
g62
(dp4059
g89
g90
ssg71
g4048
sg64
(lp4060
S':'
asbag57
(g78
g59
NtRp4061
(dp4062
g62
(dp4063
sg71
g4048
sg64
(lp4064
g57
(g58
g59
NtRp4065
(dp4066
g62
(dp4067
g70
I5
ssg71
g4061
sg64
(lp4068
g57
(g66
g59
NtRp4069
(dp4070
g62
(dp4071
g70
I4
ssg71
Nsg64
(lp4072
sbasbasbasbag57
(g73
g59
NtRp4073
(dp4074
g62
(dp4075
sg71
g3763
sg64
(lp4076
g57
(g78
g59
NtRp4077
(dp4078
g62
(dp4079
g82
g83
ssg71
g4073
sg64
(lp4080
S'flash'
p4081
asbag57
(g78
g59
NtRp4082
(dp4083
g62
(dp4084
g89
g90
ssg71
g4073
sg64
(lp4085
S':'
asbag57
(g78
g59
NtRp4086
(dp4087
g62
(dp4088
sg71
g4073
sg64
(lp4089
g57
(g58
g59
NtRp4090
(dp4091
g62
(dp4092
g70
I5
ssg71
g4086
sg64
(lp4093
S''
asbasbasbag57
(g73
g59
NtRp4094
(dp4095
g62
(dp4096
sg71
g3763
sg64
(lp4097
g57
(g78
g59
NtRp4098
(dp4099
g62
(dp4100
g82
g83
ssg71
g4094
sg64
(lp4101
S'generic_patterns'
p4102
asbag57
(g78
g59
NtRp4103
(dp4104
g62
(dp4105
g89
g90
ssg71
g4094
sg64
(lp4106
S':'
asbag57
(g78
g59
NtRp4107
(dp4108
g62
(dp4109
sg71
g4094
sg64
(lp4110
g57
(g58
g59
NtRp4111
(dp4112
g62
(dp4113
g70
I5
ssg71
g4107
sg64
(lp4114
g57
(g66
g59
NtRp4115
(dp4116
g62
(dp4117
g70
I4
ssg71
Nsg64
(lp4118
g57
(g73
g59
NtRp4119
(dp4120
g62
(dp4121
sg71
g4115
sg64
(lp4122
g57
(g78
g59
NtRp4123
(dp4124
g62
(dp4125
sg71
g4119
sg64
(lp4126
g57
(g58
g59
NtRp4127
(dp4128
g62
(dp4129
g70
I4
ssg71
g4123
sg64
(lp4130
S'*'
asbasbasbasbasbasbasbag57
(g73
g59
NtRp4131
(dp4132
g62
(dp4133
sg71
g3763
sg64
(lp4134
g57
(g78
g59
NtRp4135
(dp4136
g62
(dp4137
g82
g83
ssg71
g4131
sg64
(lp4138
S'headers'
p4139
asbag57
(g78
g59
NtRp4140
(dp4141
g62
(dp4142
g89
g90
ssg71
g4131
sg64
(lp4143
S':'
asbag57
(g78
g59
NtRp4144
(dp4145
g62
(dp4146
sg71
g4131
sg64
(lp4147
g57
(g58
g59
NtRp4148
(dp4149
g62
(dp4150
g70
I5
ssg71
g4144
sg64
(lp4151
g57
(g66
g59
NtRp4152
(dp4153
g62
(dp4154
g70
I4
ssg71
Nsg64
(lp4155
g57
(g73
g59
NtRp4156
(dp4157
g62
(dp4158
sg71
g4152
sg64
(lp4159
g57
(g78
g59
NtRp4160
(dp4161
g62
(dp4162
g82
g83
ssg71
g4156
sg64
(lp4163
S'Cache-Control'
p4164
asbag57
(g78
g59
NtRp4165
(dp4166
g62
(dp4167
g89
g90
ssg71
g4156
sg64
(lp4168
S':'
asbag57
(g78
g59
NtRp4169
(dp4170
g62
(dp4171
sg71
g4156
sg64
(lp4172
g57
(g58
g59
NtRp4173
(dp4174
g62
(dp4175
g70
I4
ssg71
g4169
sg64
(lp4176
S'no-store, no-cache, must-revalidate, post-check=0, pre-check=0'
p4177
asbasbasbag57
(g73
g59
NtRp4178
(dp4179
g62
(dp4180
sg71
g4152
sg64
(lp4181
g57
(g78
g59
NtRp4182
(dp4183
g62
(dp4184
g82
g83
ssg71
g4178
sg64
(lp4185
S'Content-Type'
p4186
asbag57
(g78
g59
NtRp4187
(dp4188
g62
(dp4189
g89
g90
ssg71
g4178
sg64
(lp4190
S':'
asbag57
(g78
g59
NtRp4191
(dp4192
g62
(dp4193
sg71
g4178
sg64
(lp4194
g57
(g58
g59
NtRp4195
(dp4196
g62
(dp4197
g70
I4
ssg71
g4191
sg64
(lp4198
S'text/html; charset=utf-8'
p4199
asbasbasbag57
(g73
g59
NtRp4200
(dp4201
g62
(dp4202
sg71
g4152
sg64
(lp4203
g57
(g78
g59
NtRp4204
(dp4205
g62
(dp4206
g82
g83
ssg71
g4200
sg64
(lp4207
S'Expires'
p4208
asbag57
(g78
g59
NtRp4209
(dp4210
g62
(dp4211
g89
g90
ssg71
g4200
sg64
(lp4212
S':'
asbag57
(g78
g59
NtRp4213
(dp4214
g62
(dp4215
sg71
g4200
sg64
(lp4216
g57
(g58
g59
NtRp4217
(dp4218
g62
(dp4219
g70
I4
ssg71
g4213
sg64
(lp4220
S'Tue, 06 Nov 2012 04:13:27 GMT'
p4221
asbasbasbag57
(g73
g59
NtRp4222
(dp4223
g62
(dp4224
sg71
g4152
sg64
(lp4225
g57
(g78
g59
NtRp4226
(dp4227
g62
(dp4228
g82
g83
ssg71
g4222
sg64
(lp4229
S'Pragma'
p4230
asbag57
(g78
g59
NtRp4231
(dp4232
g62
(dp4233
g89
g90
ssg71
g4222
sg64
(lp4234
S':'
asbag57
(g78
g59
NtRp4235
(dp4236
g62
(dp4237
sg71
g4222
sg64
(lp4238
g57
(g58
g59
NtRp4239
(dp4240
g62
(dp4241
g70
I4
ssg71
g4235
sg64
(lp4242
S'no-cache'
p4243
asbasbasbag57
(g73
g59
NtRp4244
(dp4245
g62
(dp4246
sg71
g4152
sg64
(lp4247
g57
(g78
g59
NtRp4248
(dp4249
g62
(dp4250
g82
g83
ssg71
g4244
sg64
(lp4251
S'X-Powered-By'
p4252
asbag57
(g78
g59
NtRp4253
(dp4254
g62
(dp4255
g89
g90
ssg71
g4244
sg64
(lp4256
S':'
asbag57
(g78
g59
NtRp4257
(dp4258
g62
(dp4259
sg71
g4244
sg64
(lp4260
g57
(g58
g59
NtRp4261
(dp4262
g62
(dp4263
g70
I4
ssg71
g4257
sg64
(lp4264
S'web2py'
p4265
asbasbasbasbasbasbasbag57
(g73
g59
NtRp4266
(dp4267
g62
(dp4268
sg71
g3763
sg64
(lp4269
g57
(g78
g59
NtRp4270
(dp4271
g62
(dp4272
g82
g83
ssg71
g4266
sg64
(lp4273
S'menu'
p4274
asbag57
(g78
g59
NtRp4275
(dp4276
g62
(dp4277
g89
g90
ssg71
g4266
sg64
(lp4278
S':'
asbag57
(g78
g59
NtRp4279
(dp4280
g62
(dp4281
sg71
g4266
sg64
(lp4282
g57
(g58
g59
NtRp4283
(dp4284
g62
(dp4285
g70
I5
ssg71
g4279
sg64
(lp4286
g57
(g66
g59
NtRp4287
(dp4288
g62
(dp4289
g70
I4
ssg71
Nsg64
(lp4290
g57
(g73
g59
NtRp4291
(dp4292
g62
(dp4293
sg71
g4287
sg64
(lp4294
g57
(g78
g59
NtRp4295
(dp4296
g62
(dp4297
sg71
g4291
sg64
(lp4298
g57
(g58
g59
NtRp4299
(dp4300
g62
(dp4301
g70
I4
ssg71
g4295
sg64
(lp4302
g57
(g66
g59
NtRp4303
(dp4304
g62
(dp4305
g70
I3
ssg71
Nsg64
(lp4306
g57
(g73
g59
NtRp4307
(dp4308
g62
(dp4309
sg71
g4303
sg64
(lp4310
g57
(g78
g59
NtRp4311
(dp4312
g62
(dp4313
sg71
g4307
sg64
(lp4314
g57
(g58
g59
NtRp4315
(dp4316
g62
(dp4317
g70
I3
ssg71
g4311
sg64
(lp4318
cgluon.languages
lazyT_unpickle
p4319
(S't\x04\x00\x00\x00Home'
tRp4320
asbasbasbag57
(g73
g59
NtRp4321
(dp4322
g62
(dp4323
sg71
g4303
sg64
(lp4324
g57
(g78
g59
NtRp4325
(dp4326
g62
(dp4327
sg71
g4321
sg64
(lp4328
g57
(g58
g59
NtRp4329
(dp4330
g62
(dp4331
g70
I3
ssg71
g4325
sg64
(lp4332
g100
asbasbasbag57
(g73
g59
NtRp4333
(dp4334
g62
(dp4335
sg71
g4303
sg64
(lp4336
g57
(g78
g59
NtRp4337
(dp4338
g62
(dp4339
sg71
g4333
sg64
(lp4340
g57
(g58
g59
NtRp4341
(dp4342
g62
(dp4343
g70
I3
ssg71
g4337
sg64
(lp4344
S'/manager/default/index'
p4345
asbasbasbasbasbasbasbag57
(g73
g59
NtRp4346
(dp4347
g62
(dp4348
sg71
g4287
sg64
(lp4349
g57
(g78
g59
NtRp4350
(dp4351
g62
(dp4352
sg71
g4346
sg64
(lp4353
g57
(g58
g59
NtRp4354
(dp4355
g62
(dp4356
g70
I4
ssg71
g4350
sg64
(lp4357
g57
(g66
g59
NtRp4358
(dp4359
g62
(dp4360
g70
I3
ssg71
Nsg64
(lp4361
g57
(g73
g59
NtRp4362
(dp4363
g62
(dp4364
sg71
g4358
sg64
(lp4365
g57
(g78
g59
NtRp4366
(dp4367
g62
(dp4368
sg71
g4362
sg64
(lp4369
g57
(g58
g59
NtRp4370
(dp4371
g62
(dp4372
g70
I3
ssg71
g4366
sg64
(lp4373
g4319
(S't\x05\x00\x00\x00About'
tRp4374
asbasbasbag57
(g73
g59
NtRp4375
(dp4376
g62
(dp4377
sg71
g4358
sg64
(lp4378
g57
(g78
g59
NtRp4379
(dp4380
g62
(dp4381
sg71
g4375
sg64
(lp4382
g57
(g58
g59
NtRp4383
(dp4384
g62
(dp4385
g70
I3
ssg71
g4379
sg64
(lp4386
g100
asbasbasbag57
(g73
g59
NtRp4387
(dp4388
g62
(dp4389
sg71
g4358
sg64
(lp4390
g57
(g78
g59
NtRp4391
(dp4392
g62
(dp4393
sg71
g4387
sg64
(lp4394
g57
(g58
g59
NtRp4395
(dp4396
g62
(dp4397
g70
I3
ssg71
g4391
sg64
(lp4398
S'/manager/default/what'
p4399
asbasbasbasbasbasbasbasbasbasbasbag57
(g73
g59
NtRp4400
(dp4401
g62
(dp4402
sg71
g3763
sg64
(lp4403
g57
(g78
g59
NtRp4404
(dp4405
g62
(dp4406
g82
g83
ssg71
g4400
sg64
(lp4407
S'meta'
p4408
asbag57
(g78
g59
NtRp4409
(dp4410
g62
(dp4411
g89
g90
ssg71
g4400
sg64
(lp4412
S':'
asbag57
(g78
g59
NtRp4413
(dp4414
g62
(dp4415
sg71
g4400
sg64
(lp4416
g57
(g58
g59
NtRp4417
(dp4418
g62
(dp4419
g70
I5
ssg71
g4413
sg64
(lp4420
g57
(g66
g59
NtRp4421
(dp4422
g62
(dp4423
g70
I4
ssg71
Nsg64
(lp4424
g57
(g73
g59
NtRp4425
(dp4426
g62
(dp4427
sg71
g4421
sg64
(lp4428
g57
(g78
g59
NtRp4429
(dp4430
g62
(dp4431
g82
g83
ssg71
g4425
sg64
(lp4432
S'author'
p4433
asbag57
(g78
g59
NtRp4434
(dp4435
g62
(dp4436
g89
g90
ssg71
g4425
sg64
(lp4437
S':'
asbag57
(g78
g59
NtRp4438
(dp4439
g62
(dp4440
sg71
g4425
sg64
(lp4441
g57
(g58
g59
NtRp4442
(dp4443
g62
(dp4444
g70
I4
ssg71
g4438
sg64
(lp4445
S'Your Name <you@example.com>'
p4446
asbasbasbag57
(g73
g59
NtRp4447
(dp4448
g62
(dp4449
sg71
g4421
sg64
(lp4450
g57
(g78
g59
NtRp4451
(dp4452
g62
(dp4453
g82
g83
ssg71
g4447
sg64
(lp4454
S'copyright'
p4455
asbag57
(g78
g59
NtRp4456
(dp4457
g62
(dp4458
g89
g90
ssg71
g4447
sg64
(lp4459
S':'
asbag57
(g78
g59
NtRp4460
(dp4461
g62
(dp4462
sg71
g4447
sg64
(lp4463
g57
(g58
g59
NtRp4464
(dp4465
g62
(dp4466
g70
I4
ssg71
g4460
sg64
(lp4467
S'Copyright 2011'
p4468
asbasbasbag57
(g73
g59
NtRp4469
(dp4470
g62
(dp4471
sg71
g4421
sg64
(lp4472
g57
(g78
g59
NtRp4473
(dp4474
g62
(dp4475
g82
g83
ssg71
g4469
sg64
(lp4476
S'description'
p4477
asbag57
(g78
g59
NtRp4478
(dp4479
g62
(dp4480
g89
g90
ssg71
g4469
sg64
(lp4481
S':'
asbag57
(g78
g59
NtRp4482
(dp4483
g62
(dp4484
sg71
g4469
sg64
(lp4485
g57
(g58
g59
NtRp4486
(dp4487
g62
(dp4488
g70
I4
ssg71
g4482
sg64
(lp4489
S'a cool new app'
p4490
asbasbasbag57
(g73
g59
NtRp4491
(dp4492
g62
(dp4493
sg71
g4421
sg64
(lp4494
g57
(g78
g59
NtRp4495
(dp4496
g62
(dp4497
g82
g83
ssg71
g4491
sg64
(lp4498
S'generator'
p4499
asbag57
(g78
g59
NtRp4500
(dp4501
g62
(dp4502
g89
g90
ssg71
g4491
sg64
(lp4503
S':'
asbag57
(g78
g59
NtRp4504
(dp4505
g62
(dp4506
sg71
g4491
sg64
(lp4507
g57
(g58
g59
NtRp4508
(dp4509
g62
(dp4510
g70
I4
ssg71
g4504
sg64
(lp4511
S'Web2py Web Framework'
p4512
asbasbasbag57
(g73
g59
NtRp4513
(dp4514
g62
(dp4515
sg71
g4421
sg64
(lp4516
g57
(g78
g59
NtRp4517
(dp4518
g62
(dp4519
g82
g83
ssg71
g4513
sg64
(lp4520
S'keywords'
p4521
asbag57
(g78
g59
NtRp4522
(dp4523
g62
(dp4524
g89
g90
ssg71
g4513
sg64
(lp4525
S':'
asbag57
(g78
g59
NtRp4526
(dp4527
g62
(dp4528
sg71
g4513
sg64
(lp4529
g57
(g58
g59
NtRp4530
(dp4531
g62
(dp4532
g70
I4
ssg71
g4526
sg64
(lp4533
S'web2py, python, framework'
p4534
asbasbasbasbasbasbasbag57
(g73
g59
NtRp4535
(dp4536
g62
(dp4537
sg71
g3763
sg64
(lp4538
g57
(g78
g59
NtRp4539
(dp4540
g62
(dp4541
g82
g83
ssg71
g4535
sg64
(lp4542
S'postprocessing'
p4543
asbag57
(g78
g59
NtRp4544
(dp4545
g62
(dp4546
g89
g90
ssg71
g4535
sg64
(lp4547
S':'
asbag57
(g78
g59
NtRp4548
(dp4549
g62
(dp4550
sg71
g4535
sg64
(lp4551
g57
(g58
g59
NtRp4552
(dp4553
g62
(dp4554
g70
I5
ssg71
g4548
sg64
(lp4555
g57
(g66
g59
NtRp4556
(dp4557
g62
(dp4558
g70
I4
ssg71
Nsg64
(lp4559
sbasbasbasbag57
(g73
g59
NtRp4560
(dp4561
g62
(dp4562
sg71
g3763
sg64
(lp4563
g57
(g78
g59
NtRp4564
(dp4565
g62
(dp4566
g82
g83
ssg71
g4560
sg64
(lp4567
S'session_file'
p4568
asbag57
(g78
g59
NtRp4569
(dp4570
g62
(dp4571
g89
g90
ssg71
g4560
sg64
(lp4572
S':'
asbag57
(g78
g59
NtRp4573
(dp4574
g62
(dp4575
sg71
g4560
sg64
(lp4576
g57
(g58
g59
NtRp4577
(dp4578
g62
(dp4579
g70
I5
ssg71
g4573
sg64
(lp4580
S"<open file '/home/abhishek/Desktop/web2py/applications/manager/sessions/127.0.0.1-83f49e94-1764-4f07-a75c-c117b06aedbf', mode 'rb+' at 0x1952ed0>"
p4581
asbasbasbag57
(g73
g59
NtRp4582
(dp4583
g62
(dp4584
sg71
g3763
sg64
(lp4585
g57
(g78
g59
NtRp4586
(dp4587
g62
(dp4588
g82
g83
ssg71
g4582
sg64
(lp4589
S'session_filename'
p4590
asbag57
(g78
g59
NtRp4591
(dp4592
g62
(dp4593
g89
g90
ssg71
g4582
sg64
(lp4594
S':'
asbag57
(g78
g59
NtRp4595
(dp4596
g62
(dp4597
sg71
g4582
sg64
(lp4598
g57
(g58
g59
NtRp4599
(dp4600
g62
(dp4601
g70
I5
ssg71
g4595
sg64
(lp4602
S'/home/abhishek/Desktop/web2py/applications/manager/sessions/127.0.0.1-83f49e94-1764-4f07-a75c-c117b06aedbf'
p4603
asbasbasbag57
(g73
g59
NtRp4604
(dp4605
g62
(dp4606
sg71
g3763
sg64
(lp4607
g57
(g78
g59
NtRp4608
(dp4609
g62
(dp4610
g82
g83
ssg71
g4604
sg64
(lp4611
S'session_id'
p4612
asbag57
(g78
g59
NtRp4613
(dp4614
g62
(dp4615
g89
g90
ssg71
g4604
sg64
(lp4616
S':'
asbag57
(g78
g59
NtRp4617
(dp4618
g62
(dp4619
sg71
g4604
sg64
(lp4620
g57
(g58
g59
NtRp4621
(dp4622
g62
(dp4623
g70
I5
ssg71
g4617
sg64
(lp4624
S'127.0.0.1-83f49e94-1764-4f07-a75c-c117b06aedbf'
p4625
asbasbasbag57
(g73
g59
NtRp4626
(dp4627
g62
(dp4628
sg71
g3763
sg64
(lp4629
g57
(g78
g59
NtRp4630
(dp4631
g62
(dp4632
g82
g83
ssg71
g4626
sg64
(lp4633
S'session_id_name'
p4634
asbag57
(g78
g59
NtRp4635
(dp4636
g62
(dp4637
g89
g90
ssg71
g4626
sg64
(lp4638
S':'
asbag57
(g78
g59
NtRp4639
(dp4640
g62
(dp4641
sg71
g4626
sg64
(lp4642
g57
(g58
g59
NtRp4643
(dp4644
g62
(dp4645
g70
I5
ssg71
g4639
sg64
(lp4646
g3820
asbasbasbag57
(g73
g59
NtRp4647
(dp4648
g62
(dp4649
sg71
g3763
sg64
(lp4650
g57
(g78
g59
NtRp4651
(dp4652
g62
(dp4653
g82
g83
ssg71
g4647
sg64
(lp4654
S'session_locked'
p4655
asbag57
(g78
g59
NtRp4656
(dp4657
g62
(dp4658
g89
g90
ssg71
g4647
sg64
(lp4659
S':'
asbag57
(g78
g59
NtRp4660
(dp4661
g62
(dp4662
sg71
g4647
sg64
(lp4663
g57
(g58
g59
NtRp4664
(dp4665
g62
(dp4666
g70
I5
ssg71
g4660
sg64
(lp4667
g1927
asbasbasbag57
(g73
g59
NtRp4668
(dp4669
g62
(dp4670
sg71
g3763
sg64
(lp4671
g57
(g78
g59
NtRp4672
(dp4673
g62
(dp4674
g82
g83
ssg71
g4668
sg64
(lp4675
S'session_new'
p4676
asbag57
(g78
g59
NtRp4677
(dp4678
g62
(dp4679
g89
g90
ssg71
g4668
sg64
(lp4680
S':'
asbag57
(g78
g59
NtRp4681
(dp4682
g62
(dp4683
sg71
g4668
sg64
(lp4684
g57
(g58
g59
NtRp4685
(dp4686
g62
(dp4687
g70
I5
ssg71
g4681
sg64
(lp4688
g100
asbasbasbag57
(g73
g59
NtRp4689
(dp4690
g62
(dp4691
sg71
g3763
sg64
(lp4692
g57
(g78
g59
NtRp4693
(dp4694
g62
(dp4695
g82
g83
ssg71
g4689
sg64
(lp4696
S'status'
p4697
asbag57
(g78
g59
NtRp4698
(dp4699
g62
(dp4700
g89
g90
ssg71
g4689
sg64
(lp4701
S':'
asbag57
(g78
g59
NtRp4702
(dp4703
g62
(dp4704
sg71
g4689
sg64
(lp4705
g57
(g58
g59
NtRp4706
(dp4707
g62
(dp4708
g70
I5
ssg71
g4702
sg64
(lp4709
S'200'
p4710
asbasbasbag57
(g73
g59
NtRp4711
(dp4712
g62
(dp4713
sg71
g3763
sg64
(lp4714
g57
(g78
g59
NtRp4715
(dp4716
g62
(dp4717
g82
g83
ssg71
g4711
sg64
(lp4718
S'subtitle'
p4719
asbag57
(g78
g59
NtRp4720
(dp4721
g62
(dp4722
g89
g90
ssg71
g4711
sg64
(lp4723
S':'
asbag57
(g78
g59
NtRp4724
(dp4725
g62
(dp4726
sg71
g4711
sg64
(lp4727
g57
(g58
g59
NtRp4728
(dp4729
g62
(dp4730
g70
I5
ssg71
g4724
sg64
(lp4731
g4319
(S's\r\x00\x00\x00customize me!'
tRp4732
asbasbasbag57
(g73
g59
NtRp4733
(dp4734
g62
(dp4735
sg71
g3763
sg64
(lp4736
g57
(g78
g59
NtRp4737
(dp4738
g62
(dp4739
g82
g83
ssg71
g4733
sg64
(lp4740
S'title'
p4741
asbag57
(g78
g59
NtRp4742
(dp4743
g62
(dp4744
g89
g90
ssg71
g4733
sg64
(lp4745
S':'
asbag57
(g78
g59
NtRp4746
(dp4747
g62
(dp4748
sg71
g4733
sg64
(lp4749
g57
(g58
g59
NtRp4750
(dp4751
g62
(dp4752
g70
I5
ssg71
g4746
sg64
(lp4753
S'Manager'
p4754
asbasbasbag57
(g73
g59
NtRp4755
(dp4756
g62
(dp4757
sg71
g3763
sg64
(lp4758
g57
(g78
g59
NtRp4759
(dp4760
g62
(dp4761
g82
g83
ssg71
g4755
sg64
(lp4762
g2633
asbag57
(g78
g59
NtRp4763
(dp4764
g62
(dp4765
g89
g90
ssg71
g4755
sg64
(lp4766
S':'
asbag57
(g78
g59
NtRp4767
(dp4768
g62
(dp4769
sg71
g4755
sg64
(lp4770
g57
(g58
g59
NtRp4771
(dp4772
g62
(dp4773
g70
I5
ssg71
g4767
sg64
(lp4774
g2646
asbasbasbag57
(g73
g59
NtRp4775
(dp4776
g62
(dp4777
sg71
g3763
sg64
(lp4778
g57
(g78
g59
NtRp4779
(dp4780
g62
(dp4781
g82
g83
ssg71
g4775
sg64
(lp4782
S'view'
p4783
asbag57
(g78
g59
NtRp4784
(dp4785
g62
(dp4786
g89
g90
ssg71
g4775
sg64
(lp4787
S':'
asbag57
(g78
g59
NtRp4788
(dp4789
g62
(dp4790
sg71
g4775
sg64
(lp4791
g57
(g58
g59
NtRp4792
(dp4793
g62
(dp4794
g70
I5
ssg71
g4788
sg64
(lp4795
S'default/preference.html'
p4796
asbasbasbasbasbsS'locals'
p4797
(dp4798
S'self'
p4799
S'<gluon.dal.SQLiteAdapter object>'
p4800
sS'obj'
p4801
S'<built-in function id>'
p4802
sS'fieldtype'
p4803
S"'string'"
p4804
sssS'traceback'
p4805
S'Traceback (most recent call last):\n  File "/home/abhishek/Desktop/web2py/gluon/restricted.py", line 205, in restricted\n    exec ccode in environment\n  File "/home/abhishek/Desktop/web2py/applications/manager/controllers/default.py", line 294, in <module>\n  File "/home/abhishek/Desktop/web2py/gluon/globals.py", line 173, in <lambda>\n    self._caller = lambda f: f()\n  File "/home/abhishek/Desktop/web2py/applications/manager/controllers/default.py", line 117, in preference\n    next=URL("index"))\n  File "/home/abhishek/Desktop/web2py/gluon/tools.py", line 3172, in create\n    formname=formname,\n  File "/home/abhishek/Desktop/web2py/gluon/tools.py", line 3115, in update\n    detect_record_change = self.settings.detect_record_change):\n  File "/home/abhishek/Desktop/web2py/gluon/sqlhtml.py", line 1274, in accepts\n    self.vars.id = self.table.insert(**fields)\n  File "/home/abhishek/Desktop/web2py/gluon/dal.py", line 6829, in insert\n    return self._db._adapter.insert(self,self._listify(fields))\n  File "/home/abhishek/Desktop/web2py/gluon/dal.py", line 922, in insert\n    query = self._insert(table,fields)\n  File "/home/abhishek/Desktop/web2py/gluon/dal.py", line 918, in _insert\n    values = \',\'.join(self.expand(v,f.type) for f,v in fields)\n  File "/home/abhishek/Desktop/web2py/gluon/dal.py", line 918, in <genexpr>\n    values = \',\'.join(self.expand(v,f.type) for f,v in fields)\n  File "/home/abhishek/Desktop/web2py/gluon/dal.py", line 1054, in expand\n    return str(self.represent(expression,field_type))\n  File "/home/abhishek/Desktop/web2py/gluon/dal.py", line 1396, in represent\n    obj = obj()\nTypeError: id() takes exactly one argument (0 given)\n'
p4806
s.